ARM GAS  C:\Users\mohammed\AppData\Local\Temp\ccG2gzoD.s 			page 1


   1              		.cpu cortex-m0
   2              		.fpu softvfp
   3              		.eabi_attribute 20, 1
   4              		.eabi_attribute 21, 1
   5              		.eabi_attribute 23, 3
   6              		.eabi_attribute 24, 1
   7              		.eabi_attribute 25, 1
   8              		.eabi_attribute 26, 1
   9              		.eabi_attribute 30, 6
  10              		.eabi_attribute 34, 0
  11              		.eabi_attribute 18, 4
  12              		.code	16
  13              		.file	"CYBLE_eventHandler.c"
  14              		.text
  15              	.Ltext0:
  16              		.cfi_sections	.debug_frame
  17              		.comm	cyBle_connHandle,2,4
  18              		.comm	cyBle_eventHandlerFlag,1,1
  19              		.comm	cyBle_busyStatus,1,1
  20              		.comm	cyBle_advertisingIntervalType,1,1
  21              		.global	cyBle_authInfo
  22              		.data
  23              		.align	2
  24              		.type	cyBle_authInfo, %object
  25              		.size	cyBle_authInfo, 5
  26              	cyBle_authInfo:
  27 0000 10       		.byte	16
  28 0001 00       		.byte	0
  29 0002 10       		.byte	16
  30 0003 00       		.byte	0
  31 0004 00       		.byte	0
  32 0005 000000   		.section	.text.CyBle_WriteReqHandler,"ax",%progbits
  33              		.align	2
  34              		.code	16
  35              		.thumb_func
  36              		.type	CyBle_WriteReqHandler, %function
  37              	CyBle_WriteReqHandler:
  38              	.LFB2:
  39              		.file 1 ".\\Generated_Source\\PSoC4\\CYBLE_eventHandler.c"
   1:.\Generated_Source\PSoC4/CYBLE_eventHandler.c **** /***************************************************************************//**
   2:.\Generated_Source\PSoC4/CYBLE_eventHandler.c **** * \file CYBLE_eventHandler.c
   3:.\Generated_Source\PSoC4/CYBLE_eventHandler.c **** * \version 3.10
   4:.\Generated_Source\PSoC4/CYBLE_eventHandler.c **** * 
   5:.\Generated_Source\PSoC4/CYBLE_eventHandler.c **** * \brief
   6:.\Generated_Source\PSoC4/CYBLE_eventHandler.c **** *  This file contains the source code for the Event Handler State Machine
   7:.\Generated_Source\PSoC4/CYBLE_eventHandler.c **** *  of the BLE Component.
   8:.\Generated_Source\PSoC4/CYBLE_eventHandler.c **** * 
   9:.\Generated_Source\PSoC4/CYBLE_eventHandler.c **** ********************************************************************************
  10:.\Generated_Source\PSoC4/CYBLE_eventHandler.c **** * \copyright
  11:.\Generated_Source\PSoC4/CYBLE_eventHandler.c **** * Copyright 2014-2016, Cypress Semiconductor Corporation.  All rights reserved.
  12:.\Generated_Source\PSoC4/CYBLE_eventHandler.c **** * You may use this file only in accordance with the license, terms, conditions,
  13:.\Generated_Source\PSoC4/CYBLE_eventHandler.c **** * disclaimers, and limitations in the end user license agreement accompanying
  14:.\Generated_Source\PSoC4/CYBLE_eventHandler.c **** * the software package with which this file was provided.
  15:.\Generated_Source\PSoC4/CYBLE_eventHandler.c **** *******************************************************************************/
  16:.\Generated_Source\PSoC4/CYBLE_eventHandler.c **** 
  17:.\Generated_Source\PSoC4/CYBLE_eventHandler.c **** #include "CYBLE_eventHandler.h"
  18:.\Generated_Source\PSoC4/CYBLE_eventHandler.c **** 
ARM GAS  C:\Users\mohammed\AppData\Local\Temp\ccG2gzoD.s 			page 2


  19:.\Generated_Source\PSoC4/CYBLE_eventHandler.c **** 
  20:.\Generated_Source\PSoC4/CYBLE_eventHandler.c **** /***************************************
  21:.\Generated_Source\PSoC4/CYBLE_eventHandler.c **** * Private Function Prototypes
  22:.\Generated_Source\PSoC4/CYBLE_eventHandler.c **** ***************************************/
  23:.\Generated_Source\PSoC4/CYBLE_eventHandler.c **** 
  24:.\Generated_Source\PSoC4/CYBLE_eventHandler.c **** static void CyBle_GattDisconnectEventHandler(void);
  25:.\Generated_Source\PSoC4/CYBLE_eventHandler.c **** static void CyBle_TimeOutEventHandler(const CYBLE_TO_REASON_CODE_T *eventParam);
  26:.\Generated_Source\PSoC4/CYBLE_eventHandler.c **** static void CyBle_GattConnectReqHandler(void);
  27:.\Generated_Source\PSoC4/CYBLE_eventHandler.c **** static void CyBle_L2Cap_ConnParamUpdateRspEventHandler(uint16 response);
  28:.\Generated_Source\PSoC4/CYBLE_eventHandler.c **** static void CyBle_GapConnUpdateCompleteEventHandler(const CYBLE_GAP_CONN_PARAM_UPDATED_IN_CONTROLLE
  29:.\Generated_Source\PSoC4/CYBLE_eventHandler.c **** 
  30:.\Generated_Source\PSoC4/CYBLE_eventHandler.c **** 
  31:.\Generated_Source\PSoC4/CYBLE_eventHandler.c **** #if (CYBLE_GATT_ROLE_SERVER)
  32:.\Generated_Source\PSoC4/CYBLE_eventHandler.c **** 
  33:.\Generated_Source\PSoC4/CYBLE_eventHandler.c **** static void CyBle_WriteReqHandler(CYBLE_GATTS_WRITE_REQ_PARAM_T *eventParam);
  34:.\Generated_Source\PSoC4/CYBLE_eventHandler.c **** static void CyBle_ValueConfirmation(const CYBLE_CONN_HANDLE_T *eventParam);
  35:.\Generated_Source\PSoC4/CYBLE_eventHandler.c **** 
  36:.\Generated_Source\PSoC4/CYBLE_eventHandler.c **** #endif /* CYBLE_GATT_ROLE_SERVER */
  37:.\Generated_Source\PSoC4/CYBLE_eventHandler.c **** 
  38:.\Generated_Source\PSoC4/CYBLE_eventHandler.c **** #if (CYBLE_GATT_ROLE_CLIENT)
  39:.\Generated_Source\PSoC4/CYBLE_eventHandler.c **** 
  40:.\Generated_Source\PSoC4/CYBLE_eventHandler.c **** static void CyBle_GapcDiscoverCharacteristicsEventHandler(CYBLE_DISC_CHAR_INFO_T *discCharInfo);
  41:.\Generated_Source\PSoC4/CYBLE_eventHandler.c **** static CYBLE_GATT_ATTR_HANDLE_RANGE_T CyBle_GetCharRange(void);
  42:.\Generated_Source\PSoC4/CYBLE_eventHandler.c **** static void CyBle_GattcWriteResponseEventHandler(const CYBLE_CONN_HANDLE_T *eventParam);
  43:.\Generated_Source\PSoC4/CYBLE_eventHandler.c **** static void CyBle_NotificationEventHandler(CYBLE_GATTC_HANDLE_VALUE_NTF_PARAM_T *eventParam);
  44:.\Generated_Source\PSoC4/CYBLE_eventHandler.c **** static void CyBle_IndicationEventHandler(CYBLE_GATTC_HANDLE_VALUE_IND_PARAM_T *eventParam);
  45:.\Generated_Source\PSoC4/CYBLE_eventHandler.c **** static void CyBle_ReadResponseEventHandler(CYBLE_GATTC_READ_RSP_PARAM_T *eventParam);
  46:.\Generated_Source\PSoC4/CYBLE_eventHandler.c **** static void CyBle_ReadMultipleResponseEventHandler(CYBLE_GATTC_READ_RSP_PARAM_T *eventParam);
  47:.\Generated_Source\PSoC4/CYBLE_eventHandler.c **** 
  48:.\Generated_Source\PSoC4/CYBLE_eventHandler.c **** #endif /* CYBLE_GATT_ROLE_CLIENT */
  49:.\Generated_Source\PSoC4/CYBLE_eventHandler.c **** 
  50:.\Generated_Source\PSoC4/CYBLE_eventHandler.c **** 
  51:.\Generated_Source\PSoC4/CYBLE_eventHandler.c **** /***************************************
  52:.\Generated_Source\PSoC4/CYBLE_eventHandler.c **** * Global Variables
  53:.\Generated_Source\PSoC4/CYBLE_eventHandler.c **** ***************************************/
  54:.\Generated_Source\PSoC4/CYBLE_eventHandler.c **** 
  55:.\Generated_Source\PSoC4/CYBLE_eventHandler.c **** /* This global variable is initialized after connection with peer device, 
  56:.\Generated_Source\PSoC4/CYBLE_eventHandler.c ****    after CYBLE_EVT_GATT_CONNECT_IND event, and could be used by application code
  57:.\Generated_Source\PSoC4/CYBLE_eventHandler.c ****    to send data to peer device. 
  58:.\Generated_Source\PSoC4/CYBLE_eventHandler.c **** */
  59:.\Generated_Source\PSoC4/CYBLE_eventHandler.c **** CYBLE_CONN_HANDLE_T cyBle_connHandle;
  60:.\Generated_Source\PSoC4/CYBLE_eventHandler.c **** 
  61:.\Generated_Source\PSoC4/CYBLE_eventHandler.c **** volatile uint8 cyBle_eventHandlerFlag;
  62:.\Generated_Source\PSoC4/CYBLE_eventHandler.c **** volatile uint8 cyBle_busyStatus;
  63:.\Generated_Source\PSoC4/CYBLE_eventHandler.c **** 
  64:.\Generated_Source\PSoC4/CYBLE_eventHandler.c **** #if(CYBLE_GAP_ROLE_PERIPHERAL || CYBLE_GAP_ROLE_BROADCASTER) 
  65:.\Generated_Source\PSoC4/CYBLE_eventHandler.c ****     uint8 cyBle_advertisingIntervalType;
  66:.\Generated_Source\PSoC4/CYBLE_eventHandler.c **** #endif /* CYBLE_GAP_ROLE_PERIPHERAL || CYBLE_GAP_ROLE_BROADCASTER) */
  67:.\Generated_Source\PSoC4/CYBLE_eventHandler.c **** 
  68:.\Generated_Source\PSoC4/CYBLE_eventHandler.c **** #if(CYBLE_GAP_ROLE_CENTRAL || CYBLE_GAP_ROLE_OBSERVER) 
  69:.\Generated_Source\PSoC4/CYBLE_eventHandler.c ****     uint8 cyBle_scanningIntervalType;
  70:.\Generated_Source\PSoC4/CYBLE_eventHandler.c **** #endif /* CYBLE_GAP_ROLE_CENTRAL || CYBLE_GAP_ROLE_OBSERVER */
  71:.\Generated_Source\PSoC4/CYBLE_eventHandler.c **** 
  72:.\Generated_Source\PSoC4/CYBLE_eventHandler.c **** #if(CYBLE_GATT_ROLE_SERVER)
  73:.\Generated_Source\PSoC4/CYBLE_eventHandler.c **** #if defined CYBLE_CTS_SERVER || defined CYBLE_ESS_SERVER
  74:.\Generated_Source\PSoC4/CYBLE_eventHandler.c **** CYBLE_GATT_ERR_CODE_T cyBle_gattError;
  75:.\Generated_Source\PSoC4/CYBLE_eventHandler.c **** #endif /* defined CYBLE_CTS_SERVER || defined CYBLE_ESS_SERVER */
ARM GAS  C:\Users\mohammed\AppData\Local\Temp\ccG2gzoD.s 			page 3


  76:.\Generated_Source\PSoC4/CYBLE_eventHandler.c **** #endif /* CYBLE_GATT_ROLE_SERVER */
  77:.\Generated_Source\PSoC4/CYBLE_eventHandler.c **** 
  78:.\Generated_Source\PSoC4/CYBLE_eventHandler.c **** #if(CYBLE_GATT_ROLE_CLIENT)
  79:.\Generated_Source\PSoC4/CYBLE_eventHandler.c **** uint8 cyBle_disCount; /* Counter for discovery procedures */
  80:.\Generated_Source\PSoC4/CYBLE_eventHandler.c **** 
  81:.\Generated_Source\PSoC4/CYBLE_eventHandler.c **** #ifdef CYBLE_CUSTOM_CLIENT
  82:.\Generated_Source\PSoC4/CYBLE_eventHandler.c **** /* Discovery included service information, used for 128-bit UUID read response handle 
  83:.\Generated_Source\PSoC4/CYBLE_eventHandler.c ****    and for continue discovery. 
  84:.\Generated_Source\PSoC4/CYBLE_eventHandler.c **** */
  85:.\Generated_Source\PSoC4/CYBLE_eventHandler.c **** static CYBLE_DISC_INCL_INFO_T cyBle_discInclInfo;
  86:.\Generated_Source\PSoC4/CYBLE_eventHandler.c **** #endif /* CYBLE_CUSTOM_CLIENT */
  87:.\Generated_Source\PSoC4/CYBLE_eventHandler.c **** 
  88:.\Generated_Source\PSoC4/CYBLE_eventHandler.c **** #ifdef CYBLE_HIDS_CLIENT
  89:.\Generated_Source\PSoC4/CYBLE_eventHandler.c ****     static uint8 disServiceIndex;      /* To discovery descriptors for multiple HID service instanc
  90:.\Generated_Source\PSoC4/CYBLE_eventHandler.c **** #endif /* CYBLE_HIDS_CLIENT */
  91:.\Generated_Source\PSoC4/CYBLE_eventHandler.c **** 
  92:.\Generated_Source\PSoC4/CYBLE_eventHandler.c **** CYBLE_DISC_SRVC_INFO_T cyBle_serverInfo[CYBLE_SRVI_COUNT] = /*6*/
  93:.\Generated_Source\PSoC4/CYBLE_eventHandler.c **** {
  94:.\Generated_Source\PSoC4/CYBLE_eventHandler.c ****     {{CYBLE_GATT_INVALID_ATTR_HANDLE_VALUE, CYBLE_GATT_INVALID_ATTR_HANDLE_VALUE}, CYBLE_UUID_GAP_S
  95:.\Generated_Source\PSoC4/CYBLE_eventHandler.c ****     {{CYBLE_GATT_INVALID_ATTR_HANDLE_VALUE, CYBLE_GATT_INVALID_ATTR_HANDLE_VALUE}, CYBLE_UUID_GATT_
  96:.\Generated_Source\PSoC4/CYBLE_eventHandler.c **** #ifdef CYBLE_ANCS_CLIENT
  97:.\Generated_Source\PSoC4/CYBLE_eventHandler.c ****     {{CYBLE_GATT_INVALID_ATTR_HANDLE_VALUE, CYBLE_GATT_INVALID_ATTR_HANDLE_VALUE}, 0x0000u},
  98:.\Generated_Source\PSoC4/CYBLE_eventHandler.c **** #endif /* CYBLE_ANCS_CLIENT */
  99:.\Generated_Source\PSoC4/CYBLE_eventHandler.c **** #ifdef CYBLE_ANS_CLIENT
 100:.\Generated_Source\PSoC4/CYBLE_eventHandler.c ****     {{CYBLE_GATT_INVALID_ATTR_HANDLE_VALUE, CYBLE_GATT_INVALID_ATTR_HANDLE_VALUE}, 
 101:.\Generated_Source\PSoC4/CYBLE_eventHandler.c ****         CYBLE_UUID_ALERT_NOTIFICATION_SERVICE},
 102:.\Generated_Source\PSoC4/CYBLE_eventHandler.c **** #endif /* CYBLE_ANS_CLIENT */
 103:.\Generated_Source\PSoC4/CYBLE_eventHandler.c **** #ifdef CYBLE_BAS_CLIENT
 104:.\Generated_Source\PSoC4/CYBLE_eventHandler.c ****     {{CYBLE_GATT_INVALID_ATTR_HANDLE_VALUE, CYBLE_GATT_INVALID_ATTR_HANDLE_VALUE}, CYBLE_UUID_BAS_S
 105:.\Generated_Source\PSoC4/CYBLE_eventHandler.c ****     #if(CYBLE_BASC_SERVICE_COUNT > 1u) /* Generate it by GUI */
 106:.\Generated_Source\PSoC4/CYBLE_eventHandler.c ****         
 107:.\Generated_Source\PSoC4/CYBLE_eventHandler.c ****     #endif /* CYBLE_BASC_SERVICE_COUNT > 1u */
 108:.\Generated_Source\PSoC4/CYBLE_eventHandler.c **** #endif /* CYBLE_BAS_CLIENT */
 109:.\Generated_Source\PSoC4/CYBLE_eventHandler.c **** #ifdef CYBLE_BCS_CLIENT
 110:.\Generated_Source\PSoC4/CYBLE_eventHandler.c ****     {{CYBLE_GATT_INVALID_ATTR_HANDLE_VALUE, CYBLE_GATT_INVALID_ATTR_HANDLE_VALUE}, CYBLE_UUID_BODY_
 111:.\Generated_Source\PSoC4/CYBLE_eventHandler.c **** #endif /* CYBLE_BCS_CLIENT */
 112:.\Generated_Source\PSoC4/CYBLE_eventHandler.c **** #ifdef CYBLE_BLS_CLIENT
 113:.\Generated_Source\PSoC4/CYBLE_eventHandler.c ****     {{CYBLE_GATT_INVALID_ATTR_HANDLE_VALUE, CYBLE_GATT_INVALID_ATTR_HANDLE_VALUE}, CYBLE_UUID_BLOOD
 114:.\Generated_Source\PSoC4/CYBLE_eventHandler.c **** #endif /* CYBLE_BLS_CLIENT */
 115:.\Generated_Source\PSoC4/CYBLE_eventHandler.c **** #ifdef CYBLE_BMS_CLIENT
 116:.\Generated_Source\PSoC4/CYBLE_eventHandler.c ****     {{CYBLE_GATT_INVALID_ATTR_HANDLE_VALUE, CYBLE_GATT_INVALID_ATTR_HANDLE_VALUE}, CYBLE_UUID_BOND_
 117:.\Generated_Source\PSoC4/CYBLE_eventHandler.c **** #endif /* CYBLE_BMS_CLIENT */
 118:.\Generated_Source\PSoC4/CYBLE_eventHandler.c **** #ifdef CYBLE_CGMS_CLIENT
 119:.\Generated_Source\PSoC4/CYBLE_eventHandler.c ****     {{CYBLE_GATT_INVALID_ATTR_HANDLE_VALUE, CYBLE_GATT_INVALID_ATTR_HANDLE_VALUE}, CYBLE_UUID_CGM_S
 120:.\Generated_Source\PSoC4/CYBLE_eventHandler.c **** #endif /* CYBLE_CGMS_CLIENT */
 121:.\Generated_Source\PSoC4/CYBLE_eventHandler.c **** #ifdef CYBLE_CPS_CLIENT
 122:.\Generated_Source\PSoC4/CYBLE_eventHandler.c ****     {{CYBLE_GATT_INVALID_ATTR_HANDLE_VALUE, CYBLE_GATT_INVALID_ATTR_HANDLE_VALUE}, CYBLE_UUID_CPS_S
 123:.\Generated_Source\PSoC4/CYBLE_eventHandler.c **** #endif /* CYBLE_CPS_CLIENT */
 124:.\Generated_Source\PSoC4/CYBLE_eventHandler.c **** #ifdef CYBLE_CSCS_CLIENT
 125:.\Generated_Source\PSoC4/CYBLE_eventHandler.c ****     {{CYBLE_GATT_INVALID_ATTR_HANDLE_VALUE, CYBLE_GATT_INVALID_ATTR_HANDLE_VALUE}, 
 126:.\Generated_Source\PSoC4/CYBLE_eventHandler.c ****         CYBLE_UUID_CYCLING_SPEED_AND_CADENCE_SERVICE},
 127:.\Generated_Source\PSoC4/CYBLE_eventHandler.c **** #endif /* CYBLE_CSCS_CLIENT */
 128:.\Generated_Source\PSoC4/CYBLE_eventHandler.c **** #ifdef CYBLE_CTS_CLIENT
 129:.\Generated_Source\PSoC4/CYBLE_eventHandler.c ****     {{CYBLE_GATT_INVALID_ATTR_HANDLE_VALUE, CYBLE_GATT_INVALID_ATTR_HANDLE_VALUE}, CYBLE_UUID_CURRE
 130:.\Generated_Source\PSoC4/CYBLE_eventHandler.c **** #endif /* CYBLE_CTS_CLIENT */
 131:.\Generated_Source\PSoC4/CYBLE_eventHandler.c **** #ifdef CYBLE_CUSTOM_CLIENT
 132:.\Generated_Source\PSoC4/CYBLE_eventHandler.c ****     
ARM GAS  C:\Users\mohammed\AppData\Local\Temp\ccG2gzoD.s 			page 4


 133:.\Generated_Source\PSoC4/CYBLE_eventHandler.c **** #endif /* CYBLE_CUSTOM_CLIENT */
 134:.\Generated_Source\PSoC4/CYBLE_eventHandler.c **** #ifdef CYBLE_DIS_CLIENT
 135:.\Generated_Source\PSoC4/CYBLE_eventHandler.c ****     {{CYBLE_GATT_INVALID_ATTR_HANDLE_VALUE, CYBLE_GATT_INVALID_ATTR_HANDLE_VALUE}, CYBLE_UUID_DEVIC
 136:.\Generated_Source\PSoC4/CYBLE_eventHandler.c **** #endif /* CYBLE_DIS_CLIENT */
 137:.\Generated_Source\PSoC4/CYBLE_eventHandler.c **** #ifdef CYBLE_ESS_CLIENT
 138:.\Generated_Source\PSoC4/CYBLE_eventHandler.c ****     {{CYBLE_GATT_INVALID_ATTR_HANDLE_VALUE, CYBLE_GATT_INVALID_ATTR_HANDLE_VALUE}, 
 139:.\Generated_Source\PSoC4/CYBLE_eventHandler.c ****         CYBLE_UUID_ENVIRONMENTAL_SENSING_SERVICE},
 140:.\Generated_Source\PSoC4/CYBLE_eventHandler.c **** #endif /* CYBLE_ESS_CLIENT */
 141:.\Generated_Source\PSoC4/CYBLE_eventHandler.c **** #ifdef CYBLE_GLS_CLIENT
 142:.\Generated_Source\PSoC4/CYBLE_eventHandler.c ****     {{CYBLE_GATT_INVALID_ATTR_HANDLE_VALUE, CYBLE_GATT_INVALID_ATTR_HANDLE_VALUE}, CYBLE_UUID_GLUCO
 143:.\Generated_Source\PSoC4/CYBLE_eventHandler.c **** #endif /* CYBLE_GLS_CLIENT */
 144:.\Generated_Source\PSoC4/CYBLE_eventHandler.c **** #ifdef CYBLE_HIDS_CLIENT
 145:.\Generated_Source\PSoC4/CYBLE_eventHandler.c ****     {{CYBLE_GATT_INVALID_ATTR_HANDLE_VALUE, CYBLE_GATT_INVALID_ATTR_HANDLE_VALUE}, CYBLE_UUID_HIDS_
 146:.\Generated_Source\PSoC4/CYBLE_eventHandler.c ****     #if(CYBLE_HIDSC_SERVICE_COUNT > 1u) /* Generate it by GUI */
 147:.\Generated_Source\PSoC4/CYBLE_eventHandler.c ****         
 148:.\Generated_Source\PSoC4/CYBLE_eventHandler.c ****     #endif /* CYBLE_HIDSC_SERVICE_COUNT > 1u */
 149:.\Generated_Source\PSoC4/CYBLE_eventHandler.c **** #endif /* CYBLE_HIDS_CLIENT */
 150:.\Generated_Source\PSoC4/CYBLE_eventHandler.c **** #ifdef CYBLE_HPS_CLIENT
 151:.\Generated_Source\PSoC4/CYBLE_eventHandler.c ****     {{CYBLE_GATT_INVALID_ATTR_HANDLE_VALUE, CYBLE_GATT_INVALID_ATTR_HANDLE_VALUE}, CYBLE_UUID_HTTP_
 152:.\Generated_Source\PSoC4/CYBLE_eventHandler.c **** #endif /* CYBLE_HPS_CLIENT */
 153:.\Generated_Source\PSoC4/CYBLE_eventHandler.c **** #ifdef CYBLE_HRS_CLIENT
 154:.\Generated_Source\PSoC4/CYBLE_eventHandler.c ****     {{CYBLE_GATT_INVALID_ATTR_HANDLE_VALUE, CYBLE_GATT_INVALID_ATTR_HANDLE_VALUE}, CYBLE_UUID_HEART
 155:.\Generated_Source\PSoC4/CYBLE_eventHandler.c **** #endif /* CYBLE_HRS_CLIENT */
 156:.\Generated_Source\PSoC4/CYBLE_eventHandler.c **** #ifdef CYBLE_HTS_CLIENT
 157:.\Generated_Source\PSoC4/CYBLE_eventHandler.c ****     {{CYBLE_GATT_INVALID_ATTR_HANDLE_VALUE, CYBLE_GATT_INVALID_ATTR_HANDLE_VALUE}, CYBLE_UUID_HEALT
 158:.\Generated_Source\PSoC4/CYBLE_eventHandler.c **** #endif /* CYBLE_HTS_CLIENT */
 159:.\Generated_Source\PSoC4/CYBLE_eventHandler.c **** #ifdef CYBLE_IAS_CLIENT
 160:.\Generated_Source\PSoC4/CYBLE_eventHandler.c ****     {{CYBLE_GATT_INVALID_ATTR_HANDLE_VALUE, CYBLE_GATT_INVALID_ATTR_HANDLE_VALUE}, CYBLE_UUID_IMMED
 161:.\Generated_Source\PSoC4/CYBLE_eventHandler.c **** #endif /* CYBLE_IAS_CLIENT */
 162:.\Generated_Source\PSoC4/CYBLE_eventHandler.c **** #ifdef CYBLE_IPS_CLIENT
 163:.\Generated_Source\PSoC4/CYBLE_eventHandler.c ****     {{CYBLE_GATT_INVALID_ATTR_HANDLE_VALUE, CYBLE_GATT_INVALID_ATTR_HANDLE_VALUE}, CYBLE_UUID_IPS_S
 164:.\Generated_Source\PSoC4/CYBLE_eventHandler.c **** #endif /* CYBLE_IPS_CLIENT */
 165:.\Generated_Source\PSoC4/CYBLE_eventHandler.c **** #ifdef CYBLE_LLS_CLIENT
 166:.\Generated_Source\PSoC4/CYBLE_eventHandler.c ****     {{CYBLE_GATT_INVALID_ATTR_HANDLE_VALUE, CYBLE_GATT_INVALID_ATTR_HANDLE_VALUE}, CYBLE_UUID_LINK_
 167:.\Generated_Source\PSoC4/CYBLE_eventHandler.c **** #endif /* CYBLE_LLS_CLIENT */
 168:.\Generated_Source\PSoC4/CYBLE_eventHandler.c **** #ifdef CYBLE_LNS_CLIENT
 169:.\Generated_Source\PSoC4/CYBLE_eventHandler.c ****     {{CYBLE_GATT_INVALID_ATTR_HANDLE_VALUE, CYBLE_GATT_INVALID_ATTR_HANDLE_VALUE}, CYBLE_UUID_LOCAT
 170:.\Generated_Source\PSoC4/CYBLE_eventHandler.c **** #endif /* CYBLE_LNS_CLIENT */
 171:.\Generated_Source\PSoC4/CYBLE_eventHandler.c **** #ifdef CYBLE_NDCS_CLIENT
 172:.\Generated_Source\PSoC4/CYBLE_eventHandler.c ****     {{CYBLE_GATT_INVALID_ATTR_HANDLE_VALUE, CYBLE_GATT_INVALID_ATTR_HANDLE_VALUE}, CYBLE_UUID_NEXT_
 173:.\Generated_Source\PSoC4/CYBLE_eventHandler.c **** #endif /* CYBLE_NDCS_CLIENT */
 174:.\Generated_Source\PSoC4/CYBLE_eventHandler.c **** #ifdef CYBLE_IPSS_CLIENT
 175:.\Generated_Source\PSoC4/CYBLE_eventHandler.c ****     {{CYBLE_GATT_INVALID_ATTR_HANDLE_VALUE, CYBLE_GATT_INVALID_ATTR_HANDLE_VALUE}, CYBLE_UUID_INTER
 176:.\Generated_Source\PSoC4/CYBLE_eventHandler.c **** #endif /* CYBLE_IPSS_CLIENT */
 177:.\Generated_Source\PSoC4/CYBLE_eventHandler.c **** #ifdef CYBLE_PASS_CLIENT
 178:.\Generated_Source\PSoC4/CYBLE_eventHandler.c ****     {{CYBLE_GATT_INVALID_ATTR_HANDLE_VALUE, CYBLE_GATT_INVALID_ATTR_HANDLE_VALUE}, CYBLE_UUID_PHONE
 179:.\Generated_Source\PSoC4/CYBLE_eventHandler.c **** #endif /* CYBLE_PASS_CLIENT */
 180:.\Generated_Source\PSoC4/CYBLE_eventHandler.c **** #ifdef CYBLE_RSCS_CLIENT
 181:.\Generated_Source\PSoC4/CYBLE_eventHandler.c ****     {{CYBLE_GATT_INVALID_ATTR_HANDLE_VALUE, CYBLE_GATT_INVALID_ATTR_HANDLE_VALUE}, CYBLE_UUID_RUNNI
 182:.\Generated_Source\PSoC4/CYBLE_eventHandler.c **** #endif /* CYBLE_RSCS_CLIENT */
 183:.\Generated_Source\PSoC4/CYBLE_eventHandler.c **** #ifdef CYBLE_RTUS_CLIENT
 184:.\Generated_Source\PSoC4/CYBLE_eventHandler.c ****     {{CYBLE_GATT_INVALID_ATTR_HANDLE_VALUE, CYBLE_GATT_INVALID_ATTR_HANDLE_VALUE}, CYBLE_UUID_REF_T
 185:.\Generated_Source\PSoC4/CYBLE_eventHandler.c **** #endif /* CYBLE_RTUS_CLIENT */
 186:.\Generated_Source\PSoC4/CYBLE_eventHandler.c **** #ifdef CYBLE_SCPS_CLIENT
 187:.\Generated_Source\PSoC4/CYBLE_eventHandler.c ****     {{CYBLE_GATT_INVALID_ATTR_HANDLE_VALUE, CYBLE_GATT_INVALID_ATTR_HANDLE_VALUE}, CYBLE_UUID_SCAN_
 188:.\Generated_Source\PSoC4/CYBLE_eventHandler.c **** #endif /* CYBLE_SCPS_CLIENT */
 189:.\Generated_Source\PSoC4/CYBLE_eventHandler.c **** #ifdef CYBLE_TPS_CLIENT
ARM GAS  C:\Users\mohammed\AppData\Local\Temp\ccG2gzoD.s 			page 5


 190:.\Generated_Source\PSoC4/CYBLE_eventHandler.c ****     {{CYBLE_GATT_INVALID_ATTR_HANDLE_VALUE, CYBLE_GATT_INVALID_ATTR_HANDLE_VALUE}, CYBLE_UUID_TX_PO
 191:.\Generated_Source\PSoC4/CYBLE_eventHandler.c **** #endif /* CYBLE_TPS_CLIENT */
 192:.\Generated_Source\PSoC4/CYBLE_eventHandler.c **** #ifdef CYBLE_UDS_CLIENT
 193:.\Generated_Source\PSoC4/CYBLE_eventHandler.c ****     {{CYBLE_GATT_INVALID_ATTR_HANDLE_VALUE, CYBLE_GATT_INVALID_ATTR_HANDLE_VALUE}, CYBLE_UUID_USER_
 194:.\Generated_Source\PSoC4/CYBLE_eventHandler.c **** #endif /* CYBLE_UDS_CLIENT */
 195:.\Generated_Source\PSoC4/CYBLE_eventHandler.c **** #ifdef CYBLE_WSS_CLIENT
 196:.\Generated_Source\PSoC4/CYBLE_eventHandler.c ****     {{CYBLE_GATT_INVALID_ATTR_HANDLE_VALUE, CYBLE_GATT_INVALID_ATTR_HANDLE_VALUE}, CYBLE_UUID_WEIGH
 197:.\Generated_Source\PSoC4/CYBLE_eventHandler.c **** #endif /* CYBLE_WSS_CLIENT */
 198:.\Generated_Source\PSoC4/CYBLE_eventHandler.c **** #ifdef CYBLE_WPTS_CLIENT
 199:.\Generated_Source\PSoC4/CYBLE_eventHandler.c ****     {{CYBLE_GATT_INVALID_ATTR_HANDLE_VALUE, CYBLE_GATT_INVALID_ATTR_HANDLE_VALUE}, CYBLE_UUID_WIREL
 200:.\Generated_Source\PSoC4/CYBLE_eventHandler.c **** #endif /* CYBLE_WPTS_CLIENT */
 201:.\Generated_Source\PSoC4/CYBLE_eventHandler.c **** };
 202:.\Generated_Source\PSoC4/CYBLE_eventHandler.c **** 
 203:.\Generated_Source\PSoC4/CYBLE_eventHandler.c **** CYBLE_GAPC_T cyBle_gapc;
 204:.\Generated_Source\PSoC4/CYBLE_eventHandler.c **** 
 205:.\Generated_Source\PSoC4/CYBLE_eventHandler.c **** #endif /* CYBLE_GATT_ROLE_CLIENT */
 206:.\Generated_Source\PSoC4/CYBLE_eventHandler.c **** 
 207:.\Generated_Source\PSoC4/CYBLE_eventHandler.c **** /* Default device security */
 208:.\Generated_Source\PSoC4/CYBLE_eventHandler.c **** CYBLE_GAP_AUTH_INFO_T cyBle_authInfo =
 209:.\Generated_Source\PSoC4/CYBLE_eventHandler.c **** {
 210:.\Generated_Source\PSoC4/CYBLE_eventHandler.c ****     (CYBLE_GAP_SEC_MODE_1 | CYBLE_GAP_SEC_LEVEL_1 ), /* uint8 security */
 211:.\Generated_Source\PSoC4/CYBLE_eventHandler.c ****     CYBLE_GAP_BONDING_NONE, /* uint8 bonding */
 212:.\Generated_Source\PSoC4/CYBLE_eventHandler.c ****     0x10u,      /* uint8 ekeySize */
 213:.\Generated_Source\PSoC4/CYBLE_eventHandler.c ****     CYBLE_GAP_AUTH_ERROR_NONE, /* CYBLE_AUTH_FAILED_REASON_T authErr */
 214:.\Generated_Source\PSoC4/CYBLE_eventHandler.c ****     0x00u,      /* uint8 pairingProperties */
 215:.\Generated_Source\PSoC4/CYBLE_eventHandler.c **** };
 216:.\Generated_Source\PSoC4/CYBLE_eventHandler.c **** 
 217:.\Generated_Source\PSoC4/CYBLE_eventHandler.c **** #if(CYBLE_GATT_ROLE_SERVER)
 218:.\Generated_Source\PSoC4/CYBLE_eventHandler.c **** 
 219:.\Generated_Source\PSoC4/CYBLE_eventHandler.c **** 
 220:.\Generated_Source\PSoC4/CYBLE_eventHandler.c **** /******************************************************************************    
 221:.\Generated_Source\PSoC4/CYBLE_eventHandler.c **** * Function Name: CyBle_WriteReqHandler
 222:.\Generated_Source\PSoC4/CYBLE_eventHandler.c **** ***************************************************************************//**
 223:.\Generated_Source\PSoC4/CYBLE_eventHandler.c **** * 
 224:.\Generated_Source\PSoC4/CYBLE_eventHandler.c **** *  Handles the Write Request event from BLE stack.
 225:.\Generated_Source\PSoC4/CYBLE_eventHandler.c **** * 
 226:.\Generated_Source\PSoC4/CYBLE_eventHandler.c **** *  CYBLE_GATTS_WRITE_REQ_PARAM_T * eventParam - event parameter
 227:.\Generated_Source\PSoC4/CYBLE_eventHandler.c **** * 
 228:.\Generated_Source\PSoC4/CYBLE_eventHandler.c **** * \return
 229:.\Generated_Source\PSoC4/CYBLE_eventHandler.c **** *  None
 230:.\Generated_Source\PSoC4/CYBLE_eventHandler.c **** * 
 231:.\Generated_Source\PSoC4/CYBLE_eventHandler.c **** ******************************************************************************/
 232:.\Generated_Source\PSoC4/CYBLE_eventHandler.c **** static void CyBle_WriteReqHandler(CYBLE_GATTS_WRITE_REQ_PARAM_T *eventParam)
 233:.\Generated_Source\PSoC4/CYBLE_eventHandler.c **** {
  40              		.loc 1 233 0
  41              		.cfi_startproc
  42 0000 90B5     		push	{r4, r7, lr}
  43              		.cfi_def_cfa_offset 12
  44              		.cfi_offset 4, -12
  45              		.cfi_offset 7, -8
  46              		.cfi_offset 14, -4
  47 0002 85B0     		sub	sp, sp, #20
  48              		.cfi_def_cfa_offset 32
  49 0004 00AF     		add	r7, sp, #0
  50              		.cfi_def_cfa_register 7
  51 0006 7860     		str	r0, [r7, #4]
 234:.\Generated_Source\PSoC4/CYBLE_eventHandler.c ****     CYBLE_GATT_ERR_CODE_T gattErr;
ARM GAS  C:\Users\mohammed\AppData\Local\Temp\ccG2gzoD.s 			page 6


 235:.\Generated_Source\PSoC4/CYBLE_eventHandler.c **** #if defined CYBLE_CTS_SERVER || defined CYBLE_ESS_SERVER
 236:.\Generated_Source\PSoC4/CYBLE_eventHandler.c ****     cyBle_gattError = CYBLE_GATT_ERR_NONE;
 237:.\Generated_Source\PSoC4/CYBLE_eventHandler.c **** #endif /* defined CYBLE_CTS_SERVER || defined CYBLE_ESS_SERVER */
 238:.\Generated_Source\PSoC4/CYBLE_eventHandler.c ****     
 239:.\Generated_Source\PSoC4/CYBLE_eventHandler.c ****     gattErr = CyBle_GattsWriteEventHandler(eventParam);
  52              		.loc 1 239 0
  53 0008 0F23     		mov	r3, #15
  54 000a FC18     		add	r4, r7, r3
  55 000c 7B68     		ldr	r3, [r7, #4]
  56 000e 181C     		mov	r0, r3
  57 0010 FFF7FEFF 		bl	CyBle_GattsWriteEventHandler
  58 0014 031C     		mov	r3, r0
  59 0016 2370     		strb	r3, [r4]
 240:.\Generated_Source\PSoC4/CYBLE_eventHandler.c **** #ifdef CYBLE_ANCS_SERVER
 241:.\Generated_Source\PSoC4/CYBLE_eventHandler.c ****     if(((cyBle_eventHandlerFlag & CYBLE_CALLBACK) != 0u) && (gattErr == CYBLE_GATT_ERR_NONE))
 242:.\Generated_Source\PSoC4/CYBLE_eventHandler.c ****     {
 243:.\Generated_Source\PSoC4/CYBLE_eventHandler.c ****         gattErr = CyBle_AncssWriteEventHandler(eventParam);
 244:.\Generated_Source\PSoC4/CYBLE_eventHandler.c ****     }
 245:.\Generated_Source\PSoC4/CYBLE_eventHandler.c **** #endif /* CYBLE_ANCS_SERVER */
 246:.\Generated_Source\PSoC4/CYBLE_eventHandler.c **** #ifdef CYBLE_ANS_SERVER
 247:.\Generated_Source\PSoC4/CYBLE_eventHandler.c ****     if(((cyBle_eventHandlerFlag & CYBLE_CALLBACK) != 0u) && (gattErr == CYBLE_GATT_ERR_NONE))
 248:.\Generated_Source\PSoC4/CYBLE_eventHandler.c ****     {
 249:.\Generated_Source\PSoC4/CYBLE_eventHandler.c ****         gattErr = CyBle_AnssWriteEventHandler(eventParam);
 250:.\Generated_Source\PSoC4/CYBLE_eventHandler.c ****     }
 251:.\Generated_Source\PSoC4/CYBLE_eventHandler.c **** #endif /* CYBLE_ANS_SERVER */
 252:.\Generated_Source\PSoC4/CYBLE_eventHandler.c **** #ifdef CYBLE_BAS_SERVER
 253:.\Generated_Source\PSoC4/CYBLE_eventHandler.c ****     if(((cyBle_eventHandlerFlag & CYBLE_CALLBACK) != 0u) && (gattErr == CYBLE_GATT_ERR_NONE))
 254:.\Generated_Source\PSoC4/CYBLE_eventHandler.c ****     {
 255:.\Generated_Source\PSoC4/CYBLE_eventHandler.c ****         gattErr = CyBle_BassWriteEventHandler(eventParam);
 256:.\Generated_Source\PSoC4/CYBLE_eventHandler.c ****     }
 257:.\Generated_Source\PSoC4/CYBLE_eventHandler.c **** #endif /* CYBLE_BAS_SERVER */
 258:.\Generated_Source\PSoC4/CYBLE_eventHandler.c **** #ifdef CYBLE_BCS_SERVER
 259:.\Generated_Source\PSoC4/CYBLE_eventHandler.c ****     if(((cyBle_eventHandlerFlag & CYBLE_CALLBACK) != 0u) && (gattErr == CYBLE_GATT_ERR_NONE))
 260:.\Generated_Source\PSoC4/CYBLE_eventHandler.c ****     {
 261:.\Generated_Source\PSoC4/CYBLE_eventHandler.c ****         gattErr = CyBle_BcssWriteEventHandler(eventParam);
 262:.\Generated_Source\PSoC4/CYBLE_eventHandler.c ****     }
 263:.\Generated_Source\PSoC4/CYBLE_eventHandler.c **** #endif /* CYBLE_BCS_SERVER */
 264:.\Generated_Source\PSoC4/CYBLE_eventHandler.c **** #ifdef CYBLE_BLS_SERVER
 265:.\Generated_Source\PSoC4/CYBLE_eventHandler.c ****     if(((cyBle_eventHandlerFlag & CYBLE_CALLBACK) != 0u) && (gattErr == CYBLE_GATT_ERR_NONE))
 266:.\Generated_Source\PSoC4/CYBLE_eventHandler.c ****     {
 267:.\Generated_Source\PSoC4/CYBLE_eventHandler.c ****         gattErr = CyBle_BlssWriteEventHandler(eventParam);
 268:.\Generated_Source\PSoC4/CYBLE_eventHandler.c ****     }
 269:.\Generated_Source\PSoC4/CYBLE_eventHandler.c **** #endif /* CYBLE_BLS_SERVER */
 270:.\Generated_Source\PSoC4/CYBLE_eventHandler.c **** #ifdef CYBLE_BMS_SERVER
 271:.\Generated_Source\PSoC4/CYBLE_eventHandler.c ****     if(((cyBle_eventHandlerFlag & CYBLE_CALLBACK) != 0u) && (gattErr == CYBLE_GATT_ERR_NONE))
 272:.\Generated_Source\PSoC4/CYBLE_eventHandler.c ****     {
 273:.\Generated_Source\PSoC4/CYBLE_eventHandler.c ****         gattErr = CyBle_BmssWriteEventHandler(eventParam);
 274:.\Generated_Source\PSoC4/CYBLE_eventHandler.c ****     }
 275:.\Generated_Source\PSoC4/CYBLE_eventHandler.c **** #endif /* CYBLE_BMS_SERVER */
 276:.\Generated_Source\PSoC4/CYBLE_eventHandler.c **** #ifdef CYBLE_BTS_SERVER
 277:.\Generated_Source\PSoC4/CYBLE_eventHandler.c ****     if((cyBle_eventHandlerFlag & CYBLE_CALLBACK) != 0u)
 278:.\Generated_Source\PSoC4/CYBLE_eventHandler.c ****     {
 279:.\Generated_Source\PSoC4/CYBLE_eventHandler.c ****         gattErr = CyBle_BtsWriteEventHandler(eventParam);
 280:.\Generated_Source\PSoC4/CYBLE_eventHandler.c ****     }
 281:.\Generated_Source\PSoC4/CYBLE_eventHandler.c **** #endif /* CYBLE_BTS_SERVER */
 282:.\Generated_Source\PSoC4/CYBLE_eventHandler.c **** #ifdef CYBLE_CGMS_SERVER
 283:.\Generated_Source\PSoC4/CYBLE_eventHandler.c ****     if(((cyBle_eventHandlerFlag & CYBLE_CALLBACK) != 0u) && (gattErr == CYBLE_GATT_ERR_NONE))
ARM GAS  C:\Users\mohammed\AppData\Local\Temp\ccG2gzoD.s 			page 7


 284:.\Generated_Source\PSoC4/CYBLE_eventHandler.c ****     {
 285:.\Generated_Source\PSoC4/CYBLE_eventHandler.c ****         gattErr = CyBle_CgmssWriteEventHandler(eventParam);
 286:.\Generated_Source\PSoC4/CYBLE_eventHandler.c ****     }
 287:.\Generated_Source\PSoC4/CYBLE_eventHandler.c **** #endif /* CYBLE_CGMS_SERVER */
 288:.\Generated_Source\PSoC4/CYBLE_eventHandler.c **** #ifdef CYBLE_CPS_SERVER
 289:.\Generated_Source\PSoC4/CYBLE_eventHandler.c ****     if(((cyBle_eventHandlerFlag & CYBLE_CALLBACK) != 0u) && (gattErr == CYBLE_GATT_ERR_NONE))
 290:.\Generated_Source\PSoC4/CYBLE_eventHandler.c ****     {
 291:.\Generated_Source\PSoC4/CYBLE_eventHandler.c ****         gattErr = CyBle_CpssWriteEventHandler(eventParam);
 292:.\Generated_Source\PSoC4/CYBLE_eventHandler.c ****     }
 293:.\Generated_Source\PSoC4/CYBLE_eventHandler.c **** #endif /* CYBLE_CPS_SERVER */
 294:.\Generated_Source\PSoC4/CYBLE_eventHandler.c **** #ifdef CYBLE_CSCS_SERVER
 295:.\Generated_Source\PSoC4/CYBLE_eventHandler.c ****     if(((cyBle_eventHandlerFlag & CYBLE_CALLBACK) != 0u) && (gattErr == CYBLE_GATT_ERR_NONE))
 296:.\Generated_Source\PSoC4/CYBLE_eventHandler.c ****     {
 297:.\Generated_Source\PSoC4/CYBLE_eventHandler.c ****         gattErr = CyBle_CscssWriteEventHandler(eventParam);
 298:.\Generated_Source\PSoC4/CYBLE_eventHandler.c ****     }
 299:.\Generated_Source\PSoC4/CYBLE_eventHandler.c **** #endif /* CYBLE_CSCS_SERVER */
 300:.\Generated_Source\PSoC4/CYBLE_eventHandler.c **** #ifdef CYBLE_CTS_SERVER
 301:.\Generated_Source\PSoC4/CYBLE_eventHandler.c ****     if(((cyBle_eventHandlerFlag & CYBLE_CALLBACK) != 0u) && (gattErr == CYBLE_GATT_ERR_NONE))
 302:.\Generated_Source\PSoC4/CYBLE_eventHandler.c ****     {
 303:.\Generated_Source\PSoC4/CYBLE_eventHandler.c ****         gattErr = CyBle_CtssWriteEventHandler(eventParam);
 304:.\Generated_Source\PSoC4/CYBLE_eventHandler.c ****     }
 305:.\Generated_Source\PSoC4/CYBLE_eventHandler.c **** #endif /* CYBLE_CTS_SERVER */
 306:.\Generated_Source\PSoC4/CYBLE_eventHandler.c **** #ifdef CYBLE_ESS_SERVER
 307:.\Generated_Source\PSoC4/CYBLE_eventHandler.c ****     if(((cyBle_eventHandlerFlag & CYBLE_CALLBACK) != 0u) && (gattErr == CYBLE_GATT_ERR_NONE))
 308:.\Generated_Source\PSoC4/CYBLE_eventHandler.c ****     {
 309:.\Generated_Source\PSoC4/CYBLE_eventHandler.c ****         gattErr = CyBle_EsssWriteEventHandler(eventParam);
 310:.\Generated_Source\PSoC4/CYBLE_eventHandler.c ****     }
 311:.\Generated_Source\PSoC4/CYBLE_eventHandler.c **** #endif /* CYBLE_ESS_SERVER */
 312:.\Generated_Source\PSoC4/CYBLE_eventHandler.c **** #ifdef CYBLE_GLS_SERVER
 313:.\Generated_Source\PSoC4/CYBLE_eventHandler.c ****     if(((cyBle_eventHandlerFlag & CYBLE_CALLBACK) != 0u) && (gattErr == CYBLE_GATT_ERR_NONE))
 314:.\Generated_Source\PSoC4/CYBLE_eventHandler.c ****     {
 315:.\Generated_Source\PSoC4/CYBLE_eventHandler.c ****         gattErr = CyBle_GlssWriteEventHandler(eventParam);
 316:.\Generated_Source\PSoC4/CYBLE_eventHandler.c ****     }
 317:.\Generated_Source\PSoC4/CYBLE_eventHandler.c **** #endif /* CYBLE_GLS_SERVER */
 318:.\Generated_Source\PSoC4/CYBLE_eventHandler.c **** #ifdef CYBLE_HIDS_SERVER
 319:.\Generated_Source\PSoC4/CYBLE_eventHandler.c ****     if(((cyBle_eventHandlerFlag & CYBLE_CALLBACK) != 0u) && (gattErr == CYBLE_GATT_ERR_NONE))
 320:.\Generated_Source\PSoC4/CYBLE_eventHandler.c ****     {
 321:.\Generated_Source\PSoC4/CYBLE_eventHandler.c ****         gattErr = CyBle_HidssWriteEventHandler(eventParam);
 322:.\Generated_Source\PSoC4/CYBLE_eventHandler.c ****     }
 323:.\Generated_Source\PSoC4/CYBLE_eventHandler.c **** #endif /* CYBLE_HIDS_SERVER */
 324:.\Generated_Source\PSoC4/CYBLE_eventHandler.c **** #ifdef CYBLE_HPS_SERVER
 325:.\Generated_Source\PSoC4/CYBLE_eventHandler.c ****     if(((cyBle_eventHandlerFlag & CYBLE_CALLBACK) != 0u) && (gattErr == CYBLE_GATT_ERR_NONE))
 326:.\Generated_Source\PSoC4/CYBLE_eventHandler.c ****     {
 327:.\Generated_Source\PSoC4/CYBLE_eventHandler.c ****         gattErr = CyBle_HpssWriteEventHandler(eventParam);
 328:.\Generated_Source\PSoC4/CYBLE_eventHandler.c ****     }
 329:.\Generated_Source\PSoC4/CYBLE_eventHandler.c **** #endif /* CYBLE_HPS_SERVER */
 330:.\Generated_Source\PSoC4/CYBLE_eventHandler.c **** #ifdef CYBLE_HRS_SERVER
 331:.\Generated_Source\PSoC4/CYBLE_eventHandler.c ****     if(((cyBle_eventHandlerFlag & CYBLE_CALLBACK) != 0u) && (gattErr == CYBLE_GATT_ERR_NONE))
 332:.\Generated_Source\PSoC4/CYBLE_eventHandler.c ****     {
 333:.\Generated_Source\PSoC4/CYBLE_eventHandler.c ****         gattErr = CyBle_HrssWriteEventHandler(eventParam);
 334:.\Generated_Source\PSoC4/CYBLE_eventHandler.c ****     }
 335:.\Generated_Source\PSoC4/CYBLE_eventHandler.c **** #endif /* CYBLE_HRS_SERVER */
 336:.\Generated_Source\PSoC4/CYBLE_eventHandler.c **** #ifdef CYBLE_HTS_SERVER
 337:.\Generated_Source\PSoC4/CYBLE_eventHandler.c ****     if(((cyBle_eventHandlerFlag & CYBLE_CALLBACK) != 0u) && (gattErr == CYBLE_GATT_ERR_NONE))
 338:.\Generated_Source\PSoC4/CYBLE_eventHandler.c ****     {
 339:.\Generated_Source\PSoC4/CYBLE_eventHandler.c ****         gattErr = CyBle_HtssWriteEventHandler(eventParam);
 340:.\Generated_Source\PSoC4/CYBLE_eventHandler.c ****     }
ARM GAS  C:\Users\mohammed\AppData\Local\Temp\ccG2gzoD.s 			page 8


 341:.\Generated_Source\PSoC4/CYBLE_eventHandler.c **** #endif /* CYBLE_HTS_SERVER */
 342:.\Generated_Source\PSoC4/CYBLE_eventHandler.c **** #ifdef CYBLE_IPS_SERVER
 343:.\Generated_Source\PSoC4/CYBLE_eventHandler.c ****     if(((cyBle_eventHandlerFlag & CYBLE_CALLBACK) != 0u) && (gattErr == CYBLE_GATT_ERR_NONE))
 344:.\Generated_Source\PSoC4/CYBLE_eventHandler.c ****     {
 345:.\Generated_Source\PSoC4/CYBLE_eventHandler.c ****         gattErr = CyBle_IpssWriteEventHandler(eventParam);
 346:.\Generated_Source\PSoC4/CYBLE_eventHandler.c ****     }
 347:.\Generated_Source\PSoC4/CYBLE_eventHandler.c **** #endif /* CYBLE_IPS_SERVER */
 348:.\Generated_Source\PSoC4/CYBLE_eventHandler.c **** #ifdef CYBLE_LLS_SERVER
 349:.\Generated_Source\PSoC4/CYBLE_eventHandler.c ****     if(((cyBle_eventHandlerFlag & CYBLE_CALLBACK) != 0u) && (gattErr == CYBLE_GATT_ERR_NONE))
  60              		.loc 1 349 0
  61 0018 324B     		ldr	r3, .L7
  62 001a 1B78     		ldrb	r3, [r3]
  63 001c DBB2     		uxtb	r3, r3
  64 001e 1A1C     		mov	r2, r3
  65 0020 0123     		mov	r3, #1
  66 0022 1340     		and	r3, r2
  67 0024 0CD0     		beq	.L2
  68              		.loc 1 349 0 is_stmt 0 discriminator 1
  69 0026 0F23     		mov	r3, #15
  70 0028 FB18     		add	r3, r7, r3
  71 002a 1B78     		ldrb	r3, [r3]
  72 002c 002B     		cmp	r3, #0
  73 002e 07D1     		bne	.L2
 350:.\Generated_Source\PSoC4/CYBLE_eventHandler.c ****     {
 351:.\Generated_Source\PSoC4/CYBLE_eventHandler.c ****         gattErr = CyBle_LlssWriteEventHandler(eventParam);
  74              		.loc 1 351 0 is_stmt 1
  75 0030 0F23     		mov	r3, #15
  76 0032 FC18     		add	r4, r7, r3
  77 0034 7B68     		ldr	r3, [r7, #4]
  78 0036 181C     		mov	r0, r3
  79 0038 FFF7FEFF 		bl	CyBle_LlssWriteEventHandler
  80 003c 031C     		mov	r3, r0
  81 003e 2370     		strb	r3, [r4]
  82              	.L2:
 352:.\Generated_Source\PSoC4/CYBLE_eventHandler.c ****     }
 353:.\Generated_Source\PSoC4/CYBLE_eventHandler.c **** #endif /* CYBLE_LLS_SERVER */
 354:.\Generated_Source\PSoC4/CYBLE_eventHandler.c **** #ifdef CYBLE_LNS_SERVER
 355:.\Generated_Source\PSoC4/CYBLE_eventHandler.c ****     if(((cyBle_eventHandlerFlag & CYBLE_CALLBACK) != 0u) && (gattErr == CYBLE_GATT_ERR_NONE))
 356:.\Generated_Source\PSoC4/CYBLE_eventHandler.c ****     {
 357:.\Generated_Source\PSoC4/CYBLE_eventHandler.c ****         gattErr = CyBle_LnssWriteEventHandler(eventParam);
 358:.\Generated_Source\PSoC4/CYBLE_eventHandler.c ****     }
 359:.\Generated_Source\PSoC4/CYBLE_eventHandler.c **** #endif /* CYBLE_LNS_SERVER */
 360:.\Generated_Source\PSoC4/CYBLE_eventHandler.c **** #ifdef CYBLE_PASS_SERVER
 361:.\Generated_Source\PSoC4/CYBLE_eventHandler.c ****     if(((cyBle_eventHandlerFlag & CYBLE_CALLBACK) != 0u) && (gattErr == CYBLE_GATT_ERR_NONE))
 362:.\Generated_Source\PSoC4/CYBLE_eventHandler.c ****     {
 363:.\Generated_Source\PSoC4/CYBLE_eventHandler.c ****         gattErr = CyBle_PasssWriteEventHandler(eventParam);
 364:.\Generated_Source\PSoC4/CYBLE_eventHandler.c ****     }
 365:.\Generated_Source\PSoC4/CYBLE_eventHandler.c **** #endif /* CYBLE_PASS_SERVER */
 366:.\Generated_Source\PSoC4/CYBLE_eventHandler.c **** #ifdef CYBLE_RSCS_SERVER
 367:.\Generated_Source\PSoC4/CYBLE_eventHandler.c ****     if(((cyBle_eventHandlerFlag & CYBLE_CALLBACK) != 0u) && (gattErr == CYBLE_GATT_ERR_NONE))
 368:.\Generated_Source\PSoC4/CYBLE_eventHandler.c ****     {
 369:.\Generated_Source\PSoC4/CYBLE_eventHandler.c ****         gattErr = CyBle_RscssWriteEventHandler(eventParam);
 370:.\Generated_Source\PSoC4/CYBLE_eventHandler.c ****     }
 371:.\Generated_Source\PSoC4/CYBLE_eventHandler.c **** #endif /* CYBLE_RSCS_SERVER */
 372:.\Generated_Source\PSoC4/CYBLE_eventHandler.c **** #ifdef CYBLE_SCPS_SERVER
 373:.\Generated_Source\PSoC4/CYBLE_eventHandler.c ****     if(((cyBle_eventHandlerFlag & CYBLE_CALLBACK) != 0u) && (gattErr == CYBLE_GATT_ERR_NONE))
 374:.\Generated_Source\PSoC4/CYBLE_eventHandler.c ****     {
ARM GAS  C:\Users\mohammed\AppData\Local\Temp\ccG2gzoD.s 			page 9


 375:.\Generated_Source\PSoC4/CYBLE_eventHandler.c ****         gattErr = CyBle_ScpssWriteEventHandler(eventParam);
 376:.\Generated_Source\PSoC4/CYBLE_eventHandler.c ****     }
 377:.\Generated_Source\PSoC4/CYBLE_eventHandler.c **** #endif /* CYBLE_SCPS_SERVER */
 378:.\Generated_Source\PSoC4/CYBLE_eventHandler.c **** #ifdef CYBLE_TPS_SERVER
 379:.\Generated_Source\PSoC4/CYBLE_eventHandler.c ****     if(((cyBle_eventHandlerFlag & CYBLE_CALLBACK) != 0u) && (gattErr == CYBLE_GATT_ERR_NONE))
  83              		.loc 1 379 0
  84 0040 284B     		ldr	r3, .L7
  85 0042 1B78     		ldrb	r3, [r3]
  86 0044 DBB2     		uxtb	r3, r3
  87 0046 1A1C     		mov	r2, r3
  88 0048 0123     		mov	r3, #1
  89 004a 1340     		and	r3, r2
  90 004c 0CD0     		beq	.L3
  91              		.loc 1 379 0 is_stmt 0 discriminator 1
  92 004e 0F23     		mov	r3, #15
  93 0050 FB18     		add	r3, r7, r3
  94 0052 1B78     		ldrb	r3, [r3]
  95 0054 002B     		cmp	r3, #0
  96 0056 07D1     		bne	.L3
 380:.\Generated_Source\PSoC4/CYBLE_eventHandler.c ****     {
 381:.\Generated_Source\PSoC4/CYBLE_eventHandler.c ****         gattErr = CyBle_TpssWriteEventHandler(eventParam);
  97              		.loc 1 381 0 is_stmt 1
  98 0058 0F23     		mov	r3, #15
  99 005a FC18     		add	r4, r7, r3
 100 005c 7B68     		ldr	r3, [r7, #4]
 101 005e 181C     		mov	r0, r3
 102 0060 FFF7FEFF 		bl	CyBle_TpssWriteEventHandler
 103 0064 031C     		mov	r3, r0
 104 0066 2370     		strb	r3, [r4]
 105              	.L3:
 382:.\Generated_Source\PSoC4/CYBLE_eventHandler.c ****     }
 383:.\Generated_Source\PSoC4/CYBLE_eventHandler.c **** #endif /* CYBLE_TPS_SERVER */
 384:.\Generated_Source\PSoC4/CYBLE_eventHandler.c **** #ifdef CYBLE_UDS_SERVER
 385:.\Generated_Source\PSoC4/CYBLE_eventHandler.c ****     if(((cyBle_eventHandlerFlag & CYBLE_CALLBACK) != 0u) && (gattErr == CYBLE_GATT_ERR_NONE))
 106              		.loc 1 385 0
 107 0068 1E4B     		ldr	r3, .L7
 108 006a 1B78     		ldrb	r3, [r3]
 109 006c DBB2     		uxtb	r3, r3
 110 006e 1A1C     		mov	r2, r3
 111 0070 0123     		mov	r3, #1
 112 0072 1340     		and	r3, r2
 113 0074 0CD0     		beq	.L4
 114              		.loc 1 385 0 is_stmt 0 discriminator 1
 115 0076 0F23     		mov	r3, #15
 116 0078 FB18     		add	r3, r7, r3
 117 007a 1B78     		ldrb	r3, [r3]
 118 007c 002B     		cmp	r3, #0
 119 007e 07D1     		bne	.L4
 386:.\Generated_Source\PSoC4/CYBLE_eventHandler.c ****     {
 387:.\Generated_Source\PSoC4/CYBLE_eventHandler.c ****         gattErr = CyBle_UdssWriteEventHandler(eventParam);
 120              		.loc 1 387 0 is_stmt 1
 121 0080 0F23     		mov	r3, #15
 122 0082 FC18     		add	r4, r7, r3
 123 0084 7B68     		ldr	r3, [r7, #4]
 124 0086 181C     		mov	r0, r3
 125 0088 FFF7FEFF 		bl	CyBle_UdssWriteEventHandler
 126 008c 031C     		mov	r3, r0
ARM GAS  C:\Users\mohammed\AppData\Local\Temp\ccG2gzoD.s 			page 10


 127 008e 2370     		strb	r3, [r4]
 128              	.L4:
 388:.\Generated_Source\PSoC4/CYBLE_eventHandler.c ****     }
 389:.\Generated_Source\PSoC4/CYBLE_eventHandler.c **** #endif /* CYBLE_UDS_SERVER */
 390:.\Generated_Source\PSoC4/CYBLE_eventHandler.c **** #ifdef CYBLE_WPTS_SERVER
 391:.\Generated_Source\PSoC4/CYBLE_eventHandler.c ****     if(((cyBle_eventHandlerFlag & CYBLE_CALLBACK) != 0u) && (gattErr == CYBLE_GATT_ERR_NONE))
 392:.\Generated_Source\PSoC4/CYBLE_eventHandler.c ****     {
 393:.\Generated_Source\PSoC4/CYBLE_eventHandler.c ****         gattErr = CyBle_WptssWriteEventHandler(eventParam);
 394:.\Generated_Source\PSoC4/CYBLE_eventHandler.c ****     }
 395:.\Generated_Source\PSoC4/CYBLE_eventHandler.c **** #endif /* CYBLE_WPTS_SERVER */
 396:.\Generated_Source\PSoC4/CYBLE_eventHandler.c **** #ifdef CYBLE_WSS_SERVER
 397:.\Generated_Source\PSoC4/CYBLE_eventHandler.c ****     if(((cyBle_eventHandlerFlag & CYBLE_CALLBACK) != 0u) && (gattErr == CYBLE_GATT_ERR_NONE))
 398:.\Generated_Source\PSoC4/CYBLE_eventHandler.c ****     {
 399:.\Generated_Source\PSoC4/CYBLE_eventHandler.c ****         gattErr = CyBle_WsssWriteEventHandler(eventParam);
 400:.\Generated_Source\PSoC4/CYBLE_eventHandler.c ****     }
 401:.\Generated_Source\PSoC4/CYBLE_eventHandler.c **** #endif /* CYBLE_WSS_SERVER */
 402:.\Generated_Source\PSoC4/CYBLE_eventHandler.c **** 
 403:.\Generated_Source\PSoC4/CYBLE_eventHandler.c ****     /* Send response when event was handled by service */
 404:.\Generated_Source\PSoC4/CYBLE_eventHandler.c ****     if((cyBle_eventHandlerFlag & CYBLE_CALLBACK) == 0u)
 129              		.loc 1 404 0
 130 0090 144B     		ldr	r3, .L7
 131 0092 1B78     		ldrb	r3, [r3]
 132 0094 DBB2     		uxtb	r3, r3
 133 0096 1A1C     		mov	r2, r3
 134 0098 0123     		mov	r3, #1
 135 009a 1340     		and	r3, r2
 136 009c 1FD1     		bne	.L1
 405:.\Generated_Source\PSoC4/CYBLE_eventHandler.c ****     {
 406:.\Generated_Source\PSoC4/CYBLE_eventHandler.c ****         if(gattErr != CYBLE_GATT_ERR_NONE)
 137              		.loc 1 406 0
 138 009e 0F23     		mov	r3, #15
 139 00a0 FB18     		add	r3, r7, r3
 140 00a2 1B78     		ldrb	r3, [r3]
 141 00a4 002B     		cmp	r3, #0
 142 00a6 16D0     		beq	.L6
 143              	.LBB2:
 407:.\Generated_Source\PSoC4/CYBLE_eventHandler.c ****         {
 408:.\Generated_Source\PSoC4/CYBLE_eventHandler.c ****             CYBLE_GATTS_ERR_PARAM_T err_param;
 409:.\Generated_Source\PSoC4/CYBLE_eventHandler.c ****             
 410:.\Generated_Source\PSoC4/CYBLE_eventHandler.c ****             err_param.opcode = (uint8) CYBLE_GATT_WRITE_REQ;
 144              		.loc 1 410 0
 145 00a8 0823     		mov	r3, #8
 146 00aa FB18     		add	r3, r7, r3
 147 00ac 1222     		mov	r2, #18
 148 00ae 9A70     		strb	r2, [r3, #2]
 411:.\Generated_Source\PSoC4/CYBLE_eventHandler.c ****             err_param.attrHandle = eventParam->handleValPair.attrHandle;
 149              		.loc 1 411 0
 150 00b0 7B68     		ldr	r3, [r7, #4]
 151 00b2 9A89     		ldrh	r2, [r3, #12]
 152 00b4 0823     		mov	r3, #8
 153 00b6 FB18     		add	r3, r7, r3
 154 00b8 1A80     		strh	r2, [r3]
 412:.\Generated_Source\PSoC4/CYBLE_eventHandler.c ****             err_param.errorCode = gattErr;
 155              		.loc 1 412 0
 156 00ba 0823     		mov	r3, #8
 157 00bc FB18     		add	r3, r7, r3
 158 00be 0F22     		mov	r2, #15
ARM GAS  C:\Users\mohammed\AppData\Local\Temp\ccG2gzoD.s 			page 11


 159 00c0 BA18     		add	r2, r7, r2
 160 00c2 1278     		ldrb	r2, [r2]
 161 00c4 DA70     		strb	r2, [r3, #3]
 413:.\Generated_Source\PSoC4/CYBLE_eventHandler.c **** 
 414:.\Generated_Source\PSoC4/CYBLE_eventHandler.c ****             /* Send Error Response */
 415:.\Generated_Source\PSoC4/CYBLE_eventHandler.c ****             (void)CyBle_GattsErrorRsp(eventParam->connHandle, &err_param);
 162              		.loc 1 415 0
 163 00c6 7B68     		ldr	r3, [r7, #4]
 164 00c8 0822     		mov	r2, #8
 165 00ca BA18     		add	r2, r7, r2
 166 00cc 1868     		ldr	r0, [r3]
 167 00ce 111C     		mov	r1, r2
 168 00d0 FFF7FEFF 		bl	CyBle_GattsErrorRsp
 169              	.LBE2:
 170 00d4 03E0     		b	.L1
 171              	.L6:
 416:.\Generated_Source\PSoC4/CYBLE_eventHandler.c ****         }
 417:.\Generated_Source\PSoC4/CYBLE_eventHandler.c ****         else
 418:.\Generated_Source\PSoC4/CYBLE_eventHandler.c ****         {
 419:.\Generated_Source\PSoC4/CYBLE_eventHandler.c ****             (void)CyBle_GattsWriteRsp(eventParam->connHandle);
 172              		.loc 1 419 0
 173 00d6 7B68     		ldr	r3, [r7, #4]
 174 00d8 1868     		ldr	r0, [r3]
 175 00da FFF7FEFF 		bl	CyBle_GattsWriteRsp
 176              	.L1:
 420:.\Generated_Source\PSoC4/CYBLE_eventHandler.c ****         }
 421:.\Generated_Source\PSoC4/CYBLE_eventHandler.c ****     }
 422:.\Generated_Source\PSoC4/CYBLE_eventHandler.c **** }
 177              		.loc 1 422 0
 178 00de BD46     		mov	sp, r7
 179 00e0 05B0     		add	sp, sp, #20
 180              		@ sp needed
 181 00e2 90BD     		pop	{r4, r7, pc}
 182              	.L8:
 183              		.align	2
 184              	.L7:
 185 00e4 00000000 		.word	cyBle_eventHandlerFlag
 186              		.cfi_endproc
 187              	.LFE2:
 188              		.size	CyBle_WriteReqHandler, .-CyBle_WriteReqHandler
 189              		.section	.text.CyBle_ValueConfirmation,"ax",%progbits
 190              		.align	2
 191              		.code	16
 192              		.thumb_func
 193              		.type	CyBle_ValueConfirmation, %function
 194              	CyBle_ValueConfirmation:
 195              	.LFB3:
 423:.\Generated_Source\PSoC4/CYBLE_eventHandler.c **** 
 424:.\Generated_Source\PSoC4/CYBLE_eventHandler.c **** 
 425:.\Generated_Source\PSoC4/CYBLE_eventHandler.c **** /****************************************************************************** 
 426:.\Generated_Source\PSoC4/CYBLE_eventHandler.c **** * Function Name: CyBle_ValueConfirmation
 427:.\Generated_Source\PSoC4/CYBLE_eventHandler.c **** ***************************************************************************//**
 428:.\Generated_Source\PSoC4/CYBLE_eventHandler.c **** * 
 429:.\Generated_Source\PSoC4/CYBLE_eventHandler.c **** *  Handles the Value Confirmation request event from the BLE stack.
 430:.\Generated_Source\PSoC4/CYBLE_eventHandler.c **** * 
 431:.\Generated_Source\PSoC4/CYBLE_eventHandler.c **** *  \param eventParam: Pointer to a structure of type 'CYBLE_CONN_HANDLE_T'
 432:.\Generated_Source\PSoC4/CYBLE_eventHandler.c **** * 
ARM GAS  C:\Users\mohammed\AppData\Local\Temp\ccG2gzoD.s 			page 12


 433:.\Generated_Source\PSoC4/CYBLE_eventHandler.c **** * \return
 434:.\Generated_Source\PSoC4/CYBLE_eventHandler.c **** *  None
 435:.\Generated_Source\PSoC4/CYBLE_eventHandler.c **** * 
 436:.\Generated_Source\PSoC4/CYBLE_eventHandler.c **** ******************************************************************************/
 437:.\Generated_Source\PSoC4/CYBLE_eventHandler.c **** static void CyBle_ValueConfirmation(const CYBLE_CONN_HANDLE_T *eventParam)
 438:.\Generated_Source\PSoC4/CYBLE_eventHandler.c **** {
 196              		.loc 1 438 0
 197              		.cfi_startproc
 198 0000 80B5     		push	{r7, lr}
 199              		.cfi_def_cfa_offset 8
 200              		.cfi_offset 7, -8
 201              		.cfi_offset 14, -4
 202 0002 82B0     		sub	sp, sp, #8
 203              		.cfi_def_cfa_offset 16
 204 0004 00AF     		add	r7, sp, #0
 205              		.cfi_def_cfa_register 7
 206 0006 7860     		str	r0, [r7, #4]
 439:.\Generated_Source\PSoC4/CYBLE_eventHandler.c ****     if(eventParam != NULL)
 207              		.loc 1 439 0
 208 0008 7B68     		ldr	r3, [r7, #4]
 209 000a 002B     		cmp	r3, #0
 210 000c 0AD0     		beq	.L9
 440:.\Generated_Source\PSoC4/CYBLE_eventHandler.c ****     {
 441:.\Generated_Source\PSoC4/CYBLE_eventHandler.c ****     #ifdef CYBLE_BCS_SERVER
 442:.\Generated_Source\PSoC4/CYBLE_eventHandler.c ****         CyBle_BcssConfirmationEventHandler(eventParam);
 443:.\Generated_Source\PSoC4/CYBLE_eventHandler.c ****     #endif /* CYBLE_BCS_SERVER */
 444:.\Generated_Source\PSoC4/CYBLE_eventHandler.c ****     #ifdef CYBLE_BLS_SERVER
 445:.\Generated_Source\PSoC4/CYBLE_eventHandler.c ****         if((cyBle_eventHandlerFlag & CYBLE_CALLBACK) != 0u)
 446:.\Generated_Source\PSoC4/CYBLE_eventHandler.c ****         {
 447:.\Generated_Source\PSoC4/CYBLE_eventHandler.c ****             CyBle_BlssConfirmationEventHandler(eventParam);
 448:.\Generated_Source\PSoC4/CYBLE_eventHandler.c ****         }
 449:.\Generated_Source\PSoC4/CYBLE_eventHandler.c ****     #endif /* CYBLE_BLS_SERVER */
 450:.\Generated_Source\PSoC4/CYBLE_eventHandler.c ****     
 451:.\Generated_Source\PSoC4/CYBLE_eventHandler.c ****     #ifdef CYBLE_CGMS_SERVER
 452:.\Generated_Source\PSoC4/CYBLE_eventHandler.c ****         if((cyBle_eventHandlerFlag & CYBLE_CALLBACK) != 0u)
 453:.\Generated_Source\PSoC4/CYBLE_eventHandler.c ****         {
 454:.\Generated_Source\PSoC4/CYBLE_eventHandler.c ****             CyBle_CgmssConfirmationEventHandler(eventParam);
 455:.\Generated_Source\PSoC4/CYBLE_eventHandler.c ****         }
 456:.\Generated_Source\PSoC4/CYBLE_eventHandler.c ****     #endif /* CYBLE_CGMS_SERVER */
 457:.\Generated_Source\PSoC4/CYBLE_eventHandler.c ****     
 458:.\Generated_Source\PSoC4/CYBLE_eventHandler.c ****     #ifdef CYBLE_CPS_SERVER
 459:.\Generated_Source\PSoC4/CYBLE_eventHandler.c ****         if((cyBle_eventHandlerFlag & CYBLE_CALLBACK) != 0u)
 460:.\Generated_Source\PSoC4/CYBLE_eventHandler.c ****         {
 461:.\Generated_Source\PSoC4/CYBLE_eventHandler.c ****             CyBle_CpssConfirmationEventHandler(eventParam);
 462:.\Generated_Source\PSoC4/CYBLE_eventHandler.c ****         }
 463:.\Generated_Source\PSoC4/CYBLE_eventHandler.c ****     #endif /* CYBLE_CPS_SERVER */
 464:.\Generated_Source\PSoC4/CYBLE_eventHandler.c ****     
 465:.\Generated_Source\PSoC4/CYBLE_eventHandler.c ****     #ifdef CYBLE_CSCS_SERVER
 466:.\Generated_Source\PSoC4/CYBLE_eventHandler.c ****         if((cyBle_eventHandlerFlag & CYBLE_CALLBACK) != 0u)
 467:.\Generated_Source\PSoC4/CYBLE_eventHandler.c ****         {
 468:.\Generated_Source\PSoC4/CYBLE_eventHandler.c ****             CyBle_CscssConfirmationEventHandler(eventParam);
 469:.\Generated_Source\PSoC4/CYBLE_eventHandler.c ****         }
 470:.\Generated_Source\PSoC4/CYBLE_eventHandler.c ****     #endif /* CYBLE_CSCS_SERVER */
 471:.\Generated_Source\PSoC4/CYBLE_eventHandler.c ****     
 472:.\Generated_Source\PSoC4/CYBLE_eventHandler.c ****     #ifdef CYBLE_ESS_SERVER
 473:.\Generated_Source\PSoC4/CYBLE_eventHandler.c ****         if((cyBle_eventHandlerFlag & CYBLE_CALLBACK) != 0u)
 474:.\Generated_Source\PSoC4/CYBLE_eventHandler.c ****         {
ARM GAS  C:\Users\mohammed\AppData\Local\Temp\ccG2gzoD.s 			page 13


 475:.\Generated_Source\PSoC4/CYBLE_eventHandler.c ****             CyBle_EsssConfirmationEventHandler(eventParam);
 476:.\Generated_Source\PSoC4/CYBLE_eventHandler.c ****         }
 477:.\Generated_Source\PSoC4/CYBLE_eventHandler.c ****     #endif /* CYBLE_ESS_SERVER */
 478:.\Generated_Source\PSoC4/CYBLE_eventHandler.c ****     
 479:.\Generated_Source\PSoC4/CYBLE_eventHandler.c ****     #ifdef CYBLE_GLS_SERVER
 480:.\Generated_Source\PSoC4/CYBLE_eventHandler.c ****         if((cyBle_eventHandlerFlag & CYBLE_CALLBACK) != 0u)
 481:.\Generated_Source\PSoC4/CYBLE_eventHandler.c ****         {
 482:.\Generated_Source\PSoC4/CYBLE_eventHandler.c ****             CyBle_GlssConfirmationEventHandler(eventParam);
 483:.\Generated_Source\PSoC4/CYBLE_eventHandler.c ****         }
 484:.\Generated_Source\PSoC4/CYBLE_eventHandler.c ****     #endif /* CYBLE_GLS_SERVER */
 485:.\Generated_Source\PSoC4/CYBLE_eventHandler.c ****     
 486:.\Generated_Source\PSoC4/CYBLE_eventHandler.c ****     #ifdef CYBLE_HTS_SERVER
 487:.\Generated_Source\PSoC4/CYBLE_eventHandler.c ****         if((cyBle_eventHandlerFlag & CYBLE_CALLBACK) != 0u)
 488:.\Generated_Source\PSoC4/CYBLE_eventHandler.c ****         {
 489:.\Generated_Source\PSoC4/CYBLE_eventHandler.c ****             CyBle_HtssConfirmationEventHandler(eventParam);
 490:.\Generated_Source\PSoC4/CYBLE_eventHandler.c ****         }
 491:.\Generated_Source\PSoC4/CYBLE_eventHandler.c ****     #endif /* CYBLE_HTS_SERVER */
 492:.\Generated_Source\PSoC4/CYBLE_eventHandler.c **** 
 493:.\Generated_Source\PSoC4/CYBLE_eventHandler.c ****     #ifdef CYBLE_LNS_SERVER
 494:.\Generated_Source\PSoC4/CYBLE_eventHandler.c ****         if((cyBle_eventHandlerFlag & CYBLE_CALLBACK) != 0u)
 495:.\Generated_Source\PSoC4/CYBLE_eventHandler.c ****         {
 496:.\Generated_Source\PSoC4/CYBLE_eventHandler.c ****             CyBle_LnssConfirmationEventHandler(eventParam);
 497:.\Generated_Source\PSoC4/CYBLE_eventHandler.c ****         }
 498:.\Generated_Source\PSoC4/CYBLE_eventHandler.c ****     #endif /* CYBLE_LNS_SERVER */
 499:.\Generated_Source\PSoC4/CYBLE_eventHandler.c ****     
 500:.\Generated_Source\PSoC4/CYBLE_eventHandler.c ****     #ifdef CYBLE_RSCS_SERVER
 501:.\Generated_Source\PSoC4/CYBLE_eventHandler.c ****         if((cyBle_eventHandlerFlag & CYBLE_CALLBACK) != 0u)
 502:.\Generated_Source\PSoC4/CYBLE_eventHandler.c ****         {
 503:.\Generated_Source\PSoC4/CYBLE_eventHandler.c ****             CyBle_RscssConfirmationEventHandler(eventParam);
 504:.\Generated_Source\PSoC4/CYBLE_eventHandler.c ****         }
 505:.\Generated_Source\PSoC4/CYBLE_eventHandler.c ****     #endif /* CYBLE_RSCS_SERVER */
 506:.\Generated_Source\PSoC4/CYBLE_eventHandler.c ****     
 507:.\Generated_Source\PSoC4/CYBLE_eventHandler.c ****     #ifdef CYBLE_UDS_SERVER
 508:.\Generated_Source\PSoC4/CYBLE_eventHandler.c ****         if((cyBle_eventHandlerFlag & CYBLE_CALLBACK) != 0u)
 211              		.loc 1 508 0
 212 000e 074B     		ldr	r3, .L11
 213 0010 1B78     		ldrb	r3, [r3]
 214 0012 DBB2     		uxtb	r3, r3
 215 0014 1A1C     		mov	r2, r3
 216 0016 0123     		mov	r3, #1
 217 0018 1340     		and	r3, r2
 218 001a 03D0     		beq	.L9
 509:.\Generated_Source\PSoC4/CYBLE_eventHandler.c ****         {
 510:.\Generated_Source\PSoC4/CYBLE_eventHandler.c ****             CyBle_UdssConfirmationEventHandler(eventParam);
 219              		.loc 1 510 0
 220 001c 7B68     		ldr	r3, [r7, #4]
 221 001e 181C     		mov	r0, r3
 222 0020 FFF7FEFF 		bl	CyBle_UdssConfirmationEventHandler
 223              	.L9:
 511:.\Generated_Source\PSoC4/CYBLE_eventHandler.c ****         }
 512:.\Generated_Source\PSoC4/CYBLE_eventHandler.c ****     #endif /* CYBLE_UDS_SERVER */
 513:.\Generated_Source\PSoC4/CYBLE_eventHandler.c ****     
 514:.\Generated_Source\PSoC4/CYBLE_eventHandler.c ****     #ifdef CYBLE_WPTS_SERVER
 515:.\Generated_Source\PSoC4/CYBLE_eventHandler.c ****         if((cyBle_eventHandlerFlag & CYBLE_CALLBACK) != 0u)
 516:.\Generated_Source\PSoC4/CYBLE_eventHandler.c ****         {
 517:.\Generated_Source\PSoC4/CYBLE_eventHandler.c ****             CyBle_WptssConfirmationEventHandler(eventParam);
 518:.\Generated_Source\PSoC4/CYBLE_eventHandler.c ****         }
ARM GAS  C:\Users\mohammed\AppData\Local\Temp\ccG2gzoD.s 			page 14


 519:.\Generated_Source\PSoC4/CYBLE_eventHandler.c ****     #endif /* CYBLE_WPTS_SERVER */
 520:.\Generated_Source\PSoC4/CYBLE_eventHandler.c ****     
 521:.\Generated_Source\PSoC4/CYBLE_eventHandler.c ****     #ifdef CYBLE_WSS_SERVER
 522:.\Generated_Source\PSoC4/CYBLE_eventHandler.c ****         if((cyBle_eventHandlerFlag & CYBLE_CALLBACK) != 0u)
 523:.\Generated_Source\PSoC4/CYBLE_eventHandler.c ****         {
 524:.\Generated_Source\PSoC4/CYBLE_eventHandler.c ****             CyBle_WsssConfirmationEventHandler(eventParam);
 525:.\Generated_Source\PSoC4/CYBLE_eventHandler.c ****         }
 526:.\Generated_Source\PSoC4/CYBLE_eventHandler.c ****     #endif /* CYBLE_WSS_SERVER */
 527:.\Generated_Source\PSoC4/CYBLE_eventHandler.c ****     }
 528:.\Generated_Source\PSoC4/CYBLE_eventHandler.c **** }
 224              		.loc 1 528 0
 225 0024 BD46     		mov	sp, r7
 226 0026 02B0     		add	sp, sp, #8
 227              		@ sp needed
 228 0028 80BD     		pop	{r7, pc}
 229              	.L12:
 230 002a C046     		.align	2
 231              	.L11:
 232 002c 00000000 		.word	cyBle_eventHandlerFlag
 233              		.cfi_endproc
 234              	.LFE3:
 235              		.size	CyBle_ValueConfirmation, .-CyBle_ValueConfirmation
 236              		.section	.text.CyBle_GattDisconnectEventHandler,"ax",%progbits
 237              		.align	2
 238              		.code	16
 239              		.thumb_func
 240              		.type	CyBle_GattDisconnectEventHandler, %function
 241              	CyBle_GattDisconnectEventHandler:
 242              	.LFB4:
 529:.\Generated_Source\PSoC4/CYBLE_eventHandler.c **** 
 530:.\Generated_Source\PSoC4/CYBLE_eventHandler.c **** #endif /* CYBLE_GATT_ROLE_SERVER */
 531:.\Generated_Source\PSoC4/CYBLE_eventHandler.c **** 
 532:.\Generated_Source\PSoC4/CYBLE_eventHandler.c **** 
 533:.\Generated_Source\PSoC4/CYBLE_eventHandler.c **** #if (CYBLE_GATT_ROLE_CLIENT)
 534:.\Generated_Source\PSoC4/CYBLE_eventHandler.c **** 
 535:.\Generated_Source\PSoC4/CYBLE_eventHandler.c **** /****************************************************************************** 
 536:.\Generated_Source\PSoC4/CYBLE_eventHandler.c **** * Function Name: CyBle_GattcWriteResponseEventHandler
 537:.\Generated_Source\PSoC4/CYBLE_eventHandler.c **** ***************************************************************************//**
 538:.\Generated_Source\PSoC4/CYBLE_eventHandler.c **** * 
 539:.\Generated_Source\PSoC4/CYBLE_eventHandler.c **** *  Handles the Write response event from the BLE stack.
 540:.\Generated_Source\PSoC4/CYBLE_eventHandler.c **** * 
 541:.\Generated_Source\PSoC4/CYBLE_eventHandler.c **** *  \param eventParam: Pointer to a structure of type 'CYBLE_CONN_HANDLE_T'
 542:.\Generated_Source\PSoC4/CYBLE_eventHandler.c **** * 
 543:.\Generated_Source\PSoC4/CYBLE_eventHandler.c **** * \return
 544:.\Generated_Source\PSoC4/CYBLE_eventHandler.c **** *  None
 545:.\Generated_Source\PSoC4/CYBLE_eventHandler.c **** * 
 546:.\Generated_Source\PSoC4/CYBLE_eventHandler.c **** ******************************************************************************/
 547:.\Generated_Source\PSoC4/CYBLE_eventHandler.c **** static void CyBle_GattcWriteResponseEventHandler(const CYBLE_CONN_HANDLE_T *eventParam)
 548:.\Generated_Source\PSoC4/CYBLE_eventHandler.c **** {
 549:.\Generated_Source\PSoC4/CYBLE_eventHandler.c **** #ifdef CYBLE_ANCS_CLIENT
 550:.\Generated_Source\PSoC4/CYBLE_eventHandler.c ****     CyBle_AncscWriteResponseEventHandler(eventParam);
 551:.\Generated_Source\PSoC4/CYBLE_eventHandler.c **** #endif /* CYBLE_ANCS_CLIENT */
 552:.\Generated_Source\PSoC4/CYBLE_eventHandler.c **** 
 553:.\Generated_Source\PSoC4/CYBLE_eventHandler.c **** #ifdef CYBLE_ANS_CLIENT
 554:.\Generated_Source\PSoC4/CYBLE_eventHandler.c ****     if((cyBle_eventHandlerFlag & CYBLE_CALLBACK) != 0u)
 555:.\Generated_Source\PSoC4/CYBLE_eventHandler.c ****     {
 556:.\Generated_Source\PSoC4/CYBLE_eventHandler.c ****         CyBle_AnscWriteResponseEventHandler(eventParam);
ARM GAS  C:\Users\mohammed\AppData\Local\Temp\ccG2gzoD.s 			page 15


 557:.\Generated_Source\PSoC4/CYBLE_eventHandler.c ****     }
 558:.\Generated_Source\PSoC4/CYBLE_eventHandler.c **** #endif /* CYBLE_ANS_CLIENT */
 559:.\Generated_Source\PSoC4/CYBLE_eventHandler.c **** 
 560:.\Generated_Source\PSoC4/CYBLE_eventHandler.c **** #ifdef CYBLE_BAS_CLIENT
 561:.\Generated_Source\PSoC4/CYBLE_eventHandler.c ****     if((cyBle_eventHandlerFlag & CYBLE_CALLBACK) != 0u)
 562:.\Generated_Source\PSoC4/CYBLE_eventHandler.c ****     {
 563:.\Generated_Source\PSoC4/CYBLE_eventHandler.c ****         CyBle_BascWriteResponseEventHandler(eventParam);
 564:.\Generated_Source\PSoC4/CYBLE_eventHandler.c ****     }
 565:.\Generated_Source\PSoC4/CYBLE_eventHandler.c **** #endif /* CYBLE_BAS_CLIENT */
 566:.\Generated_Source\PSoC4/CYBLE_eventHandler.c **** 
 567:.\Generated_Source\PSoC4/CYBLE_eventHandler.c **** #ifdef CYBLE_BCS_CLIENT
 568:.\Generated_Source\PSoC4/CYBLE_eventHandler.c ****     if((cyBle_eventHandlerFlag & CYBLE_CALLBACK) != 0u)
 569:.\Generated_Source\PSoC4/CYBLE_eventHandler.c ****     {
 570:.\Generated_Source\PSoC4/CYBLE_eventHandler.c ****         CyBle_BcscWriteResponseEventHandler(eventParam);
 571:.\Generated_Source\PSoC4/CYBLE_eventHandler.c ****     }
 572:.\Generated_Source\PSoC4/CYBLE_eventHandler.c **** #endif /* CYBLE_BCS_CLIENT */
 573:.\Generated_Source\PSoC4/CYBLE_eventHandler.c **** 
 574:.\Generated_Source\PSoC4/CYBLE_eventHandler.c **** #ifdef CYBLE_BLS_CLIENT
 575:.\Generated_Source\PSoC4/CYBLE_eventHandler.c ****     if((cyBle_eventHandlerFlag & CYBLE_CALLBACK) != 0u)
 576:.\Generated_Source\PSoC4/CYBLE_eventHandler.c ****     {
 577:.\Generated_Source\PSoC4/CYBLE_eventHandler.c ****         CyBle_BlscWriteResponseEventHandler(eventParam);
 578:.\Generated_Source\PSoC4/CYBLE_eventHandler.c ****     }
 579:.\Generated_Source\PSoC4/CYBLE_eventHandler.c **** #endif /* CYBLE_BLS_CLIENT */
 580:.\Generated_Source\PSoC4/CYBLE_eventHandler.c **** 
 581:.\Generated_Source\PSoC4/CYBLE_eventHandler.c **** #ifdef CYBLE_BMS_CLIENT
 582:.\Generated_Source\PSoC4/CYBLE_eventHandler.c ****     if((cyBle_eventHandlerFlag & CYBLE_CALLBACK) != 0u)
 583:.\Generated_Source\PSoC4/CYBLE_eventHandler.c ****     {
 584:.\Generated_Source\PSoC4/CYBLE_eventHandler.c ****         CyBle_BmscWriteResponseEventHandler(eventParam);
 585:.\Generated_Source\PSoC4/CYBLE_eventHandler.c ****     }
 586:.\Generated_Source\PSoC4/CYBLE_eventHandler.c **** #endif /* CYBLE_BMS_CLIENT */
 587:.\Generated_Source\PSoC4/CYBLE_eventHandler.c **** 
 588:.\Generated_Source\PSoC4/CYBLE_eventHandler.c **** #ifdef CYBLE_CGMS_CLIENT
 589:.\Generated_Source\PSoC4/CYBLE_eventHandler.c ****     if((cyBle_eventHandlerFlag & CYBLE_CALLBACK) != 0u)
 590:.\Generated_Source\PSoC4/CYBLE_eventHandler.c ****     {
 591:.\Generated_Source\PSoC4/CYBLE_eventHandler.c ****         CyBle_CgmscWriteResponseEventHandler(eventParam);
 592:.\Generated_Source\PSoC4/CYBLE_eventHandler.c ****     }
 593:.\Generated_Source\PSoC4/CYBLE_eventHandler.c **** #endif /* CYBLE_CGMS_CLIENT */
 594:.\Generated_Source\PSoC4/CYBLE_eventHandler.c **** 
 595:.\Generated_Source\PSoC4/CYBLE_eventHandler.c **** #ifdef CYBLE_CPS_CLIENT
 596:.\Generated_Source\PSoC4/CYBLE_eventHandler.c ****     if((cyBle_eventHandlerFlag & CYBLE_CALLBACK) != 0u)
 597:.\Generated_Source\PSoC4/CYBLE_eventHandler.c ****     {
 598:.\Generated_Source\PSoC4/CYBLE_eventHandler.c ****         CyBle_CpscWriteResponseEventHandler(eventParam);
 599:.\Generated_Source\PSoC4/CYBLE_eventHandler.c ****     }
 600:.\Generated_Source\PSoC4/CYBLE_eventHandler.c **** #endif /* CYBLE_CPS_CLIENT */
 601:.\Generated_Source\PSoC4/CYBLE_eventHandler.c **** 
 602:.\Generated_Source\PSoC4/CYBLE_eventHandler.c **** #ifdef CYBLE_CSCS_CLIENT
 603:.\Generated_Source\PSoC4/CYBLE_eventHandler.c ****     if((cyBle_eventHandlerFlag & CYBLE_CALLBACK) != 0u)
 604:.\Generated_Source\PSoC4/CYBLE_eventHandler.c ****     {
 605:.\Generated_Source\PSoC4/CYBLE_eventHandler.c ****         CyBle_CscscWriteResponseEventHandler(eventParam);
 606:.\Generated_Source\PSoC4/CYBLE_eventHandler.c ****     }
 607:.\Generated_Source\PSoC4/CYBLE_eventHandler.c **** #endif /* CYBLE_CSCS_CLIENT */
 608:.\Generated_Source\PSoC4/CYBLE_eventHandler.c **** 
 609:.\Generated_Source\PSoC4/CYBLE_eventHandler.c **** #ifdef CYBLE_CTS_CLIENT
 610:.\Generated_Source\PSoC4/CYBLE_eventHandler.c ****     if((cyBle_eventHandlerFlag & CYBLE_CALLBACK) != 0u)
 611:.\Generated_Source\PSoC4/CYBLE_eventHandler.c ****     {
 612:.\Generated_Source\PSoC4/CYBLE_eventHandler.c ****         CyBle_CtscWriteResponseEventHandler(eventParam);
 613:.\Generated_Source\PSoC4/CYBLE_eventHandler.c ****     }
ARM GAS  C:\Users\mohammed\AppData\Local\Temp\ccG2gzoD.s 			page 16


 614:.\Generated_Source\PSoC4/CYBLE_eventHandler.c **** #endif /* CYBLE_CTS_CLIENT */
 615:.\Generated_Source\PSoC4/CYBLE_eventHandler.c **** 
 616:.\Generated_Source\PSoC4/CYBLE_eventHandler.c **** #ifdef CYBLE_ESS_CLIENT
 617:.\Generated_Source\PSoC4/CYBLE_eventHandler.c ****     if((cyBle_eventHandlerFlag & CYBLE_CALLBACK) != 0u)
 618:.\Generated_Source\PSoC4/CYBLE_eventHandler.c ****     {
 619:.\Generated_Source\PSoC4/CYBLE_eventHandler.c ****         CyBle_EsscWriteResponseEventHandler(eventParam);
 620:.\Generated_Source\PSoC4/CYBLE_eventHandler.c ****     }
 621:.\Generated_Source\PSoC4/CYBLE_eventHandler.c **** #endif /* CYBLE_ESS_CLIENT */
 622:.\Generated_Source\PSoC4/CYBLE_eventHandler.c **** 
 623:.\Generated_Source\PSoC4/CYBLE_eventHandler.c **** #ifdef CYBLE_GLS_CLIENT
 624:.\Generated_Source\PSoC4/CYBLE_eventHandler.c ****     if((cyBle_eventHandlerFlag & CYBLE_CALLBACK) != 0u)
 625:.\Generated_Source\PSoC4/CYBLE_eventHandler.c ****     {
 626:.\Generated_Source\PSoC4/CYBLE_eventHandler.c ****         CyBle_GlscWriteResponseEventHandler(eventParam);
 627:.\Generated_Source\PSoC4/CYBLE_eventHandler.c ****     }
 628:.\Generated_Source\PSoC4/CYBLE_eventHandler.c **** #endif /* CYBLE_GLS_CLIENT */
 629:.\Generated_Source\PSoC4/CYBLE_eventHandler.c **** 
 630:.\Generated_Source\PSoC4/CYBLE_eventHandler.c **** #ifdef CYBLE_HIDS_CLIENT
 631:.\Generated_Source\PSoC4/CYBLE_eventHandler.c ****     if((cyBle_eventHandlerFlag & CYBLE_CALLBACK) != 0u)
 632:.\Generated_Source\PSoC4/CYBLE_eventHandler.c ****     {
 633:.\Generated_Source\PSoC4/CYBLE_eventHandler.c ****         CyBle_HidscWriteResponseEventHandler(eventParam);
 634:.\Generated_Source\PSoC4/CYBLE_eventHandler.c ****     }
 635:.\Generated_Source\PSoC4/CYBLE_eventHandler.c **** #endif /* CYBLE_HIDS_CLIENT */
 636:.\Generated_Source\PSoC4/CYBLE_eventHandler.c **** 
 637:.\Generated_Source\PSoC4/CYBLE_eventHandler.c **** #ifdef CYBLE_HPS_CLIENT
 638:.\Generated_Source\PSoC4/CYBLE_eventHandler.c ****     if((cyBle_eventHandlerFlag & CYBLE_CALLBACK) != 0u)
 639:.\Generated_Source\PSoC4/CYBLE_eventHandler.c ****     {
 640:.\Generated_Source\PSoC4/CYBLE_eventHandler.c ****         CyBle_HpscWriteResponseEventHandler(eventParam);
 641:.\Generated_Source\PSoC4/CYBLE_eventHandler.c ****     }
 642:.\Generated_Source\PSoC4/CYBLE_eventHandler.c **** #endif /* CYBLE_HPS_CLIENT */
 643:.\Generated_Source\PSoC4/CYBLE_eventHandler.c **** 
 644:.\Generated_Source\PSoC4/CYBLE_eventHandler.c **** #ifdef CYBLE_HRS_CLIENT
 645:.\Generated_Source\PSoC4/CYBLE_eventHandler.c ****     if((cyBle_eventHandlerFlag & CYBLE_CALLBACK) != 0u)
 646:.\Generated_Source\PSoC4/CYBLE_eventHandler.c ****     {
 647:.\Generated_Source\PSoC4/CYBLE_eventHandler.c ****         CyBle_HrscWriteResponseEventHandler(eventParam);
 648:.\Generated_Source\PSoC4/CYBLE_eventHandler.c ****     }
 649:.\Generated_Source\PSoC4/CYBLE_eventHandler.c **** #endif /* CYBLE_HRS_CLIENT */
 650:.\Generated_Source\PSoC4/CYBLE_eventHandler.c **** 
 651:.\Generated_Source\PSoC4/CYBLE_eventHandler.c **** #ifdef CYBLE_HTS_CLIENT
 652:.\Generated_Source\PSoC4/CYBLE_eventHandler.c ****     if((cyBle_eventHandlerFlag & CYBLE_CALLBACK) != 0u)
 653:.\Generated_Source\PSoC4/CYBLE_eventHandler.c ****     {
 654:.\Generated_Source\PSoC4/CYBLE_eventHandler.c ****         CyBle_HtscWriteResponseEventHandler(eventParam);
 655:.\Generated_Source\PSoC4/CYBLE_eventHandler.c ****     }
 656:.\Generated_Source\PSoC4/CYBLE_eventHandler.c **** #endif /* CYBLE_HTS_CLIENT */
 657:.\Generated_Source\PSoC4/CYBLE_eventHandler.c **** 
 658:.\Generated_Source\PSoC4/CYBLE_eventHandler.c **** #ifdef CYBLE_IPS_CLIENT
 659:.\Generated_Source\PSoC4/CYBLE_eventHandler.c ****     if((cyBle_eventHandlerFlag & CYBLE_CALLBACK) != 0u)
 660:.\Generated_Source\PSoC4/CYBLE_eventHandler.c ****     {
 661:.\Generated_Source\PSoC4/CYBLE_eventHandler.c ****         CyBle_IpscWriteResponseEventHandler(eventParam);
 662:.\Generated_Source\PSoC4/CYBLE_eventHandler.c ****     }
 663:.\Generated_Source\PSoC4/CYBLE_eventHandler.c **** #endif /* CYBLE_IPS_CLIENT */
 664:.\Generated_Source\PSoC4/CYBLE_eventHandler.c **** 
 665:.\Generated_Source\PSoC4/CYBLE_eventHandler.c **** #ifdef CYBLE_LLS_CLIENT
 666:.\Generated_Source\PSoC4/CYBLE_eventHandler.c ****     if((cyBle_eventHandlerFlag & CYBLE_CALLBACK) != 0u)
 667:.\Generated_Source\PSoC4/CYBLE_eventHandler.c ****     {
 668:.\Generated_Source\PSoC4/CYBLE_eventHandler.c ****         CyBle_LlscWriteResponseEventHandler(eventParam);
 669:.\Generated_Source\PSoC4/CYBLE_eventHandler.c ****     }
 670:.\Generated_Source\PSoC4/CYBLE_eventHandler.c **** #endif /* CYBLE_LLS_CLIENT */
ARM GAS  C:\Users\mohammed\AppData\Local\Temp\ccG2gzoD.s 			page 17


 671:.\Generated_Source\PSoC4/CYBLE_eventHandler.c **** 
 672:.\Generated_Source\PSoC4/CYBLE_eventHandler.c **** #ifdef CYBLE_LNS_CLIENT
 673:.\Generated_Source\PSoC4/CYBLE_eventHandler.c ****     if((cyBle_eventHandlerFlag & CYBLE_CALLBACK) != 0u)
 674:.\Generated_Source\PSoC4/CYBLE_eventHandler.c ****     {
 675:.\Generated_Source\PSoC4/CYBLE_eventHandler.c ****         CyBle_LnscWriteResponseEventHandler(eventParam);
 676:.\Generated_Source\PSoC4/CYBLE_eventHandler.c ****     }
 677:.\Generated_Source\PSoC4/CYBLE_eventHandler.c **** #endif /* CYBLE_LNS_CLIENT */
 678:.\Generated_Source\PSoC4/CYBLE_eventHandler.c **** 
 679:.\Generated_Source\PSoC4/CYBLE_eventHandler.c **** #ifdef CYBLE_PASS_CLIENT
 680:.\Generated_Source\PSoC4/CYBLE_eventHandler.c ****     if((cyBle_eventHandlerFlag & CYBLE_CALLBACK) != 0u)
 681:.\Generated_Source\PSoC4/CYBLE_eventHandler.c ****     {
 682:.\Generated_Source\PSoC4/CYBLE_eventHandler.c ****         CyBle_PasscWriteResponseEventHandler(eventParam);
 683:.\Generated_Source\PSoC4/CYBLE_eventHandler.c ****     }
 684:.\Generated_Source\PSoC4/CYBLE_eventHandler.c **** #endif /* CYBLE_PASS_CLIENT */
 685:.\Generated_Source\PSoC4/CYBLE_eventHandler.c **** 
 686:.\Generated_Source\PSoC4/CYBLE_eventHandler.c **** #ifdef CYBLE_RSCS_CLIENT
 687:.\Generated_Source\PSoC4/CYBLE_eventHandler.c ****     if((cyBle_eventHandlerFlag & CYBLE_CALLBACK) != 0u)
 688:.\Generated_Source\PSoC4/CYBLE_eventHandler.c ****     {
 689:.\Generated_Source\PSoC4/CYBLE_eventHandler.c ****         CyBle_RscscWriteResponseEventHandler(eventParam);
 690:.\Generated_Source\PSoC4/CYBLE_eventHandler.c ****     }
 691:.\Generated_Source\PSoC4/CYBLE_eventHandler.c **** #endif /* CYBLE_RSCS_CLIENT */
 692:.\Generated_Source\PSoC4/CYBLE_eventHandler.c **** 
 693:.\Generated_Source\PSoC4/CYBLE_eventHandler.c **** #ifdef CYBLE_SCPS_CLIENT
 694:.\Generated_Source\PSoC4/CYBLE_eventHandler.c ****     if((cyBle_eventHandlerFlag & CYBLE_CALLBACK) != 0u)
 695:.\Generated_Source\PSoC4/CYBLE_eventHandler.c ****     {
 696:.\Generated_Source\PSoC4/CYBLE_eventHandler.c ****         CyBle_ScpscWriteResponseEventHandler(eventParam);
 697:.\Generated_Source\PSoC4/CYBLE_eventHandler.c ****     }
 698:.\Generated_Source\PSoC4/CYBLE_eventHandler.c **** #endif /* CYBLE_SCPS_CLIENT */
 699:.\Generated_Source\PSoC4/CYBLE_eventHandler.c **** 
 700:.\Generated_Source\PSoC4/CYBLE_eventHandler.c **** #ifdef CYBLE_TPS_CLIENT
 701:.\Generated_Source\PSoC4/CYBLE_eventHandler.c ****     if((cyBle_eventHandlerFlag & CYBLE_CALLBACK) != 0u)
 702:.\Generated_Source\PSoC4/CYBLE_eventHandler.c ****     {
 703:.\Generated_Source\PSoC4/CYBLE_eventHandler.c ****         CyBle_TpscWriteResponseEventHandler(eventParam);
 704:.\Generated_Source\PSoC4/CYBLE_eventHandler.c ****     }
 705:.\Generated_Source\PSoC4/CYBLE_eventHandler.c **** #endif /* CYBLE_TPS_CLIENT */
 706:.\Generated_Source\PSoC4/CYBLE_eventHandler.c **** 
 707:.\Generated_Source\PSoC4/CYBLE_eventHandler.c **** #ifdef CYBLE_UDS_CLIENT
 708:.\Generated_Source\PSoC4/CYBLE_eventHandler.c ****     if((cyBle_eventHandlerFlag & CYBLE_CALLBACK) != 0u)
 709:.\Generated_Source\PSoC4/CYBLE_eventHandler.c ****     {
 710:.\Generated_Source\PSoC4/CYBLE_eventHandler.c ****         CyBle_UdscWriteResponseEventHandler(eventParam);
 711:.\Generated_Source\PSoC4/CYBLE_eventHandler.c ****     }
 712:.\Generated_Source\PSoC4/CYBLE_eventHandler.c **** #endif /* CYBLE_UDS_CLIENT */
 713:.\Generated_Source\PSoC4/CYBLE_eventHandler.c **** #ifdef CYBLE_WPTS_CLIENT
 714:.\Generated_Source\PSoC4/CYBLE_eventHandler.c ****     if((cyBle_eventHandlerFlag & CYBLE_CALLBACK) != 0u)
 715:.\Generated_Source\PSoC4/CYBLE_eventHandler.c ****     {
 716:.\Generated_Source\PSoC4/CYBLE_eventHandler.c ****         CyBle_WptscWriteResponseEventHandler(eventParam);
 717:.\Generated_Source\PSoC4/CYBLE_eventHandler.c ****     }
 718:.\Generated_Source\PSoC4/CYBLE_eventHandler.c **** #endif /* CYBLE_WPTS_CLIENT */
 719:.\Generated_Source\PSoC4/CYBLE_eventHandler.c **** #ifdef CYBLE_WSS_CLIENT
 720:.\Generated_Source\PSoC4/CYBLE_eventHandler.c ****     if((cyBle_eventHandlerFlag & CYBLE_CALLBACK) != 0u)
 721:.\Generated_Source\PSoC4/CYBLE_eventHandler.c ****     {
 722:.\Generated_Source\PSoC4/CYBLE_eventHandler.c ****         CyBle_WsscWriteResponseEventHandler(eventParam);
 723:.\Generated_Source\PSoC4/CYBLE_eventHandler.c ****     }
 724:.\Generated_Source\PSoC4/CYBLE_eventHandler.c **** #endif /* CYBLE_WSS_CLIENT */
 725:.\Generated_Source\PSoC4/CYBLE_eventHandler.c **** }
 726:.\Generated_Source\PSoC4/CYBLE_eventHandler.c **** 
 727:.\Generated_Source\PSoC4/CYBLE_eventHandler.c **** 
ARM GAS  C:\Users\mohammed\AppData\Local\Temp\ccG2gzoD.s 			page 18


 728:.\Generated_Source\PSoC4/CYBLE_eventHandler.c **** /******************************************************************************    
 729:.\Generated_Source\PSoC4/CYBLE_eventHandler.c **** * Function Name: CyBle_NotificationEventHandler
 730:.\Generated_Source\PSoC4/CYBLE_eventHandler.c **** ***************************************************************************//**
 731:.\Generated_Source\PSoC4/CYBLE_eventHandler.c **** * 
 732:.\Generated_Source\PSoC4/CYBLE_eventHandler.c **** *  Handles the Notification event from BLE stack.
 733:.\Generated_Source\PSoC4/CYBLE_eventHandler.c **** * 
 734:.\Generated_Source\PSoC4/CYBLE_eventHandler.c **** *  \param eventParam: event parameter
 735:.\Generated_Source\PSoC4/CYBLE_eventHandler.c **** * 
 736:.\Generated_Source\PSoC4/CYBLE_eventHandler.c **** * \return
 737:.\Generated_Source\PSoC4/CYBLE_eventHandler.c **** *  None
 738:.\Generated_Source\PSoC4/CYBLE_eventHandler.c **** * 
 739:.\Generated_Source\PSoC4/CYBLE_eventHandler.c **** ******************************************************************************/
 740:.\Generated_Source\PSoC4/CYBLE_eventHandler.c **** static void CyBle_NotificationEventHandler(CYBLE_GATTC_HANDLE_VALUE_NTF_PARAM_T *eventParam)
 741:.\Generated_Source\PSoC4/CYBLE_eventHandler.c **** {
 742:.\Generated_Source\PSoC4/CYBLE_eventHandler.c **** #ifdef CYBLE_ANCS_CLIENT
 743:.\Generated_Source\PSoC4/CYBLE_eventHandler.c ****     CyBle_AncscNotificationEventHandler(eventParam);
 744:.\Generated_Source\PSoC4/CYBLE_eventHandler.c **** #endif /* CYBLE_ANCS_CLIENT */
 745:.\Generated_Source\PSoC4/CYBLE_eventHandler.c **** #ifdef CYBLE_ANS_CLIENT
 746:.\Generated_Source\PSoC4/CYBLE_eventHandler.c ****     if((cyBle_eventHandlerFlag & CYBLE_CALLBACK) != 0u)
 747:.\Generated_Source\PSoC4/CYBLE_eventHandler.c ****     {
 748:.\Generated_Source\PSoC4/CYBLE_eventHandler.c ****         CyBle_AnscNotificationEventHandler(eventParam);
 749:.\Generated_Source\PSoC4/CYBLE_eventHandler.c ****     }
 750:.\Generated_Source\PSoC4/CYBLE_eventHandler.c **** #endif /* CYBLE_ANS_CLIENT */
 751:.\Generated_Source\PSoC4/CYBLE_eventHandler.c **** #ifdef CYBLE_BAS_CLIENT
 752:.\Generated_Source\PSoC4/CYBLE_eventHandler.c ****     if((cyBle_eventHandlerFlag & CYBLE_CALLBACK) != 0u)
 753:.\Generated_Source\PSoC4/CYBLE_eventHandler.c ****     {
 754:.\Generated_Source\PSoC4/CYBLE_eventHandler.c ****         CyBle_BascNotificationEventHandler(eventParam);
 755:.\Generated_Source\PSoC4/CYBLE_eventHandler.c ****     }
 756:.\Generated_Source\PSoC4/CYBLE_eventHandler.c **** #endif /* CYBLE_BAS_CLIENT */
 757:.\Generated_Source\PSoC4/CYBLE_eventHandler.c **** #ifdef CYBLE_BLS_CLIENT
 758:.\Generated_Source\PSoC4/CYBLE_eventHandler.c ****     if((cyBle_eventHandlerFlag & CYBLE_CALLBACK) != 0u)
 759:.\Generated_Source\PSoC4/CYBLE_eventHandler.c ****     {
 760:.\Generated_Source\PSoC4/CYBLE_eventHandler.c ****         CyBle_BlscNotificationEventHandler(eventParam);
 761:.\Generated_Source\PSoC4/CYBLE_eventHandler.c ****     }
 762:.\Generated_Source\PSoC4/CYBLE_eventHandler.c **** #endif /* CYBLE_BLS_CLIENT */
 763:.\Generated_Source\PSoC4/CYBLE_eventHandler.c **** #ifdef CYBLE_CGMS_CLIENT
 764:.\Generated_Source\PSoC4/CYBLE_eventHandler.c ****     if((cyBle_eventHandlerFlag & CYBLE_CALLBACK) != 0u)
 765:.\Generated_Source\PSoC4/CYBLE_eventHandler.c ****     {
 766:.\Generated_Source\PSoC4/CYBLE_eventHandler.c ****         CyBle_CgmscNotificationEventHandler(eventParam);
 767:.\Generated_Source\PSoC4/CYBLE_eventHandler.c ****     }
 768:.\Generated_Source\PSoC4/CYBLE_eventHandler.c **** #endif /* CYBLE_CGMS_CLIENT */
 769:.\Generated_Source\PSoC4/CYBLE_eventHandler.c **** #ifdef CYBLE_CPS_CLIENT
 770:.\Generated_Source\PSoC4/CYBLE_eventHandler.c ****     if((cyBle_eventHandlerFlag & CYBLE_CALLBACK) != 0u)
 771:.\Generated_Source\PSoC4/CYBLE_eventHandler.c ****     {
 772:.\Generated_Source\PSoC4/CYBLE_eventHandler.c ****         CyBle_CpscNotificationEventHandler(eventParam);
 773:.\Generated_Source\PSoC4/CYBLE_eventHandler.c ****     }
 774:.\Generated_Source\PSoC4/CYBLE_eventHandler.c **** #endif /* CYBLE_CPS_CLIENT */
 775:.\Generated_Source\PSoC4/CYBLE_eventHandler.c **** #ifdef CYBLE_CSCS_CLIENT
 776:.\Generated_Source\PSoC4/CYBLE_eventHandler.c ****     if((cyBle_eventHandlerFlag & CYBLE_CALLBACK) != 0u)
 777:.\Generated_Source\PSoC4/CYBLE_eventHandler.c ****     {
 778:.\Generated_Source\PSoC4/CYBLE_eventHandler.c ****         CyBle_CscscNotificationEventHandler(eventParam);
 779:.\Generated_Source\PSoC4/CYBLE_eventHandler.c ****     }
 780:.\Generated_Source\PSoC4/CYBLE_eventHandler.c **** #endif /* CYBLE_CSCS_CLIENT */
 781:.\Generated_Source\PSoC4/CYBLE_eventHandler.c **** #ifdef CYBLE_CTS_CLIENT
 782:.\Generated_Source\PSoC4/CYBLE_eventHandler.c ****     if((cyBle_eventHandlerFlag & CYBLE_CALLBACK) != 0u)
 783:.\Generated_Source\PSoC4/CYBLE_eventHandler.c ****     {
 784:.\Generated_Source\PSoC4/CYBLE_eventHandler.c ****         CyBle_CtscNotificationEventHandler(eventParam);
ARM GAS  C:\Users\mohammed\AppData\Local\Temp\ccG2gzoD.s 			page 19


 785:.\Generated_Source\PSoC4/CYBLE_eventHandler.c ****     }
 786:.\Generated_Source\PSoC4/CYBLE_eventHandler.c **** #endif /* CYBLE_CTS_CLIENT */
 787:.\Generated_Source\PSoC4/CYBLE_eventHandler.c **** #ifdef CYBLE_ESS_CLIENT
 788:.\Generated_Source\PSoC4/CYBLE_eventHandler.c ****     if((cyBle_eventHandlerFlag & CYBLE_CALLBACK) != 0u)
 789:.\Generated_Source\PSoC4/CYBLE_eventHandler.c ****     {
 790:.\Generated_Source\PSoC4/CYBLE_eventHandler.c ****         CyBle_EsscNotificationEventHandler(eventParam);
 791:.\Generated_Source\PSoC4/CYBLE_eventHandler.c ****     }
 792:.\Generated_Source\PSoC4/CYBLE_eventHandler.c **** #endif /* CYBLE_ESS_CLIENT */
 793:.\Generated_Source\PSoC4/CYBLE_eventHandler.c **** #ifdef CYBLE_GLS_CLIENT
 794:.\Generated_Source\PSoC4/CYBLE_eventHandler.c ****     if((cyBle_eventHandlerFlag & CYBLE_CALLBACK) != 0u)
 795:.\Generated_Source\PSoC4/CYBLE_eventHandler.c ****     {
 796:.\Generated_Source\PSoC4/CYBLE_eventHandler.c ****         CyBle_GlscNotificationEventHandler(eventParam);
 797:.\Generated_Source\PSoC4/CYBLE_eventHandler.c ****     }
 798:.\Generated_Source\PSoC4/CYBLE_eventHandler.c **** #endif /* CYBLE_GLS_CLIENT */
 799:.\Generated_Source\PSoC4/CYBLE_eventHandler.c **** #ifdef CYBLE_HIDS_CLIENT
 800:.\Generated_Source\PSoC4/CYBLE_eventHandler.c ****     if((cyBle_eventHandlerFlag & CYBLE_CALLBACK) != 0u)
 801:.\Generated_Source\PSoC4/CYBLE_eventHandler.c ****     {
 802:.\Generated_Source\PSoC4/CYBLE_eventHandler.c ****         CyBle_HidscNotificationEventHandler(eventParam);
 803:.\Generated_Source\PSoC4/CYBLE_eventHandler.c ****     }
 804:.\Generated_Source\PSoC4/CYBLE_eventHandler.c **** #endif /* CYBLE_HIDS_CLIENT */
 805:.\Generated_Source\PSoC4/CYBLE_eventHandler.c **** #ifdef CYBLE_HPS_CLIENT
 806:.\Generated_Source\PSoC4/CYBLE_eventHandler.c ****     if((cyBle_eventHandlerFlag & CYBLE_CALLBACK) != 0u)
 807:.\Generated_Source\PSoC4/CYBLE_eventHandler.c ****     {
 808:.\Generated_Source\PSoC4/CYBLE_eventHandler.c ****         CyBle_HpscNotificationEventHandler(eventParam);
 809:.\Generated_Source\PSoC4/CYBLE_eventHandler.c ****     }
 810:.\Generated_Source\PSoC4/CYBLE_eventHandler.c **** #endif /* CYBLE_HPS_CLIENT */
 811:.\Generated_Source\PSoC4/CYBLE_eventHandler.c **** #ifdef CYBLE_HRS_CLIENT
 812:.\Generated_Source\PSoC4/CYBLE_eventHandler.c ****     if((cyBle_eventHandlerFlag & CYBLE_CALLBACK) != 0u)
 813:.\Generated_Source\PSoC4/CYBLE_eventHandler.c ****     {
 814:.\Generated_Source\PSoC4/CYBLE_eventHandler.c ****         CyBle_HrscNotificationEventHandler(eventParam);
 815:.\Generated_Source\PSoC4/CYBLE_eventHandler.c ****     }
 816:.\Generated_Source\PSoC4/CYBLE_eventHandler.c **** #endif /* CYBLE_HRS_CLIENT */
 817:.\Generated_Source\PSoC4/CYBLE_eventHandler.c **** #ifdef CYBLE_HTS_CLIENT
 818:.\Generated_Source\PSoC4/CYBLE_eventHandler.c ****     if((cyBle_eventHandlerFlag & CYBLE_CALLBACK) != 0u)
 819:.\Generated_Source\PSoC4/CYBLE_eventHandler.c ****     {
 820:.\Generated_Source\PSoC4/CYBLE_eventHandler.c ****         CyBle_HtscNotificationEventHandler(eventParam);
 821:.\Generated_Source\PSoC4/CYBLE_eventHandler.c ****     }
 822:.\Generated_Source\PSoC4/CYBLE_eventHandler.c **** #endif /* CYBLE_HTS_CLIENT */
 823:.\Generated_Source\PSoC4/CYBLE_eventHandler.c **** #ifdef CYBLE_LNS_CLIENT
 824:.\Generated_Source\PSoC4/CYBLE_eventHandler.c ****     if((cyBle_eventHandlerFlag & CYBLE_CALLBACK) != 0u)
 825:.\Generated_Source\PSoC4/CYBLE_eventHandler.c ****     {
 826:.\Generated_Source\PSoC4/CYBLE_eventHandler.c ****         CyBle_LnscNotificationEventHandler(eventParam);
 827:.\Generated_Source\PSoC4/CYBLE_eventHandler.c ****     }
 828:.\Generated_Source\PSoC4/CYBLE_eventHandler.c **** #endif /* CYBLE_LNS_CLIENT */
 829:.\Generated_Source\PSoC4/CYBLE_eventHandler.c **** #ifdef CYBLE_PASS_CLIENT
 830:.\Generated_Source\PSoC4/CYBLE_eventHandler.c ****     if((cyBle_eventHandlerFlag & CYBLE_CALLBACK) != 0u)
 831:.\Generated_Source\PSoC4/CYBLE_eventHandler.c ****     {
 832:.\Generated_Source\PSoC4/CYBLE_eventHandler.c ****         CyBle_PasscNotificationEventHandler(eventParam);
 833:.\Generated_Source\PSoC4/CYBLE_eventHandler.c ****     }
 834:.\Generated_Source\PSoC4/CYBLE_eventHandler.c **** #endif /* CYBLE_PASS_CLIENT */
 835:.\Generated_Source\PSoC4/CYBLE_eventHandler.c **** #ifdef CYBLE_RSCS_CLIENT
 836:.\Generated_Source\PSoC4/CYBLE_eventHandler.c ****     if((cyBle_eventHandlerFlag & CYBLE_CALLBACK) != 0u)
 837:.\Generated_Source\PSoC4/CYBLE_eventHandler.c ****     {
 838:.\Generated_Source\PSoC4/CYBLE_eventHandler.c ****         CyBle_RscscNotificationEventHandler(eventParam);
 839:.\Generated_Source\PSoC4/CYBLE_eventHandler.c ****     }
 840:.\Generated_Source\PSoC4/CYBLE_eventHandler.c **** #endif /* CYBLE_RSCS_CLIENT */
 841:.\Generated_Source\PSoC4/CYBLE_eventHandler.c **** #ifdef CYBLE_SCPS_CLIENT
ARM GAS  C:\Users\mohammed\AppData\Local\Temp\ccG2gzoD.s 			page 20


 842:.\Generated_Source\PSoC4/CYBLE_eventHandler.c ****     if((cyBle_eventHandlerFlag & CYBLE_CALLBACK) != 0u)
 843:.\Generated_Source\PSoC4/CYBLE_eventHandler.c ****     {
 844:.\Generated_Source\PSoC4/CYBLE_eventHandler.c ****         CyBle_ScpscNotificationEventHandler(eventParam);
 845:.\Generated_Source\PSoC4/CYBLE_eventHandler.c ****     }
 846:.\Generated_Source\PSoC4/CYBLE_eventHandler.c **** #endif /* CYBLE_SCPS_CLIENT */
 847:.\Generated_Source\PSoC4/CYBLE_eventHandler.c **** #ifdef CYBLE_TPS_CLIENT
 848:.\Generated_Source\PSoC4/CYBLE_eventHandler.c ****     if((cyBle_eventHandlerFlag & CYBLE_CALLBACK) != 0u)
 849:.\Generated_Source\PSoC4/CYBLE_eventHandler.c ****     {
 850:.\Generated_Source\PSoC4/CYBLE_eventHandler.c ****         CyBle_TpscNotificationEventHandler(eventParam);
 851:.\Generated_Source\PSoC4/CYBLE_eventHandler.c ****     }
 852:.\Generated_Source\PSoC4/CYBLE_eventHandler.c **** #endif /* CYBLE_TPS_CLIENT */
 853:.\Generated_Source\PSoC4/CYBLE_eventHandler.c **** #ifdef CYBLE_UDS_CLIENT
 854:.\Generated_Source\PSoC4/CYBLE_eventHandler.c ****     if((cyBle_eventHandlerFlag & CYBLE_CALLBACK) != 0u)
 855:.\Generated_Source\PSoC4/CYBLE_eventHandler.c ****     {
 856:.\Generated_Source\PSoC4/CYBLE_eventHandler.c ****         CyBle_UdscNotificationEventHandler(eventParam);
 857:.\Generated_Source\PSoC4/CYBLE_eventHandler.c ****     }
 858:.\Generated_Source\PSoC4/CYBLE_eventHandler.c **** #endif /* CYBLE_UDS_CLIENT */
 859:.\Generated_Source\PSoC4/CYBLE_eventHandler.c **** #ifdef CYBLE_WPTS_CLIENT
 860:.\Generated_Source\PSoC4/CYBLE_eventHandler.c ****     if((cyBle_eventHandlerFlag & CYBLE_CALLBACK) != 0u)
 861:.\Generated_Source\PSoC4/CYBLE_eventHandler.c ****     {
 862:.\Generated_Source\PSoC4/CYBLE_eventHandler.c ****         CyBle_WptscNotificationEventHandler(eventParam);
 863:.\Generated_Source\PSoC4/CYBLE_eventHandler.c ****     }
 864:.\Generated_Source\PSoC4/CYBLE_eventHandler.c **** #endif /* CYBLE_WPTS_CLIENT */
 865:.\Generated_Source\PSoC4/CYBLE_eventHandler.c **** }
 866:.\Generated_Source\PSoC4/CYBLE_eventHandler.c **** 
 867:.\Generated_Source\PSoC4/CYBLE_eventHandler.c **** 
 868:.\Generated_Source\PSoC4/CYBLE_eventHandler.c **** /******************************************************************************    
 869:.\Generated_Source\PSoC4/CYBLE_eventHandler.c **** * Function Name: CyBle_IndicationEventHandler
 870:.\Generated_Source\PSoC4/CYBLE_eventHandler.c **** ***************************************************************************//**
 871:.\Generated_Source\PSoC4/CYBLE_eventHandler.c **** * 
 872:.\Generated_Source\PSoC4/CYBLE_eventHandler.c **** *  Handles the Indication event from BLE stack.
 873:.\Generated_Source\PSoC4/CYBLE_eventHandler.c **** * 
 874:.\Generated_Source\PSoC4/CYBLE_eventHandler.c **** *  \param eventParam: event parameter
 875:.\Generated_Source\PSoC4/CYBLE_eventHandler.c **** * 
 876:.\Generated_Source\PSoC4/CYBLE_eventHandler.c **** * \return
 877:.\Generated_Source\PSoC4/CYBLE_eventHandler.c **** *  None
 878:.\Generated_Source\PSoC4/CYBLE_eventHandler.c **** * 
 879:.\Generated_Source\PSoC4/CYBLE_eventHandler.c **** ******************************************************************************/
 880:.\Generated_Source\PSoC4/CYBLE_eventHandler.c **** static void CyBle_IndicationEventHandler(CYBLE_GATTC_HANDLE_VALUE_IND_PARAM_T *eventParam)
 881:.\Generated_Source\PSoC4/CYBLE_eventHandler.c **** {
 882:.\Generated_Source\PSoC4/CYBLE_eventHandler.c **** #ifdef CYBLE_BCS_CLIENT
 883:.\Generated_Source\PSoC4/CYBLE_eventHandler.c ****     if((cyBle_eventHandlerFlag & CYBLE_CALLBACK) != 0u)
 884:.\Generated_Source\PSoC4/CYBLE_eventHandler.c ****     {
 885:.\Generated_Source\PSoC4/CYBLE_eventHandler.c ****         CyBle_BcscIndicationEventHandler(eventParam);
 886:.\Generated_Source\PSoC4/CYBLE_eventHandler.c ****     }
 887:.\Generated_Source\PSoC4/CYBLE_eventHandler.c **** #endif /* CYBLE_BCS_CLIENT */
 888:.\Generated_Source\PSoC4/CYBLE_eventHandler.c **** #ifdef CYBLE_BLS_CLIENT
 889:.\Generated_Source\PSoC4/CYBLE_eventHandler.c ****     if((cyBle_eventHandlerFlag & CYBLE_CALLBACK) != 0u)
 890:.\Generated_Source\PSoC4/CYBLE_eventHandler.c ****     {
 891:.\Generated_Source\PSoC4/CYBLE_eventHandler.c ****         CyBle_BlscIndicationEventHandler(eventParam);
 892:.\Generated_Source\PSoC4/CYBLE_eventHandler.c ****     }
 893:.\Generated_Source\PSoC4/CYBLE_eventHandler.c **** #endif /* CYBLE_BLS_CLIENT */
 894:.\Generated_Source\PSoC4/CYBLE_eventHandler.c **** #ifdef CYBLE_CGMS_CLIENT
 895:.\Generated_Source\PSoC4/CYBLE_eventHandler.c ****     if((cyBle_eventHandlerFlag & CYBLE_CALLBACK) != 0u)
 896:.\Generated_Source\PSoC4/CYBLE_eventHandler.c ****     {
 897:.\Generated_Source\PSoC4/CYBLE_eventHandler.c ****         CyBle_CgmscIndicationEventHandler(eventParam);
 898:.\Generated_Source\PSoC4/CYBLE_eventHandler.c ****     }
ARM GAS  C:\Users\mohammed\AppData\Local\Temp\ccG2gzoD.s 			page 21


 899:.\Generated_Source\PSoC4/CYBLE_eventHandler.c **** #endif /* CYBLE_CGMS_CLIENT */
 900:.\Generated_Source\PSoC4/CYBLE_eventHandler.c **** #ifdef CYBLE_CPS_CLIENT
 901:.\Generated_Source\PSoC4/CYBLE_eventHandler.c ****     if((cyBle_eventHandlerFlag & CYBLE_CALLBACK) != 0u)
 902:.\Generated_Source\PSoC4/CYBLE_eventHandler.c ****     {
 903:.\Generated_Source\PSoC4/CYBLE_eventHandler.c ****         CyBle_CpscIndicationEventHandler(eventParam);
 904:.\Generated_Source\PSoC4/CYBLE_eventHandler.c ****     }
 905:.\Generated_Source\PSoC4/CYBLE_eventHandler.c **** #endif /* CYBLE_CPS_CLIENT */
 906:.\Generated_Source\PSoC4/CYBLE_eventHandler.c **** #ifdef CYBLE_CSCS_CLIENT
 907:.\Generated_Source\PSoC4/CYBLE_eventHandler.c ****     if((cyBle_eventHandlerFlag & CYBLE_CALLBACK) != 0u)
 908:.\Generated_Source\PSoC4/CYBLE_eventHandler.c ****     {
 909:.\Generated_Source\PSoC4/CYBLE_eventHandler.c ****         CyBle_CscscIndicationEventHandler(eventParam);
 910:.\Generated_Source\PSoC4/CYBLE_eventHandler.c ****     }
 911:.\Generated_Source\PSoC4/CYBLE_eventHandler.c **** #endif /* CYBLE_CSCS_CLIENT */
 912:.\Generated_Source\PSoC4/CYBLE_eventHandler.c **** #ifdef CYBLE_ESS_CLIENT
 913:.\Generated_Source\PSoC4/CYBLE_eventHandler.c ****     if((cyBle_eventHandlerFlag & CYBLE_CALLBACK) != 0u)
 914:.\Generated_Source\PSoC4/CYBLE_eventHandler.c ****     {
 915:.\Generated_Source\PSoC4/CYBLE_eventHandler.c ****         CyBle_EsscIndicationEventHandler(eventParam);
 916:.\Generated_Source\PSoC4/CYBLE_eventHandler.c ****     }
 917:.\Generated_Source\PSoC4/CYBLE_eventHandler.c **** #endif /* CYBLE_ESS_CLIENT */
 918:.\Generated_Source\PSoC4/CYBLE_eventHandler.c **** #ifdef CYBLE_GLS_CLIENT
 919:.\Generated_Source\PSoC4/CYBLE_eventHandler.c ****     if((cyBle_eventHandlerFlag & CYBLE_CALLBACK) != 0u)
 920:.\Generated_Source\PSoC4/CYBLE_eventHandler.c ****     {
 921:.\Generated_Source\PSoC4/CYBLE_eventHandler.c ****         CyBle_GlscIndicationEventHandler(eventParam);
 922:.\Generated_Source\PSoC4/CYBLE_eventHandler.c ****     }
 923:.\Generated_Source\PSoC4/CYBLE_eventHandler.c **** #endif /* CYBLE_GLS_CLIENT */
 924:.\Generated_Source\PSoC4/CYBLE_eventHandler.c **** #ifdef CYBLE_HTS_CLIENT
 925:.\Generated_Source\PSoC4/CYBLE_eventHandler.c ****     if((cyBle_eventHandlerFlag & CYBLE_CALLBACK) != 0u)
 926:.\Generated_Source\PSoC4/CYBLE_eventHandler.c ****     {
 927:.\Generated_Source\PSoC4/CYBLE_eventHandler.c ****         CyBle_HtscIndicationEventHandler(eventParam);
 928:.\Generated_Source\PSoC4/CYBLE_eventHandler.c ****     }
 929:.\Generated_Source\PSoC4/CYBLE_eventHandler.c **** #endif /* CYBLE_HTS_CLIENT */
 930:.\Generated_Source\PSoC4/CYBLE_eventHandler.c **** #ifdef CYBLE_LNS_CLIENT
 931:.\Generated_Source\PSoC4/CYBLE_eventHandler.c ****     if((cyBle_eventHandlerFlag & CYBLE_CALLBACK) != 0u)
 932:.\Generated_Source\PSoC4/CYBLE_eventHandler.c ****     {
 933:.\Generated_Source\PSoC4/CYBLE_eventHandler.c ****         CyBle_LnscIndicationEventHandler(eventParam);
 934:.\Generated_Source\PSoC4/CYBLE_eventHandler.c ****     }
 935:.\Generated_Source\PSoC4/CYBLE_eventHandler.c **** #endif /* CYBLE_LNS_CLIENT */
 936:.\Generated_Source\PSoC4/CYBLE_eventHandler.c **** #ifdef CYBLE_RSCS_CLIENT
 937:.\Generated_Source\PSoC4/CYBLE_eventHandler.c ****     if((cyBle_eventHandlerFlag & CYBLE_CALLBACK) != 0u)
 938:.\Generated_Source\PSoC4/CYBLE_eventHandler.c ****     {
 939:.\Generated_Source\PSoC4/CYBLE_eventHandler.c ****         CyBle_RscscIndicationEventHandler(eventParam);
 940:.\Generated_Source\PSoC4/CYBLE_eventHandler.c ****     }
 941:.\Generated_Source\PSoC4/CYBLE_eventHandler.c **** #endif /* CYBLE_RSCS_CLIENT */
 942:.\Generated_Source\PSoC4/CYBLE_eventHandler.c **** #ifdef CYBLE_UDS_CLIENT
 943:.\Generated_Source\PSoC4/CYBLE_eventHandler.c ****     if((cyBle_eventHandlerFlag & CYBLE_CALLBACK) != 0u)
 944:.\Generated_Source\PSoC4/CYBLE_eventHandler.c ****     {
 945:.\Generated_Source\PSoC4/CYBLE_eventHandler.c ****         CyBle_UdscIndicationEventHandler(eventParam);
 946:.\Generated_Source\PSoC4/CYBLE_eventHandler.c ****     }
 947:.\Generated_Source\PSoC4/CYBLE_eventHandler.c **** #endif /* CYBLE_UDS_CLIENT */
 948:.\Generated_Source\PSoC4/CYBLE_eventHandler.c **** #ifdef CYBLE_WPTS_CLIENT
 949:.\Generated_Source\PSoC4/CYBLE_eventHandler.c ****     if((cyBle_eventHandlerFlag & CYBLE_CALLBACK) != 0u)
 950:.\Generated_Source\PSoC4/CYBLE_eventHandler.c ****     {
 951:.\Generated_Source\PSoC4/CYBLE_eventHandler.c ****         CyBle_WptscIndicationEventHandler(eventParam);
 952:.\Generated_Source\PSoC4/CYBLE_eventHandler.c ****     }
 953:.\Generated_Source\PSoC4/CYBLE_eventHandler.c **** #endif /* CYBLE_WPTS_CLIENT */
 954:.\Generated_Source\PSoC4/CYBLE_eventHandler.c **** #ifdef CYBLE_WSS_CLIENT
 955:.\Generated_Source\PSoC4/CYBLE_eventHandler.c ****     if((cyBle_eventHandlerFlag & CYBLE_CALLBACK) != 0u)
ARM GAS  C:\Users\mohammed\AppData\Local\Temp\ccG2gzoD.s 			page 22


 956:.\Generated_Source\PSoC4/CYBLE_eventHandler.c ****     {
 957:.\Generated_Source\PSoC4/CYBLE_eventHandler.c ****         CyBle_WsscIndicationEventHandler(eventParam);
 958:.\Generated_Source\PSoC4/CYBLE_eventHandler.c ****     }
 959:.\Generated_Source\PSoC4/CYBLE_eventHandler.c **** #endif /* CYBLE_WSS_CLIENT */
 960:.\Generated_Source\PSoC4/CYBLE_eventHandler.c **** }
 961:.\Generated_Source\PSoC4/CYBLE_eventHandler.c **** 
 962:.\Generated_Source\PSoC4/CYBLE_eventHandler.c **** 
 963:.\Generated_Source\PSoC4/CYBLE_eventHandler.c **** 
 964:.\Generated_Source\PSoC4/CYBLE_eventHandler.c **** /******************************************************************************    
 965:.\Generated_Source\PSoC4/CYBLE_eventHandler.c **** * Function Name: CyBle_ReadResponseEventHandler
 966:.\Generated_Source\PSoC4/CYBLE_eventHandler.c **** ***************************************************************************//**
 967:.\Generated_Source\PSoC4/CYBLE_eventHandler.c **** * 
 968:.\Generated_Source\PSoC4/CYBLE_eventHandler.c **** *  Handles the Read Response event from BLE stack.
 969:.\Generated_Source\PSoC4/CYBLE_eventHandler.c **** * 
 970:.\Generated_Source\PSoC4/CYBLE_eventHandler.c **** *  \param eventParam: event parameter
 971:.\Generated_Source\PSoC4/CYBLE_eventHandler.c **** * 
 972:.\Generated_Source\PSoC4/CYBLE_eventHandler.c **** * \return
 973:.\Generated_Source\PSoC4/CYBLE_eventHandler.c **** *  None
 974:.\Generated_Source\PSoC4/CYBLE_eventHandler.c **** * 
 975:.\Generated_Source\PSoC4/CYBLE_eventHandler.c **** ******************************************************************************/
 976:.\Generated_Source\PSoC4/CYBLE_eventHandler.c **** static void CyBle_ReadResponseEventHandler(CYBLE_GATTC_READ_RSP_PARAM_T *eventParam)
 977:.\Generated_Source\PSoC4/CYBLE_eventHandler.c **** {
 978:.\Generated_Source\PSoC4/CYBLE_eventHandler.c **** #ifdef CYBLE_CUSTOM_CLIENT
 979:.\Generated_Source\PSoC4/CYBLE_eventHandler.c ****     /* Read response with 128-bit included service uuid */
 980:.\Generated_Source\PSoC4/CYBLE_eventHandler.c ****     if((CYBLE_CLIENT_STATE_INCL_DISCOVERING == CyBle_GetClientState()) &&
 981:.\Generated_Source\PSoC4/CYBLE_eventHandler.c ****        (cyBle_discInclInfo.inclDefHandle != 0u))
 982:.\Generated_Source\PSoC4/CYBLE_eventHandler.c ****     {
 983:.\Generated_Source\PSoC4/CYBLE_eventHandler.c ****         CYBLE_DISC_SRVC128_INFO_T discServInfo;
 984:.\Generated_Source\PSoC4/CYBLE_eventHandler.c **** 
 985:.\Generated_Source\PSoC4/CYBLE_eventHandler.c ****         /* Store service range */
 986:.\Generated_Source\PSoC4/CYBLE_eventHandler.c ****         discServInfo.range = cyBle_discInclInfo.inclHandleRange;
 987:.\Generated_Source\PSoC4/CYBLE_eventHandler.c ****         (void)memcpy((void *) discServInfo.uuid.uuid128.value, (void *)eventParam->value.val, event
 988:.\Generated_Source\PSoC4/CYBLE_eventHandler.c ****         CyBle_CustomcDiscoverServiceEventHandler(&discServInfo);
 989:.\Generated_Source\PSoC4/CYBLE_eventHandler.c ****         
 990:.\Generated_Source\PSoC4/CYBLE_eventHandler.c ****         /* Re-initiate CyBle_GattcFindIncludedServices function, setting the start
 991:.\Generated_Source\PSoC4/CYBLE_eventHandler.c ****            handle to the attribute handle which is placed next to the one used in
 992:.\Generated_Source\PSoC4/CYBLE_eventHandler.c ****            the above step.
 993:.\Generated_Source\PSoC4/CYBLE_eventHandler.c ****         */
 994:.\Generated_Source\PSoC4/CYBLE_eventHandler.c ****         discServInfo.range.startHandle = cyBle_discInclInfo.inclDefHandle + 1u;
 995:.\Generated_Source\PSoC4/CYBLE_eventHandler.c ****         discServInfo.range.endHandle = cyBle_serverInfo[cyBle_disCount].range.endHandle;
 996:.\Generated_Source\PSoC4/CYBLE_eventHandler.c ****         if(discServInfo.range.startHandle <= discServInfo.range.endHandle)
 997:.\Generated_Source\PSoC4/CYBLE_eventHandler.c ****         {
 998:.\Generated_Source\PSoC4/CYBLE_eventHandler.c ****             if(CYBLE_ERROR_OK != CyBle_GattcFindIncludedServices(cyBle_connHandle, &discServInfo.ra
 999:.\Generated_Source\PSoC4/CYBLE_eventHandler.c ****             {
1000:.\Generated_Source\PSoC4/CYBLE_eventHandler.c ****                 CyBle_ApplCallback(CYBLE_EVT_GATTC_INCL_DISCOVERY_FAILED, NULL);
1001:.\Generated_Source\PSoC4/CYBLE_eventHandler.c ****                 cyBle_eventHandlerFlag &= (uint8)~CYBLE_AUTO_DISCOVERY;
1002:.\Generated_Source\PSoC4/CYBLE_eventHandler.c ****             }
1003:.\Generated_Source\PSoC4/CYBLE_eventHandler.c ****         }
1004:.\Generated_Source\PSoC4/CYBLE_eventHandler.c ****         else /* Continue discovery of the following service */
1005:.\Generated_Source\PSoC4/CYBLE_eventHandler.c ****         {
1006:.\Generated_Source\PSoC4/CYBLE_eventHandler.c ****             CyBle_NextInclDiscovery(CYBLE_DISCOVERY_CONTINUE);
1007:.\Generated_Source\PSoC4/CYBLE_eventHandler.c ****         }
1008:.\Generated_Source\PSoC4/CYBLE_eventHandler.c ****         
1009:.\Generated_Source\PSoC4/CYBLE_eventHandler.c ****         cyBle_eventHandlerFlag &= (uint8)~CYBLE_CALLBACK;
1010:.\Generated_Source\PSoC4/CYBLE_eventHandler.c ****     #ifdef CYBLE_CUSTOM_CLIENT
1011:.\Generated_Source\PSoC4/CYBLE_eventHandler.c ****         cyBle_discInclInfo.inclDefHandle = 0u;
1012:.\Generated_Source\PSoC4/CYBLE_eventHandler.c ****     #endif /* CYBLE_CUSTOM_CLIENT */
ARM GAS  C:\Users\mohammed\AppData\Local\Temp\ccG2gzoD.s 			page 23


1013:.\Generated_Source\PSoC4/CYBLE_eventHandler.c ****     }
1014:.\Generated_Source\PSoC4/CYBLE_eventHandler.c **** #endif /* CYBLE_CUSTOM_CLIENT */
1015:.\Generated_Source\PSoC4/CYBLE_eventHandler.c **** #ifdef CYBLE_ANCS_CLIENT
1016:.\Generated_Source\PSoC4/CYBLE_eventHandler.c ****     if((cyBle_eventHandlerFlag & CYBLE_CALLBACK) != 0u)
1017:.\Generated_Source\PSoC4/CYBLE_eventHandler.c ****     {
1018:.\Generated_Source\PSoC4/CYBLE_eventHandler.c ****         CyBle_AncscReadResponseEventHandler(eventParam);
1019:.\Generated_Source\PSoC4/CYBLE_eventHandler.c ****     }
1020:.\Generated_Source\PSoC4/CYBLE_eventHandler.c **** #endif /* CYBLE_ANCS_CLIENT */
1021:.\Generated_Source\PSoC4/CYBLE_eventHandler.c **** #ifdef CYBLE_ANS_CLIENT
1022:.\Generated_Source\PSoC4/CYBLE_eventHandler.c ****     if((cyBle_eventHandlerFlag & CYBLE_CALLBACK) != 0u)
1023:.\Generated_Source\PSoC4/CYBLE_eventHandler.c ****     {
1024:.\Generated_Source\PSoC4/CYBLE_eventHandler.c ****         CyBle_AnscReadResponseEventHandler(eventParam);
1025:.\Generated_Source\PSoC4/CYBLE_eventHandler.c ****     }
1026:.\Generated_Source\PSoC4/CYBLE_eventHandler.c **** #endif /* CYBLE_ANS_CLIENT */
1027:.\Generated_Source\PSoC4/CYBLE_eventHandler.c **** #ifdef CYBLE_BAS_CLIENT
1028:.\Generated_Source\PSoC4/CYBLE_eventHandler.c ****     if((cyBle_eventHandlerFlag & CYBLE_CALLBACK) != 0u)
1029:.\Generated_Source\PSoC4/CYBLE_eventHandler.c ****     {
1030:.\Generated_Source\PSoC4/CYBLE_eventHandler.c ****         CyBle_BascReadResponseEventHandler(eventParam);
1031:.\Generated_Source\PSoC4/CYBLE_eventHandler.c ****     }
1032:.\Generated_Source\PSoC4/CYBLE_eventHandler.c **** #endif /* CYBLE_BAS_CLIENT */
1033:.\Generated_Source\PSoC4/CYBLE_eventHandler.c **** #ifdef CYBLE_BLS_CLIENT
1034:.\Generated_Source\PSoC4/CYBLE_eventHandler.c ****     if((cyBle_eventHandlerFlag & CYBLE_CALLBACK) != 0u)
1035:.\Generated_Source\PSoC4/CYBLE_eventHandler.c ****     {
1036:.\Generated_Source\PSoC4/CYBLE_eventHandler.c ****         CyBle_BlscReadResponseEventHandler(eventParam);
1037:.\Generated_Source\PSoC4/CYBLE_eventHandler.c ****     }
1038:.\Generated_Source\PSoC4/CYBLE_eventHandler.c **** #endif /* CYBLE_BLS_CLIENT */
1039:.\Generated_Source\PSoC4/CYBLE_eventHandler.c **** #ifdef CYBLE_BCS_CLIENT
1040:.\Generated_Source\PSoC4/CYBLE_eventHandler.c ****     if((cyBle_eventHandlerFlag & CYBLE_CALLBACK) != 0u)
1041:.\Generated_Source\PSoC4/CYBLE_eventHandler.c ****     {
1042:.\Generated_Source\PSoC4/CYBLE_eventHandler.c ****         CyBle_BcscReadResponseEventHandler(eventParam);
1043:.\Generated_Source\PSoC4/CYBLE_eventHandler.c ****     }
1044:.\Generated_Source\PSoC4/CYBLE_eventHandler.c **** #endif /* CYBLE_BCS_CLIENT */
1045:.\Generated_Source\PSoC4/CYBLE_eventHandler.c **** #ifdef CYBLE_BMS_CLIENT
1046:.\Generated_Source\PSoC4/CYBLE_eventHandler.c ****     if((cyBle_eventHandlerFlag & CYBLE_CALLBACK) != 0u)
1047:.\Generated_Source\PSoC4/CYBLE_eventHandler.c ****     {
1048:.\Generated_Source\PSoC4/CYBLE_eventHandler.c ****         CyBle_BmscReadResponseEventHandler(eventParam);
1049:.\Generated_Source\PSoC4/CYBLE_eventHandler.c ****     }
1050:.\Generated_Source\PSoC4/CYBLE_eventHandler.c **** #endif /* CYBLE_BMS_CLIENT */
1051:.\Generated_Source\PSoC4/CYBLE_eventHandler.c **** #ifdef CYBLE_CGMS_CLIENT
1052:.\Generated_Source\PSoC4/CYBLE_eventHandler.c ****     if((cyBle_eventHandlerFlag & CYBLE_CALLBACK) != 0u)
1053:.\Generated_Source\PSoC4/CYBLE_eventHandler.c ****     {
1054:.\Generated_Source\PSoC4/CYBLE_eventHandler.c ****         CyBle_CgmscReadResponseEventHandler(eventParam);
1055:.\Generated_Source\PSoC4/CYBLE_eventHandler.c ****     }
1056:.\Generated_Source\PSoC4/CYBLE_eventHandler.c **** #endif /* CYBLE_CGMS_CLIENT */
1057:.\Generated_Source\PSoC4/CYBLE_eventHandler.c **** #ifdef CYBLE_CPS_CLIENT
1058:.\Generated_Source\PSoC4/CYBLE_eventHandler.c ****     if((cyBle_eventHandlerFlag & CYBLE_CALLBACK) != 0u)
1059:.\Generated_Source\PSoC4/CYBLE_eventHandler.c ****     {
1060:.\Generated_Source\PSoC4/CYBLE_eventHandler.c ****         CyBle_CpscReadResponseEventHandler(eventParam);
1061:.\Generated_Source\PSoC4/CYBLE_eventHandler.c ****     }
1062:.\Generated_Source\PSoC4/CYBLE_eventHandler.c **** #endif /* CYBLE_CPS_CLIENT */
1063:.\Generated_Source\PSoC4/CYBLE_eventHandler.c **** #ifdef CYBLE_CSCS_CLIENT
1064:.\Generated_Source\PSoC4/CYBLE_eventHandler.c ****     if((cyBle_eventHandlerFlag & CYBLE_CALLBACK) != 0u)
1065:.\Generated_Source\PSoC4/CYBLE_eventHandler.c ****     {
1066:.\Generated_Source\PSoC4/CYBLE_eventHandler.c ****         CyBle_CscscReadResponseEventHandler(eventParam);
1067:.\Generated_Source\PSoC4/CYBLE_eventHandler.c ****     }
1068:.\Generated_Source\PSoC4/CYBLE_eventHandler.c **** #endif /* CYBLE_CSCS_CLIENT */
1069:.\Generated_Source\PSoC4/CYBLE_eventHandler.c **** #ifdef CYBLE_CTS_CLIENT
ARM GAS  C:\Users\mohammed\AppData\Local\Temp\ccG2gzoD.s 			page 24


1070:.\Generated_Source\PSoC4/CYBLE_eventHandler.c ****     if((cyBle_eventHandlerFlag & CYBLE_CALLBACK) != 0u)
1071:.\Generated_Source\PSoC4/CYBLE_eventHandler.c ****     {
1072:.\Generated_Source\PSoC4/CYBLE_eventHandler.c ****         CyBle_CtscReadResponseEventHandler(eventParam);
1073:.\Generated_Source\PSoC4/CYBLE_eventHandler.c ****     }
1074:.\Generated_Source\PSoC4/CYBLE_eventHandler.c **** #endif /* CYBLE_BAS_CLIENT */
1075:.\Generated_Source\PSoC4/CYBLE_eventHandler.c **** #ifdef CYBLE_DIS_CLIENT
1076:.\Generated_Source\PSoC4/CYBLE_eventHandler.c ****     if((cyBle_eventHandlerFlag & CYBLE_CALLBACK) != 0u)
1077:.\Generated_Source\PSoC4/CYBLE_eventHandler.c ****     {
1078:.\Generated_Source\PSoC4/CYBLE_eventHandler.c ****         CyBle_DiscReadResponseEventHandler(eventParam);
1079:.\Generated_Source\PSoC4/CYBLE_eventHandler.c ****     }
1080:.\Generated_Source\PSoC4/CYBLE_eventHandler.c **** #endif /* CYBLE_DIS_CLIENT */
1081:.\Generated_Source\PSoC4/CYBLE_eventHandler.c **** #ifdef CYBLE_ESS_CLIENT
1082:.\Generated_Source\PSoC4/CYBLE_eventHandler.c ****     if((cyBle_eventHandlerFlag & CYBLE_CALLBACK) != 0u)
1083:.\Generated_Source\PSoC4/CYBLE_eventHandler.c ****     {
1084:.\Generated_Source\PSoC4/CYBLE_eventHandler.c ****         CyBle_EsscReadResponseEventHandler(eventParam);
1085:.\Generated_Source\PSoC4/CYBLE_eventHandler.c ****     }
1086:.\Generated_Source\PSoC4/CYBLE_eventHandler.c **** #endif /* CYBLE_ESS_CLIENT */
1087:.\Generated_Source\PSoC4/CYBLE_eventHandler.c **** #ifdef CYBLE_GLS_CLIENT
1088:.\Generated_Source\PSoC4/CYBLE_eventHandler.c ****     if((cyBle_eventHandlerFlag & CYBLE_CALLBACK) != 0u)
1089:.\Generated_Source\PSoC4/CYBLE_eventHandler.c ****     {
1090:.\Generated_Source\PSoC4/CYBLE_eventHandler.c ****         CyBle_GlscReadResponseEventHandler(eventParam);
1091:.\Generated_Source\PSoC4/CYBLE_eventHandler.c ****     }
1092:.\Generated_Source\PSoC4/CYBLE_eventHandler.c **** #endif /* CYBLE_GLS_CLIENT */
1093:.\Generated_Source\PSoC4/CYBLE_eventHandler.c **** #ifdef CYBLE_HIDS_CLIENT
1094:.\Generated_Source\PSoC4/CYBLE_eventHandler.c ****     if((cyBle_eventHandlerFlag & CYBLE_CALLBACK) != 0u)
1095:.\Generated_Source\PSoC4/CYBLE_eventHandler.c ****     {
1096:.\Generated_Source\PSoC4/CYBLE_eventHandler.c ****         CyBle_HidscReadResponseEventHandler(eventParam);
1097:.\Generated_Source\PSoC4/CYBLE_eventHandler.c ****     }
1098:.\Generated_Source\PSoC4/CYBLE_eventHandler.c **** #endif /* CYBLE_HIDS_CLIENT */
1099:.\Generated_Source\PSoC4/CYBLE_eventHandler.c **** #ifdef CYBLE_HPS_CLIENT
1100:.\Generated_Source\PSoC4/CYBLE_eventHandler.c ****     if((cyBle_eventHandlerFlag & CYBLE_CALLBACK) != 0u)
1101:.\Generated_Source\PSoC4/CYBLE_eventHandler.c ****     {
1102:.\Generated_Source\PSoC4/CYBLE_eventHandler.c ****         CyBle_HpscReadResponseEventHandler(eventParam);
1103:.\Generated_Source\PSoC4/CYBLE_eventHandler.c ****     }
1104:.\Generated_Source\PSoC4/CYBLE_eventHandler.c **** #endif /* CYBLE_HPS_CLIENT */
1105:.\Generated_Source\PSoC4/CYBLE_eventHandler.c **** #ifdef CYBLE_HRS_CLIENT
1106:.\Generated_Source\PSoC4/CYBLE_eventHandler.c ****     if((cyBle_eventHandlerFlag & CYBLE_CALLBACK) != 0u)
1107:.\Generated_Source\PSoC4/CYBLE_eventHandler.c ****     {
1108:.\Generated_Source\PSoC4/CYBLE_eventHandler.c ****         CyBle_HrscReadResponseEventHandler(eventParam);
1109:.\Generated_Source\PSoC4/CYBLE_eventHandler.c ****     }
1110:.\Generated_Source\PSoC4/CYBLE_eventHandler.c **** #endif /* CYBLE_HRS_CLIENT */
1111:.\Generated_Source\PSoC4/CYBLE_eventHandler.c **** #ifdef CYBLE_HTS_CLIENT
1112:.\Generated_Source\PSoC4/CYBLE_eventHandler.c ****     if((cyBle_eventHandlerFlag & CYBLE_CALLBACK) != 0u)
1113:.\Generated_Source\PSoC4/CYBLE_eventHandler.c ****     {
1114:.\Generated_Source\PSoC4/CYBLE_eventHandler.c ****         CyBle_HtscReadResponseEventHandler(eventParam);
1115:.\Generated_Source\PSoC4/CYBLE_eventHandler.c ****     }
1116:.\Generated_Source\PSoC4/CYBLE_eventHandler.c **** #endif /* CYBLE_HTS_CLIENT */
1117:.\Generated_Source\PSoC4/CYBLE_eventHandler.c **** #ifdef CYBLE_IPS_CLIENT
1118:.\Generated_Source\PSoC4/CYBLE_eventHandler.c ****     if((cyBle_eventHandlerFlag & CYBLE_CALLBACK) != 0u)
1119:.\Generated_Source\PSoC4/CYBLE_eventHandler.c ****     {
1120:.\Generated_Source\PSoC4/CYBLE_eventHandler.c ****         CyBle_IpscReadResponseEventHandler(eventParam);
1121:.\Generated_Source\PSoC4/CYBLE_eventHandler.c ****     }
1122:.\Generated_Source\PSoC4/CYBLE_eventHandler.c **** #endif /* CYBLE_IPS_CLIENT */
1123:.\Generated_Source\PSoC4/CYBLE_eventHandler.c **** #ifdef CYBLE_LLS_CLIENT
1124:.\Generated_Source\PSoC4/CYBLE_eventHandler.c ****     if((cyBle_eventHandlerFlag & CYBLE_CALLBACK) != 0u)
1125:.\Generated_Source\PSoC4/CYBLE_eventHandler.c ****     {
1126:.\Generated_Source\PSoC4/CYBLE_eventHandler.c ****         CyBle_LlscReadResponseEventHandler(eventParam);
ARM GAS  C:\Users\mohammed\AppData\Local\Temp\ccG2gzoD.s 			page 25


1127:.\Generated_Source\PSoC4/CYBLE_eventHandler.c ****     }
1128:.\Generated_Source\PSoC4/CYBLE_eventHandler.c **** #endif /* CYBLE_LLS_CLIENT */
1129:.\Generated_Source\PSoC4/CYBLE_eventHandler.c **** #ifdef CYBLE_LNS_CLIENT
1130:.\Generated_Source\PSoC4/CYBLE_eventHandler.c ****     if((cyBle_eventHandlerFlag & CYBLE_CALLBACK) != 0u)
1131:.\Generated_Source\PSoC4/CYBLE_eventHandler.c ****     {
1132:.\Generated_Source\PSoC4/CYBLE_eventHandler.c ****         CyBle_LnscReadResponseEventHandler(eventParam);
1133:.\Generated_Source\PSoC4/CYBLE_eventHandler.c ****     }
1134:.\Generated_Source\PSoC4/CYBLE_eventHandler.c **** #endif /* CYBLE_LNS_CLIENT */
1135:.\Generated_Source\PSoC4/CYBLE_eventHandler.c **** #ifdef CYBLE_NDCS_CLIENT
1136:.\Generated_Source\PSoC4/CYBLE_eventHandler.c ****     if((cyBle_eventHandlerFlag & CYBLE_CALLBACK) != 0u)
1137:.\Generated_Source\PSoC4/CYBLE_eventHandler.c ****     {
1138:.\Generated_Source\PSoC4/CYBLE_eventHandler.c ****         CyBle_NdcscReadResponseEventHandler(eventParam);
1139:.\Generated_Source\PSoC4/CYBLE_eventHandler.c ****     }
1140:.\Generated_Source\PSoC4/CYBLE_eventHandler.c **** #endif /* CYBLE_NDCS_CLIENT */
1141:.\Generated_Source\PSoC4/CYBLE_eventHandler.c **** #ifdef CYBLE_PASS_CLIENT
1142:.\Generated_Source\PSoC4/CYBLE_eventHandler.c ****     if((cyBle_eventHandlerFlag & CYBLE_CALLBACK) != 0u)
1143:.\Generated_Source\PSoC4/CYBLE_eventHandler.c ****     {
1144:.\Generated_Source\PSoC4/CYBLE_eventHandler.c ****         CyBle_PasscReadResponseEventHandler(eventParam);
1145:.\Generated_Source\PSoC4/CYBLE_eventHandler.c ****     }
1146:.\Generated_Source\PSoC4/CYBLE_eventHandler.c **** #endif /* CYBLE_PASS_CLIENT */
1147:.\Generated_Source\PSoC4/CYBLE_eventHandler.c **** #ifdef CYBLE_RSCS_CLIENT
1148:.\Generated_Source\PSoC4/CYBLE_eventHandler.c ****     if((cyBle_eventHandlerFlag & CYBLE_CALLBACK) != 0u)
1149:.\Generated_Source\PSoC4/CYBLE_eventHandler.c ****     {
1150:.\Generated_Source\PSoC4/CYBLE_eventHandler.c ****         CyBle_RscscReadResponseEventHandler(eventParam);
1151:.\Generated_Source\PSoC4/CYBLE_eventHandler.c ****     }
1152:.\Generated_Source\PSoC4/CYBLE_eventHandler.c **** #endif /* CYBLE_RSCS_CLIENT */
1153:.\Generated_Source\PSoC4/CYBLE_eventHandler.c **** #ifdef CYBLE_RTUS_CLIENT
1154:.\Generated_Source\PSoC4/CYBLE_eventHandler.c ****     if((cyBle_eventHandlerFlag & CYBLE_CALLBACK) != 0u)
1155:.\Generated_Source\PSoC4/CYBLE_eventHandler.c ****     {
1156:.\Generated_Source\PSoC4/CYBLE_eventHandler.c ****         CyBle_RtuscReadResponseEventHandler(eventParam);
1157:.\Generated_Source\PSoC4/CYBLE_eventHandler.c ****     }
1158:.\Generated_Source\PSoC4/CYBLE_eventHandler.c **** #endif /* CYBLE_RTUS_CLIENT */
1159:.\Generated_Source\PSoC4/CYBLE_eventHandler.c **** #ifdef CYBLE_SCPS_CLIENT
1160:.\Generated_Source\PSoC4/CYBLE_eventHandler.c ****     if((cyBle_eventHandlerFlag & CYBLE_CALLBACK) != 0u)
1161:.\Generated_Source\PSoC4/CYBLE_eventHandler.c ****     {
1162:.\Generated_Source\PSoC4/CYBLE_eventHandler.c ****         CyBle_ScpscReadResponseEventHandler(eventParam);
1163:.\Generated_Source\PSoC4/CYBLE_eventHandler.c ****     }
1164:.\Generated_Source\PSoC4/CYBLE_eventHandler.c **** #endif /* CYBLE_SCPS_CLIENT */
1165:.\Generated_Source\PSoC4/CYBLE_eventHandler.c **** #ifdef CYBLE_TPS_CLIENT
1166:.\Generated_Source\PSoC4/CYBLE_eventHandler.c ****     if((cyBle_eventHandlerFlag & CYBLE_CALLBACK) != 0u)
1167:.\Generated_Source\PSoC4/CYBLE_eventHandler.c ****     {
1168:.\Generated_Source\PSoC4/CYBLE_eventHandler.c ****         CyBle_TpscReadResponseEventHandler(eventParam);
1169:.\Generated_Source\PSoC4/CYBLE_eventHandler.c ****     }
1170:.\Generated_Source\PSoC4/CYBLE_eventHandler.c **** #endif /* CYBLE_TPS_CLIENT */
1171:.\Generated_Source\PSoC4/CYBLE_eventHandler.c **** #ifdef CYBLE_UDS_CLIENT
1172:.\Generated_Source\PSoC4/CYBLE_eventHandler.c ****     if((cyBle_eventHandlerFlag & CYBLE_CALLBACK) != 0u)
1173:.\Generated_Source\PSoC4/CYBLE_eventHandler.c ****     {
1174:.\Generated_Source\PSoC4/CYBLE_eventHandler.c ****         CyBle_UdscReadResponseEventHandler(eventParam);
1175:.\Generated_Source\PSoC4/CYBLE_eventHandler.c ****     }
1176:.\Generated_Source\PSoC4/CYBLE_eventHandler.c **** #endif /* CYBLE_UDS_CLIENT */
1177:.\Generated_Source\PSoC4/CYBLE_eventHandler.c **** #ifdef CYBLE_WPTS_CLIENT
1178:.\Generated_Source\PSoC4/CYBLE_eventHandler.c ****     if((cyBle_eventHandlerFlag & CYBLE_CALLBACK) != 0u)
1179:.\Generated_Source\PSoC4/CYBLE_eventHandler.c ****     {
1180:.\Generated_Source\PSoC4/CYBLE_eventHandler.c ****         CyBle_WptscReadResponseEventHandler(eventParam);
1181:.\Generated_Source\PSoC4/CYBLE_eventHandler.c ****     }
1182:.\Generated_Source\PSoC4/CYBLE_eventHandler.c **** #endif /* CYBLE_WPTS_CLIENT */
1183:.\Generated_Source\PSoC4/CYBLE_eventHandler.c **** #ifdef CYBLE_WSS_CLIENT
ARM GAS  C:\Users\mohammed\AppData\Local\Temp\ccG2gzoD.s 			page 26


1184:.\Generated_Source\PSoC4/CYBLE_eventHandler.c ****     if((cyBle_eventHandlerFlag & CYBLE_CALLBACK) != 0u)
1185:.\Generated_Source\PSoC4/CYBLE_eventHandler.c ****     {
1186:.\Generated_Source\PSoC4/CYBLE_eventHandler.c ****         CyBle_WsscReadResponseEventHandler(eventParam);
1187:.\Generated_Source\PSoC4/CYBLE_eventHandler.c ****     }
1188:.\Generated_Source\PSoC4/CYBLE_eventHandler.c **** #endif /* CYBLE_WSS_CLIENT */
1189:.\Generated_Source\PSoC4/CYBLE_eventHandler.c **** }
1190:.\Generated_Source\PSoC4/CYBLE_eventHandler.c **** 
1191:.\Generated_Source\PSoC4/CYBLE_eventHandler.c **** /******************************************************************************    
1192:.\Generated_Source\PSoC4/CYBLE_eventHandler.c **** * Function Name: CyBle_ReadMultipleResponseEventHandler
1193:.\Generated_Source\PSoC4/CYBLE_eventHandler.c **** ***************************************************************************//**
1194:.\Generated_Source\PSoC4/CYBLE_eventHandler.c **** * 
1195:.\Generated_Source\PSoC4/CYBLE_eventHandler.c **** *  Handles the Read Multiple Response event from BLE stack.
1196:.\Generated_Source\PSoC4/CYBLE_eventHandler.c **** * 
1197:.\Generated_Source\PSoC4/CYBLE_eventHandler.c **** *  \param eventParam: event parameter
1198:.\Generated_Source\PSoC4/CYBLE_eventHandler.c **** * 
1199:.\Generated_Source\PSoC4/CYBLE_eventHandler.c **** * \return
1200:.\Generated_Source\PSoC4/CYBLE_eventHandler.c **** *  None
1201:.\Generated_Source\PSoC4/CYBLE_eventHandler.c **** * 
1202:.\Generated_Source\PSoC4/CYBLE_eventHandler.c **** ******************************************************************************/
1203:.\Generated_Source\PSoC4/CYBLE_eventHandler.c **** static void CyBle_ReadMultipleResponseEventHandler(CYBLE_GATTC_READ_RSP_PARAM_T *eventParam)
1204:.\Generated_Source\PSoC4/CYBLE_eventHandler.c **** {
1205:.\Generated_Source\PSoC4/CYBLE_eventHandler.c **** #ifdef CYBLE_CUSTOM_CLIENT
1206:.\Generated_Source\PSoC4/CYBLE_eventHandler.c ****     /* Read response with 128-bit included service uuid */
1207:.\Generated_Source\PSoC4/CYBLE_eventHandler.c ****     if((CYBLE_CLIENT_STATE_INCL_DISCOVERING == CyBle_GetClientState()) &&
1208:.\Generated_Source\PSoC4/CYBLE_eventHandler.c ****        (cyBle_discInclInfo.inclDefHandle != 0u))
1209:.\Generated_Source\PSoC4/CYBLE_eventHandler.c ****     {
1210:.\Generated_Source\PSoC4/CYBLE_eventHandler.c ****         CYBLE_DISC_SRVC128_INFO_T discServInfo;
1211:.\Generated_Source\PSoC4/CYBLE_eventHandler.c **** 
1212:.\Generated_Source\PSoC4/CYBLE_eventHandler.c ****         /* Store service range */
1213:.\Generated_Source\PSoC4/CYBLE_eventHandler.c ****         discServInfo.range = cyBle_discInclInfo.inclHandleRange;
1214:.\Generated_Source\PSoC4/CYBLE_eventHandler.c ****         (void)memcpy((void *) discServInfo.uuid.uuid128.value, (void *)eventParam->value.val, event
1215:.\Generated_Source\PSoC4/CYBLE_eventHandler.c ****         CyBle_CustomcDiscoverServiceEventHandler(&discServInfo);
1216:.\Generated_Source\PSoC4/CYBLE_eventHandler.c ****         
1217:.\Generated_Source\PSoC4/CYBLE_eventHandler.c ****         /* Re-initiate CyBle_GattcFindIncludedServices function, setting the start
1218:.\Generated_Source\PSoC4/CYBLE_eventHandler.c ****            handle to the attribute handle which is placed next to the one used in
1219:.\Generated_Source\PSoC4/CYBLE_eventHandler.c ****            the above step.
1220:.\Generated_Source\PSoC4/CYBLE_eventHandler.c ****         */
1221:.\Generated_Source\PSoC4/CYBLE_eventHandler.c ****         discServInfo.range.startHandle = cyBle_discInclInfo.inclDefHandle + 1;
1222:.\Generated_Source\PSoC4/CYBLE_eventHandler.c ****         discServInfo.range.endHandle = cyBle_serverInfo[cyBle_disCount].range.endHandle;
1223:.\Generated_Source\PSoC4/CYBLE_eventHandler.c ****         if(discServInfo.range.startHandle <= discServInfo.range.endHandle)
1224:.\Generated_Source\PSoC4/CYBLE_eventHandler.c ****         {
1225:.\Generated_Source\PSoC4/CYBLE_eventHandler.c ****             if(CYBLE_ERROR_OK != CyBle_GattcFindIncludedServices(cyBle_connHandle, &discServInfo.ra
1226:.\Generated_Source\PSoC4/CYBLE_eventHandler.c ****             {
1227:.\Generated_Source\PSoC4/CYBLE_eventHandler.c ****                 CyBle_ApplCallback(CYBLE_EVT_GATTC_INCL_DISCOVERY_FAILED, NULL);
1228:.\Generated_Source\PSoC4/CYBLE_eventHandler.c ****                 cyBle_eventHandlerFlag &= (uint8)~CYBLE_AUTO_DISCOVERY;
1229:.\Generated_Source\PSoC4/CYBLE_eventHandler.c ****             }
1230:.\Generated_Source\PSoC4/CYBLE_eventHandler.c ****         }
1231:.\Generated_Source\PSoC4/CYBLE_eventHandler.c ****         else /* Continue discovery of the following service */
1232:.\Generated_Source\PSoC4/CYBLE_eventHandler.c ****         {
1233:.\Generated_Source\PSoC4/CYBLE_eventHandler.c ****             CyBle_NextInclDiscovery(CYBLE_DISCOVERY_CONTINUE);
1234:.\Generated_Source\PSoC4/CYBLE_eventHandler.c ****         }
1235:.\Generated_Source\PSoC4/CYBLE_eventHandler.c ****         
1236:.\Generated_Source\PSoC4/CYBLE_eventHandler.c ****         cyBle_eventHandlerFlag &= (uint8)~CYBLE_CALLBACK;
1237:.\Generated_Source\PSoC4/CYBLE_eventHandler.c ****     #ifdef CYBLE_CUSTOM_CLIENT
1238:.\Generated_Source\PSoC4/CYBLE_eventHandler.c ****         cyBle_discInclInfo.inclDefHandle = 0u;
1239:.\Generated_Source\PSoC4/CYBLE_eventHandler.c ****     #endif /* CYBLE_CUSTOM_CLIENT */
1240:.\Generated_Source\PSoC4/CYBLE_eventHandler.c ****     }
ARM GAS  C:\Users\mohammed\AppData\Local\Temp\ccG2gzoD.s 			page 27


1241:.\Generated_Source\PSoC4/CYBLE_eventHandler.c **** #endif /* CYBLE_CUSTOM_CLIENT */
1242:.\Generated_Source\PSoC4/CYBLE_eventHandler.c **** #ifdef CYBLE_IPS_CLIENT
1243:.\Generated_Source\PSoC4/CYBLE_eventHandler.c ****     if((cyBle_eventHandlerFlag & CYBLE_CALLBACK) != 0u)
1244:.\Generated_Source\PSoC4/CYBLE_eventHandler.c ****     {
1245:.\Generated_Source\PSoC4/CYBLE_eventHandler.c ****         CyBle_IpscReadMultipleResponseEventHandler(eventParam);
1246:.\Generated_Source\PSoC4/CYBLE_eventHandler.c ****     }
1247:.\Generated_Source\PSoC4/CYBLE_eventHandler.c **** #endif /* CYBLE_IPS_CLIENT */
1248:.\Generated_Source\PSoC4/CYBLE_eventHandler.c ****     /* MISRA 16.7 violavion workarround */
1249:.\Generated_Source\PSoC4/CYBLE_eventHandler.c ****     eventParam = eventParam;
1250:.\Generated_Source\PSoC4/CYBLE_eventHandler.c **** }
1251:.\Generated_Source\PSoC4/CYBLE_eventHandler.c **** #endif /* CYBLE_GATT_ROLE_CLIENT */
1252:.\Generated_Source\PSoC4/CYBLE_eventHandler.c **** 
1253:.\Generated_Source\PSoC4/CYBLE_eventHandler.c **** 
1254:.\Generated_Source\PSoC4/CYBLE_eventHandler.c **** /****************************************************************************** 
1255:.\Generated_Source\PSoC4/CYBLE_eventHandler.c **** * Function Name: CyBle_DisconnectEventHandler
1256:.\Generated_Source\PSoC4/CYBLE_eventHandler.c **** ***************************************************************************//**
1257:.\Generated_Source\PSoC4/CYBLE_eventHandler.c **** * 
1258:.\Generated_Source\PSoC4/CYBLE_eventHandler.c **** *  Handles the GATT Disconnection event from the BLE stack.
1259:.\Generated_Source\PSoC4/CYBLE_eventHandler.c **** * 
1260:.\Generated_Source\PSoC4/CYBLE_eventHandler.c **** * \return
1261:.\Generated_Source\PSoC4/CYBLE_eventHandler.c **** *  None
1262:.\Generated_Source\PSoC4/CYBLE_eventHandler.c **** * 
1263:.\Generated_Source\PSoC4/CYBLE_eventHandler.c **** ******************************************************************************/
1264:.\Generated_Source\PSoC4/CYBLE_eventHandler.c **** static void CyBle_GattDisconnectEventHandler(void)
1265:.\Generated_Source\PSoC4/CYBLE_eventHandler.c **** {
 243              		.loc 1 1265 0
 244              		.cfi_startproc
 245 0000 80B5     		push	{r7, lr}
 246              		.cfi_def_cfa_offset 8
 247              		.cfi_offset 7, -8
 248              		.cfi_offset 14, -4
 249 0002 00AF     		add	r7, sp, #0
 250              		.cfi_def_cfa_register 7
1266:.\Generated_Source\PSoC4/CYBLE_eventHandler.c ****     cyBle_connHandle.attId = 0u;
 251              		.loc 1 1266 0
 252 0004 044B     		ldr	r3, .L14
 253 0006 0022     		mov	r2, #0
 254 0008 5A70     		strb	r2, [r3, #1]
1267:.\Generated_Source\PSoC4/CYBLE_eventHandler.c ****     cyBle_connHandle.bdHandle = 0u;
 255              		.loc 1 1267 0
 256 000a 034B     		ldr	r3, .L14
 257 000c 0022     		mov	r2, #0
 258 000e 1A70     		strb	r2, [r3]
1268:.\Generated_Source\PSoC4/CYBLE_eventHandler.c ****     
1269:.\Generated_Source\PSoC4/CYBLE_eventHandler.c ****     #if (CYBLE_GATT_ROLE_CLIENT)
1270:.\Generated_Source\PSoC4/CYBLE_eventHandler.c ****         if(CYBLE_CLIENT_STATE_DISCOVERED == CyBle_GetClientState())
1271:.\Generated_Source\PSoC4/CYBLE_eventHandler.c ****         {
1272:.\Generated_Source\PSoC4/CYBLE_eventHandler.c ****             CyBle_SetClientState(CYBLE_CLIENT_STATE_DISCONNECTED_DISCOVERED);
1273:.\Generated_Source\PSoC4/CYBLE_eventHandler.c ****         }
1274:.\Generated_Source\PSoC4/CYBLE_eventHandler.c ****         else
1275:.\Generated_Source\PSoC4/CYBLE_eventHandler.c ****         {
1276:.\Generated_Source\PSoC4/CYBLE_eventHandler.c ****             CyBle_SetClientState(CYBLE_CLIENT_STATE_DISCONNECTED);
1277:.\Generated_Source\PSoC4/CYBLE_eventHandler.c ****         }
1278:.\Generated_Source\PSoC4/CYBLE_eventHandler.c ****     #endif /* CYBLE_GATT_ROLE_CLIENT */
1279:.\Generated_Source\PSoC4/CYBLE_eventHandler.c ****         
1280:.\Generated_Source\PSoC4/CYBLE_eventHandler.c ****     #ifdef CYBLE_CPS_SERVER
1281:.\Generated_Source\PSoC4/CYBLE_eventHandler.c ****         #if CYBLE_GAP_ROLE_BROADCASTER
ARM GAS  C:\Users\mohammed\AppData\Local\Temp\ccG2gzoD.s 			page 28


1282:.\Generated_Source\PSoC4/CYBLE_eventHandler.c ****             CyBle_CpssDisconnectEventHandler();
1283:.\Generated_Source\PSoC4/CYBLE_eventHandler.c ****         #endif /* CYBLE_GAP_ROLE_BROADCASTER */
1284:.\Generated_Source\PSoC4/CYBLE_eventHandler.c ****     #endif /* CYBLE_CPS_SERVER */
1285:.\Generated_Source\PSoC4/CYBLE_eventHandler.c **** 
1286:.\Generated_Source\PSoC4/CYBLE_eventHandler.c ****     #ifdef CYBLE_CPS_CLIENT
1287:.\Generated_Source\PSoC4/CYBLE_eventHandler.c ****         CyBle_CpscDisconnectEventHandler();
1288:.\Generated_Source\PSoC4/CYBLE_eventHandler.c ****     #endif /* CYBLE_CPS_CLIENT */
1289:.\Generated_Source\PSoC4/CYBLE_eventHandler.c **** 
1290:.\Generated_Source\PSoC4/CYBLE_eventHandler.c ****     #ifdef CYBLE_IAS_SERVER
1291:.\Generated_Source\PSoC4/CYBLE_eventHandler.c ****         CyBle_IassDisconnectEventHandler();
1292:.\Generated_Source\PSoC4/CYBLE_eventHandler.c ****     #endif /* CYBLE_IAS_SERVER */
1293:.\Generated_Source\PSoC4/CYBLE_eventHandler.c ****     
1294:.\Generated_Source\PSoC4/CYBLE_eventHandler.c ****     #ifdef CYBLE_GLS_SERVER
1295:.\Generated_Source\PSoC4/CYBLE_eventHandler.c ****         CyBle_GlsInit();
1296:.\Generated_Source\PSoC4/CYBLE_eventHandler.c ****     #endif /* CYBLE_GLS_SERVER */
1297:.\Generated_Source\PSoC4/CYBLE_eventHandler.c ****     
1298:.\Generated_Source\PSoC4/CYBLE_eventHandler.c ****     #ifdef CYBLE_LNS_SERVER
1299:.\Generated_Source\PSoC4/CYBLE_eventHandler.c ****         CyBle_LnsInit();
1300:.\Generated_Source\PSoC4/CYBLE_eventHandler.c ****     #endif /* CYBLE_LNS_SERVER */
1301:.\Generated_Source\PSoC4/CYBLE_eventHandler.c ****     
1302:.\Generated_Source\PSoC4/CYBLE_eventHandler.c ****     #ifdef CYBLE_UDS_SERVER
1303:.\Generated_Source\PSoC4/CYBLE_eventHandler.c ****         CyBle_UdsInit();
 259              		.loc 1 1303 0
 260 0010 FFF7FEFF 		bl	CyBle_UdsInit
1304:.\Generated_Source\PSoC4/CYBLE_eventHandler.c ****     #endif /* CYBLE_UDS_SERVER */
1305:.\Generated_Source\PSoC4/CYBLE_eventHandler.c **** }
 261              		.loc 1 1305 0
 262 0014 BD46     		mov	sp, r7
 263              		@ sp needed
 264 0016 80BD     		pop	{r7, pc}
 265              	.L15:
 266              		.align	2
 267              	.L14:
 268 0018 00000000 		.word	cyBle_connHandle
 269              		.cfi_endproc
 270              	.LFE4:
 271              		.size	CyBle_GattDisconnectEventHandler, .-CyBle_GattDisconnectEventHandler
 272              		.section	.text.CyBle_TimeOutEventHandler,"ax",%progbits
 273              		.align	2
 274              		.code	16
 275              		.thumb_func
 276              		.type	CyBle_TimeOutEventHandler, %function
 277              	CyBle_TimeOutEventHandler:
 278              	.LFB5:
1306:.\Generated_Source\PSoC4/CYBLE_eventHandler.c **** 
1307:.\Generated_Source\PSoC4/CYBLE_eventHandler.c **** 
1308:.\Generated_Source\PSoC4/CYBLE_eventHandler.c **** /****************************************************************************** 
1309:.\Generated_Source\PSoC4/CYBLE_eventHandler.c **** * Function Name: CyBle_TimeOutEventHandler
1310:.\Generated_Source\PSoC4/CYBLE_eventHandler.c **** ***************************************************************************//**
1311:.\Generated_Source\PSoC4/CYBLE_eventHandler.c **** * 
1312:.\Generated_Source\PSoC4/CYBLE_eventHandler.c **** *  Handles the CYBLE_EVT_TIMEOUT event from the BLE stack.
1313:.\Generated_Source\PSoC4/CYBLE_eventHandler.c **** * 
1314:.\Generated_Source\PSoC4/CYBLE_eventHandler.c **** *  \param eventParam: The pointer to a structure of type CYBLE_TO_REASON_CODE_T.
1315:.\Generated_Source\PSoC4/CYBLE_eventHandler.c **** * 
1316:.\Generated_Source\PSoC4/CYBLE_eventHandler.c **** * \return
1317:.\Generated_Source\PSoC4/CYBLE_eventHandler.c **** *  None
1318:.\Generated_Source\PSoC4/CYBLE_eventHandler.c **** * 
ARM GAS  C:\Users\mohammed\AppData\Local\Temp\ccG2gzoD.s 			page 29


1319:.\Generated_Source\PSoC4/CYBLE_eventHandler.c **** ******************************************************************************/
1320:.\Generated_Source\PSoC4/CYBLE_eventHandler.c **** static void CyBle_TimeOutEventHandler(const CYBLE_TO_REASON_CODE_T *eventParam)
1321:.\Generated_Source\PSoC4/CYBLE_eventHandler.c **** {
 279              		.loc 1 1321 0
 280              		.cfi_startproc
 281 0000 80B5     		push	{r7, lr}
 282              		.cfi_def_cfa_offset 8
 283              		.cfi_offset 7, -8
 284              		.cfi_offset 14, -4
 285 0002 82B0     		sub	sp, sp, #8
 286              		.cfi_def_cfa_offset 16
 287 0004 00AF     		add	r7, sp, #0
 288              		.cfi_def_cfa_register 7
 289 0006 7860     		str	r0, [r7, #4]
1322:.\Generated_Source\PSoC4/CYBLE_eventHandler.c ****     if(*eventParam == CYBLE_GATT_RSP_TO)
1323:.\Generated_Source\PSoC4/CYBLE_eventHandler.c ****     {
1324:.\Generated_Source\PSoC4/CYBLE_eventHandler.c ****     #if (CYBLE_GATT_ROLE_CLIENT)
1325:.\Generated_Source\PSoC4/CYBLE_eventHandler.c ****         if((cyBle_eventHandlerFlag & CYBLE_AUTO_DISCOVERY) != 0u)
1326:.\Generated_Source\PSoC4/CYBLE_eventHandler.c ****         {
1327:.\Generated_Source\PSoC4/CYBLE_eventHandler.c ****             switch(CyBle_GetClientState())
1328:.\Generated_Source\PSoC4/CYBLE_eventHandler.c ****             {
1329:.\Generated_Source\PSoC4/CYBLE_eventHandler.c ****                 case CYBLE_CLIENT_STATE_SRVC_DISCOVERING:
1330:.\Generated_Source\PSoC4/CYBLE_eventHandler.c ****                     CyBle_ApplCallback(CYBLE_EVT_GATTC_SRVC_DISCOVERY_FAILED, NULL);
1331:.\Generated_Source\PSoC4/CYBLE_eventHandler.c ****                     break;
1332:.\Generated_Source\PSoC4/CYBLE_eventHandler.c ****                 case CYBLE_CLIENT_STATE_INCL_DISCOVERING:
1333:.\Generated_Source\PSoC4/CYBLE_eventHandler.c ****                     CyBle_ApplCallback(CYBLE_EVT_GATTC_INCL_DISCOVERY_FAILED, NULL);
1334:.\Generated_Source\PSoC4/CYBLE_eventHandler.c ****                     break;
1335:.\Generated_Source\PSoC4/CYBLE_eventHandler.c ****                 case CYBLE_CLIENT_STATE_CHAR_DISCOVERING:
1336:.\Generated_Source\PSoC4/CYBLE_eventHandler.c ****                     CyBle_ApplCallback(CYBLE_EVT_GATTC_CHAR_DISCOVERY_FAILED, NULL);
1337:.\Generated_Source\PSoC4/CYBLE_eventHandler.c ****                     break;
1338:.\Generated_Source\PSoC4/CYBLE_eventHandler.c ****                 case CYBLE_CLIENT_STATE_DESCR_DISCOVERING:
1339:.\Generated_Source\PSoC4/CYBLE_eventHandler.c ****                     CyBle_ApplCallback(CYBLE_EVT_GATTC_DESCR_DISCOVERY_FAILED, NULL);
1340:.\Generated_Source\PSoC4/CYBLE_eventHandler.c ****                     break;
1341:.\Generated_Source\PSoC4/CYBLE_eventHandler.c ****                 default:        /* Other states should not be set in Auto discovery mode */
1342:.\Generated_Source\PSoC4/CYBLE_eventHandler.c ****                     break;
1343:.\Generated_Source\PSoC4/CYBLE_eventHandler.c ****             }
1344:.\Generated_Source\PSoC4/CYBLE_eventHandler.c ****             cyBle_eventHandlerFlag &= (uint8)~CYBLE_AUTO_DISCOVERY;
1345:.\Generated_Source\PSoC4/CYBLE_eventHandler.c ****             CyBle_SetClientState(CYBLE_CLIENT_STATE_CONNECTED);
1346:.\Generated_Source\PSoC4/CYBLE_eventHandler.c ****         }
1347:.\Generated_Source\PSoC4/CYBLE_eventHandler.c ****     #endif /* CYBLE_GATT_ROLE_CLIENT */
1348:.\Generated_Source\PSoC4/CYBLE_eventHandler.c ****     #ifdef CYBLE_CPS_SERVER
1349:.\Generated_Source\PSoC4/CYBLE_eventHandler.c ****         CyBle_CpssTimeOutEventHandler();
1350:.\Generated_Source\PSoC4/CYBLE_eventHandler.c ****     #endif /* CYBLE_CPS_SERVER */
1351:.\Generated_Source\PSoC4/CYBLE_eventHandler.c ****     }
1352:.\Generated_Source\PSoC4/CYBLE_eventHandler.c ****     
1353:.\Generated_Source\PSoC4/CYBLE_eventHandler.c ****     /* Connection procedure timeout */
1354:.\Generated_Source\PSoC4/CYBLE_eventHandler.c ****     if(*eventParam == CYBLE_GENERIC_TO)
1355:.\Generated_Source\PSoC4/CYBLE_eventHandler.c ****     {
1356:.\Generated_Source\PSoC4/CYBLE_eventHandler.c ****     #if(CYBLE_GAP_ROLE_CENTRAL)
1357:.\Generated_Source\PSoC4/CYBLE_eventHandler.c ****         if(CYBLE_STATE_CONNECTING == CyBle_GetState())
1358:.\Generated_Source\PSoC4/CYBLE_eventHandler.c ****         {
1359:.\Generated_Source\PSoC4/CYBLE_eventHandler.c ****             (void)CyBle_GapcCancelDeviceConnection();
1360:.\Generated_Source\PSoC4/CYBLE_eventHandler.c ****         }
1361:.\Generated_Source\PSoC4/CYBLE_eventHandler.c ****     #endif /* CYBLE_GAP_ROLE_CENTRAL */
1362:.\Generated_Source\PSoC4/CYBLE_eventHandler.c ****     }
1363:.\Generated_Source\PSoC4/CYBLE_eventHandler.c **** }
 290              		.loc 1 1363 0
ARM GAS  C:\Users\mohammed\AppData\Local\Temp\ccG2gzoD.s 			page 30


 291 0008 BD46     		mov	sp, r7
 292 000a 02B0     		add	sp, sp, #8
 293              		@ sp needed
 294 000c 80BD     		pop	{r7, pc}
 295              		.cfi_endproc
 296              	.LFE5:
 297              		.size	CyBle_TimeOutEventHandler, .-CyBle_TimeOutEventHandler
 298              		.section	.text.CyBle_GattConnectReqHandler,"ax",%progbits
 299              		.align	2
 300              		.code	16
 301              		.thumb_func
 302              		.type	CyBle_GattConnectReqHandler, %function
 303              	CyBle_GattConnectReqHandler:
 304              	.LFB6:
1364:.\Generated_Source\PSoC4/CYBLE_eventHandler.c **** 
1365:.\Generated_Source\PSoC4/CYBLE_eventHandler.c **** 
1366:.\Generated_Source\PSoC4/CYBLE_eventHandler.c **** /****************************************************************************** 
1367:.\Generated_Source\PSoC4/CYBLE_eventHandler.c **** * Function Name: CyBle_GattConnectReqHandler
1368:.\Generated_Source\PSoC4/CYBLE_eventHandler.c **** ***************************************************************************//**
1369:.\Generated_Source\PSoC4/CYBLE_eventHandler.c **** * 
1370:.\Generated_Source\PSoC4/CYBLE_eventHandler.c **** *  Handles the GATT connect event from the BLE stack.
1371:.\Generated_Source\PSoC4/CYBLE_eventHandler.c **** * 
1372:.\Generated_Source\PSoC4/CYBLE_eventHandler.c **** * \return
1373:.\Generated_Source\PSoC4/CYBLE_eventHandler.c **** *  None
1374:.\Generated_Source\PSoC4/CYBLE_eventHandler.c **** * 
1375:.\Generated_Source\PSoC4/CYBLE_eventHandler.c **** ******************************************************************************/
1376:.\Generated_Source\PSoC4/CYBLE_eventHandler.c **** static void CyBle_GattConnectReqHandler(void)
1377:.\Generated_Source\PSoC4/CYBLE_eventHandler.c **** {
 305              		.loc 1 1377 0
 306              		.cfi_startproc
 307 0000 80B5     		push	{r7, lr}
 308              		.cfi_def_cfa_offset 8
 309              		.cfi_offset 7, -8
 310              		.cfi_offset 14, -4
 311 0002 00AF     		add	r7, sp, #0
 312              		.cfi_def_cfa_register 7
1378:.\Generated_Source\PSoC4/CYBLE_eventHandler.c ****     #ifdef CYBLE_CGMS_SERVER
1379:.\Generated_Source\PSoC4/CYBLE_eventHandler.c ****         CyBle_CgmsInit();
1380:.\Generated_Source\PSoC4/CYBLE_eventHandler.c ****     #endif /* CYBLE_CGMS_SERVER */
1381:.\Generated_Source\PSoC4/CYBLE_eventHandler.c ****     
1382:.\Generated_Source\PSoC4/CYBLE_eventHandler.c ****     #ifdef CYBLE_CPS_SERVER
1383:.\Generated_Source\PSoC4/CYBLE_eventHandler.c ****         CyBle_CpssConnectEventHandler();
1384:.\Generated_Source\PSoC4/CYBLE_eventHandler.c ****     #endif /* CYBLE_CPS_SERVER */
1385:.\Generated_Source\PSoC4/CYBLE_eventHandler.c ****     
1386:.\Generated_Source\PSoC4/CYBLE_eventHandler.c ****     #ifdef CYBLE_CSCS_SERVER
1387:.\Generated_Source\PSoC4/CYBLE_eventHandler.c ****             CyBle_CscsInit();
1388:.\Generated_Source\PSoC4/CYBLE_eventHandler.c ****     #endif /* CYBLE_CSCS_SERVER */
1389:.\Generated_Source\PSoC4/CYBLE_eventHandler.c ****     
1390:.\Generated_Source\PSoC4/CYBLE_eventHandler.c ****     #ifdef CYBLE_LLS_SERVER
1391:.\Generated_Source\PSoC4/CYBLE_eventHandler.c ****         CyBle_LlssConnectEventHandler();
 313              		.loc 1 1391 0
 314 0004 FFF7FEFF 		bl	CyBle_LlssConnectEventHandler
1392:.\Generated_Source\PSoC4/CYBLE_eventHandler.c ****     #endif /* CYBLE_LLS_SERVER */
1393:.\Generated_Source\PSoC4/CYBLE_eventHandler.c ****     
1394:.\Generated_Source\PSoC4/CYBLE_eventHandler.c ****     #ifdef CYBLE_HIDS_SERVER
1395:.\Generated_Source\PSoC4/CYBLE_eventHandler.c ****         CyBle_HidssOnDeviceConnected();
1396:.\Generated_Source\PSoC4/CYBLE_eventHandler.c ****     #endif /* CYBLE_HIDS_SERVER */
ARM GAS  C:\Users\mohammed\AppData\Local\Temp\ccG2gzoD.s 			page 31


1397:.\Generated_Source\PSoC4/CYBLE_eventHandler.c **** 
1398:.\Generated_Source\PSoC4/CYBLE_eventHandler.c ****     #ifdef CYBLE_RSCS_SERVER
1399:.\Generated_Source\PSoC4/CYBLE_eventHandler.c ****         CyBle_RscsInit();
1400:.\Generated_Source\PSoC4/CYBLE_eventHandler.c ****     #endif /* CYBLE_RSCS_SERVER */
1401:.\Generated_Source\PSoC4/CYBLE_eventHandler.c **** }
 315              		.loc 1 1401 0
 316 0008 BD46     		mov	sp, r7
 317              		@ sp needed
 318 000a 80BD     		pop	{r7, pc}
 319              		.cfi_endproc
 320              	.LFE6:
 321              		.size	CyBle_GattConnectReqHandler, .-CyBle_GattConnectReqHandler
 322              		.section	.text.CyBle_IsDeviceAddressValid,"ax",%progbits
 323              		.align	2
 324              		.global	CyBle_IsDeviceAddressValid
 325              		.code	16
 326              		.thumb_func
 327              		.type	CyBle_IsDeviceAddressValid, %function
 328              	CyBle_IsDeviceAddressValid:
 329              	.LFB7:
1402:.\Generated_Source\PSoC4/CYBLE_eventHandler.c **** 
1403:.\Generated_Source\PSoC4/CYBLE_eventHandler.c **** 
1404:.\Generated_Source\PSoC4/CYBLE_eventHandler.c **** #if (CYBLE_GATT_ROLE_SERVER || CYBLE_GATT_ROLE_CLIENT)
1405:.\Generated_Source\PSoC4/CYBLE_eventHandler.c **** 
1406:.\Generated_Source\PSoC4/CYBLE_eventHandler.c **** /****************************************************************************** 
1407:.\Generated_Source\PSoC4/CYBLE_eventHandler.c **** * Function Name: CyBle_IsDeviceAddressValid
1408:.\Generated_Source\PSoC4/CYBLE_eventHandler.c **** ***************************************************************************//**
1409:.\Generated_Source\PSoC4/CYBLE_eventHandler.c **** * 
1410:.\Generated_Source\PSoC4/CYBLE_eventHandler.c **** *  This function verifies that BLE public address has been programmed to SFLASH 
1411:.\Generated_Source\PSoC4/CYBLE_eventHandler.c **** *  during manufacture. It could be used to verify if public device address is 
1412:.\Generated_Source\PSoC4/CYBLE_eventHandler.c **** *  programmed to flash memory.
1413:.\Generated_Source\PSoC4/CYBLE_eventHandler.c **** * 
1414:.\Generated_Source\PSoC4/CYBLE_eventHandler.c **** *  \param deviceAddress: the pointer to the BD address of type CYBLE_GAP_BD_ADDR_T. 
1415:.\Generated_Source\PSoC4/CYBLE_eventHandler.c **** * 
1416:.\Generated_Source\PSoC4/CYBLE_eventHandler.c **** * \return
1417:.\Generated_Source\PSoC4/CYBLE_eventHandler.c **** *  Non zero value when a device address differs from the default SFLASH content.
1418:.\Generated_Source\PSoC4/CYBLE_eventHandler.c **** * 
1419:.\Generated_Source\PSoC4/CYBLE_eventHandler.c **** ******************************************************************************/
1420:.\Generated_Source\PSoC4/CYBLE_eventHandler.c **** uint8 CyBle_IsDeviceAddressValid(const CYBLE_GAP_BD_ADDR_T *deviceAddress)
1421:.\Generated_Source\PSoC4/CYBLE_eventHandler.c **** {
 330              		.loc 1 1421 0
 331              		.cfi_startproc
 332 0000 80B5     		push	{r7, lr}
 333              		.cfi_def_cfa_offset 8
 334              		.cfi_offset 7, -8
 335              		.cfi_offset 14, -4
 336 0002 84B0     		sub	sp, sp, #16
 337              		.cfi_def_cfa_offset 24
 338 0004 00AF     		add	r7, sp, #0
 339              		.cfi_def_cfa_register 7
 340 0006 7860     		str	r0, [r7, #4]
1422:.\Generated_Source\PSoC4/CYBLE_eventHandler.c ****     uint8 i;
1423:.\Generated_Source\PSoC4/CYBLE_eventHandler.c ****     uint8 addressValid = 0u;
 341              		.loc 1 1423 0
 342 0008 0E23     		mov	r3, #14
 343 000a FB18     		add	r3, r7, r3
 344 000c 0022     		mov	r2, #0
ARM GAS  C:\Users\mohammed\AppData\Local\Temp\ccG2gzoD.s 			page 32


 345 000e 1A70     		strb	r2, [r3]
1424:.\Generated_Source\PSoC4/CYBLE_eventHandler.c ****     
1425:.\Generated_Source\PSoC4/CYBLE_eventHandler.c ****     if(deviceAddress -> type == CYBLE_GAP_ADDR_TYPE_PUBLIC)  
 346              		.loc 1 1425 0
 347 0010 7B68     		ldr	r3, [r7, #4]
 348 0012 9B79     		ldrb	r3, [r3, #6]
 349 0014 002B     		cmp	r3, #0
 350 0016 1CD1     		bne	.L19
1426:.\Generated_Source\PSoC4/CYBLE_eventHandler.c ****     {
1427:.\Generated_Source\PSoC4/CYBLE_eventHandler.c ****         for(i = 0u; i < CYBLE_GAP_BD_ADDR_SIZE; i++)
 351              		.loc 1 1427 0
 352 0018 0F23     		mov	r3, #15
 353 001a FB18     		add	r3, r7, r3
 354 001c 0022     		mov	r2, #0
 355 001e 1A70     		strb	r2, [r3]
 356 0020 12E0     		b	.L20
 357              	.L22:
1428:.\Generated_Source\PSoC4/CYBLE_eventHandler.c ****         {
1429:.\Generated_Source\PSoC4/CYBLE_eventHandler.c ****             if(deviceAddress->bdAddr[i] != 0u)
 358              		.loc 1 1429 0
 359 0022 0F23     		mov	r3, #15
 360 0024 FB18     		add	r3, r7, r3
 361 0026 1B78     		ldrb	r3, [r3]
 362 0028 7A68     		ldr	r2, [r7, #4]
 363 002a D35C     		ldrb	r3, [r2, r3]
 364 002c 002B     		cmp	r3, #0
 365 002e 04D0     		beq	.L21
1430:.\Generated_Source\PSoC4/CYBLE_eventHandler.c ****             {
1431:.\Generated_Source\PSoC4/CYBLE_eventHandler.c ****                 addressValid = 1u;
 366              		.loc 1 1431 0
 367 0030 0E23     		mov	r3, #14
 368 0032 FB18     		add	r3, r7, r3
 369 0034 0122     		mov	r2, #1
 370 0036 1A70     		strb	r2, [r3]
1432:.\Generated_Source\PSoC4/CYBLE_eventHandler.c ****                 break;
 371              		.loc 1 1432 0
 372 0038 0BE0     		b	.L19
 373              	.L21:
1427:.\Generated_Source\PSoC4/CYBLE_eventHandler.c ****         {
 374              		.loc 1 1427 0 discriminator 2
 375 003a 0F23     		mov	r3, #15
 376 003c FB18     		add	r3, r7, r3
 377 003e 1A78     		ldrb	r2, [r3]
 378 0040 0F23     		mov	r3, #15
 379 0042 FB18     		add	r3, r7, r3
 380 0044 0132     		add	r2, r2, #1
 381 0046 1A70     		strb	r2, [r3]
 382              	.L20:
1427:.\Generated_Source\PSoC4/CYBLE_eventHandler.c ****         {
 383              		.loc 1 1427 0 is_stmt 0 discriminator 1
 384 0048 0F23     		mov	r3, #15
 385 004a FB18     		add	r3, r7, r3
 386 004c 1B78     		ldrb	r3, [r3]
 387 004e 052B     		cmp	r3, #5
 388 0050 E7D9     		bls	.L22
 389              	.L19:
1433:.\Generated_Source\PSoC4/CYBLE_eventHandler.c ****             }
ARM GAS  C:\Users\mohammed\AppData\Local\Temp\ccG2gzoD.s 			page 33


1434:.\Generated_Source\PSoC4/CYBLE_eventHandler.c ****         }
1435:.\Generated_Source\PSoC4/CYBLE_eventHandler.c ****     }
1436:.\Generated_Source\PSoC4/CYBLE_eventHandler.c ****     return (addressValid);
 390              		.loc 1 1436 0 is_stmt 1
 391 0052 0E23     		mov	r3, #14
 392 0054 FB18     		add	r3, r7, r3
 393 0056 1B78     		ldrb	r3, [r3]
1437:.\Generated_Source\PSoC4/CYBLE_eventHandler.c **** }
 394              		.loc 1 1437 0
 395 0058 181C     		mov	r0, r3
 396 005a BD46     		mov	sp, r7
 397 005c 04B0     		add	sp, sp, #16
 398              		@ sp needed
 399 005e 80BD     		pop	{r7, pc}
 400              		.cfi_endproc
 401              	.LFE7:
 402              		.size	CyBle_IsDeviceAddressValid, .-CyBle_IsDeviceAddressValid
 403              		.section	.text.CyBle_L2Cap_ConnParamUpdateRspEventHandler,"ax",%progbits
 404              		.align	2
 405              		.code	16
 406              		.thumb_func
 407              		.type	CyBle_L2Cap_ConnParamUpdateRspEventHandler, %function
 408              	CyBle_L2Cap_ConnParamUpdateRspEventHandler:
 409              	.LFB8:
1438:.\Generated_Source\PSoC4/CYBLE_eventHandler.c **** #endif /* CYBLE_GATT_ROLE_SERVER || CYBLE_GATT_ROLE_CLIENT */
1439:.\Generated_Source\PSoC4/CYBLE_eventHandler.c **** 
1440:.\Generated_Source\PSoC4/CYBLE_eventHandler.c **** 
1441:.\Generated_Source\PSoC4/CYBLE_eventHandler.c **** /****************************************************************************** 
1442:.\Generated_Source\PSoC4/CYBLE_eventHandler.c **** * Function Name: CyBle_L2Cap_ConnParamUpdateRspHandler
1443:.\Generated_Source\PSoC4/CYBLE_eventHandler.c **** ***************************************************************************//**
1444:.\Generated_Source\PSoC4/CYBLE_eventHandler.c **** * 
1445:.\Generated_Source\PSoC4/CYBLE_eventHandler.c **** *  Handles the L2CAP connection parameter response event from
1446:.\Generated_Source\PSoC4/CYBLE_eventHandler.c **** *  the BLE stack.
1447:.\Generated_Source\PSoC4/CYBLE_eventHandler.c **** * 
1448:.\Generated_Source\PSoC4/CYBLE_eventHandler.c **** *  \param response:
1449:.\Generated_Source\PSoC4/CYBLE_eventHandler.c **** *      * Accepted = 0x0000
1450:.\Generated_Source\PSoC4/CYBLE_eventHandler.c **** *      * Rejected = 0x0001
1451:.\Generated_Source\PSoC4/CYBLE_eventHandler.c **** * 
1452:.\Generated_Source\PSoC4/CYBLE_eventHandler.c **** * \return
1453:.\Generated_Source\PSoC4/CYBLE_eventHandler.c **** *  None
1454:.\Generated_Source\PSoC4/CYBLE_eventHandler.c **** * 
1455:.\Generated_Source\PSoC4/CYBLE_eventHandler.c **** ******************************************************************************/
1456:.\Generated_Source\PSoC4/CYBLE_eventHandler.c **** static void CyBle_L2Cap_ConnParamUpdateRspEventHandler(uint16 response)
1457:.\Generated_Source\PSoC4/CYBLE_eventHandler.c **** {
 410              		.loc 1 1457 0
 411              		.cfi_startproc
 412 0000 80B5     		push	{r7, lr}
 413              		.cfi_def_cfa_offset 8
 414              		.cfi_offset 7, -8
 415              		.cfi_offset 14, -4
 416 0002 82B0     		sub	sp, sp, #8
 417              		.cfi_def_cfa_offset 16
 418 0004 00AF     		add	r7, sp, #0
 419              		.cfi_def_cfa_register 7
 420 0006 021C     		mov	r2, r0
 421 0008 BB1D     		add	r3, r7, #6
 422 000a 1A80     		strh	r2, [r3]
ARM GAS  C:\Users\mohammed\AppData\Local\Temp\ccG2gzoD.s 			page 34


1458:.\Generated_Source\PSoC4/CYBLE_eventHandler.c ****     #ifdef CYBLE_CPS_SERVER
1459:.\Generated_Source\PSoC4/CYBLE_eventHandler.c ****         CyBle_CpssConnParamUpdateRspEventHandler(response);
1460:.\Generated_Source\PSoC4/CYBLE_eventHandler.c ****     #endif /* CYBLE_CPS_SERVER */
1461:.\Generated_Source\PSoC4/CYBLE_eventHandler.c ****     
1462:.\Generated_Source\PSoC4/CYBLE_eventHandler.c ****     /* Unreferenced variable warning workaround */
1463:.\Generated_Source\PSoC4/CYBLE_eventHandler.c ****     if(response != 0u)
1464:.\Generated_Source\PSoC4/CYBLE_eventHandler.c ****     {
1465:.\Generated_Source\PSoC4/CYBLE_eventHandler.c ****     }
1466:.\Generated_Source\PSoC4/CYBLE_eventHandler.c **** }
 423              		.loc 1 1466 0
 424 000c BD46     		mov	sp, r7
 425 000e 02B0     		add	sp, sp, #8
 426              		@ sp needed
 427 0010 80BD     		pop	{r7, pc}
 428              		.cfi_endproc
 429              	.LFE8:
 430              		.size	CyBle_L2Cap_ConnParamUpdateRspEventHandler, .-CyBle_L2Cap_ConnParamUpdateRspEventHandler
 431 0012 C046     		.section	.text.CyBle_GapConnUpdateCompleteEventHandler,"ax",%progbits
 432              		.align	2
 433              		.code	16
 434              		.thumb_func
 435              		.type	CyBle_GapConnUpdateCompleteEventHandler, %function
 436              	CyBle_GapConnUpdateCompleteEventHandler:
 437              	.LFB9:
1467:.\Generated_Source\PSoC4/CYBLE_eventHandler.c **** 
1468:.\Generated_Source\PSoC4/CYBLE_eventHandler.c **** 
1469:.\Generated_Source\PSoC4/CYBLE_eventHandler.c **** /****************************************************************************** 
1470:.\Generated_Source\PSoC4/CYBLE_eventHandler.c **** * Function Name: CyBle_GapConnUpdateCompleteEventHandler
1471:.\Generated_Source\PSoC4/CYBLE_eventHandler.c **** ***************************************************************************//**
1472:.\Generated_Source\PSoC4/CYBLE_eventHandler.c **** * 
1473:.\Generated_Source\PSoC4/CYBLE_eventHandler.c **** *  Handles the CYBLE_EVT_GAP_CONNECTION_UPDATE_COMPLETE event from
1474:.\Generated_Source\PSoC4/CYBLE_eventHandler.c **** *  the BLE stack.
1475:.\Generated_Source\PSoC4/CYBLE_eventHandler.c **** * 
1476:.\Generated_Source\PSoC4/CYBLE_eventHandler.c **** *  \param eventParam: The pointer to the data structure specified by the event.
1477:.\Generated_Source\PSoC4/CYBLE_eventHandler.c **** * 
1478:.\Generated_Source\PSoC4/CYBLE_eventHandler.c **** * \return
1479:.\Generated_Source\PSoC4/CYBLE_eventHandler.c **** *  None
1480:.\Generated_Source\PSoC4/CYBLE_eventHandler.c **** * 
1481:.\Generated_Source\PSoC4/CYBLE_eventHandler.c **** ******************************************************************************/
1482:.\Generated_Source\PSoC4/CYBLE_eventHandler.c **** static void CyBle_GapConnUpdateCompleteEventHandler(const CYBLE_GAP_CONN_PARAM_UPDATED_IN_CONTROLLE
1483:.\Generated_Source\PSoC4/CYBLE_eventHandler.c **** {
 438              		.loc 1 1483 0
 439              		.cfi_startproc
 440 0000 80B5     		push	{r7, lr}
 441              		.cfi_def_cfa_offset 8
 442              		.cfi_offset 7, -8
 443              		.cfi_offset 14, -4
 444 0002 82B0     		sub	sp, sp, #8
 445              		.cfi_def_cfa_offset 16
 446 0004 00AF     		add	r7, sp, #0
 447              		.cfi_def_cfa_register 7
 448 0006 7860     		str	r0, [r7, #4]
1484:.\Generated_Source\PSoC4/CYBLE_eventHandler.c ****     #ifdef CYBLE_CPS_SERVER
1485:.\Generated_Source\PSoC4/CYBLE_eventHandler.c ****         CyBle_CpssConnUpdateCompleteEventHandler(eventParam);
1486:.\Generated_Source\PSoC4/CYBLE_eventHandler.c ****     #endif /* CYBLE_CPS_SERVER */
1487:.\Generated_Source\PSoC4/CYBLE_eventHandler.c ****     
1488:.\Generated_Source\PSoC4/CYBLE_eventHandler.c ****     /* Unreferenced variable warning workaround */
ARM GAS  C:\Users\mohammed\AppData\Local\Temp\ccG2gzoD.s 			page 35


1489:.\Generated_Source\PSoC4/CYBLE_eventHandler.c ****     if(eventParam != 0u)
1490:.\Generated_Source\PSoC4/CYBLE_eventHandler.c ****     {
1491:.\Generated_Source\PSoC4/CYBLE_eventHandler.c ****     }
1492:.\Generated_Source\PSoC4/CYBLE_eventHandler.c **** }
 449              		.loc 1 1492 0
 450 0008 BD46     		mov	sp, r7
 451 000a 02B0     		add	sp, sp, #8
 452              		@ sp needed
 453 000c 80BD     		pop	{r7, pc}
 454              		.cfi_endproc
 455              	.LFE9:
 456              		.size	CyBle_GapConnUpdateCompleteEventHandler, .-CyBle_GapConnUpdateCompleteEventHandler
 457              		.section	.text.CyBle_EventHandler,"ax",%progbits
 458              		.align	2
 459              		.global	CyBle_EventHandler
 460              		.code	16
 461              		.thumb_func
 462              		.type	CyBle_EventHandler, %function
 463              	CyBle_EventHandler:
 464              	.LFB10:
1493:.\Generated_Source\PSoC4/CYBLE_eventHandler.c **** 
1494:.\Generated_Source\PSoC4/CYBLE_eventHandler.c **** 
1495:.\Generated_Source\PSoC4/CYBLE_eventHandler.c **** /****************************************************************************** 
1496:.\Generated_Source\PSoC4/CYBLE_eventHandler.c **** * Function Name: CyBle_EventHandler
1497:.\Generated_Source\PSoC4/CYBLE_eventHandler.c **** ***************************************************************************//**
1498:.\Generated_Source\PSoC4/CYBLE_eventHandler.c **** * 
1499:.\Generated_Source\PSoC4/CYBLE_eventHandler.c **** *  Handles the events from the BLE stack
1500:.\Generated_Source\PSoC4/CYBLE_eventHandler.c **** * 
1501:.\Generated_Source\PSoC4/CYBLE_eventHandler.c **** *  \param eventCode:    the event code
1502:.\Generated_Source\PSoC4/CYBLE_eventHandler.c **** *  \param eventParam:  the event parameters
1503:.\Generated_Source\PSoC4/CYBLE_eventHandler.c **** * 
1504:.\Generated_Source\PSoC4/CYBLE_eventHandler.c **** * \return
1505:.\Generated_Source\PSoC4/CYBLE_eventHandler.c **** *  None.
1506:.\Generated_Source\PSoC4/CYBLE_eventHandler.c **** * 
1507:.\Generated_Source\PSoC4/CYBLE_eventHandler.c **** ******************************************************************************/
1508:.\Generated_Source\PSoC4/CYBLE_eventHandler.c **** void CyBle_EventHandler(uint8 eventCode, void *eventParam)
1509:.\Generated_Source\PSoC4/CYBLE_eventHandler.c **** {
 465              		.loc 1 1509 0
 466              		.cfi_startproc
 467 0000 80B5     		push	{r7, lr}
 468              		.cfi_def_cfa_offset 8
 469              		.cfi_offset 7, -8
 470              		.cfi_offset 14, -4
 471 0002 86B0     		sub	sp, sp, #24
 472              		.cfi_def_cfa_offset 32
 473 0004 00AF     		add	r7, sp, #0
 474              		.cfi_def_cfa_register 7
 475 0006 021C     		mov	r2, r0
 476 0008 3960     		str	r1, [r7]
 477 000a FB1D     		add	r3, r7, #7
 478 000c 1A70     		strb	r2, [r3]
1510:.\Generated_Source\PSoC4/CYBLE_eventHandler.c ****     cyBle_eventHandlerFlag |= CYBLE_CALLBACK;
 479              		.loc 1 1510 0
 480 000e B64B     		ldr	r3, .L64
 481 0010 1B78     		ldrb	r3, [r3]
 482 0012 DBB2     		uxtb	r3, r3
 483 0014 0122     		mov	r2, #1
ARM GAS  C:\Users\mohammed\AppData\Local\Temp\ccG2gzoD.s 			page 36


 484 0016 1343     		orr	r3, r2
 485 0018 DAB2     		uxtb	r2, r3
 486 001a B34B     		ldr	r3, .L64
 487 001c 1A70     		strb	r2, [r3]
1511:.\Generated_Source\PSoC4/CYBLE_eventHandler.c **** 
1512:.\Generated_Source\PSoC4/CYBLE_eventHandler.c ****     /* Common Profile event handling */
1513:.\Generated_Source\PSoC4/CYBLE_eventHandler.c ****     switch(eventCode)
 488              		.loc 1 1513 0
 489 001e FB1D     		add	r3, r7, #7
 490 0020 1B78     		ldrb	r3, [r3]
 491 0022 712B     		cmp	r3, #113
 492 0024 00D9     		bls	.LCB412
 493 0026 44E1     		b	.L63	@long jump
 494              	.LCB412:
 495 0028 9A00     		lsl	r2, r3, #2
 496 002a B04B     		ldr	r3, .L64+4
 497 002c D318     		add	r3, r2, r3
 498 002e 1B68     		ldr	r3, [r3]
 499 0030 9F46     		mov	pc, r3
 500              		.section	.rodata
 501              		.align	2
 502              	.L29:
 503 0000 B2020000 		.word	.L63
 504 0004 32000000 		.word	.L28
 505 0008 DC000000 		.word	.L30
 506 000c B2020000 		.word	.L63
 507 0010 B2020000 		.word	.L63
 508 0014 E6000000 		.word	.L31
 509 0018 F0000000 		.word	.L32
 510 001c B2020000 		.word	.L63
 511 0020 B2020000 		.word	.L63
 512 0024 B2020000 		.word	.L63
 513 0028 B2020000 		.word	.L63
 514 002c B2020000 		.word	.L63
 515 0030 B2020000 		.word	.L63
 516 0034 B2020000 		.word	.L63
 517 0038 B2020000 		.word	.L63
 518 003c B2020000 		.word	.L63
 519 0040 B2020000 		.word	.L63
 520 0044 B2020000 		.word	.L63
 521 0048 B2020000 		.word	.L63
 522 004c B2020000 		.word	.L63
 523 0050 B2020000 		.word	.L63
 524 0054 B2020000 		.word	.L63
 525 0058 B2020000 		.word	.L63
 526 005c B2020000 		.word	.L63
 527 0060 B2020000 		.word	.L63
 528 0064 B2020000 		.word	.L63
 529 0068 B2020000 		.word	.L63
 530 006c B2020000 		.word	.L63
 531 0070 B2020000 		.word	.L63
 532 0074 B2020000 		.word	.L63
 533 0078 B2020000 		.word	.L63
 534 007c B2020000 		.word	.L63
 535 0080 B2020000 		.word	.L63
 536 0084 30010000 		.word	.L33
 537 0088 B2020000 		.word	.L63
ARM GAS  C:\Users\mohammed\AppData\Local\Temp\ccG2gzoD.s 			page 37


 538 008c B2020000 		.word	.L63
 539 0090 B2020000 		.word	.L63
 540 0094 B2020000 		.word	.L63
 541 0098 90010000 		.word	.L35
 542 009c 78010000 		.word	.L36
 543 00a0 88010000 		.word	.L37
 544 00a4 B2020000 		.word	.L63
 545 00a8 6E010000 		.word	.L38
 546 00ac B2020000 		.word	.L63
 547 00b0 B2020000 		.word	.L63
 548 00b4 B2020000 		.word	.L63
 549 00b8 B2020000 		.word	.L63
 550 00bc B2020000 		.word	.L63
 551 00c0 B2020000 		.word	.L63
 552 00c4 B2020000 		.word	.L63
 553 00c8 B2020000 		.word	.L63
 554 00cc B2020000 		.word	.L63
 555 00d0 B2020000 		.word	.L63
 556 00d4 B2020000 		.word	.L63
 557 00d8 B2020000 		.word	.L63
 558 00dc B2020000 		.word	.L63
 559 00e0 B2020000 		.word	.L63
 560 00e4 B2020000 		.word	.L63
 561 00e8 B2020000 		.word	.L63
 562 00ec B2020000 		.word	.L63
 563 00f0 B2020000 		.word	.L63
 564 00f4 B2020000 		.word	.L63
 565 00f8 B2020000 		.word	.L63
 566 00fc B2020000 		.word	.L63
 567 0100 B2020000 		.word	.L63
 568 0104 10020000 		.word	.L39
 569 0108 30020000 		.word	.L40
 570 010c 36020000 		.word	.L41
 571 0110 B2020000 		.word	.L63
 572 0114 B2020000 		.word	.L63
 573 0118 B2020000 		.word	.L63
 574 011c B2020000 		.word	.L63
 575 0120 B2020000 		.word	.L63
 576 0124 B2020000 		.word	.L63
 577 0128 B2020000 		.word	.L63
 578 012c B2020000 		.word	.L63
 579 0130 70020000 		.word	.L42
 580 0134 B2020000 		.word	.L63
 581 0138 B2020000 		.word	.L63
 582 013c 7A020000 		.word	.L44
 583 0140 94020000 		.word	.L45
 584 0144 B2020000 		.word	.L63
 585 0148 B2020000 		.word	.L63
 586 014c B2020000 		.word	.L63
 587 0150 9E020000 		.word	.L46
 588 0154 B2020000 		.word	.L63
 589 0158 B2020000 		.word	.L63
 590 015c A8020000 		.word	.L47
 591 0160 B2020000 		.word	.L63
 592 0164 B2020000 		.word	.L63
 593 0168 B2020000 		.word	.L63
 594 016c B2020000 		.word	.L63
ARM GAS  C:\Users\mohammed\AppData\Local\Temp\ccG2gzoD.s 			page 38


 595 0170 B2020000 		.word	.L63
 596 0174 B2020000 		.word	.L63
 597 0178 B2020000 		.word	.L63
 598 017c B2020000 		.word	.L63
 599 0180 B2020000 		.word	.L63
 600 0184 B2020000 		.word	.L63
 601 0188 B2020000 		.word	.L63
 602 018c B2020000 		.word	.L63
 603 0190 B2020000 		.word	.L63
 604 0194 B2020000 		.word	.L63
 605 0198 B2020000 		.word	.L63
 606 019c B2020000 		.word	.L63
 607 01a0 B2020000 		.word	.L63
 608 01a4 B2020000 		.word	.L63
 609 01a8 B2020000 		.word	.L63
 610 01ac B2020000 		.word	.L63
 611 01b0 B2020000 		.word	.L63
 612 01b4 B2020000 		.word	.L63
 613 01b8 B2020000 		.word	.L63
 614 01bc B2020000 		.word	.L63
 615 01c0 B2020000 		.word	.L63
 616 01c4 04020000 		.word	.L48
 617              		.section	.text.CyBle_EventHandler
 618              	.L28:
 619              	.LBB3:
1514:.\Generated_Source\PSoC4/CYBLE_eventHandler.c ****     {
1515:.\Generated_Source\PSoC4/CYBLE_eventHandler.c ****         /**********************************************************
1516:.\Generated_Source\PSoC4/CYBLE_eventHandler.c ****         * General events
1517:.\Generated_Source\PSoC4/CYBLE_eventHandler.c ****         ************************************************************/
1518:.\Generated_Source\PSoC4/CYBLE_eventHandler.c ****         case CYBLE_EVT_STACK_ON:
1519:.\Generated_Source\PSoC4/CYBLE_eventHandler.c ****         #if(CYBLE_MODE_PROFILE)
1520:.\Generated_Source\PSoC4/CYBLE_eventHandler.c ****         {
1521:.\Generated_Source\PSoC4/CYBLE_eventHandler.c ****             CYBLE_BLESS_PWR_IN_DB_T bleSsPowerLevel;
1522:.\Generated_Source\PSoC4/CYBLE_eventHandler.c ****             
1523:.\Generated_Source\PSoC4/CYBLE_eventHandler.c ****             /* Set Tx Power Level for advertising and connection channels */
1524:.\Generated_Source\PSoC4/CYBLE_eventHandler.c ****             bleSsPowerLevel.blePwrLevelInDbm = CYBLE_TX_POWER_LEVEL_ADV;
 620              		.loc 1 1524 0
 621 0032 0C23     		mov	r3, #12
 622 0034 FB18     		add	r3, r7, r3
 623 0036 0822     		mov	r2, #8
 624 0038 1A70     		strb	r2, [r3]
1525:.\Generated_Source\PSoC4/CYBLE_eventHandler.c ****             bleSsPowerLevel.bleSsChId = CYBLE_LL_ADV_CH_TYPE;
 625              		.loc 1 1525 0
 626 003a 0C23     		mov	r3, #12
 627 003c FB18     		add	r3, r7, r3
 628 003e 0022     		mov	r2, #0
 629 0040 5A70     		strb	r2, [r3, #1]
1526:.\Generated_Source\PSoC4/CYBLE_eventHandler.c ****             (void) CyBle_SetTxPowerLevel (&bleSsPowerLevel);
 630              		.loc 1 1526 0
 631 0042 0C23     		mov	r3, #12
 632 0044 FB18     		add	r3, r7, r3
 633 0046 181C     		mov	r0, r3
 634 0048 FFF7FEFF 		bl	CyBle_SetTxPowerLevel
1527:.\Generated_Source\PSoC4/CYBLE_eventHandler.c ****             bleSsPowerLevel.blePwrLevelInDbm = CYBLE_TX_POWER_LEVEL_CONN;
 635              		.loc 1 1527 0
 636 004c 0C23     		mov	r3, #12
 637 004e FB18     		add	r3, r7, r3
ARM GAS  C:\Users\mohammed\AppData\Local\Temp\ccG2gzoD.s 			page 39


 638 0050 0822     		mov	r2, #8
 639 0052 1A70     		strb	r2, [r3]
1528:.\Generated_Source\PSoC4/CYBLE_eventHandler.c ****             bleSsPowerLevel.bleSsChId = CYBLE_LL_CONN_CH_TYPE;
 640              		.loc 1 1528 0
 641 0054 0C23     		mov	r3, #12
 642 0056 FB18     		add	r3, r7, r3
 643 0058 0122     		mov	r2, #1
 644 005a 5A70     		strb	r2, [r3, #1]
1529:.\Generated_Source\PSoC4/CYBLE_eventHandler.c ****             (void) CyBle_SetTxPowerLevel (&bleSsPowerLevel);
 645              		.loc 1 1529 0
 646 005c 0C23     		mov	r3, #12
 647 005e FB18     		add	r3, r7, r3
 648 0060 181C     		mov	r0, r3
 649 0062 FFF7FEFF 		bl	CyBle_SetTxPowerLevel
 650              	.LBE3:
1530:.\Generated_Source\PSoC4/CYBLE_eventHandler.c ****             
1531:.\Generated_Source\PSoC4/CYBLE_eventHandler.c ****         }
1532:.\Generated_Source\PSoC4/CYBLE_eventHandler.c ****         #endif /* CYBLE_MODE_PROFILE */
1533:.\Generated_Source\PSoC4/CYBLE_eventHandler.c ****         #if (CYBLE_GATT_ROLE_SERVER || CYBLE_GATT_ROLE_CLIENT)
1534:.\Generated_Source\PSoC4/CYBLE_eventHandler.c ****             /* Set device Address  */
1535:.\Generated_Source\PSoC4/CYBLE_eventHandler.c ****             if(CyBle_IsDeviceAddressValid(cyBle_sflashDeviceAddress) != 0u)
 651              		.loc 1 1535 0
 652 0066 A24B     		ldr	r3, .L64+8
 653 0068 1B68     		ldr	r3, [r3]
 654 006a 181C     		mov	r0, r3
 655 006c FFF7FEFF 		bl	CyBle_IsDeviceAddressValid
 656 0070 031E     		sub	r3, r0, #0
 657 0072 11D0     		beq	.L49
1536:.\Generated_Source\PSoC4/CYBLE_eventHandler.c ****             {
1537:.\Generated_Source\PSoC4/CYBLE_eventHandler.c ****                 (void) CyBle_SetDeviceAddress(cyBle_sflashDeviceAddress);
 658              		.loc 1 1537 0
 659 0074 9E4B     		ldr	r3, .L64+8
 660 0076 1B68     		ldr	r3, [r3]
 661 0078 181C     		mov	r0, r3
 662 007a FFF7FEFF 		bl	CyBle_SetDeviceAddress
1538:.\Generated_Source\PSoC4/CYBLE_eventHandler.c ****                 #if(CYBLE_GAP_ROLE_PERIPHERAL || CYBLE_GAP_ROLE_BROADCASTER)
1539:.\Generated_Source\PSoC4/CYBLE_eventHandler.c ****                     CyBle_ChangeAdDeviceAddress(cyBle_sflashDeviceAddress, 0u);
 663              		.loc 1 1539 0
 664 007e 9C4B     		ldr	r3, .L64+8
 665 0080 1B68     		ldr	r3, [r3]
 666 0082 181C     		mov	r0, r3
 667 0084 0021     		mov	r1, #0
 668 0086 FFF7FEFF 		bl	CyBle_ChangeAdDeviceAddress
1540:.\Generated_Source\PSoC4/CYBLE_eventHandler.c ****                     CyBle_ChangeAdDeviceAddress(cyBle_sflashDeviceAddress, 1u);
 669              		.loc 1 1540 0
 670 008a 994B     		ldr	r3, .L64+8
 671 008c 1B68     		ldr	r3, [r3]
 672 008e 181C     		mov	r0, r3
 673 0090 0121     		mov	r1, #1
 674 0092 FFF7FEFF 		bl	CyBle_ChangeAdDeviceAddress
 675 0096 0DE0     		b	.L50
 676              	.L49:
1541:.\Generated_Source\PSoC4/CYBLE_eventHandler.c ****                 #endif /* CYBLE_GAP_ROLE_PERIPHERAL || CYBLE_GAP_ROLE_BROADCASTER */    
1542:.\Generated_Source\PSoC4/CYBLE_eventHandler.c ****             }
1543:.\Generated_Source\PSoC4/CYBLE_eventHandler.c ****             else
1544:.\Generated_Source\PSoC4/CYBLE_eventHandler.c ****             {
1545:.\Generated_Source\PSoC4/CYBLE_eventHandler.c ****             #if (SILICON_GENERATED_DEVICE_ADDRESS != 0u)
ARM GAS  C:\Users\mohammed\AppData\Local\Temp\ccG2gzoD.s 			page 40


1546:.\Generated_Source\PSoC4/CYBLE_eventHandler.c ****             {
1547:.\Generated_Source\PSoC4/CYBLE_eventHandler.c ****                 uint32 bdAddrLoc;
1548:.\Generated_Source\PSoC4/CYBLE_eventHandler.c ****                 bdAddrLoc = (CYBLE_SFLASH_DIE_X_REG & CYBLE_SFLASH_DIE_X_MASK) |
1549:.\Generated_Source\PSoC4/CYBLE_eventHandler.c ****                     ((uint32)(((uint32)CYBLE_SFLASH_DIE_Y_REG) & ((uint32)CYBLE_SFLASH_DIE_Y_MASK))
1550:.\Generated_Source\PSoC4/CYBLE_eventHandler.c ****                         CYBLE_SFLASH_DIE_X_BITS) |
1551:.\Generated_Source\PSoC4/CYBLE_eventHandler.c ****                     ((uint32)(((uint32)CYBLE_SFLASH_DIE_WAFER_REG) & ((uint32)CYBLE_SFLASH_DIE_WAFE
1552:.\Generated_Source\PSoC4/CYBLE_eventHandler.c ****                         CYBLE_SFLASH_DIE_XY_BITS) |
1553:.\Generated_Source\PSoC4/CYBLE_eventHandler.c ****                     ((uint32)(((uint32)CYBLE_SFLASH_DIE_LOT_REG) & ((uint32)CYBLE_SFLASH_DIE_LOT_MA
1554:.\Generated_Source\PSoC4/CYBLE_eventHandler.c ****                         CYBLE_SFLASH_DIE_XYWAFER_BITS);
1555:.\Generated_Source\PSoC4/CYBLE_eventHandler.c ****                             
1556:.\Generated_Source\PSoC4/CYBLE_eventHandler.c ****                 cyBle_deviceAddress.bdAddr[0] = (uint8)bdAddrLoc;
1557:.\Generated_Source\PSoC4/CYBLE_eventHandler.c ****                 cyBle_deviceAddress.bdAddr[1] = (uint8)(bdAddrLoc >> 8u);
1558:.\Generated_Source\PSoC4/CYBLE_eventHandler.c ****                 cyBle_deviceAddress.bdAddr[2] = (uint8)(bdAddrLoc >> 16u);
1559:.\Generated_Source\PSoC4/CYBLE_eventHandler.c ****             }
1560:.\Generated_Source\PSoC4/CYBLE_eventHandler.c ****             #endif /* SILICON_GENERATED_DEVICE_ADDRESS != 0u */
1561:.\Generated_Source\PSoC4/CYBLE_eventHandler.c ****                 (void) CyBle_SetDeviceAddress(&cyBle_deviceAddress);
 677              		.loc 1 1561 0
 678 0098 964B     		ldr	r3, .L64+12
 679 009a 181C     		mov	r0, r3
 680 009c FFF7FEFF 		bl	CyBle_SetDeviceAddress
1562:.\Generated_Source\PSoC4/CYBLE_eventHandler.c ****                 #if(CYBLE_GAP_ROLE_PERIPHERAL || CYBLE_GAP_ROLE_BROADCASTER)
1563:.\Generated_Source\PSoC4/CYBLE_eventHandler.c ****                     CyBle_ChangeAdDeviceAddress(&cyBle_deviceAddress, 0u);
 681              		.loc 1 1563 0
 682 00a0 944B     		ldr	r3, .L64+12
 683 00a2 181C     		mov	r0, r3
 684 00a4 0021     		mov	r1, #0
 685 00a6 FFF7FEFF 		bl	CyBle_ChangeAdDeviceAddress
1564:.\Generated_Source\PSoC4/CYBLE_eventHandler.c ****                     CyBle_ChangeAdDeviceAddress(&cyBle_deviceAddress, 1u);
 686              		.loc 1 1564 0
 687 00aa 924B     		ldr	r3, .L64+12
 688 00ac 181C     		mov	r0, r3
 689 00ae 0121     		mov	r1, #1
 690 00b0 FFF7FEFF 		bl	CyBle_ChangeAdDeviceAddress
 691              	.L50:
1565:.\Generated_Source\PSoC4/CYBLE_eventHandler.c ****                 #endif /* CYBLE_GAP_ROLE_PERIPHERAL || CYBLE_GAP_ROLE_BROADCASTER */    
1566:.\Generated_Source\PSoC4/CYBLE_eventHandler.c ****             }
1567:.\Generated_Source\PSoC4/CYBLE_eventHandler.c ****             /* Set device IO Capability  */
1568:.\Generated_Source\PSoC4/CYBLE_eventHandler.c ****             (void) CyBle_GapSetIoCap(CYBLE_IO_CAPABILITY);    
 692              		.loc 1 1568 0
 693 00b4 0320     		mov	r0, #3
 694 00b6 FFF7FEFF 		bl	CyBle_GapSetIoCap
 695              	.LBB4:
1569:.\Generated_Source\PSoC4/CYBLE_eventHandler.c ****             {
1570:.\Generated_Source\PSoC4/CYBLE_eventHandler.c ****                 /* Enable all 4.1 events and configured 4.2 events */
1571:.\Generated_Source\PSoC4/CYBLE_eventHandler.c ****                 uint8 leMask[CYBLE_LE_MASK_LENGTH] = {LO8(CYBLE_LE_MASK), HI8(CYBLE_LE_MASK)};
 696              		.loc 1 1571 0
 697 00ba 0823     		mov	r3, #8
 698 00bc FB18     		add	r3, r7, r3
 699 00be 3F22     		mov	r2, #63
 700 00c0 1A70     		strb	r2, [r3]
 701 00c2 0823     		mov	r3, #8
 702 00c4 FB18     		add	r3, r7, r3
 703 00c6 0022     		mov	r2, #0
 704 00c8 5A70     		strb	r2, [r3, #1]
1572:.\Generated_Source\PSoC4/CYBLE_eventHandler.c ****                 (void) CyBle_GapSetLeEventMask(leMask);
 705              		.loc 1 1572 0
 706 00ca 0823     		mov	r3, #8
ARM GAS  C:\Users\mohammed\AppData\Local\Temp\ccG2gzoD.s 			page 41


 707 00cc FB18     		add	r3, r7, r3
 708 00ce 181C     		mov	r0, r3
 709 00d0 FFF7FEFF 		bl	CyBle_GapSetLeEventMask
 710              	.LBE4:
1573:.\Generated_Source\PSoC4/CYBLE_eventHandler.c ****             }
1574:.\Generated_Source\PSoC4/CYBLE_eventHandler.c ****         #if(CYBLE_DLE_FEATURE_ENABLED)
1575:.\Generated_Source\PSoC4/CYBLE_eventHandler.c ****         {
1576:.\Generated_Source\PSoC4/CYBLE_eventHandler.c ****             /* Set maximum suggested TX payload size */
1577:.\Generated_Source\PSoC4/CYBLE_eventHandler.c ****             uint16 payloadTime = CYBLE_LL_MAX_TX_TIME;
1578:.\Generated_Source\PSoC4/CYBLE_eventHandler.c ****             (void) CyBle_GapConvertOctetToTime(CYBLE_GAP_PHY_1MBPS, CYBLE_LL_MAX_TX_PAYLOAD_SIZE, &
1579:.\Generated_Source\PSoC4/CYBLE_eventHandler.c ****             (void) CyBle_GapSetSuggestedDataLength(CYBLE_LL_MAX_TX_PAYLOAD_SIZE, payloadTime); 
1580:.\Generated_Source\PSoC4/CYBLE_eventHandler.c ****         }
1581:.\Generated_Source\PSoC4/CYBLE_eventHandler.c ****         #endif /* CYBLE_DLE_FEATURE != 0u */
1582:.\Generated_Source\PSoC4/CYBLE_eventHandler.c ****         
1583:.\Generated_Source\PSoC4/CYBLE_eventHandler.c ****         #endif /* CYBLE_GATT_ROLE_SERVER || CYBLE_GATT_ROLE_CLIENT */
1584:.\Generated_Source\PSoC4/CYBLE_eventHandler.c ****             CyBle_SetState(CYBLE_STATE_DISCONNECTED);
 711              		.loc 1 1584 0
 712 00d4 884B     		ldr	r3, .L64+16
 713 00d6 0422     		mov	r2, #4
 714 00d8 1A70     		strb	r2, [r3]
1585:.\Generated_Source\PSoC4/CYBLE_eventHandler.c ****             break;
 715              		.loc 1 1585 0
 716 00da EBE0     		b	.L51
 717              	.L30:
1586:.\Generated_Source\PSoC4/CYBLE_eventHandler.c ****         case CYBLE_EVT_TIMEOUT:
1587:.\Generated_Source\PSoC4/CYBLE_eventHandler.c ****             CyBle_TimeOutEventHandler((CYBLE_TO_REASON_CODE_T *)eventParam);
 718              		.loc 1 1587 0
 719 00dc 3B68     		ldr	r3, [r7]
 720 00de 181C     		mov	r0, r3
 721 00e0 FFF7FEFF 		bl	CyBle_TimeOutEventHandler
1588:.\Generated_Source\PSoC4/CYBLE_eventHandler.c ****             break;
 722              		.loc 1 1588 0
 723 00e4 E6E0     		b	.L51
 724              	.L31:
1589:.\Generated_Source\PSoC4/CYBLE_eventHandler.c ****     	case CYBLE_EVT_STACK_BUSY_STATUS:
1590:.\Generated_Source\PSoC4/CYBLE_eventHandler.c ****             cyBle_busyStatus = *(uint8 *)eventParam;
 725              		.loc 1 1590 0
 726 00e6 3B68     		ldr	r3, [r7]
 727 00e8 1A78     		ldrb	r2, [r3]
 728 00ea 844B     		ldr	r3, .L64+20
 729 00ec 1A70     		strb	r2, [r3]
1591:.\Generated_Source\PSoC4/CYBLE_eventHandler.c ****             break;
 730              		.loc 1 1591 0
 731 00ee E1E0     		b	.L51
 732              	.L32:
 733              	.LBB5:
1592:.\Generated_Source\PSoC4/CYBLE_eventHandler.c ****     	case CYBLE_EVT_MEMORY_REQUEST:
1593:.\Generated_Source\PSoC4/CYBLE_eventHandler.c ****         #if(CYBLE_MODE_PROFILE)
1594:.\Generated_Source\PSoC4/CYBLE_eventHandler.c ****         {
1595:.\Generated_Source\PSoC4/CYBLE_eventHandler.c ****             CYBLE_MEMORY_REQUEST_T *memReq = (CYBLE_MEMORY_REQUEST_T *)eventParam;
 734              		.loc 1 1595 0
 735 00f0 3B68     		ldr	r3, [r7]
 736 00f2 3B61     		str	r3, [r7, #16]
1596:.\Generated_Source\PSoC4/CYBLE_eventHandler.c ****             if(memReq->request == CYBLE_PREPARED_WRITE_REQUEST)
 737              		.loc 1 1596 0
 738 00f4 3B69     		ldr	r3, [r7, #16]
 739 00f6 1B78     		ldrb	r3, [r3]
ARM GAS  C:\Users\mohammed\AppData\Local\Temp\ccG2gzoD.s 			page 42


 740 00f8 002B     		cmp	r3, #0
 741 00fa 18D1     		bne	.L52
1597:.\Generated_Source\PSoC4/CYBLE_eventHandler.c ****             {  
1598:.\Generated_Source\PSoC4/CYBLE_eventHandler.c ****             #if(CYBLE_GATT_ENABLE_EXTERNAL_PREP_WRITE_BUFF == 0u)
1599:.\Generated_Source\PSoC4/CYBLE_eventHandler.c ****                 /* Stack requests to provide memory to process remote request */
1600:.\Generated_Source\PSoC4/CYBLE_eventHandler.c ****                 if(memReq->allocFree == CYBLE_ALLOC_MEMORY)
 742              		.loc 1 1600 0
 743 00fc 3B69     		ldr	r3, [r7, #16]
 744 00fe 5B78     		ldrb	r3, [r3, #1]
 745 0100 002B     		cmp	r3, #0
 746 0102 0BD1     		bne	.L53
 747              	.LBB6:
1601:.\Generated_Source\PSoC4/CYBLE_eventHandler.c ****                 {
1602:.\Generated_Source\PSoC4/CYBLE_eventHandler.c ****                     static CYBLE_PREPARE_WRITE_REQUEST_MEMORY_T gPrepWriteReqMem;
1603:.\Generated_Source\PSoC4/CYBLE_eventHandler.c ****                     
1604:.\Generated_Source\PSoC4/CYBLE_eventHandler.c ****                     /* Configure and return statically allocated buffer at the end of cyBle_stackMe
1605:.\Generated_Source\PSoC4/CYBLE_eventHandler.c ****                     gPrepWriteReqMem.prepareWriteQueueSize = CYBLE_GATT_MAX_PREPARE_BUFF_COUNT;
 748              		.loc 1 1605 0
 749 0104 7E4B     		ldr	r3, .L64+24
 750 0106 0022     		mov	r2, #0
 751 0108 DA80     		strh	r2, [r3, #6]
1606:.\Generated_Source\PSoC4/CYBLE_eventHandler.c ****                     gPrepWriteReqMem.totalAttrValueLength = CYBLE_GATT_PREPARE_LENGTH_ALIGN;
 752              		.loc 1 1606 0
 753 010a 7D4B     		ldr	r3, .L64+24
 754 010c 0022     		mov	r2, #0
 755 010e 9A80     		strh	r2, [r3, #4]
1607:.\Generated_Source\PSoC4/CYBLE_eventHandler.c ****                     gPrepWriteReqMem.queueBuffer = &cyBle_stackMemoryRam[CYBLE_STACK_RAM_SIZE - 
 756              		.loc 1 1607 0
 757 0110 7B4B     		ldr	r3, .L64+24
 758 0112 7C4A     		ldr	r2, .L64+28
 759 0114 1A60     		str	r2, [r3]
1608:.\Generated_Source\PSoC4/CYBLE_eventHandler.c ****                                                                          CYBLE_GATT_PREPARE_WRITE_B
1609:.\Generated_Source\PSoC4/CYBLE_eventHandler.c ****                     memReq->configMemory = &gPrepWriteReqMem;  
 760              		.loc 1 1609 0
 761 0116 3B69     		ldr	r3, [r7, #16]
 762 0118 794A     		ldr	r2, .L64+24
 763 011a 5A60     		str	r2, [r3, #4]
 764              	.L53:
 765              	.LBE6:
1610:.\Generated_Source\PSoC4/CYBLE_eventHandler.c ****                 }                
1611:.\Generated_Source\PSoC4/CYBLE_eventHandler.c ****                 /* Clear CYBLE_CALLBACK flag not to provide handled event to application */
1612:.\Generated_Source\PSoC4/CYBLE_eventHandler.c ****                 cyBle_eventHandlerFlag &= (uint8)~CYBLE_CALLBACK;
 766              		.loc 1 1612 0
 767 011c 724B     		ldr	r3, .L64
 768 011e 1B78     		ldrb	r3, [r3]
 769 0120 DBB2     		uxtb	r3, r3
 770 0122 0122     		mov	r2, #1
 771 0124 9343     		bic	r3, r2
 772 0126 DAB2     		uxtb	r2, r3
 773 0128 6F4B     		ldr	r3, .L64
 774 012a 1A70     		strb	r2, [r3]
 775              	.LBE5:
1613:.\Generated_Source\PSoC4/CYBLE_eventHandler.c ****             #endif  /* CYBLE_GATT_ENABLE_EXTERNAL_PREP_WRITE_BUFF == 0u */
1614:.\Generated_Source\PSoC4/CYBLE_eventHandler.c ****             }
1615:.\Generated_Source\PSoC4/CYBLE_eventHandler.c ****         }
1616:.\Generated_Source\PSoC4/CYBLE_eventHandler.c ****         #endif /* CYBLE_MODE_PROFILE */
1617:.\Generated_Source\PSoC4/CYBLE_eventHandler.c ****             break;
ARM GAS  C:\Users\mohammed\AppData\Local\Temp\ccG2gzoD.s 			page 43


 776              		.loc 1 1617 0
 777 012c C2E0     		b	.L51
 778              	.L52:
 779 012e C1E0     		b	.L51
 780              	.L33:
1618:.\Generated_Source\PSoC4/CYBLE_eventHandler.c ****         /**********************************************************
1619:.\Generated_Source\PSoC4/CYBLE_eventHandler.c ****         * GAP events
1620:.\Generated_Source\PSoC4/CYBLE_eventHandler.c ****         ************************************************************/
1621:.\Generated_Source\PSoC4/CYBLE_eventHandler.c ****         case CYBLE_EVT_GAP_AUTH_REQ:
1622:.\Generated_Source\PSoC4/CYBLE_eventHandler.c ****         #if(CYBLE_MODE_PROFILE)
1623:.\Generated_Source\PSoC4/CYBLE_eventHandler.c ****             if(0u == (cyBle_eventHandlerFlag & CYBLE_DISABLE_AUTOMATIC_AUTH))
 781              		.loc 1 1623 0
 782 0130 6D4B     		ldr	r3, .L64
 783 0132 1B78     		ldrb	r3, [r3]
 784 0134 DBB2     		uxtb	r3, r3
 785 0136 1A1C     		mov	r2, r3
 786 0138 2023     		mov	r3, #32
 787 013a 1340     		and	r3, r2
 788 013c 16D1     		bne	.L54
1624:.\Generated_Source\PSoC4/CYBLE_eventHandler.c ****             {
1625:.\Generated_Source\PSoC4/CYBLE_eventHandler.c ****                 /* If the responding device does not support pairing then the responding 
1626:.\Generated_Source\PSoC4/CYBLE_eventHandler.c ****                    device shall respond using the Pairing Failed message with the error 
1627:.\Generated_Source\PSoC4/CYBLE_eventHandler.c ****                    code "Pairing Not Supported" otherwise it responds with a Pairing 
1628:.\Generated_Source\PSoC4/CYBLE_eventHandler.c ****                    Response message.
1629:.\Generated_Source\PSoC4/CYBLE_eventHandler.c ****                 */
1630:.\Generated_Source\PSoC4/CYBLE_eventHandler.c ****                 if(cyBle_authInfo.security == (CYBLE_GAP_SEC_MODE_1 | CYBLE_GAP_SEC_LEVEL_1))
 789              		.loc 1 1630 0
 790 013e 724B     		ldr	r3, .L64+32
 791 0140 1B78     		ldrb	r3, [r3]
 792 0142 102B     		cmp	r3, #16
 793 0144 02D1     		bne	.L55
1631:.\Generated_Source\PSoC4/CYBLE_eventHandler.c ****                 {
1632:.\Generated_Source\PSoC4/CYBLE_eventHandler.c ****                     cyBle_authInfo.authErr = CYBLE_GAP_AUTH_ERROR_PAIRING_NOT_SUPPORTED;
 794              		.loc 1 1632 0
 795 0146 704B     		ldr	r3, .L64+32
 796 0148 0522     		mov	r2, #5
 797 014a DA70     		strb	r2, [r3, #3]
 798              	.L55:
1633:.\Generated_Source\PSoC4/CYBLE_eventHandler.c ****                 }    
1634:.\Generated_Source\PSoC4/CYBLE_eventHandler.c ****             #if(CYBLE_GAP_ROLE_PERIPHERAL)
1635:.\Generated_Source\PSoC4/CYBLE_eventHandler.c ****                 (void)CyBle_GappAuthReqReply(cyBle_connHandle.bdHandle, &cyBle_authInfo);
 799              		.loc 1 1635 0
 800 014c 6F4B     		ldr	r3, .L64+36
 801 014e 1A78     		ldrb	r2, [r3]
 802 0150 6D4B     		ldr	r3, .L64+32
 803 0152 101C     		mov	r0, r2
 804 0154 191C     		mov	r1, r3
 805 0156 FFF7FEFF 		bl	CyBle_GappAuthReqReply
1636:.\Generated_Source\PSoC4/CYBLE_eventHandler.c ****                 /* Setting callback flag again as CyBle_GappAuthReqReply() will generate
1637:.\Generated_Source\PSoC4/CYBLE_eventHandler.c ****                 * CYBLE_EVT_GAP_SMP_NEGOTIATED_AUTH_INFO event wich will clear the callback
1638:.\Generated_Source\PSoC4/CYBLE_eventHandler.c ****                 * flag.
1639:.\Generated_Source\PSoC4/CYBLE_eventHandler.c ****                 */
1640:.\Generated_Source\PSoC4/CYBLE_eventHandler.c ****                 cyBle_eventHandlerFlag |= CYBLE_CALLBACK;
 806              		.loc 1 1640 0
 807 015a 634B     		ldr	r3, .L64
 808 015c 1B78     		ldrb	r3, [r3]
 809 015e DBB2     		uxtb	r3, r3
ARM GAS  C:\Users\mohammed\AppData\Local\Temp\ccG2gzoD.s 			page 44


 810 0160 0122     		mov	r2, #1
 811 0162 1343     		orr	r3, r2
 812 0164 DAB2     		uxtb	r2, r3
 813 0166 604B     		ldr	r3, .L64
 814 0168 1A70     		strb	r2, [r3]
1641:.\Generated_Source\PSoC4/CYBLE_eventHandler.c ****             #endif /* CYBLE_GAP_ROLE_PERIPHERAL */
1642:.\Generated_Source\PSoC4/CYBLE_eventHandler.c ****             #if (CYBLE_GAP_ROLE_CENTRAL)
1643:.\Generated_Source\PSoC4/CYBLE_eventHandler.c ****                 (void)CyBle_GapAuthReq(cyBle_connHandle.bdHandle, &cyBle_authInfo);
1644:.\Generated_Source\PSoC4/CYBLE_eventHandler.c ****             #endif /* CYBLE_GAP_ROLE_CENTRAL */
1645:.\Generated_Source\PSoC4/CYBLE_eventHandler.c ****             }
1646:.\Generated_Source\PSoC4/CYBLE_eventHandler.c ****         #endif /* CYBLE_MODE_PROFILE */
1647:.\Generated_Source\PSoC4/CYBLE_eventHandler.c ****             break;
 815              		.loc 1 1647 0
 816 016a A3E0     		b	.L51
 817              	.L54:
 818 016c A2E0     		b	.L51
 819              	.L38:
1648:.\Generated_Source\PSoC4/CYBLE_eventHandler.c ****         
1649:.\Generated_Source\PSoC4/CYBLE_eventHandler.c ****         case CYBLE_EVT_GAP_AUTH_COMPLETE:
1650:.\Generated_Source\PSoC4/CYBLE_eventHandler.c ****         #if((CYBLE_GAP_ROLE_PERIPHERAL || CYBLE_GAP_ROLE_CENTRAL) && (CYBLE_BONDING_REQUIREMENT == 
1651:.\Generated_Source\PSoC4/CYBLE_eventHandler.c ****             cyBle_peerBonding = ((CYBLE_GAP_AUTH_INFO_T *)eventParam)->bonding;
1652:.\Generated_Source\PSoC4/CYBLE_eventHandler.c ****         #endif  /* CYBLE_BONDING_REQUIREMENT == CYBLE_BONDING_YES */
1653:.\Generated_Source\PSoC4/CYBLE_eventHandler.c ****             break;
1654:.\Generated_Source\PSoC4/CYBLE_eventHandler.c ****         
1655:.\Generated_Source\PSoC4/CYBLE_eventHandler.c ****         case CYBLE_EVT_GAP_CONNECTION_UPDATE_COMPLETE:
1656:.\Generated_Source\PSoC4/CYBLE_eventHandler.c ****             CyBle_GapConnUpdateCompleteEventHandler((const CYBLE_GAP_CONN_PARAM_UPDATED_IN_CONTROLL
 820              		.loc 1 1656 0
 821 016e 3B68     		ldr	r3, [r7]
 822 0170 181C     		mov	r0, r3
 823 0172 FFF7FEFF 		bl	CyBle_GapConnUpdateCompleteEventHandler
1657:.\Generated_Source\PSoC4/CYBLE_eventHandler.c ****             break;
 824              		.loc 1 1657 0
 825 0176 9DE0     		b	.L51
 826              	.L36:
1658:.\Generated_Source\PSoC4/CYBLE_eventHandler.c ****             
1659:.\Generated_Source\PSoC4/CYBLE_eventHandler.c ****     #if(CYBLE_LL_PRIVACY_FEATURE != 0u)        
1660:.\Generated_Source\PSoC4/CYBLE_eventHandler.c ****         case CYBLE_EVT_GAP_ENHANCE_CONN_COMPLETE:
1661:.\Generated_Source\PSoC4/CYBLE_eventHandler.c ****         {
1662:.\Generated_Source\PSoC4/CYBLE_eventHandler.c ****             CYBLE_GAP_CONN_PARAM_UPDATED_IN_CONTROLLER_T  connCParam;
1663:.\Generated_Source\PSoC4/CYBLE_eventHandler.c ****             CYBLE_GAP_ENHANCE_CONN_COMPLETE_T *connEnhanceParam;
1664:.\Generated_Source\PSoC4/CYBLE_eventHandler.c ****             
1665:.\Generated_Source\PSoC4/CYBLE_eventHandler.c ****             connEnhanceParam = (CYBLE_GAP_ENHANCE_CONN_COMPLETE_T *)eventParam;
1666:.\Generated_Source\PSoC4/CYBLE_eventHandler.c ****             connCParam.status = connEnhanceParam->status;
1667:.\Generated_Source\PSoC4/CYBLE_eventHandler.c ****             connCParam.connIntv = connEnhanceParam->connIntv;
1668:.\Generated_Source\PSoC4/CYBLE_eventHandler.c ****             connCParam.connLatency = connEnhanceParam->connLatency;
1669:.\Generated_Source\PSoC4/CYBLE_eventHandler.c ****             connCParam.supervisionTO = connEnhanceParam->supervisionTo;
1670:.\Generated_Source\PSoC4/CYBLE_eventHandler.c ****             CyBle_GapConnUpdateCompleteEventHandler((const CYBLE_GAP_CONN_PARAM_UPDATED_IN_CONTROLL
1671:.\Generated_Source\PSoC4/CYBLE_eventHandler.c ****             
1672:.\Generated_Source\PSoC4/CYBLE_eventHandler.c ****             #if(CYBLE_GAP_ROLE_CENTRAL)
1673:.\Generated_Source\PSoC4/CYBLE_eventHandler.c ****                 if(cyBle_connectingTimeout != 0u)
1674:.\Generated_Source\PSoC4/CYBLE_eventHandler.c ****                 {
1675:.\Generated_Source\PSoC4/CYBLE_eventHandler.c ****                    (void)CyBle_StopTimer();
1676:.\Generated_Source\PSoC4/CYBLE_eventHandler.c ****                 }
1677:.\Generated_Source\PSoC4/CYBLE_eventHandler.c ****             #endif /* CYBLE_GAP_ROLE_CENTRAL */
1678:.\Generated_Source\PSoC4/CYBLE_eventHandler.c ****             CyBle_SetState(CYBLE_STATE_CONNECTED);
1679:.\Generated_Source\PSoC4/CYBLE_eventHandler.c ****         }
1680:.\Generated_Source\PSoC4/CYBLE_eventHandler.c ****             break;
ARM GAS  C:\Users\mohammed\AppData\Local\Temp\ccG2gzoD.s 			page 45


1681:.\Generated_Source\PSoC4/CYBLE_eventHandler.c ****     #endif /* CYBLE_LL_PRIVACY_FEATURE != 0u */      
1682:.\Generated_Source\PSoC4/CYBLE_eventHandler.c ****             
1683:.\Generated_Source\PSoC4/CYBLE_eventHandler.c ****         case CYBLE_EVT_GAP_DEVICE_CONNECTED:
1684:.\Generated_Source\PSoC4/CYBLE_eventHandler.c ****             CyBle_GapConnUpdateCompleteEventHandler((const CYBLE_GAP_CONN_PARAM_UPDATED_IN_CONTROLL
 827              		.loc 1 1684 0
 828 0178 3B68     		ldr	r3, [r7]
 829 017a 181C     		mov	r0, r3
 830 017c FFF7FEFF 		bl	CyBle_GapConnUpdateCompleteEventHandler
1685:.\Generated_Source\PSoC4/CYBLE_eventHandler.c ****             #if(CYBLE_GAP_ROLE_CENTRAL)
1686:.\Generated_Source\PSoC4/CYBLE_eventHandler.c ****                 if(cyBle_connectingTimeout != 0u)
1687:.\Generated_Source\PSoC4/CYBLE_eventHandler.c ****                 {
1688:.\Generated_Source\PSoC4/CYBLE_eventHandler.c ****                    (void)CyBle_StopTimer();
1689:.\Generated_Source\PSoC4/CYBLE_eventHandler.c ****                 }
1690:.\Generated_Source\PSoC4/CYBLE_eventHandler.c ****             #endif /* CYBLE_GAP_ROLE_CENTRAL */
1691:.\Generated_Source\PSoC4/CYBLE_eventHandler.c ****             CyBle_SetState(CYBLE_STATE_CONNECTED);
 831              		.loc 1 1691 0
 832 0180 5D4B     		ldr	r3, .L64+16
 833 0182 0222     		mov	r2, #2
 834 0184 1A70     		strb	r2, [r3]
1692:.\Generated_Source\PSoC4/CYBLE_eventHandler.c ****             break;
 835              		.loc 1 1692 0
 836 0186 95E0     		b	.L51
 837              	.L37:
1693:.\Generated_Source\PSoC4/CYBLE_eventHandler.c **** 
1694:.\Generated_Source\PSoC4/CYBLE_eventHandler.c ****         case CYBLE_EVT_GAP_DEVICE_DISCONNECTED:
1695:.\Generated_Source\PSoC4/CYBLE_eventHandler.c ****             CyBle_SetState(CYBLE_STATE_DISCONNECTED);
 838              		.loc 1 1695 0
 839 0188 5B4B     		ldr	r3, .L64+16
 840 018a 0422     		mov	r2, #4
 841 018c 1A70     		strb	r2, [r3]
1696:.\Generated_Source\PSoC4/CYBLE_eventHandler.c ****             break;
 842              		.loc 1 1696 0
 843 018e 91E0     		b	.L51
 844              	.L35:
1697:.\Generated_Source\PSoC4/CYBLE_eventHandler.c ****         #if(CYBLE_GAP_ROLE_PERIPHERAL || CYBLE_GAP_ROLE_BROADCASTER)
1698:.\Generated_Source\PSoC4/CYBLE_eventHandler.c ****             
1699:.\Generated_Source\PSoC4/CYBLE_eventHandler.c ****         case CYBLE_EVT_GAPP_ADVERTISEMENT_START_STOP:
1700:.\Generated_Source\PSoC4/CYBLE_eventHandler.c ****             #ifdef CYBLE_CPS_SERVER
1701:.\Generated_Source\PSoC4/CYBLE_eventHandler.c ****                 #if(CYBLE_GAP_ROLE_BROADCASTER)
1702:.\Generated_Source\PSoC4/CYBLE_eventHandler.c ****                     CyBle_CpssAdvertisementStartStopEventHandler();
1703:.\Generated_Source\PSoC4/CYBLE_eventHandler.c ****                 #endif /* CYBLE_GAP_ROLE_BROADCASTER */
1704:.\Generated_Source\PSoC4/CYBLE_eventHandler.c ****             #endif /* CYBLE_CPS_SERVER */
1705:.\Generated_Source\PSoC4/CYBLE_eventHandler.c ****             
1706:.\Generated_Source\PSoC4/CYBLE_eventHandler.c ****             if((CYBLE_STATE_CONNECTED != CyBle_GetState()) && ((cyBle_eventHandlerFlag & CYBLE_CALL
 845              		.loc 1 1706 0
 846 0190 594B     		ldr	r3, .L64+16
 847 0192 1B78     		ldrb	r3, [r3]
 848 0194 022B     		cmp	r3, #2
 849 0196 34D0     		beq	.L56
 850              		.loc 1 1706 0 is_stmt 0 discriminator 1
 851 0198 534B     		ldr	r3, .L64
 852 019a 1B78     		ldrb	r3, [r3]
 853 019c DBB2     		uxtb	r3, r3
 854 019e 1A1C     		mov	r2, r3
 855 01a0 0123     		mov	r3, #1
 856 01a2 1340     		and	r3, r2
 857 01a4 2DD0     		beq	.L56
ARM GAS  C:\Users\mohammed\AppData\Local\Temp\ccG2gzoD.s 			page 46


1707:.\Generated_Source\PSoC4/CYBLE_eventHandler.c ****             {
1708:.\Generated_Source\PSoC4/CYBLE_eventHandler.c ****                 /* After CyBle_GappStartAdvertisement first event indicates that advertising has be
1709:.\Generated_Source\PSoC4/CYBLE_eventHandler.c ****                 if(0u != (cyBle_eventHandlerFlag & CYBLE_START_FLAG))
 858              		.loc 1 1709 0 is_stmt 1
 859 01a6 504B     		ldr	r3, .L64
 860 01a8 1B78     		ldrb	r3, [r3]
 861 01aa DBB2     		uxtb	r3, r3
 862 01ac 1A1C     		mov	r2, r3
 863 01ae 0423     		mov	r3, #4
 864 01b0 1340     		and	r3, r2
 865 01b2 0BD0     		beq	.L57
1710:.\Generated_Source\PSoC4/CYBLE_eventHandler.c ****                 {
1711:.\Generated_Source\PSoC4/CYBLE_eventHandler.c ****                     CyBle_SetState(CYBLE_STATE_ADVERTISING);
 866              		.loc 1 1711 0
 867 01b4 504B     		ldr	r3, .L64+16
 868 01b6 0322     		mov	r2, #3
 869 01b8 1A70     		strb	r2, [r3]
1712:.\Generated_Source\PSoC4/CYBLE_eventHandler.c ****                     cyBle_eventHandlerFlag &= (uint8)~CYBLE_START_FLAG;
 870              		.loc 1 1712 0
 871 01ba 4B4B     		ldr	r3, .L64
 872 01bc 1B78     		ldrb	r3, [r3]
 873 01be DBB2     		uxtb	r3, r3
 874 01c0 0422     		mov	r2, #4
 875 01c2 9343     		bic	r3, r2
 876 01c4 DAB2     		uxtb	r2, r3
 877 01c6 484B     		ldr	r3, .L64
 878 01c8 1A70     		strb	r2, [r3]
 879 01ca 1AE0     		b	.L56
 880              	.L57:
1713:.\Generated_Source\PSoC4/CYBLE_eventHandler.c ****                 }
1714:.\Generated_Source\PSoC4/CYBLE_eventHandler.c ****                 /* When application initiated stop advertisement */
1715:.\Generated_Source\PSoC4/CYBLE_eventHandler.c ****                 else if(0u != (cyBle_eventHandlerFlag & CYBLE_STOP_FLAG))
 881              		.loc 1 1715 0
 882 01cc 464B     		ldr	r3, .L64
 883 01ce 1B78     		ldrb	r3, [r3]
 884 01d0 DBB2     		uxtb	r3, r3
 885 01d2 1A1C     		mov	r2, r3
 886 01d4 0823     		mov	r3, #8
 887 01d6 1340     		and	r3, r2
 888 01d8 0BD0     		beq	.L58
1716:.\Generated_Source\PSoC4/CYBLE_eventHandler.c ****                 {
1717:.\Generated_Source\PSoC4/CYBLE_eventHandler.c ****                     CyBle_SetState(CYBLE_STATE_DISCONNECTED);  
 889              		.loc 1 1717 0
 890 01da 474B     		ldr	r3, .L64+16
 891 01dc 0422     		mov	r2, #4
 892 01de 1A70     		strb	r2, [r3]
1718:.\Generated_Source\PSoC4/CYBLE_eventHandler.c ****                     cyBle_eventHandlerFlag &= (uint8)~CYBLE_STOP_FLAG;
 893              		.loc 1 1718 0
 894 01e0 414B     		ldr	r3, .L64
 895 01e2 1B78     		ldrb	r3, [r3]
 896 01e4 DBB2     		uxtb	r3, r3
 897 01e6 0822     		mov	r2, #8
 898 01e8 9343     		bic	r3, r2
 899 01ea DAB2     		uxtb	r2, r3
 900 01ec 3E4B     		ldr	r3, .L64
 901 01ee 1A70     		strb	r2, [r3]
 902 01f0 07E0     		b	.L56
ARM GAS  C:\Users\mohammed\AppData\Local\Temp\ccG2gzoD.s 			page 47


 903              	.L58:
1719:.\Generated_Source\PSoC4/CYBLE_eventHandler.c ****                 }
1720:.\Generated_Source\PSoC4/CYBLE_eventHandler.c ****                 else /* Following event indicates that advertising has been stopped */
1721:.\Generated_Source\PSoC4/CYBLE_eventHandler.c ****                 {
1722:.\Generated_Source\PSoC4/CYBLE_eventHandler.c ****                     if(CYBLE_STATE_ADVERTISING == CyBle_GetState())
 904              		.loc 1 1722 0
 905 01f2 414B     		ldr	r3, .L64+16
 906 01f4 1B78     		ldrb	r3, [r3]
 907 01f6 032B     		cmp	r3, #3
 908 01f8 03D1     		bne	.L56
1723:.\Generated_Source\PSoC4/CYBLE_eventHandler.c ****                     {
1724:.\Generated_Source\PSoC4/CYBLE_eventHandler.c ****                         CyBle_SetState(CYBLE_STATE_DISCONNECTED);
 909              		.loc 1 1724 0
 910 01fa 3F4B     		ldr	r3, .L64+16
 911 01fc 0422     		mov	r2, #4
 912 01fe 1A70     		strb	r2, [r3]
1725:.\Generated_Source\PSoC4/CYBLE_eventHandler.c ****                     #if ((CYBLE_SLOW_ADV_ENABLED != 0u) && (CYBLE_FAST_ADV_TIMEOUT != 0u))
1726:.\Generated_Source\PSoC4/CYBLE_eventHandler.c ****                         if(cyBle_advertisingIntervalType == CYBLE_ADVERTISING_FAST)
1727:.\Generated_Source\PSoC4/CYBLE_eventHandler.c ****                         {
1728:.\Generated_Source\PSoC4/CYBLE_eventHandler.c ****                             /* When fast advertising time out occur: Start slow advertising */
1729:.\Generated_Source\PSoC4/CYBLE_eventHandler.c ****                             if(CYBLE_ERROR_OK == CyBle_GappStartAdvertisement(CYBLE_ADVERTISING_SLO
1730:.\Generated_Source\PSoC4/CYBLE_eventHandler.c ****                             {
1731:.\Generated_Source\PSoC4/CYBLE_eventHandler.c ****                                 CyBle_SetState(CYBLE_STATE_ADVERTISING);
1732:.\Generated_Source\PSoC4/CYBLE_eventHandler.c ****                             }
1733:.\Generated_Source\PSoC4/CYBLE_eventHandler.c ****                         }
1734:.\Generated_Source\PSoC4/CYBLE_eventHandler.c ****                     #endif /* CYBLE_SLOW_ADV_ENABLED */
1735:.\Generated_Source\PSoC4/CYBLE_eventHandler.c ****                     }
1736:.\Generated_Source\PSoC4/CYBLE_eventHandler.c ****                 }
1737:.\Generated_Source\PSoC4/CYBLE_eventHandler.c ****             }
1738:.\Generated_Source\PSoC4/CYBLE_eventHandler.c ****             break;
 913              		.loc 1 1738 0
 914 0200 58E0     		b	.L51
 915              	.L56:
 916 0202 57E0     		b	.L51
 917              	.L48:
1739:.\Generated_Source\PSoC4/CYBLE_eventHandler.c ****         #endif /* CYBLE_GAP_ROLE_PERIPHERAL || CYBLE_GAP_ROLE_BROADCASTER */
1740:.\Generated_Source\PSoC4/CYBLE_eventHandler.c ****         
1741:.\Generated_Source\PSoC4/CYBLE_eventHandler.c ****         #if(CYBLE_GAP_ROLE_CENTRAL || CYBLE_GAP_ROLE_OBSERVER)    
1742:.\Generated_Source\PSoC4/CYBLE_eventHandler.c ****         case CYBLE_EVT_GAPC_SCAN_START_STOP:
1743:.\Generated_Source\PSoC4/CYBLE_eventHandler.c ****             #ifdef CYBLE_CPS_CLIENT
1744:.\Generated_Source\PSoC4/CYBLE_eventHandler.c ****                 CyBle_CpscScanStartStopEventHandler();
1745:.\Generated_Source\PSoC4/CYBLE_eventHandler.c ****             #endif /* CYBLE_CPS_CLIENT */
1746:.\Generated_Source\PSoC4/CYBLE_eventHandler.c ****             
1747:.\Generated_Source\PSoC4/CYBLE_eventHandler.c ****             if((CYBLE_STATE_CONNECTED != CyBle_GetState()) && ((cyBle_eventHandlerFlag & CYBLE_CALL
1748:.\Generated_Source\PSoC4/CYBLE_eventHandler.c ****             {
1749:.\Generated_Source\PSoC4/CYBLE_eventHandler.c ****                 /* After CyBle_GapcStartScan first event indicates that scanning has been started *
1750:.\Generated_Source\PSoC4/CYBLE_eventHandler.c ****                 if(0u != (cyBle_eventHandlerFlag & CYBLE_START_FLAG))
1751:.\Generated_Source\PSoC4/CYBLE_eventHandler.c ****                 {
1752:.\Generated_Source\PSoC4/CYBLE_eventHandler.c ****                     CyBle_SetState(CYBLE_STATE_SCANNING);
1753:.\Generated_Source\PSoC4/CYBLE_eventHandler.c ****                     cyBle_eventHandlerFlag &= (uint8)~CYBLE_START_FLAG;
1754:.\Generated_Source\PSoC4/CYBLE_eventHandler.c ****                 }
1755:.\Generated_Source\PSoC4/CYBLE_eventHandler.c ****                 /* When application initiated stop scanning */
1756:.\Generated_Source\PSoC4/CYBLE_eventHandler.c ****                 else if(0u != (cyBle_eventHandlerFlag & CYBLE_STOP_FLAG))
1757:.\Generated_Source\PSoC4/CYBLE_eventHandler.c ****                 {
1758:.\Generated_Source\PSoC4/CYBLE_eventHandler.c ****                     CyBle_SetState(CYBLE_STATE_DISCONNECTED);  
1759:.\Generated_Source\PSoC4/CYBLE_eventHandler.c ****                     cyBle_eventHandlerFlag &= (uint8)~CYBLE_STOP_FLAG;
1760:.\Generated_Source\PSoC4/CYBLE_eventHandler.c ****                 }
ARM GAS  C:\Users\mohammed\AppData\Local\Temp\ccG2gzoD.s 			page 48


1761:.\Generated_Source\PSoC4/CYBLE_eventHandler.c ****                 else /* Following event indicates that scanning has been stopped by stack */
1762:.\Generated_Source\PSoC4/CYBLE_eventHandler.c ****                 {
1763:.\Generated_Source\PSoC4/CYBLE_eventHandler.c ****                     if(CYBLE_STATE_SCANNING == CyBle_GetState())
1764:.\Generated_Source\PSoC4/CYBLE_eventHandler.c ****                     {
1765:.\Generated_Source\PSoC4/CYBLE_eventHandler.c ****                         CyBle_SetState(CYBLE_STATE_DISCONNECTED);  
1766:.\Generated_Source\PSoC4/CYBLE_eventHandler.c ****                     #if ((CYBLE_SLOW_SCAN_ENABLED != 0u) && (CYBLE_FAST_SCAN_TIMEOUT != 0u))
1767:.\Generated_Source\PSoC4/CYBLE_eventHandler.c ****                         if(cyBle_scanningIntervalType == CYBLE_SCANNING_FAST)
1768:.\Generated_Source\PSoC4/CYBLE_eventHandler.c ****                         {
1769:.\Generated_Source\PSoC4/CYBLE_eventHandler.c ****                             /* When fast scanning time out occur: Start slow scanning */
1770:.\Generated_Source\PSoC4/CYBLE_eventHandler.c ****                             if(CYBLE_ERROR_OK == CyBle_GapcStartScan(CYBLE_SCANNING_SLOW))
1771:.\Generated_Source\PSoC4/CYBLE_eventHandler.c ****                             {
1772:.\Generated_Source\PSoC4/CYBLE_eventHandler.c ****                                 CyBle_SetState(CYBLE_STATE_SCANNING);
1773:.\Generated_Source\PSoC4/CYBLE_eventHandler.c ****                             }
1774:.\Generated_Source\PSoC4/CYBLE_eventHandler.c ****                         }
1775:.\Generated_Source\PSoC4/CYBLE_eventHandler.c ****                     #endif /* CYBLE_SLOW_SCAN_ENABLED */
1776:.\Generated_Source\PSoC4/CYBLE_eventHandler.c ****                     }
1777:.\Generated_Source\PSoC4/CYBLE_eventHandler.c ****                 }
1778:.\Generated_Source\PSoC4/CYBLE_eventHandler.c ****             }
1779:.\Generated_Source\PSoC4/CYBLE_eventHandler.c ****             break;
1780:.\Generated_Source\PSoC4/CYBLE_eventHandler.c ****         #endif /* CYBLE_GAP_ROLE_CENTRAL || CYBLE_GAP_ROLE_OBSERVER */
1781:.\Generated_Source\PSoC4/CYBLE_eventHandler.c **** 
1782:.\Generated_Source\PSoC4/CYBLE_eventHandler.c ****         /**********************************************************
1783:.\Generated_Source\PSoC4/CYBLE_eventHandler.c ****         * L2AP events 
1784:.\Generated_Source\PSoC4/CYBLE_eventHandler.c ****         ************************************************************/
1785:.\Generated_Source\PSoC4/CYBLE_eventHandler.c ****         case CYBLE_EVT_L2CAP_CONN_PARAM_UPDATE_RSP:
1786:.\Generated_Source\PSoC4/CYBLE_eventHandler.c ****             CyBle_L2Cap_ConnParamUpdateRspEventHandler(*(uint16 *)eventParam);
 918              		.loc 1 1786 0
 919 0204 3B68     		ldr	r3, [r7]
 920 0206 1B88     		ldrh	r3, [r3]
 921 0208 181C     		mov	r0, r3
 922 020a FFF7FEFF 		bl	CyBle_L2Cap_ConnParamUpdateRspEventHandler
1787:.\Generated_Source\PSoC4/CYBLE_eventHandler.c ****             break;
 923              		.loc 1 1787 0
 924 020e 51E0     		b	.L51
 925              	.L39:
1788:.\Generated_Source\PSoC4/CYBLE_eventHandler.c ****         
1789:.\Generated_Source\PSoC4/CYBLE_eventHandler.c ****         /**********************************************************
1790:.\Generated_Source\PSoC4/CYBLE_eventHandler.c ****         * GATT events
1791:.\Generated_Source\PSoC4/CYBLE_eventHandler.c ****         ************************************************************/        
1792:.\Generated_Source\PSoC4/CYBLE_eventHandler.c ****         case CYBLE_EVT_GATT_CONNECT_IND:
1793:.\Generated_Source\PSoC4/CYBLE_eventHandler.c ****             cyBle_connHandle = *(CYBLE_CONN_HANDLE_T *)eventParam;
 926              		.loc 1 1793 0
 927 0210 3E4A     		ldr	r2, .L64+36
 928 0212 3B68     		ldr	r3, [r7]
 929 0214 111C     		mov	r1, r2
 930 0216 1A1C     		mov	r2, r3
 931 0218 0223     		mov	r3, #2
 932 021a 081C     		mov	r0, r1
 933 021c 111C     		mov	r1, r2
 934 021e 1A1C     		mov	r2, r3
 935 0220 FFF7FEFF 		bl	memcpy
1794:.\Generated_Source\PSoC4/CYBLE_eventHandler.c ****             cyBle_busyStatus = CYBLE_STACK_STATE_FREE;
 936              		.loc 1 1794 0
 937 0224 354B     		ldr	r3, .L64+20
 938 0226 0022     		mov	r2, #0
 939 0228 1A70     		strb	r2, [r3]
1795:.\Generated_Source\PSoC4/CYBLE_eventHandler.c ****             
ARM GAS  C:\Users\mohammed\AppData\Local\Temp\ccG2gzoD.s 			page 49


1796:.\Generated_Source\PSoC4/CYBLE_eventHandler.c ****         #if((CYBLE_GATT_ROLE_SERVER) && (CYBLE_GATT_DB_CCCD_COUNT != 0u) && \
1797:.\Generated_Source\PSoC4/CYBLE_eventHandler.c ****             (CYBLE_BONDING_REQUIREMENT == CYBLE_BONDING_YES))
1798:.\Generated_Source\PSoC4/CYBLE_eventHandler.c ****             /* Init CCCD values in RAM when bonding is enabled */
1799:.\Generated_Source\PSoC4/CYBLE_eventHandler.c ****         	(void) memcpy (cyBle_attValuesCCCD, cyBle_flashStorage.attValuesCCCDFlashMemory[cyBle_conn
1800:.\Generated_Source\PSoC4/CYBLE_eventHandler.c ****                             CYBLE_GATT_DB_CCCD_COUNT);
1801:.\Generated_Source\PSoC4/CYBLE_eventHandler.c ****         #endif /* CYBLE_GATT_ROLE_SERVER && (CYBLE_BONDING_REQUIREMENT == CYBLE_BONDING_YES) */
1802:.\Generated_Source\PSoC4/CYBLE_eventHandler.c ****         
1803:.\Generated_Source\PSoC4/CYBLE_eventHandler.c ****         #if (CYBLE_GATT_ROLE_CLIENT)
1804:.\Generated_Source\PSoC4/CYBLE_eventHandler.c ****             CyBle_SetClientState(CYBLE_CLIENT_STATE_CONNECTED);
1805:.\Generated_Source\PSoC4/CYBLE_eventHandler.c ****         #endif /* CYBLE_GATT_ROLE_CLIENT */
1806:.\Generated_Source\PSoC4/CYBLE_eventHandler.c ****         
1807:.\Generated_Source\PSoC4/CYBLE_eventHandler.c ****             CyBle_GattConnectReqHandler();
 940              		.loc 1 1807 0
 941 022a FFF7FEFF 		bl	CyBle_GattConnectReqHandler
1808:.\Generated_Source\PSoC4/CYBLE_eventHandler.c ****             break;
 942              		.loc 1 1808 0
 943 022e 41E0     		b	.L51
 944              	.L40:
1809:.\Generated_Source\PSoC4/CYBLE_eventHandler.c **** 
1810:.\Generated_Source\PSoC4/CYBLE_eventHandler.c ****         case CYBLE_EVT_GATT_DISCONNECT_IND:
1811:.\Generated_Source\PSoC4/CYBLE_eventHandler.c ****             CyBle_GattDisconnectEventHandler();
 945              		.loc 1 1811 0
 946 0230 FFF7FEFF 		bl	CyBle_GattDisconnectEventHandler
1812:.\Generated_Source\PSoC4/CYBLE_eventHandler.c ****             break;
 947              		.loc 1 1812 0
 948 0234 3EE0     		b	.L51
 949              	.L41:
 950              	.LBB7:
1813:.\Generated_Source\PSoC4/CYBLE_eventHandler.c **** 
1814:.\Generated_Source\PSoC4/CYBLE_eventHandler.c ****     #if((CYBLE_GATT_ROLE_SERVER) || (CYBLE_GATT_ROLE_CLIENT))
1815:.\Generated_Source\PSoC4/CYBLE_eventHandler.c ****         case CYBLE_EVT_GATTS_XCNHG_MTU_REQ:
1816:.\Generated_Source\PSoC4/CYBLE_eventHandler.c ****             {
1817:.\Generated_Source\PSoC4/CYBLE_eventHandler.c ****                 uint16 cyBle_mtuSize;
1818:.\Generated_Source\PSoC4/CYBLE_eventHandler.c ****                 if(CYBLE_GATT_MTU > ((CYBLE_GATT_XCHG_MTU_PARAM_T *)eventParam)->mtu)
 951              		.loc 1 1818 0
 952 0236 3B68     		ldr	r3, [r7]
 953 0238 5B88     		ldrh	r3, [r3, #2]
 954 023a 162B     		cmp	r3, #22
 955 023c 05D8     		bhi	.L59
1819:.\Generated_Source\PSoC4/CYBLE_eventHandler.c ****                 {
1820:.\Generated_Source\PSoC4/CYBLE_eventHandler.c ****                     cyBle_mtuSize = ((CYBLE_GATT_XCHG_MTU_PARAM_T *)eventParam)->mtu;
 956              		.loc 1 1820 0
 957 023e 1623     		mov	r3, #22
 958 0240 FB18     		add	r3, r7, r3
 959 0242 3A68     		ldr	r2, [r7]
 960 0244 5288     		ldrh	r2, [r2, #2]
 961 0246 1A80     		strh	r2, [r3]
 962 0248 03E0     		b	.L60
 963              	.L59:
1821:.\Generated_Source\PSoC4/CYBLE_eventHandler.c ****                 }
1822:.\Generated_Source\PSoC4/CYBLE_eventHandler.c ****                 else
1823:.\Generated_Source\PSoC4/CYBLE_eventHandler.c ****                 {
1824:.\Generated_Source\PSoC4/CYBLE_eventHandler.c ****                     cyBle_mtuSize = CYBLE_GATT_MTU;
 964              		.loc 1 1824 0
 965 024a 1623     		mov	r3, #22
 966 024c FB18     		add	r3, r7, r3
 967 024e 1722     		mov	r2, #23
ARM GAS  C:\Users\mohammed\AppData\Local\Temp\ccG2gzoD.s 			page 50


 968 0250 1A80     		strh	r2, [r3]
 969              	.L60:
1825:.\Generated_Source\PSoC4/CYBLE_eventHandler.c ****                 }
1826:.\Generated_Source\PSoC4/CYBLE_eventHandler.c ****                 (void)CyBle_GattsExchangeMtuRsp(((CYBLE_GATT_XCHG_MTU_PARAM_T *)eventParam)->connHa
 970              		.loc 1 1826 0
 971 0252 3B68     		ldr	r3, [r7]
 972 0254 1622     		mov	r2, #22
 973 0256 BA18     		add	r2, r7, r2
 974 0258 1188     		ldrh	r1, [r2]
 975 025a 1A88     		ldrh	r2, [r3]
 976 025c 0023     		mov	r3, #0
 977 025e 1204     		lsl	r2, r2, #16
 978 0260 120C     		lsr	r2, r2, #16
 979 0262 1B0C     		lsr	r3, r3, #16
 980 0264 1B04     		lsl	r3, r3, #16
 981 0266 1343     		orr	r3, r2
 982 0268 181C     		mov	r0, r3
 983 026a FFF7FEFF 		bl	CyBle_GattsExchangeMtuRsp
 984              	.LBE7:
1827:.\Generated_Source\PSoC4/CYBLE_eventHandler.c ****             }
1828:.\Generated_Source\PSoC4/CYBLE_eventHandler.c ****             break;
 985              		.loc 1 1828 0
 986 026e 21E0     		b	.L51
 987              	.L42:
1829:.\Generated_Source\PSoC4/CYBLE_eventHandler.c ****     #endif /* CYBLE_GATT_ROLE_SERVER || CYBLE_GATT_ROLE_CLIENT */
1830:.\Generated_Source\PSoC4/CYBLE_eventHandler.c ****     
1831:.\Generated_Source\PSoC4/CYBLE_eventHandler.c ****     #if (CYBLE_GATT_ROLE_CLIENT)
1832:.\Generated_Source\PSoC4/CYBLE_eventHandler.c ****         case CYBLE_EVT_GAPC_SCAN_PROGRESS_RESULT:
1833:.\Generated_Source\PSoC4/CYBLE_eventHandler.c ****         #ifdef CYBLE_CPS_CLIENT
1834:.\Generated_Source\PSoC4/CYBLE_eventHandler.c ****             CyBle_CpscScanProcessEventHandler((CYBLE_GAPC_ADV_REPORT_T *)eventParam);
1835:.\Generated_Source\PSoC4/CYBLE_eventHandler.c ****         #endif /* CYBLE_CPS_CLIENT */
1836:.\Generated_Source\PSoC4/CYBLE_eventHandler.c ****             break;
1837:.\Generated_Source\PSoC4/CYBLE_eventHandler.c ****     #endif /* CYBLE_GATT_ROLE_CLIENT */
1838:.\Generated_Source\PSoC4/CYBLE_eventHandler.c **** 
1839:.\Generated_Source\PSoC4/CYBLE_eventHandler.c ****     #if(CYBLE_GATT_ROLE_SERVER)
1840:.\Generated_Source\PSoC4/CYBLE_eventHandler.c ****         case CYBLE_EVT_GATTS_WRITE_REQ:
1841:.\Generated_Source\PSoC4/CYBLE_eventHandler.c ****             CyBle_WriteReqHandler((CYBLE_GATTS_WRITE_REQ_PARAM_T *)eventParam);
 988              		.loc 1 1841 0
 989 0270 3B68     		ldr	r3, [r7]
 990 0272 181C     		mov	r0, r3
 991 0274 FFF7FEFF 		bl	CyBle_WriteReqHandler
1842:.\Generated_Source\PSoC4/CYBLE_eventHandler.c ****             break;
 992              		.loc 1 1842 0
 993 0278 1CE0     		b	.L51
 994              	.L44:
1843:.\Generated_Source\PSoC4/CYBLE_eventHandler.c **** 
1844:.\Generated_Source\PSoC4/CYBLE_eventHandler.c ****         case CYBLE_EVT_GATTS_WRITE_CMD_REQ:
1845:.\Generated_Source\PSoC4/CYBLE_eventHandler.c ****         #ifdef CYBLE_IAS_SERVER
1846:.\Generated_Source\PSoC4/CYBLE_eventHandler.c ****             if((cyBle_eventHandlerFlag & CYBLE_CALLBACK) != 0u)
1847:.\Generated_Source\PSoC4/CYBLE_eventHandler.c ****             {
1848:.\Generated_Source\PSoC4/CYBLE_eventHandler.c ****                 (void)CyBle_IassWriteCmdEventHandler((CYBLE_GATTS_WRITE_REQ_PARAM_T *)eventParam);
1849:.\Generated_Source\PSoC4/CYBLE_eventHandler.c ****             }
1850:.\Generated_Source\PSoC4/CYBLE_eventHandler.c ****         #endif /* CYBLE_IAS_SERVER */
1851:.\Generated_Source\PSoC4/CYBLE_eventHandler.c ****         #ifdef CYBLE_IPS_SERVER
1852:.\Generated_Source\PSoC4/CYBLE_eventHandler.c ****             if((cyBle_eventHandlerFlag & CYBLE_CALLBACK) != 0u)
1853:.\Generated_Source\PSoC4/CYBLE_eventHandler.c ****             {
1854:.\Generated_Source\PSoC4/CYBLE_eventHandler.c ****                 (void)CyBle_IpssWriteCmdEventHandler((CYBLE_GATTS_WRITE_REQ_PARAM_T *)eventParam);
ARM GAS  C:\Users\mohammed\AppData\Local\Temp\ccG2gzoD.s 			page 51


1855:.\Generated_Source\PSoC4/CYBLE_eventHandler.c ****             }
1856:.\Generated_Source\PSoC4/CYBLE_eventHandler.c ****         #endif /* CYBLE_IPS_SERVER */
1857:.\Generated_Source\PSoC4/CYBLE_eventHandler.c ****         #ifdef CYBLE_HIDS_SERVER
1858:.\Generated_Source\PSoC4/CYBLE_eventHandler.c ****             if((cyBle_eventHandlerFlag & CYBLE_CALLBACK) != 0u)
1859:.\Generated_Source\PSoC4/CYBLE_eventHandler.c ****             {
1860:.\Generated_Source\PSoC4/CYBLE_eventHandler.c ****                 (void)CyBle_HidssWriteEventHandler((CYBLE_GATTS_WRITE_REQ_PARAM_T *)eventParam);
1861:.\Generated_Source\PSoC4/CYBLE_eventHandler.c ****             }
1862:.\Generated_Source\PSoC4/CYBLE_eventHandler.c ****         #endif /* CYBLE_HIDS_SERVER */
1863:.\Generated_Source\PSoC4/CYBLE_eventHandler.c ****         #ifdef CYBLE_PASS_SERVER
1864:.\Generated_Source\PSoC4/CYBLE_eventHandler.c ****             if((cyBle_eventHandlerFlag & CYBLE_CALLBACK) != 0u)
1865:.\Generated_Source\PSoC4/CYBLE_eventHandler.c ****             {
1866:.\Generated_Source\PSoC4/CYBLE_eventHandler.c ****                 (void)CyBle_PasssWriteCmdEventHandler((CYBLE_GATTS_WRITE_REQ_PARAM_T *)eventParam);
1867:.\Generated_Source\PSoC4/CYBLE_eventHandler.c ****             }
1868:.\Generated_Source\PSoC4/CYBLE_eventHandler.c ****         #endif /* CYBLE_PASS_SERVER */
1869:.\Generated_Source\PSoC4/CYBLE_eventHandler.c ****         #ifdef CYBLE_RTUS_SERVER
1870:.\Generated_Source\PSoC4/CYBLE_eventHandler.c ****             if((cyBle_eventHandlerFlag & CYBLE_CALLBACK) != 0u)
1871:.\Generated_Source\PSoC4/CYBLE_eventHandler.c ****             {
1872:.\Generated_Source\PSoC4/CYBLE_eventHandler.c ****                 (void)CyBle_RtussWriteCmdEventHandler((CYBLE_GATTS_WRITE_REQ_PARAM_T *)eventParam);
1873:.\Generated_Source\PSoC4/CYBLE_eventHandler.c ****             }
1874:.\Generated_Source\PSoC4/CYBLE_eventHandler.c ****         #endif /* CYBLE_RTUS_SERVER */
1875:.\Generated_Source\PSoC4/CYBLE_eventHandler.c ****         #ifdef CYBLE_SCPS_SERVER
1876:.\Generated_Source\PSoC4/CYBLE_eventHandler.c ****             if((cyBle_eventHandlerFlag & CYBLE_CALLBACK) != 0u)
1877:.\Generated_Source\PSoC4/CYBLE_eventHandler.c ****             {
1878:.\Generated_Source\PSoC4/CYBLE_eventHandler.c ****                 (void)CyBle_ScpssWriteEventHandler((CYBLE_GATTS_WRITE_REQ_PARAM_T *)eventParam);
1879:.\Generated_Source\PSoC4/CYBLE_eventHandler.c ****             }
1880:.\Generated_Source\PSoC4/CYBLE_eventHandler.c ****         #endif /* CYBLE_SCPS_SERVER */
1881:.\Generated_Source\PSoC4/CYBLE_eventHandler.c ****             break;
1882:.\Generated_Source\PSoC4/CYBLE_eventHandler.c ****         
1883:.\Generated_Source\PSoC4/CYBLE_eventHandler.c ****         case CYBLE_EVT_GATTS_PREP_WRITE_REQ:
1884:.\Generated_Source\PSoC4/CYBLE_eventHandler.c ****         #ifdef CYBLE_BMS_SERVER
1885:.\Generated_Source\PSoC4/CYBLE_eventHandler.c ****             CyBle_BmssPrepareWriteRequestEventHandler((CYBLE_GATTS_PREP_WRITE_REQ_PARAM_T *)eventPa
1886:.\Generated_Source\PSoC4/CYBLE_eventHandler.c ****         #endif /* CYBLE_BMS_SERVER */
1887:.\Generated_Source\PSoC4/CYBLE_eventHandler.c ****         #ifdef CYBLE_BTS_SERVER
1888:.\Generated_Source\PSoC4/CYBLE_eventHandler.c ****             if((cyBle_eventHandlerFlag & CYBLE_CALLBACK) != 0u)
1889:.\Generated_Source\PSoC4/CYBLE_eventHandler.c ****             {
1890:.\Generated_Source\PSoC4/CYBLE_eventHandler.c ****                 CyBle_BtssPrepareWriteRequestEventHandler((CYBLE_GATTS_PREP_WRITE_REQ_PARAM_T *)eve
1891:.\Generated_Source\PSoC4/CYBLE_eventHandler.c ****             }
1892:.\Generated_Source\PSoC4/CYBLE_eventHandler.c ****         #endif /* CYBLE_BTS_SERVER */
1893:.\Generated_Source\PSoC4/CYBLE_eventHandler.c ****         #ifdef CYBLE_ESS_SERVER
1894:.\Generated_Source\PSoC4/CYBLE_eventHandler.c ****             if((cyBle_eventHandlerFlag & CYBLE_CALLBACK) != 0u)
1895:.\Generated_Source\PSoC4/CYBLE_eventHandler.c ****             {
1896:.\Generated_Source\PSoC4/CYBLE_eventHandler.c ****                 CyBle_EsssPrepareWriteRequestEventHandler((CYBLE_GATTS_PREP_WRITE_REQ_PARAM_T *)eve
1897:.\Generated_Source\PSoC4/CYBLE_eventHandler.c ****             }
1898:.\Generated_Source\PSoC4/CYBLE_eventHandler.c ****         #endif /* CYBLE_ESS_SERVER */
1899:.\Generated_Source\PSoC4/CYBLE_eventHandler.c ****         #ifdef CYBLE_HPS_SERVER
1900:.\Generated_Source\PSoC4/CYBLE_eventHandler.c ****             if((cyBle_eventHandlerFlag & CYBLE_CALLBACK) != 0u)
1901:.\Generated_Source\PSoC4/CYBLE_eventHandler.c ****             {
1902:.\Generated_Source\PSoC4/CYBLE_eventHandler.c ****                 CyBle_HpssPrepareWriteRequestEventHandler((CYBLE_GATTS_PREP_WRITE_REQ_PARAM_T *)eve
1903:.\Generated_Source\PSoC4/CYBLE_eventHandler.c ****             }
1904:.\Generated_Source\PSoC4/CYBLE_eventHandler.c ****         #endif /* CYBLE_HPS_SERVER */
1905:.\Generated_Source\PSoC4/CYBLE_eventHandler.c ****         #ifdef CYBLE_IPS_SERVER
1906:.\Generated_Source\PSoC4/CYBLE_eventHandler.c ****             if((cyBle_eventHandlerFlag & CYBLE_CALLBACK) != 0u)
1907:.\Generated_Source\PSoC4/CYBLE_eventHandler.c ****             {
1908:.\Generated_Source\PSoC4/CYBLE_eventHandler.c ****                 CyBle_IpssPrepareWriteRequestEventHandler((CYBLE_GATTS_PREP_WRITE_REQ_PARAM_T *)eve
1909:.\Generated_Source\PSoC4/CYBLE_eventHandler.c ****             }
1910:.\Generated_Source\PSoC4/CYBLE_eventHandler.c ****         #endif /* CYBLE_IPS_SERVER */
1911:.\Generated_Source\PSoC4/CYBLE_eventHandler.c ****         #ifdef CYBLE_UDS_SERVER
ARM GAS  C:\Users\mohammed\AppData\Local\Temp\ccG2gzoD.s 			page 52


1912:.\Generated_Source\PSoC4/CYBLE_eventHandler.c ****             if((cyBle_eventHandlerFlag & CYBLE_CALLBACK) != 0u)
 995              		.loc 1 1912 0
 996 027a 1B4B     		ldr	r3, .L64
 997 027c 1B78     		ldrb	r3, [r3]
 998 027e DBB2     		uxtb	r3, r3
 999 0280 1A1C     		mov	r2, r3
 1000 0282 0123     		mov	r3, #1
 1001 0284 1340     		and	r3, r2
 1002 0286 04D0     		beq	.L61
1913:.\Generated_Source\PSoC4/CYBLE_eventHandler.c ****             {
1914:.\Generated_Source\PSoC4/CYBLE_eventHandler.c ****                 CyBle_UdssPrepareWriteRequestEventHandler((CYBLE_GATTS_PREP_WRITE_REQ_PARAM_T *)eve
 1003              		.loc 1 1914 0
 1004 0288 3B68     		ldr	r3, [r7]
 1005 028a 181C     		mov	r0, r3
 1006 028c FFF7FEFF 		bl	CyBle_UdssPrepareWriteRequestEventHandler
1915:.\Generated_Source\PSoC4/CYBLE_eventHandler.c ****             }
1916:.\Generated_Source\PSoC4/CYBLE_eventHandler.c ****         #endif /* CYBLE_UDS_SERVER */
1917:.\Generated_Source\PSoC4/CYBLE_eventHandler.c ****             break;
 1007              		.loc 1 1917 0
 1008 0290 10E0     		b	.L51
 1009              	.L61:
 1010 0292 0FE0     		b	.L51
 1011              	.L45:
1918:.\Generated_Source\PSoC4/CYBLE_eventHandler.c **** 
1919:.\Generated_Source\PSoC4/CYBLE_eventHandler.c ****         case CYBLE_EVT_GATTS_EXEC_WRITE_REQ:
1920:.\Generated_Source\PSoC4/CYBLE_eventHandler.c ****         #ifdef CYBLE_BMS_SERVER
1921:.\Generated_Source\PSoC4/CYBLE_eventHandler.c ****             CyBle_BmssExecuteWriteRequestEventHandler((CYBLE_GATTS_EXEC_WRITE_REQ_T *)eventParam);
1922:.\Generated_Source\PSoC4/CYBLE_eventHandler.c ****         #endif /* CYBLE_BMS_SERVER */
1923:.\Generated_Source\PSoC4/CYBLE_eventHandler.c ****         #ifdef CYBLE_BTS_SERVER
1924:.\Generated_Source\PSoC4/CYBLE_eventHandler.c ****             CyBle_BtssExecuteWriteRequestEventHandler((CYBLE_GATTS_EXEC_WRITE_REQ_T *)eventParam);
1925:.\Generated_Source\PSoC4/CYBLE_eventHandler.c ****         #endif /* CYBLE_BTS_SERVER */
1926:.\Generated_Source\PSoC4/CYBLE_eventHandler.c ****         #ifdef CYBLE_ESS_SERVER
1927:.\Generated_Source\PSoC4/CYBLE_eventHandler.c ****             CyBle_EsssExecuteWriteRequestEventHandler((CYBLE_GATTS_EXEC_WRITE_REQ_T *)eventParam);
1928:.\Generated_Source\PSoC4/CYBLE_eventHandler.c ****         #endif /* CYBLE_ESS_SERVER */
1929:.\Generated_Source\PSoC4/CYBLE_eventHandler.c ****         #ifdef CYBLE_HPS_SERVER
1930:.\Generated_Source\PSoC4/CYBLE_eventHandler.c ****             CyBle_HpssExecuteWriteRequestEventHandler((CYBLE_GATTS_EXEC_WRITE_REQ_T *)eventParam);
1931:.\Generated_Source\PSoC4/CYBLE_eventHandler.c ****         #endif /* CYBLE_HPS_SERVER */
1932:.\Generated_Source\PSoC4/CYBLE_eventHandler.c ****         #ifdef CYBLE_IPS_SERVER
1933:.\Generated_Source\PSoC4/CYBLE_eventHandler.c ****             CyBle_IpssExecuteWriteRequestEventHandler((CYBLE_GATTS_EXEC_WRITE_REQ_T *)eventParam);
1934:.\Generated_Source\PSoC4/CYBLE_eventHandler.c ****         #endif /* CYBLE_IPS_SERVER */
1935:.\Generated_Source\PSoC4/CYBLE_eventHandler.c **** 		#ifdef CYBLE_UDS_SERVER
1936:.\Generated_Source\PSoC4/CYBLE_eventHandler.c ****             CyBle_UdssExecuteWriteRequestEventHandler((CYBLE_GATTS_EXEC_WRITE_REQ_T *)eventParam);
 1012              		.loc 1 1936 0
 1013 0294 3B68     		ldr	r3, [r7]
 1014 0296 181C     		mov	r0, r3
 1015 0298 FFF7FEFF 		bl	CyBle_UdssExecuteWriteRequestEventHandler
1937:.\Generated_Source\PSoC4/CYBLE_eventHandler.c ****         #endif /* CYBLE_UDS_SERVER */
1938:.\Generated_Source\PSoC4/CYBLE_eventHandler.c ****             break;
 1016              		.loc 1 1938 0
 1017 029c 0AE0     		b	.L51
 1018              	.L46:
1939:.\Generated_Source\PSoC4/CYBLE_eventHandler.c ****         
1940:.\Generated_Source\PSoC4/CYBLE_eventHandler.c ****         case CYBLE_EVT_GATTS_HANDLE_VALUE_CNF:
1941:.\Generated_Source\PSoC4/CYBLE_eventHandler.c ****             CyBle_ValueConfirmation((CYBLE_CONN_HANDLE_T *)eventParam);
 1019              		.loc 1 1941 0
 1020 029e 3B68     		ldr	r3, [r7]
 1021 02a0 181C     		mov	r0, r3
ARM GAS  C:\Users\mohammed\AppData\Local\Temp\ccG2gzoD.s 			page 53


 1022 02a2 FFF7FEFF 		bl	CyBle_ValueConfirmation
1942:.\Generated_Source\PSoC4/CYBLE_eventHandler.c ****             break;
 1023              		.loc 1 1942 0
 1024 02a6 05E0     		b	.L51
 1025              	.L47:
1943:.\Generated_Source\PSoC4/CYBLE_eventHandler.c ****             
1944:.\Generated_Source\PSoC4/CYBLE_eventHandler.c ****         case CYBLE_EVT_GATTS_READ_CHAR_VAL_ACCESS_REQ:
1945:.\Generated_Source\PSoC4/CYBLE_eventHandler.c ****         #ifdef CYBLE_UDS_SERVER
1946:.\Generated_Source\PSoC4/CYBLE_eventHandler.c ****             CyBle_UdssReadRequestEventHandler((CYBLE_GATTS_CHAR_VAL_READ_REQ_T *)eventParam);
 1026              		.loc 1 1946 0
 1027 02a8 3B68     		ldr	r3, [r7]
 1028 02aa 181C     		mov	r0, r3
 1029 02ac FFF7FEFF 		bl	CyBle_UdssReadRequestEventHandler
1947:.\Generated_Source\PSoC4/CYBLE_eventHandler.c ****         #endif /* CYBLE_UDS_SERVER */
1948:.\Generated_Source\PSoC4/CYBLE_eventHandler.c ****             break;
 1030              		.loc 1 1948 0
 1031 02b0 00E0     		b	.L51
 1032              	.L63:
1949:.\Generated_Source\PSoC4/CYBLE_eventHandler.c ****             
1950:.\Generated_Source\PSoC4/CYBLE_eventHandler.c ****     #endif /* CYBLE_GATT_ROLE_SERVER */
1951:.\Generated_Source\PSoC4/CYBLE_eventHandler.c **** 
1952:.\Generated_Source\PSoC4/CYBLE_eventHandler.c ****     #if (CYBLE_GATT_ROLE_CLIENT)
1953:.\Generated_Source\PSoC4/CYBLE_eventHandler.c ****         
1954:.\Generated_Source\PSoC4/CYBLE_eventHandler.c ****         case CYBLE_EVT_GATTC_READ_BY_GROUP_TYPE_RSP:
1955:.\Generated_Source\PSoC4/CYBLE_eventHandler.c ****             CyBle_ReadByGroupEventHandler((CYBLE_GATTC_READ_BY_GRP_RSP_PARAM_T *)eventParam);
1956:.\Generated_Source\PSoC4/CYBLE_eventHandler.c ****             break;
1957:.\Generated_Source\PSoC4/CYBLE_eventHandler.c **** 
1958:.\Generated_Source\PSoC4/CYBLE_eventHandler.c ****         case CYBLE_EVT_GATTC_READ_BY_TYPE_RSP:
1959:.\Generated_Source\PSoC4/CYBLE_eventHandler.c ****             CyBle_ReadByTypeEventHandler((CYBLE_GATTC_READ_BY_TYPE_RSP_PARAM_T *)eventParam);
1960:.\Generated_Source\PSoC4/CYBLE_eventHandler.c ****             break;
1961:.\Generated_Source\PSoC4/CYBLE_eventHandler.c **** 
1962:.\Generated_Source\PSoC4/CYBLE_eventHandler.c ****         case CYBLE_EVT_GATTC_READ_BLOB_RSP:
1963:.\Generated_Source\PSoC4/CYBLE_eventHandler.c ****         #ifdef CYBLE_ESS_CLIENT
1964:.\Generated_Source\PSoC4/CYBLE_eventHandler.c ****             CyBle_EsscReadLongRespEventHandler((CYBLE_GATTC_READ_RSP_PARAM_T *)eventParam);
1965:.\Generated_Source\PSoC4/CYBLE_eventHandler.c ****         #endif /* CYBLE_ESS_CLIENT */
1966:.\Generated_Source\PSoC4/CYBLE_eventHandler.c ****         #ifdef CYBLE_HPS_CLIENT
1967:.\Generated_Source\PSoC4/CYBLE_eventHandler.c ****             CyBle_HpscReadLongRespEventHandler((CYBLE_GATTC_READ_RSP_PARAM_T *)eventParam);
1968:.\Generated_Source\PSoC4/CYBLE_eventHandler.c ****         #endif /* CYBLE_HPS_CLIENT */
1969:.\Generated_Source\PSoC4/CYBLE_eventHandler.c **** 		#ifdef CYBLE_IPS_CLIENT
1970:.\Generated_Source\PSoC4/CYBLE_eventHandler.c ****             CyBle_IpscReadLongRespEventHandler((CYBLE_GATTC_READ_RSP_PARAM_T *)eventParam);
1971:.\Generated_Source\PSoC4/CYBLE_eventHandler.c ****         #endif /* CYBLE_IPS_CLIENT */
1972:.\Generated_Source\PSoC4/CYBLE_eventHandler.c ****         #ifdef CYBLE_UDS_CLIENT
1973:.\Generated_Source\PSoC4/CYBLE_eventHandler.c ****             if((cyBle_eventHandlerFlag & CYBLE_CALLBACK) != 0u)
1974:.\Generated_Source\PSoC4/CYBLE_eventHandler.c ****             {
1975:.\Generated_Source\PSoC4/CYBLE_eventHandler.c ****                 CyBle_UdscReadLongRespEventHandler((CYBLE_GATTC_READ_RSP_PARAM_T *)eventParam);
1976:.\Generated_Source\PSoC4/CYBLE_eventHandler.c ****             }
1977:.\Generated_Source\PSoC4/CYBLE_eventHandler.c ****         #endif /* CYBLE_UDS_CLIENT */
1978:.\Generated_Source\PSoC4/CYBLE_eventHandler.c ****             break;
1979:.\Generated_Source\PSoC4/CYBLE_eventHandler.c ****         
1980:.\Generated_Source\PSoC4/CYBLE_eventHandler.c ****         case CYBLE_EVT_GATTC_LONG_PROCEDURE_END:
1981:.\Generated_Source\PSoC4/CYBLE_eventHandler.c ****             CyBle_LongProcedureEndEventHandler();
1982:.\Generated_Source\PSoC4/CYBLE_eventHandler.c ****             break;
1983:.\Generated_Source\PSoC4/CYBLE_eventHandler.c ****         
1984:.\Generated_Source\PSoC4/CYBLE_eventHandler.c ****         case CYBLE_EVT_GATTC_FIND_INFO_RSP:
1985:.\Generated_Source\PSoC4/CYBLE_eventHandler.c ****             CyBle_FindInfoEventHandler((CYBLE_GATTC_FIND_INFO_RSP_PARAM_T *)eventParam);
1986:.\Generated_Source\PSoC4/CYBLE_eventHandler.c ****             break;
1987:.\Generated_Source\PSoC4/CYBLE_eventHandler.c **** 
ARM GAS  C:\Users\mohammed\AppData\Local\Temp\ccG2gzoD.s 			page 54


1988:.\Generated_Source\PSoC4/CYBLE_eventHandler.c ****         case CYBLE_EVT_GATTC_ERROR_RSP:
1989:.\Generated_Source\PSoC4/CYBLE_eventHandler.c ****             CyBle_ErrorResponseEventHandler((CYBLE_GATTC_ERR_RSP_PARAM_T *)eventParam);
1990:.\Generated_Source\PSoC4/CYBLE_eventHandler.c ****             break;
1991:.\Generated_Source\PSoC4/CYBLE_eventHandler.c **** 
1992:.\Generated_Source\PSoC4/CYBLE_eventHandler.c ****         case CYBLE_EVT_GATTC_HANDLE_VALUE_NTF:
1993:.\Generated_Source\PSoC4/CYBLE_eventHandler.c ****             CyBle_NotificationEventHandler((CYBLE_GATTC_HANDLE_VALUE_NTF_PARAM_T *)eventParam);
1994:.\Generated_Source\PSoC4/CYBLE_eventHandler.c ****             break;
1995:.\Generated_Source\PSoC4/CYBLE_eventHandler.c **** 
1996:.\Generated_Source\PSoC4/CYBLE_eventHandler.c ****         case CYBLE_EVT_GATTC_HANDLE_VALUE_IND:
1997:.\Generated_Source\PSoC4/CYBLE_eventHandler.c ****             CyBle_GattcIndicationEventHandler((CYBLE_GATTC_HANDLE_VALUE_IND_PARAM_T *)eventParam);
1998:.\Generated_Source\PSoC4/CYBLE_eventHandler.c ****             CyBle_IndicationEventHandler((CYBLE_GATTC_HANDLE_VALUE_IND_PARAM_T *)eventParam);
1999:.\Generated_Source\PSoC4/CYBLE_eventHandler.c ****         
2000:.\Generated_Source\PSoC4/CYBLE_eventHandler.c ****             /* Respond with a Handle Value Confirmation when request handled */
2001:.\Generated_Source\PSoC4/CYBLE_eventHandler.c ****             if((cyBle_eventHandlerFlag & CYBLE_CALLBACK) == 0u)
2002:.\Generated_Source\PSoC4/CYBLE_eventHandler.c ****             {
2003:.\Generated_Source\PSoC4/CYBLE_eventHandler.c ****                 (void)CyBle_GattcConfirmation(((CYBLE_GATTC_HANDLE_VALUE_IND_PARAM_T *)eventParam)-
2004:.\Generated_Source\PSoC4/CYBLE_eventHandler.c ****             }
2005:.\Generated_Source\PSoC4/CYBLE_eventHandler.c ****             break;
2006:.\Generated_Source\PSoC4/CYBLE_eventHandler.c ****         
2007:.\Generated_Source\PSoC4/CYBLE_eventHandler.c ****         case CYBLE_EVT_GATTC_READ_RSP:
2008:.\Generated_Source\PSoC4/CYBLE_eventHandler.c ****             CyBle_ReadResponseEventHandler((CYBLE_GATTC_READ_RSP_PARAM_T *)eventParam);
2009:.\Generated_Source\PSoC4/CYBLE_eventHandler.c ****             break;
2010:.\Generated_Source\PSoC4/CYBLE_eventHandler.c ****         
2011:.\Generated_Source\PSoC4/CYBLE_eventHandler.c ****         case CYBLE_EVT_GATTC_READ_MULTI_RSP:
2012:.\Generated_Source\PSoC4/CYBLE_eventHandler.c ****             CyBle_ReadMultipleResponseEventHandler((CYBLE_GATTC_READ_RSP_PARAM_T *)eventParam);
2013:.\Generated_Source\PSoC4/CYBLE_eventHandler.c ****             break;
2014:.\Generated_Source\PSoC4/CYBLE_eventHandler.c ****             
2015:.\Generated_Source\PSoC4/CYBLE_eventHandler.c ****         case CYBLE_EVT_GATTC_WRITE_RSP:
2016:.\Generated_Source\PSoC4/CYBLE_eventHandler.c ****             CyBle_GattcWriteResponseEventHandler((CYBLE_CONN_HANDLE_T *)eventParam);
2017:.\Generated_Source\PSoC4/CYBLE_eventHandler.c ****             break;
2018:.\Generated_Source\PSoC4/CYBLE_eventHandler.c ****             
2019:.\Generated_Source\PSoC4/CYBLE_eventHandler.c ****         case CYBLE_EVT_GATTC_EXEC_WRITE_RSP:
2020:.\Generated_Source\PSoC4/CYBLE_eventHandler.c ****         #ifdef CYBLE_BMS_CLIENT
2021:.\Generated_Source\PSoC4/CYBLE_eventHandler.c ****             CyBle_BmscExecuteWriteResponseEventHandler((CYBLE_GATTC_EXEC_WRITE_RSP_T *)eventParam);
2022:.\Generated_Source\PSoC4/CYBLE_eventHandler.c ****         #endif /* CYBLE_BMS_CLIENT */
2023:.\Generated_Source\PSoC4/CYBLE_eventHandler.c ****         #ifdef CYBLE_ESS_CLIENT
2024:.\Generated_Source\PSoC4/CYBLE_eventHandler.c ****             if((cyBle_eventHandlerFlag & CYBLE_CALLBACK) != 0u)
2025:.\Generated_Source\PSoC4/CYBLE_eventHandler.c ****             {
2026:.\Generated_Source\PSoC4/CYBLE_eventHandler.c ****                 CyBle_EsscExecuteWriteResponseEventHandler((CYBLE_GATTC_EXEC_WRITE_RSP_T *)eventPar
2027:.\Generated_Source\PSoC4/CYBLE_eventHandler.c ****             }
2028:.\Generated_Source\PSoC4/CYBLE_eventHandler.c ****         #endif /* CYBLE_ESS_CLIENT */
2029:.\Generated_Source\PSoC4/CYBLE_eventHandler.c ****         #ifdef CYBLE_HPS_CLIENT
2030:.\Generated_Source\PSoC4/CYBLE_eventHandler.c ****             if((cyBle_eventHandlerFlag & CYBLE_CALLBACK) != 0u)
2031:.\Generated_Source\PSoC4/CYBLE_eventHandler.c ****             {
2032:.\Generated_Source\PSoC4/CYBLE_eventHandler.c ****                 CyBle_HpscExecuteWriteResponseEventHandler((CYBLE_GATTC_EXEC_WRITE_RSP_T *)eventPar
2033:.\Generated_Source\PSoC4/CYBLE_eventHandler.c ****             }
2034:.\Generated_Source\PSoC4/CYBLE_eventHandler.c ****         #endif /* CYBLE_HPS_CLIENT */
2035:.\Generated_Source\PSoC4/CYBLE_eventHandler.c ****         #ifdef CYBLE_IPS_CLIENT
2036:.\Generated_Source\PSoC4/CYBLE_eventHandler.c ****             if((cyBle_eventHandlerFlag & CYBLE_CALLBACK) != 0u)
2037:.\Generated_Source\PSoC4/CYBLE_eventHandler.c ****             {
2038:.\Generated_Source\PSoC4/CYBLE_eventHandler.c ****                 CyBle_IpscExecuteWriteResponseEventHandler((CYBLE_GATTC_EXEC_WRITE_RSP_T *)eventPar
2039:.\Generated_Source\PSoC4/CYBLE_eventHandler.c ****             }
2040:.\Generated_Source\PSoC4/CYBLE_eventHandler.c ****         #endif /* CYBLE_IPS_CLIENT */
2041:.\Generated_Source\PSoC4/CYBLE_eventHandler.c ****         #ifdef CYBLE_UDS_CLIENT
2042:.\Generated_Source\PSoC4/CYBLE_eventHandler.c ****             if((cyBle_eventHandlerFlag & CYBLE_CALLBACK) != 0u)
2043:.\Generated_Source\PSoC4/CYBLE_eventHandler.c ****             {
2044:.\Generated_Source\PSoC4/CYBLE_eventHandler.c ****                 CyBle_UdscExecuteWriteResponseEventHandler((CYBLE_GATTC_EXEC_WRITE_RSP_T *)eventPar
ARM GAS  C:\Users\mohammed\AppData\Local\Temp\ccG2gzoD.s 			page 55


2045:.\Generated_Source\PSoC4/CYBLE_eventHandler.c ****             }
2046:.\Generated_Source\PSoC4/CYBLE_eventHandler.c ****         #endif /* CYBLE_UDS_CLIENT */
2047:.\Generated_Source\PSoC4/CYBLE_eventHandler.c ****             break;
2048:.\Generated_Source\PSoC4/CYBLE_eventHandler.c ****             
2049:.\Generated_Source\PSoC4/CYBLE_eventHandler.c ****     #endif /* CYBLE_GATT_ROLE_CLIENT */
2050:.\Generated_Source\PSoC4/CYBLE_eventHandler.c **** 
2051:.\Generated_Source\PSoC4/CYBLE_eventHandler.c ****     #if((CYBLE_GAP_ROLE_PERIPHERAL || CYBLE_GAP_ROLE_CENTRAL) && (CYBLE_BONDING_REQUIREMENT == CYBL
2052:.\Generated_Source\PSoC4/CYBLE_eventHandler.c **** 
2053:.\Generated_Source\PSoC4/CYBLE_eventHandler.c ****         case CYBLE_EVT_PENDING_FLASH_WRITE:
2054:.\Generated_Source\PSoC4/CYBLE_eventHandler.c ****             cyBle_pendingFlashWrite |= CYBLE_PENDING_STACK_FLASH_WRITE_BIT;
2055:.\Generated_Source\PSoC4/CYBLE_eventHandler.c ****             break;
2056:.\Generated_Source\PSoC4/CYBLE_eventHandler.c ****         
2057:.\Generated_Source\PSoC4/CYBLE_eventHandler.c ****     #endif  /* (CYBLE_BONDING_REQUIREMENT == CYBLE_BONDING_YES) */
2058:.\Generated_Source\PSoC4/CYBLE_eventHandler.c ****     
2059:.\Generated_Source\PSoC4/CYBLE_eventHandler.c ****         default:
2060:.\Generated_Source\PSoC4/CYBLE_eventHandler.c ****             break;
 1033              		.loc 1 2060 0
 1034 02b2 C046     		mov	r8, r8
 1035              	.L51:
2061:.\Generated_Source\PSoC4/CYBLE_eventHandler.c ****     }
2062:.\Generated_Source\PSoC4/CYBLE_eventHandler.c **** 
2063:.\Generated_Source\PSoC4/CYBLE_eventHandler.c ****     if(0u != (cyBle_eventHandlerFlag & (CYBLE_CALLBACK | CYBLE_ENABLE_ALL_EVENTS))) 
 1036              		.loc 1 2063 0
 1037 02b4 0C4B     		ldr	r3, .L64
 1038 02b6 1B78     		ldrb	r3, [r3]
 1039 02b8 DBB2     		uxtb	r3, r3
 1040 02ba 1A1C     		mov	r2, r3
 1041 02bc 1123     		mov	r3, #17
 1042 02be 1340     		and	r3, r2
 1043 02c0 0FD0     		beq	.L26
2064:.\Generated_Source\PSoC4/CYBLE_eventHandler.c ****     {
2065:.\Generated_Source\PSoC4/CYBLE_eventHandler.c ****         cyBle_eventHandlerFlag &= (uint8)~CYBLE_CALLBACK;
 1044              		.loc 1 2065 0
 1045 02c2 094B     		ldr	r3, .L64
 1046 02c4 1B78     		ldrb	r3, [r3]
 1047 02c6 DBB2     		uxtb	r3, r3
 1048 02c8 0122     		mov	r2, #1
 1049 02ca 9343     		bic	r3, r2
 1050 02cc DAB2     		uxtb	r2, r3
 1051 02ce 064B     		ldr	r3, .L64
 1052 02d0 1A70     		strb	r2, [r3]
2066:.\Generated_Source\PSoC4/CYBLE_eventHandler.c ****         CyBle_ApplCallback((uint32)eventCode, eventParam);
 1053              		.loc 1 2066 0
 1054 02d2 0F4B     		ldr	r3, .L64+40
 1055 02d4 1B68     		ldr	r3, [r3]
 1056 02d6 FA1D     		add	r2, r7, #7
 1057 02d8 1178     		ldrb	r1, [r2]
 1058 02da 3A68     		ldr	r2, [r7]
 1059 02dc 081C     		mov	r0, r1
 1060 02de 111C     		mov	r1, r2
 1061 02e0 9847     		blx	r3
 1062              	.L26:
2067:.\Generated_Source\PSoC4/CYBLE_eventHandler.c ****     }
2068:.\Generated_Source\PSoC4/CYBLE_eventHandler.c **** }
 1063              		.loc 1 2068 0
 1064 02e2 BD46     		mov	sp, r7
 1065 02e4 06B0     		add	sp, sp, #24
ARM GAS  C:\Users\mohammed\AppData\Local\Temp\ccG2gzoD.s 			page 56


 1066              		@ sp needed
 1067 02e6 80BD     		pop	{r7, pc}
 1068              	.L65:
 1069              		.align	2
 1070              	.L64:
 1071 02e8 00000000 		.word	cyBle_eventHandlerFlag
 1072 02ec 00000000 		.word	.L29
 1073 02f0 00000000 		.word	cyBle_sflashDeviceAddress
 1074 02f4 00000000 		.word	cyBle_deviceAddress
 1075 02f8 00000000 		.word	cyBle_state
 1076 02fc 00000000 		.word	cyBle_busyStatus
 1077 0300 00000000 		.word	gPrepWriteReqMem.6487
 1078 0304 E00A0000 		.word	cyBle_stackMemoryRam+2784
 1079 0308 00000000 		.word	cyBle_authInfo
 1080 030c 00000000 		.word	cyBle_connHandle
 1081 0310 00000000 		.word	CyBle_ApplCallback
 1082              		.cfi_endproc
 1083              	.LFE10:
 1084              		.size	CyBle_EventHandler, .-CyBle_EventHandler
 1085              		.bss
 1086              		.align	2
 1087              	gPrepWriteReqMem.6487:
 1088 0000 00000000 		.space	8
 1088      00000000 
 1089              		.text
 1090              	.Letext0:
 1091              		.file 2 ".\\Generated_Source\\PSoC4\\cytypes.h"
 1092              		.file 3 ".\\Generated_Source\\PSoC4\\CYBLE_Stack.h"
 1093              		.file 4 ".\\Generated_Source\\PSoC4\\CYBLE_StackHostMain.h"
 1094              		.file 5 ".\\Generated_Source\\PSoC4\\CYBLE_StackGap.h"
 1095              		.file 6 ".\\Generated_Source\\PSoC4\\CYBLE_StackGatt.h"
 1096              		.file 7 ".\\Generated_Source\\PSoC4\\CYBLE_StackGattServer.h"
 1097              		.file 8 ".\\Generated_Source\\PSoC4\\CYBLE.h"
 1098              		.file 9 ".\\Generated_Source\\PSoC4\\CYBLE_uds.h"
 1099              		.file 10 ".\\Generated_Source\\PSoC4\\CYBLE_eventHandler.h"
 1100              		.section	.debug_info,"",%progbits
 1101              	.Ldebug_info0:
 1102 0000 CE0D0000 		.4byte	0xdce
 1103 0004 0400     		.2byte	0x4
 1104 0006 00000000 		.4byte	.Ldebug_abbrev0
 1105 000a 04       		.byte	0x4
 1106 000b 01       		.uleb128 0x1
 1107 000c 62180000 		.4byte	.LASF322
 1108 0010 01       		.byte	0x1
 1109 0011 23190000 		.4byte	.LASF323
 1110 0015 77060000 		.4byte	.LASF324
 1111 0019 00000000 		.4byte	.Ldebug_ranges0+0
 1112 001d 00000000 		.4byte	0
 1113 0021 00000000 		.4byte	.Ldebug_line0
 1114 0025 02       		.uleb128 0x2
 1115 0026 01       		.byte	0x1
 1116 0027 06       		.byte	0x6
 1117 0028 C1060000 		.4byte	.LASF0
 1118 002c 02       		.uleb128 0x2
 1119 002d 01       		.byte	0x1
 1120 002e 08       		.byte	0x8
 1121 002f 04080000 		.4byte	.LASF1
ARM GAS  C:\Users\mohammed\AppData\Local\Temp\ccG2gzoD.s 			page 57


 1122 0033 02       		.uleb128 0x2
 1123 0034 02       		.byte	0x2
 1124 0035 05       		.byte	0x5
 1125 0036 3D1B0000 		.4byte	.LASF2
 1126 003a 02       		.uleb128 0x2
 1127 003b 02       		.byte	0x2
 1128 003c 07       		.byte	0x7
 1129 003d 451F0000 		.4byte	.LASF3
 1130 0041 02       		.uleb128 0x2
 1131 0042 04       		.byte	0x4
 1132 0043 05       		.byte	0x5
 1133 0044 FA040000 		.4byte	.LASF4
 1134 0048 02       		.uleb128 0x2
 1135 0049 04       		.byte	0x4
 1136 004a 07       		.byte	0x7
 1137 004b 3F0E0000 		.4byte	.LASF5
 1138 004f 02       		.uleb128 0x2
 1139 0050 08       		.byte	0x8
 1140 0051 05       		.byte	0x5
 1141 0052 30110000 		.4byte	.LASF6
 1142 0056 02       		.uleb128 0x2
 1143 0057 08       		.byte	0x8
 1144 0058 07       		.byte	0x7
 1145 0059 03170000 		.4byte	.LASF7
 1146 005d 03       		.uleb128 0x3
 1147 005e 04       		.byte	0x4
 1148 005f 05       		.byte	0x5
 1149 0060 696E7400 		.ascii	"int\000"
 1150 0064 02       		.uleb128 0x2
 1151 0065 04       		.byte	0x4
 1152 0066 07       		.byte	0x7
 1153 0067 08130000 		.4byte	.LASF8
 1154 006b 04       		.uleb128 0x4
 1155 006c C41A0000 		.4byte	.LASF9
 1156 0070 02       		.byte	0x2
 1157 0071 3801     		.2byte	0x138
 1158 0073 2C000000 		.4byte	0x2c
 1159 0077 04       		.uleb128 0x4
 1160 0078 C9200000 		.4byte	.LASF10
 1161 007c 02       		.byte	0x2
 1162 007d 3901     		.2byte	0x139
 1163 007f 3A000000 		.4byte	0x3a
 1164 0083 04       		.uleb128 0x4
 1165 0084 3C010000 		.4byte	.LASF11
 1166 0088 02       		.byte	0x2
 1167 0089 3A01     		.2byte	0x13a
 1168 008b 48000000 		.4byte	0x48
 1169 008f 02       		.uleb128 0x2
 1170 0090 04       		.byte	0x4
 1171 0091 04       		.byte	0x4
 1172 0092 4B120000 		.4byte	.LASF12
 1173 0096 02       		.uleb128 0x2
 1174 0097 08       		.byte	0x8
 1175 0098 04       		.byte	0x4
 1176 0099 7F110000 		.4byte	.LASF13
 1177 009d 02       		.uleb128 0x2
 1178 009e 01       		.byte	0x1
ARM GAS  C:\Users\mohammed\AppData\Local\Temp\ccG2gzoD.s 			page 58


 1179 009f 08       		.byte	0x8
 1180 00a0 70090000 		.4byte	.LASF14
 1181 00a4 05       		.uleb128 0x5
 1182 00a5 6B000000 		.4byte	0x6b
 1183 00a9 02       		.uleb128 0x2
 1184 00aa 04       		.byte	0x4
 1185 00ab 07       		.byte	0x7
 1186 00ac 29000000 		.4byte	.LASF15
 1187 00b0 06       		.uleb128 0x6
 1188 00b1 04       		.byte	0x4
 1189 00b2 07       		.uleb128 0x7
 1190 00b3 01       		.byte	0x1
 1191 00b4 03       		.byte	0x3
 1192 00b5 4201     		.2byte	0x142
 1193 00b7 6F020000 		.4byte	0x26f
 1194 00bb 08       		.uleb128 0x8
 1195 00bc F8090000 		.4byte	.LASF16
 1196 00c0 00       		.sleb128 0
 1197 00c1 08       		.uleb128 0x8
 1198 00c2 5B050000 		.4byte	.LASF17
 1199 00c6 01       		.sleb128 1
 1200 00c7 08       		.uleb128 0x8
 1201 00c8 38170000 		.4byte	.LASF18
 1202 00cc 02       		.sleb128 2
 1203 00cd 08       		.uleb128 0x8
 1204 00ce 02070000 		.4byte	.LASF19
 1205 00d2 03       		.sleb128 3
 1206 00d3 08       		.uleb128 0x8
 1207 00d4 DE1F0000 		.4byte	.LASF20
 1208 00d8 04       		.sleb128 4
 1209 00d9 08       		.uleb128 0x8
 1210 00da E51D0000 		.4byte	.LASF21
 1211 00de 05       		.sleb128 5
 1212 00df 08       		.uleb128 0x8
 1213 00e0 FA150000 		.4byte	.LASF22
 1214 00e4 06       		.sleb128 6
 1215 00e5 08       		.uleb128 0x8
 1216 00e6 3F1C0000 		.4byte	.LASF23
 1217 00ea 20       		.sleb128 32
 1218 00eb 08       		.uleb128 0x8
 1219 00ec 3B030000 		.4byte	.LASF24
 1220 00f0 21       		.sleb128 33
 1221 00f1 08       		.uleb128 0x8
 1222 00f2 45100000 		.4byte	.LASF25
 1223 00f6 22       		.sleb128 34
 1224 00f7 08       		.uleb128 0x8
 1225 00f8 ED140000 		.4byte	.LASF26
 1226 00fc 23       		.sleb128 35
 1227 00fd 08       		.uleb128 0x8
 1228 00fe 700D0000 		.4byte	.LASF27
 1229 0102 24       		.sleb128 36
 1230 0103 08       		.uleb128 0x8
 1231 0104 8C0D0000 		.4byte	.LASF28
 1232 0108 25       		.sleb128 37
 1233 0109 08       		.uleb128 0x8
 1234 010a 801A0000 		.4byte	.LASF29
 1235 010e 26       		.sleb128 38
ARM GAS  C:\Users\mohammed\AppData\Local\Temp\ccG2gzoD.s 			page 59


 1236 010f 08       		.uleb128 0x8
 1237 0110 CC000000 		.4byte	.LASF30
 1238 0114 27       		.sleb128 39
 1239 0115 08       		.uleb128 0x8
 1240 0116 78200000 		.4byte	.LASF31
 1241 011a 28       		.sleb128 40
 1242 011b 08       		.uleb128 0x8
 1243 011c 2D160000 		.4byte	.LASF32
 1244 0120 29       		.sleb128 41
 1245 0121 08       		.uleb128 0x8
 1246 0122 9C0F0000 		.4byte	.LASF33
 1247 0126 2A       		.sleb128 42
 1248 0127 08       		.uleb128 0x8
 1249 0128 7A140000 		.4byte	.LASF34
 1250 012c 2B       		.sleb128 43
 1251 012d 08       		.uleb128 0x8
 1252 012e 5A1E0000 		.4byte	.LASF35
 1253 0132 2C       		.sleb128 44
 1254 0133 08       		.uleb128 0x8
 1255 0134 57000000 		.4byte	.LASF36
 1256 0138 2D       		.sleb128 45
 1257 0139 08       		.uleb128 0x8
 1258 013a D91A0000 		.4byte	.LASF37
 1259 013e 2E       		.sleb128 46
 1260 013f 08       		.uleb128 0x8
 1261 0140 E5030000 		.4byte	.LASF38
 1262 0144 2F       		.sleb128 47
 1263 0145 08       		.uleb128 0x8
 1264 0146 4F090000 		.4byte	.LASF39
 1265 014a 30       		.sleb128 48
 1266 014b 08       		.uleb128 0x8
 1267 014c 0F120000 		.4byte	.LASF40
 1268 0150 31       		.sleb128 49
 1269 0151 08       		.uleb128 0x8
 1270 0152 480A0000 		.4byte	.LASF41
 1271 0156 32       		.sleb128 50
 1272 0157 08       		.uleb128 0x8
 1273 0158 68080000 		.4byte	.LASF42
 1274 015c 33       		.sleb128 51
 1275 015d 08       		.uleb128 0x8
 1276 015e B91B0000 		.4byte	.LASF43
 1277 0162 C000     		.sleb128 64
 1278 0164 08       		.uleb128 0x8
 1279 0165 0C010000 		.4byte	.LASF44
 1280 0169 C100     		.sleb128 65
 1281 016b 08       		.uleb128 0x8
 1282 016c F31F0000 		.4byte	.LASF45
 1283 0170 C200     		.sleb128 66
 1284 0172 08       		.uleb128 0x8
 1285 0173 56160000 		.4byte	.LASF46
 1286 0177 C300     		.sleb128 67
 1287 0179 08       		.uleb128 0x8
 1288 017a 12080000 		.4byte	.LASF47
 1289 017e C400     		.sleb128 68
 1290 0180 08       		.uleb128 0x8
 1291 0181 74070000 		.4byte	.LASF48
 1292 0185 C500     		.sleb128 69
ARM GAS  C:\Users\mohammed\AppData\Local\Temp\ccG2gzoD.s 			page 60


 1293 0187 08       		.uleb128 0x8
 1294 0188 D6190000 		.4byte	.LASF49
 1295 018c C600     		.sleb128 70
 1296 018e 08       		.uleb128 0x8
 1297 018f B8190000 		.4byte	.LASF50
 1298 0193 C700     		.sleb128 71
 1299 0195 08       		.uleb128 0x8
 1300 0196 28090000 		.4byte	.LASF51
 1301 019a C800     		.sleb128 72
 1302 019c 08       		.uleb128 0x8
 1303 019d 30150000 		.4byte	.LASF52
 1304 01a1 C900     		.sleb128 73
 1305 01a3 08       		.uleb128 0x8
 1306 01a4 820A0000 		.4byte	.LASF53
 1307 01a8 CA00     		.sleb128 74
 1308 01aa 08       		.uleb128 0x8
 1309 01ab A5090000 		.4byte	.LASF54
 1310 01af CB00     		.sleb128 75
 1311 01b1 08       		.uleb128 0x8
 1312 01b2 D3140000 		.4byte	.LASF55
 1313 01b6 CC00     		.sleb128 76
 1314 01b8 08       		.uleb128 0x8
 1315 01b9 461A0000 		.4byte	.LASF56
 1316 01bd CD00     		.sleb128 77
 1317 01bf 08       		.uleb128 0x8
 1318 01c0 CE040000 		.4byte	.LASF57
 1319 01c4 CE00     		.sleb128 78
 1320 01c6 08       		.uleb128 0x8
 1321 01c7 15130000 		.4byte	.LASF58
 1322 01cb CF00     		.sleb128 79
 1323 01cd 08       		.uleb128 0x8
 1324 01ce 201C0000 		.4byte	.LASF59
 1325 01d2 D000     		.sleb128 80
 1326 01d4 08       		.uleb128 0x8
 1327 01d5 C50A0000 		.4byte	.LASF60
 1328 01d9 D100     		.sleb128 81
 1329 01db 08       		.uleb128 0x8
 1330 01dc 1A030000 		.4byte	.LASF61
 1331 01e0 D200     		.sleb128 82
 1332 01e2 08       		.uleb128 0x8
 1333 01e3 BA1D0000 		.4byte	.LASF62
 1334 01e7 D300     		.sleb128 83
 1335 01e9 08       		.uleb128 0x8
 1336 01ea 9A200000 		.4byte	.LASF63
 1337 01ee D400     		.sleb128 84
 1338 01f0 08       		.uleb128 0x8
 1339 01f1 FF010000 		.4byte	.LASF64
 1340 01f5 D500     		.sleb128 85
 1341 01f7 08       		.uleb128 0x8
 1342 01f8 550B0000 		.4byte	.LASF65
 1343 01fc D600     		.sleb128 86
 1344 01fe 08       		.uleb128 0x8
 1345 01ff 6F120000 		.4byte	.LASF66
 1346 0203 D700     		.sleb128 87
 1347 0205 08       		.uleb128 0x8
 1348 0206 55200000 		.4byte	.LASF67
 1349 020a D800     		.sleb128 88
ARM GAS  C:\Users\mohammed\AppData\Local\Temp\ccG2gzoD.s 			page 61


 1350 020c 08       		.uleb128 0x8
 1351 020d C81E0000 		.4byte	.LASF68
 1352 0211 F000     		.sleb128 112
 1353 0213 08       		.uleb128 0x8
 1354 0214 D90C0000 		.4byte	.LASF69
 1355 0218 F100     		.sleb128 113
 1356 021a 08       		.uleb128 0x8
 1357 021b 42060000 		.4byte	.LASF70
 1358 021f F200     		.sleb128 114
 1359 0221 08       		.uleb128 0x8
 1360 0222 021C0000 		.4byte	.LASF71
 1361 0226 F300     		.sleb128 115
 1362 0228 08       		.uleb128 0x8
 1363 0229 83150000 		.4byte	.LASF72
 1364 022d F400     		.sleb128 116
 1365 022f 08       		.uleb128 0x8
 1366 0230 24100000 		.4byte	.LASF73
 1367 0234 F500     		.sleb128 117
 1368 0236 08       		.uleb128 0x8
 1369 0237 07090000 		.4byte	.LASF74
 1370 023b F600     		.sleb128 118
 1371 023d 08       		.uleb128 0x8
 1372 023e 91170000 		.4byte	.LASF75
 1373 0242 F700     		.sleb128 119
 1374 0244 08       		.uleb128 0x8
 1375 0245 23020000 		.4byte	.LASF76
 1376 0249 F800     		.sleb128 120
 1377 024b 08       		.uleb128 0x8
 1378 024c 8F080000 		.4byte	.LASF77
 1379 0250 F900     		.sleb128 121
 1380 0252 08       		.uleb128 0x8
 1381 0253 31200000 		.4byte	.LASF78
 1382 0257 FA00     		.sleb128 122
 1383 0259 08       		.uleb128 0x8
 1384 025a 86110000 		.4byte	.LASF79
 1385 025e FA01     		.sleb128 250
 1386 0260 08       		.uleb128 0x8
 1387 0261 711D0000 		.4byte	.LASF80
 1388 0265 FB01     		.sleb128 251
 1389 0267 08       		.uleb128 0x8
 1390 0268 6C140000 		.4byte	.LASF81
 1391 026c FF01     		.sleb128 255
 1392 026e 00       		.byte	0
 1393 026f 07       		.uleb128 0x7
 1394 0270 01       		.byte	0x1
 1395 0271 03       		.byte	0x3
 1396 0272 9C03     		.2byte	0x39c
 1397 0274 AF020000 		.4byte	0x2af
 1398 0278 08       		.uleb128 0x8
 1399 0279 CD060000 		.4byte	.LASF82
 1400 027d 01       		.sleb128 1
 1401 027e 08       		.uleb128 0x8
 1402 027f 99040000 		.4byte	.LASF83
 1403 0283 02       		.sleb128 2
 1404 0284 08       		.uleb128 0x8
 1405 0285 DF150000 		.4byte	.LASF84
 1406 0289 03       		.sleb128 3
ARM GAS  C:\Users\mohammed\AppData\Local\Temp\ccG2gzoD.s 			page 62


 1407 028a 08       		.uleb128 0x8
 1408 028b A5030000 		.4byte	.LASF85
 1409 028f 04       		.sleb128 4
 1410 0290 08       		.uleb128 0x8
 1411 0291 75090000 		.4byte	.LASF86
 1412 0295 05       		.sleb128 5
 1413 0296 08       		.uleb128 0x8
 1414 0297 7A0E0000 		.4byte	.LASF87
 1415 029b 06       		.sleb128 6
 1416 029c 08       		.uleb128 0x8
 1417 029d 2C1D0000 		.4byte	.LASF88
 1418 02a1 07       		.sleb128 7
 1419 02a2 08       		.uleb128 0x8
 1420 02a3 280E0000 		.4byte	.LASF89
 1421 02a7 08       		.sleb128 8
 1422 02a8 08       		.uleb128 0x8
 1423 02a9 CD110000 		.4byte	.LASF90
 1424 02ad 09       		.sleb128 9
 1425 02ae 00       		.byte	0
 1426 02af 04       		.uleb128 0x4
 1427 02b0 9F100000 		.4byte	.LASF91
 1428 02b4 03       		.byte	0x3
 1429 02b5 B303     		.2byte	0x3b3
 1430 02b7 6F020000 		.4byte	0x26f
 1431 02bb 07       		.uleb128 0x7
 1432 02bc 01       		.byte	0x1
 1433 02bd 03       		.byte	0x3
 1434 02be B703     		.2byte	0x3b7
 1435 02c0 D7020000 		.4byte	0x2d7
 1436 02c4 08       		.uleb128 0x8
 1437 02c5 5C1D0000 		.4byte	.LASF92
 1438 02c9 00       		.sleb128 0
 1439 02ca 08       		.uleb128 0x8
 1440 02cb 8C130000 		.4byte	.LASF93
 1441 02cf 01       		.sleb128 1
 1442 02d0 08       		.uleb128 0x8
 1443 02d1 B31E0000 		.4byte	.LASF94
 1444 02d5 02       		.sleb128 2
 1445 02d6 00       		.byte	0
 1446 02d7 04       		.uleb128 0x4
 1447 02d8 2E070000 		.4byte	.LASF95
 1448 02dc 03       		.byte	0x3
 1449 02dd BE03     		.2byte	0x3be
 1450 02df BB020000 		.4byte	0x2bb
 1451 02e3 09       		.uleb128 0x9
 1452 02e4 02       		.byte	0x2
 1453 02e5 03       		.byte	0x3
 1454 02e6 C103     		.2byte	0x3c1
 1455 02e8 07030000 		.4byte	0x307
 1456 02ec 0A       		.uleb128 0xa
 1457 02ed 43010000 		.4byte	.LASF96
 1458 02f1 03       		.byte	0x3
 1459 02f2 C403     		.2byte	0x3c4
 1460 02f4 AF020000 		.4byte	0x2af
 1461 02f8 00       		.byte	0
 1462 02f9 0A       		.uleb128 0xa
 1463 02fa 05060000 		.4byte	.LASF97
ARM GAS  C:\Users\mohammed\AppData\Local\Temp\ccG2gzoD.s 			page 63


 1464 02fe 03       		.byte	0x3
 1465 02ff C603     		.2byte	0x3c6
 1466 0301 D7020000 		.4byte	0x2d7
 1467 0305 01       		.byte	0x1
 1468 0306 00       		.byte	0
 1469 0307 04       		.uleb128 0x4
 1470 0308 9B1E0000 		.4byte	.LASF98
 1471 030c 03       		.byte	0x3
 1472 030d C703     		.2byte	0x3c7
 1473 030f E3020000 		.4byte	0x2e3
 1474 0313 07       		.uleb128 0x7
 1475 0314 01       		.byte	0x1
 1476 0315 03       		.byte	0x3
 1477 0316 E803     		.2byte	0x3e8
 1478 0318 29030000 		.4byte	0x329
 1479 031c 08       		.uleb128 0x8
 1480 031d B9160000 		.4byte	.LASF99
 1481 0321 00       		.sleb128 0
 1482 0322 08       		.uleb128 0x8
 1483 0323 AA0E0000 		.4byte	.LASF100
 1484 0327 01       		.sleb128 1
 1485 0328 00       		.byte	0
 1486 0329 04       		.uleb128 0x4
 1487 032a EE1E0000 		.4byte	.LASF101
 1488 032e 03       		.byte	0x3
 1489 032f EF03     		.2byte	0x3ef
 1490 0331 13030000 		.4byte	0x313
 1491 0335 09       		.uleb128 0x9
 1492 0336 08       		.byte	0x8
 1493 0337 03       		.byte	0x3
 1494 0338 F203     		.2byte	0x3f2
 1495 033a 66030000 		.4byte	0x366
 1496 033e 0A       		.uleb128 0xa
 1497 033f B9000000 		.4byte	.LASF102
 1498 0343 03       		.byte	0x3
 1499 0344 F503     		.2byte	0x3f5
 1500 0346 29030000 		.4byte	0x329
 1501 034a 00       		.byte	0
 1502 034b 0A       		.uleb128 0xa
 1503 034c A60D0000 		.4byte	.LASF103
 1504 0350 03       		.byte	0x3
 1505 0351 FA03     		.2byte	0x3fa
 1506 0353 6B000000 		.4byte	0x6b
 1507 0357 01       		.byte	0x1
 1508 0358 0A       		.uleb128 0xa
 1509 0359 FA080000 		.4byte	.LASF104
 1510 035d 03       		.byte	0x3
 1511 035e 0204     		.2byte	0x402
 1512 0360 B0000000 		.4byte	0xb0
 1513 0364 04       		.byte	0x4
 1514 0365 00       		.byte	0
 1515 0366 04       		.uleb128 0x4
 1516 0367 5F110000 		.4byte	.LASF105
 1517 036b 03       		.byte	0x3
 1518 036c 0404     		.2byte	0x404
 1519 036e 35030000 		.4byte	0x335
 1520 0372 09       		.uleb128 0x9
ARM GAS  C:\Users\mohammed\AppData\Local\Temp\ccG2gzoD.s 			page 64


 1521 0373 07       		.byte	0x7
 1522 0374 03       		.byte	0x3
 1523 0375 2804     		.2byte	0x428
 1524 0377 96030000 		.4byte	0x396
 1525 037b 0A       		.uleb128 0xa
 1526 037c DF1C0000 		.4byte	.LASF106
 1527 0380 03       		.byte	0x3
 1528 0381 2B04     		.2byte	0x42b
 1529 0383 96030000 		.4byte	0x396
 1530 0387 00       		.byte	0
 1531 0388 0A       		.uleb128 0xa
 1532 0389 7D020000 		.4byte	.LASF107
 1533 038d 03       		.byte	0x3
 1534 038e 2D04     		.2byte	0x42d
 1535 0390 6B000000 		.4byte	0x6b
 1536 0394 06       		.byte	0x6
 1537 0395 00       		.byte	0
 1538 0396 0B       		.uleb128 0xb
 1539 0397 6B000000 		.4byte	0x6b
 1540 039b A6030000 		.4byte	0x3a6
 1541 039f 0C       		.uleb128 0xc
 1542 03a0 A9000000 		.4byte	0xa9
 1543 03a4 05       		.byte	0x5
 1544 03a5 00       		.byte	0
 1545 03a6 04       		.uleb128 0x4
 1546 03a7 35180000 		.4byte	.LASF108
 1547 03ab 03       		.byte	0x3
 1548 03ac 2E04     		.2byte	0x42e
 1549 03ae 72030000 		.4byte	0x372
 1550 03b2 0D       		.uleb128 0xd
 1551 03b3 01       		.byte	0x1
 1552 03b4 04       		.byte	0x4
 1553 03b5 2C       		.byte	0x2c
 1554 03b6 D3030000 		.4byte	0x3d3
 1555 03ba 08       		.uleb128 0x8
 1556 03bb D0130000 		.4byte	.LASF109
 1557 03bf 01       		.sleb128 1
 1558 03c0 08       		.uleb128 0x8
 1559 03c1 F5170000 		.4byte	.LASF110
 1560 03c5 02       		.sleb128 2
 1561 03c6 08       		.uleb128 0x8
 1562 03c7 1F200000 		.4byte	.LASF111
 1563 03cb 03       		.sleb128 3
 1564 03cc 08       		.uleb128 0x8
 1565 03cd A7190000 		.4byte	.LASF112
 1566 03d1 04       		.sleb128 4
 1567 03d2 00       		.byte	0
 1568 03d3 0E       		.uleb128 0xe
 1569 03d4 82020000 		.4byte	.LASF113
 1570 03d8 04       		.byte	0x4
 1571 03d9 39       		.byte	0x39
 1572 03da B2030000 		.4byte	0x3b2
 1573 03de 0D       		.uleb128 0xd
 1574 03df 01       		.byte	0x1
 1575 03e0 05       		.byte	0x5
 1576 03e1 F8       		.byte	0xf8
 1577 03e2 05040000 		.4byte	0x405
ARM GAS  C:\Users\mohammed\AppData\Local\Temp\ccG2gzoD.s 			page 65


 1578 03e6 08       		.uleb128 0x8
 1579 03e7 03050000 		.4byte	.LASF114
 1580 03eb 00       		.sleb128 0
 1581 03ec 08       		.uleb128 0x8
 1582 03ed 19050000 		.4byte	.LASF115
 1583 03f1 01       		.sleb128 1
 1584 03f2 08       		.uleb128 0x8
 1585 03f3 2F050000 		.4byte	.LASF116
 1586 03f7 02       		.sleb128 2
 1587 03f8 08       		.uleb128 0x8
 1588 03f9 45050000 		.4byte	.LASF117
 1589 03fd 03       		.sleb128 3
 1590 03fe 08       		.uleb128 0x8
 1591 03ff 3C0B0000 		.4byte	.LASF118
 1592 0403 0F       		.sleb128 15
 1593 0404 00       		.byte	0
 1594 0405 07       		.uleb128 0x7
 1595 0406 01       		.byte	0x1
 1596 0407 05       		.byte	0x5
 1597 0408 1701     		.2byte	0x117
 1598 040a 2D040000 		.4byte	0x42d
 1599 040e 08       		.uleb128 0x8
 1600 040f 88030000 		.4byte	.LASF119
 1601 0413 00       		.sleb128 0
 1602 0414 08       		.uleb128 0x8
 1603 0415 3C1E0000 		.4byte	.LASF120
 1604 0419 01       		.sleb128 1
 1605 041a 08       		.uleb128 0x8
 1606 041b DA090000 		.4byte	.LASF121
 1607 041f 02       		.sleb128 2
 1608 0420 08       		.uleb128 0x8
 1609 0421 EB000000 		.4byte	.LASF122
 1610 0425 03       		.sleb128 3
 1611 0426 08       		.uleb128 0x8
 1612 0427 D31B0000 		.4byte	.LASF123
 1613 042b 04       		.sleb128 4
 1614 042c 00       		.byte	0
 1615 042d 07       		.uleb128 0x7
 1616 042e 01       		.byte	0x1
 1617 042f 05       		.byte	0x5
 1618 0430 2D01     		.2byte	0x12d
 1619 0432 9D040000 		.4byte	0x49d
 1620 0436 08       		.uleb128 0x8
 1621 0437 13160000 		.4byte	.LASF124
 1622 043b 00       		.sleb128 0
 1623 043c 08       		.uleb128 0x8
 1624 043d 4B040000 		.4byte	.LASF125
 1625 0441 01       		.sleb128 1
 1626 0442 08       		.uleb128 0x8
 1627 0443 8D160000 		.4byte	.LASF126
 1628 0447 02       		.sleb128 2
 1629 0448 08       		.uleb128 0x8
 1630 0449 F90E0000 		.4byte	.LASF127
 1631 044d 03       		.sleb128 3
 1632 044e 08       		.uleb128 0x8
 1633 044f 9D050000 		.4byte	.LASF128
 1634 0453 04       		.sleb128 4
ARM GAS  C:\Users\mohammed\AppData\Local\Temp\ccG2gzoD.s 			page 66


 1635 0454 08       		.uleb128 0x8
 1636 0455 6E190000 		.4byte	.LASF129
 1637 0459 05       		.sleb128 5
 1638 045a 08       		.uleb128 0x8
 1639 045b FA100000 		.4byte	.LASF130
 1640 045f 06       		.sleb128 6
 1641 0460 08       		.uleb128 0x8
 1642 0461 CE0E0000 		.4byte	.LASF131
 1643 0465 07       		.sleb128 7
 1644 0466 08       		.uleb128 0x8
 1645 0467 C5020000 		.4byte	.LASF132
 1646 046b 08       		.sleb128 8
 1647 046c 08       		.uleb128 0x8
 1648 046d FD0F0000 		.4byte	.LASF133
 1649 0471 09       		.sleb128 9
 1650 0472 08       		.uleb128 0x8
 1651 0473 BC080000 		.4byte	.LASF134
 1652 0477 0A       		.sleb128 10
 1653 0478 08       		.uleb128 0x8
 1654 0479 77100000 		.4byte	.LASF135
 1655 047d 0B       		.sleb128 11
 1656 047e 08       		.uleb128 0x8
 1657 047f 0D1E0000 		.4byte	.LASF136
 1658 0483 0C       		.sleb128 12
 1659 0484 08       		.uleb128 0x8
 1660 0485 070C0000 		.4byte	.LASF137
 1661 0489 0D       		.sleb128 13
 1662 048a 08       		.uleb128 0x8
 1663 048b 9B070000 		.4byte	.LASF138
 1664 048f 0E       		.sleb128 14
 1665 0490 08       		.uleb128 0x8
 1666 0491 99020000 		.4byte	.LASF139
 1667 0495 15       		.sleb128 21
 1668 0496 08       		.uleb128 0x8
 1669 0497 FF0C0000 		.4byte	.LASF140
 1670 049b 18       		.sleb128 24
 1671 049c 00       		.byte	0
 1672 049d 04       		.uleb128 0x4
 1673 049e B4140000 		.4byte	.LASF141
 1674 04a2 05       		.byte	0x5
 1675 04a3 6C01     		.2byte	0x16c
 1676 04a5 2D040000 		.4byte	0x42d
 1677 04a9 09       		.uleb128 0x9
 1678 04aa 05       		.byte	0x5
 1679 04ab 05       		.byte	0x5
 1680 04ac B901     		.2byte	0x1b9
 1681 04ae F4040000 		.4byte	0x4f4
 1682 04b2 0A       		.uleb128 0xa
 1683 04b3 76110000 		.4byte	.LASF142
 1684 04b7 05       		.byte	0x5
 1685 04b8 C301     		.2byte	0x1c3
 1686 04ba 6B000000 		.4byte	0x6b
 1687 04be 00       		.byte	0
 1688 04bf 0A       		.uleb128 0xa
 1689 04c0 E2120000 		.4byte	.LASF143
 1690 04c4 05       		.byte	0x5
 1691 04c5 C901     		.2byte	0x1c9
ARM GAS  C:\Users\mohammed\AppData\Local\Temp\ccG2gzoD.s 			page 67


 1692 04c7 6B000000 		.4byte	0x6b
 1693 04cb 01       		.byte	0x1
 1694 04cc 0A       		.uleb128 0xa
 1695 04cd 32000000 		.4byte	.LASF144
 1696 04d1 05       		.byte	0x5
 1697 04d2 D001     		.2byte	0x1d0
 1698 04d4 6B000000 		.4byte	0x6b
 1699 04d8 02       		.byte	0x2
 1700 04d9 0A       		.uleb128 0xa
 1701 04da 551B0000 		.4byte	.LASF145
 1702 04de 05       		.byte	0x5
 1703 04df D401     		.2byte	0x1d4
 1704 04e1 9D040000 		.4byte	0x49d
 1705 04e5 03       		.byte	0x3
 1706 04e6 0A       		.uleb128 0xa
 1707 04e7 341A0000 		.4byte	.LASF146
 1708 04eb 05       		.byte	0x5
 1709 04ec DE01     		.2byte	0x1de
 1710 04ee 6B000000 		.4byte	0x6b
 1711 04f2 04       		.byte	0x4
 1712 04f3 00       		.byte	0
 1713 04f4 04       		.uleb128 0x4
 1714 04f5 C4090000 		.4byte	.LASF147
 1715 04f9 05       		.byte	0x5
 1716 04fa E001     		.2byte	0x1e0
 1717 04fc A9040000 		.4byte	0x4a9
 1718 0500 0F       		.uleb128 0xf
 1719 0501 04       		.byte	0x4
 1720 0502 6B000000 		.4byte	0x6b
 1721 0506 09       		.uleb128 0x9
 1722 0507 08       		.byte	0x8
 1723 0508 05       		.byte	0x5
 1724 0509 5A03     		.2byte	0x35a
 1725 050b 44050000 		.4byte	0x544
 1726 050f 0A       		.uleb128 0xa
 1727 0510 730E0000 		.4byte	.LASF148
 1728 0514 05       		.byte	0x5
 1729 0515 5E03     		.2byte	0x35e
 1730 0517 6B000000 		.4byte	0x6b
 1731 051b 00       		.byte	0
 1732 051c 0A       		.uleb128 0xa
 1733 051d 3C1F0000 		.4byte	.LASF149
 1734 0521 05       		.byte	0x5
 1735 0522 6403     		.2byte	0x364
 1736 0524 77000000 		.4byte	0x77
 1737 0528 02       		.byte	0x2
 1738 0529 0A       		.uleb128 0xa
 1739 052a 011E0000 		.4byte	.LASF150
 1740 052e 05       		.byte	0x5
 1741 052f 6903     		.2byte	0x369
 1742 0531 77000000 		.4byte	0x77
 1743 0535 04       		.byte	0x4
 1744 0536 0A       		.uleb128 0xa
 1745 0537 11200000 		.4byte	.LASF151
 1746 053b 05       		.byte	0x5
 1747 053c 6F03     		.2byte	0x36f
 1748 053e 77000000 		.4byte	0x77
ARM GAS  C:\Users\mohammed\AppData\Local\Temp\ccG2gzoD.s 			page 68


 1749 0542 06       		.byte	0x6
 1750 0543 00       		.byte	0
 1751 0544 04       		.uleb128 0x4
 1752 0545 D6160000 		.4byte	.LASF152
 1753 0549 05       		.byte	0x5
 1754 054a 7103     		.2byte	0x371
 1755 054c 06050000 		.4byte	0x506
 1756 0550 0D       		.uleb128 0xd
 1757 0551 01       		.byte	0x1
 1758 0552 06       		.byte	0x6
 1759 0553 4F       		.byte	0x4f
 1760 0554 0A060000 		.4byte	0x60a
 1761 0558 08       		.uleb128 0x8
 1762 0559 B80B0000 		.4byte	.LASF153
 1763 055d 01       		.sleb128 1
 1764 055e 08       		.uleb128 0x8
 1765 055f 690A0000 		.4byte	.LASF154
 1766 0563 02       		.sleb128 2
 1767 0564 08       		.uleb128 0x8
 1768 0565 B5040000 		.4byte	.LASF155
 1769 0569 03       		.sleb128 3
 1770 056a 08       		.uleb128 0x8
 1771 056b E9060000 		.4byte	.LASF156
 1772 056f 04       		.sleb128 4
 1773 0570 08       		.uleb128 0x8
 1774 0571 74160000 		.4byte	.LASF157
 1775 0575 05       		.sleb128 5
 1776 0576 08       		.uleb128 0x8
 1777 0577 BD150000 		.4byte	.LASF158
 1778 057b 06       		.sleb128 6
 1779 057c 08       		.uleb128 0x8
 1780 057d 66030000 		.4byte	.LASF159
 1781 0581 07       		.sleb128 7
 1782 0582 08       		.uleb128 0x8
 1783 0583 67150000 		.4byte	.LASF160
 1784 0587 08       		.sleb128 8
 1785 0588 08       		.uleb128 0x8
 1786 0589 ED020000 		.4byte	.LASF161
 1787 058d 09       		.sleb128 9
 1788 058e 08       		.uleb128 0x8
 1789 058f 510E0000 		.4byte	.LASF162
 1790 0593 0A       		.sleb128 10
 1791 0594 08       		.uleb128 0x8
 1792 0595 181D0000 		.4byte	.LASF163
 1793 0599 0B       		.sleb128 11
 1794 059a 08       		.uleb128 0x8
 1795 059b 49180000 		.4byte	.LASF164
 1796 059f 0C       		.sleb128 12
 1797 05a0 08       		.uleb128 0x8
 1798 05a1 5E060000 		.4byte	.LASF165
 1799 05a5 0D       		.sleb128 13
 1800 05a6 08       		.uleb128 0x8
 1801 05a7 13150000 		.4byte	.LASF166
 1802 05ab 0E       		.sleb128 14
 1803 05ac 08       		.uleb128 0x8
 1804 05ad 60020000 		.4byte	.LASF167
 1805 05b1 0F       		.sleb128 15
ARM GAS  C:\Users\mohammed\AppData\Local\Temp\ccG2gzoD.s 			page 69


 1806 05b2 08       		.uleb128 0x8
 1807 05b3 9F1F0000 		.4byte	.LASF168
 1808 05b7 10       		.sleb128 16
 1809 05b8 08       		.uleb128 0x8
 1810 05b9 BE0D0000 		.4byte	.LASF169
 1811 05bd 11       		.sleb128 17
 1812 05be 08       		.uleb128 0x8
 1813 05bf 281B0000 		.4byte	.LASF170
 1814 05c3 12       		.sleb128 18
 1815 05c4 08       		.uleb128 0x8
 1816 05c5 90090000 		.4byte	.LASF171
 1817 05c9 13       		.sleb128 19
 1818 05ca 08       		.uleb128 0x8
 1819 05cb 27010000 		.4byte	.LASF172
 1820 05cf D200     		.sleb128 82
 1821 05d1 08       		.uleb128 0x8
 1822 05d2 A9010000 		.4byte	.LASF173
 1823 05d6 16       		.sleb128 22
 1824 05d7 08       		.uleb128 0x8
 1825 05d8 FE130000 		.4byte	.LASF174
 1826 05dc 17       		.sleb128 23
 1827 05dd 08       		.uleb128 0x8
 1828 05de 7E1E0000 		.4byte	.LASF175
 1829 05e2 18       		.sleb128 24
 1830 05e3 08       		.uleb128 0x8
 1831 05e4 BC0C0000 		.4byte	.LASF176
 1832 05e8 19       		.sleb128 25
 1833 05e9 08       		.uleb128 0x8
 1834 05ea 290F0000 		.4byte	.LASF177
 1835 05ee 1B       		.sleb128 27
 1836 05ef 08       		.uleb128 0x8
 1837 05f0 30080000 		.4byte	.LASF178
 1838 05f4 1D       		.sleb128 29
 1839 05f5 08       		.uleb128 0x8
 1840 05f6 3B000000 		.4byte	.LASF179
 1841 05fa 1E       		.sleb128 30
 1842 05fb 08       		.uleb128 0x8
 1843 05fc 670C0000 		.4byte	.LASF180
 1844 0600 D201     		.sleb128 210
 1845 0602 08       		.uleb128 0x8
 1846 0603 4A170000 		.4byte	.LASF181
 1847 0607 FF01     		.sleb128 255
 1848 0609 00       		.byte	0
 1849 060a 0D       		.uleb128 0xd
 1850 060b 01       		.byte	0x1
 1851 060c 06       		.byte	0x6
 1852 060d AB       		.byte	0xab
 1853 060e 0B070000 		.4byte	0x70b
 1854 0612 08       		.uleb128 0x8
 1855 0613 B0170000 		.4byte	.LASF182
 1856 0617 00       		.sleb128 0
 1857 0618 08       		.uleb128 0x8
 1858 0619 1A170000 		.4byte	.LASF183
 1859 061d 01       		.sleb128 1
 1860 061e 08       		.uleb128 0x8
 1861 061f 62010000 		.4byte	.LASF184
 1862 0623 02       		.sleb128 2
ARM GAS  C:\Users\mohammed\AppData\Local\Temp\ccG2gzoD.s 			page 70


 1863 0624 08       		.uleb128 0x8
 1864 0625 191F0000 		.4byte	.LASF185
 1865 0629 03       		.sleb128 3
 1866 062a 08       		.uleb128 0x8
 1867 062b 82050000 		.4byte	.LASF186
 1868 062f 04       		.sleb128 4
 1869 0630 08       		.uleb128 0x8
 1870 0631 34130000 		.4byte	.LASF187
 1871 0635 05       		.sleb128 5
 1872 0636 08       		.uleb128 0x8
 1873 0637 941B0000 		.4byte	.LASF188
 1874 063b 06       		.sleb128 6
 1875 063c 08       		.uleb128 0x8
 1876 063d 49150000 		.4byte	.LASF189
 1877 0641 07       		.sleb128 7
 1878 0642 08       		.uleb128 0x8
 1879 0643 9F120000 		.4byte	.LASF190
 1880 0647 08       		.sleb128 8
 1881 0648 08       		.uleb128 0x8
 1882 0649 DB0D0000 		.4byte	.LASF191
 1883 064d 09       		.sleb128 9
 1884 064e 08       		.uleb128 0x8
 1885 064f 42140000 		.4byte	.LASF192
 1886 0653 0A       		.sleb128 10
 1887 0654 08       		.uleb128 0x8
 1888 0655 1A0B0000 		.4byte	.LASF193
 1889 0659 0B       		.sleb128 11
 1890 065a 08       		.uleb128 0x8
 1891 065b A4110000 		.4byte	.LASF194
 1892 065f 0C       		.sleb128 12
 1893 0660 08       		.uleb128 0x8
 1894 0661 1D060000 		.4byte	.LASF195
 1895 0665 0D       		.sleb128 13
 1896 0666 08       		.uleb128 0x8
 1897 0667 2A0A0000 		.4byte	.LASF196
 1898 066b 0E       		.sleb128 14
 1899 066c 08       		.uleb128 0x8
 1900 066d 581F0000 		.4byte	.LASF197
 1901 0671 0F       		.sleb128 15
 1902 0672 08       		.uleb128 0x8
 1903 0673 C6010000 		.4byte	.LASF198
 1904 0677 10       		.sleb128 16
 1905 0678 08       		.uleb128 0x8
 1906 0679 84010000 		.4byte	.LASF199
 1907 067d 11       		.sleb128 17
 1908 067e 08       		.uleb128 0x8
 1909 067f E40A0000 		.4byte	.LASF200
 1910 0683 8001     		.sleb128 128
 1911 0685 08       		.uleb128 0x8
 1912 0686 340D0000 		.4byte	.LASF201
 1913 068a 8001     		.sleb128 128
 1914 068c 08       		.uleb128 0x8
 1915 068d 5D1B0000 		.4byte	.LASF202
 1916 0691 8001     		.sleb128 128
 1917 0693 08       		.uleb128 0x8
 1918 0694 07180000 		.4byte	.LASF203
 1919 0698 8001     		.sleb128 128
ARM GAS  C:\Users\mohammed\AppData\Local\Temp\ccG2gzoD.s 			page 71


 1920 069a 08       		.uleb128 0x8
 1921 069b A2130000 		.4byte	.LASF204
 1922 069f 8001     		.sleb128 128
 1923 06a1 08       		.uleb128 0x8
 1924 06a2 030E0000 		.4byte	.LASF205
 1925 06a6 8001     		.sleb128 128
 1926 06a8 08       		.uleb128 0x8
 1927 06a9 0F0A0000 		.4byte	.LASF206
 1928 06ad 8001     		.sleb128 128
 1929 06af 08       		.uleb128 0x8
 1930 06b0 830C0000 		.4byte	.LASF207
 1931 06b4 8101     		.sleb128 129
 1932 06b6 08       		.uleb128 0x8
 1933 06b7 F7190000 		.4byte	.LASF208
 1934 06bb 8101     		.sleb128 129
 1935 06bd 08       		.uleb128 0x8
 1936 06be 00000000 		.4byte	.LASF209
 1937 06c2 8101     		.sleb128 129
 1938 06c4 08       		.uleb128 0x8
 1939 06c5 971C0000 		.4byte	.LASF210
 1940 06c9 8101     		.sleb128 129
 1941 06cb 08       		.uleb128 0x8
 1942 06cc 17040000 		.4byte	.LASF211
 1943 06d0 8201     		.sleb128 130
 1944 06d2 08       		.uleb128 0x8
 1945 06d3 E61C0000 		.4byte	.LASF212
 1946 06d7 A001     		.sleb128 160
 1947 06d9 08       		.uleb128 0x8
 1948 06da 530F0000 		.4byte	.LASF213
 1949 06de A001     		.sleb128 160
 1950 06e0 08       		.uleb128 0x8
 1951 06e1 75040000 		.4byte	.LASF214
 1952 06e5 A101     		.sleb128 161
 1953 06e7 08       		.uleb128 0x8
 1954 06e8 631C0000 		.4byte	.LASF215
 1955 06ec A201     		.sleb128 162
 1956 06ee 08       		.uleb128 0x8
 1957 06ef 770B0000 		.4byte	.LASF216
 1958 06f3 A301     		.sleb128 163
 1959 06f5 08       		.uleb128 0x8
 1960 06f6 4A070000 		.4byte	.LASF217
 1961 06fa FD01     		.sleb128 253
 1962 06fc 08       		.uleb128 0x8
 1963 06fd E2110000 		.4byte	.LASF218
 1964 0701 FE01     		.sleb128 254
 1965 0703 08       		.uleb128 0x8
 1966 0704 A1150000 		.4byte	.LASF219
 1967 0708 FF01     		.sleb128 255
 1968 070a 00       		.byte	0
 1969 070b 04       		.uleb128 0x4
 1970 070c DF170000 		.4byte	.LASF220
 1971 0710 06       		.byte	0x6
 1972 0711 6201     		.2byte	0x162
 1973 0713 0A060000 		.4byte	0x60a
 1974 0717 04       		.uleb128 0x4
 1975 0718 65170000 		.4byte	.LASF221
 1976 071c 06       		.byte	0x6
ARM GAS  C:\Users\mohammed\AppData\Local\Temp\ccG2gzoD.s 			page 72


 1977 071d 9201     		.2byte	0x192
 1978 071f 77000000 		.4byte	0x77
 1979 0723 09       		.uleb128 0x9
 1980 0724 02       		.byte	0x2
 1981 0725 06       		.byte	0x6
 1982 0726 9C01     		.2byte	0x19c
 1983 0728 47070000 		.4byte	0x747
 1984 072c 0A       		.uleb128 0xa
 1985 072d 0E040000 		.4byte	.LASF222
 1986 0731 06       		.byte	0x6
 1987 0732 A301     		.2byte	0x1a3
 1988 0734 6B000000 		.4byte	0x6b
 1989 0738 00       		.byte	0
 1990 0739 0A       		.uleb128 0xa
 1991 073a CA1F0000 		.4byte	.LASF223
 1992 073e 06       		.byte	0x6
 1993 073f A901     		.2byte	0x1a9
 1994 0741 6B000000 		.4byte	0x6b
 1995 0745 01       		.byte	0x1
 1996 0746 00       		.byte	0
 1997 0747 04       		.uleb128 0x4
 1998 0748 52030000 		.4byte	.LASF224
 1999 074c 06       		.byte	0x6
 2000 074d AB01     		.2byte	0x1ab
 2001 074f 23070000 		.4byte	0x723
 2002 0753 09       		.uleb128 0x9
 2003 0754 08       		.byte	0x8
 2004 0755 06       		.byte	0x6
 2005 0756 C701     		.2byte	0x1c7
 2006 0758 84070000 		.4byte	0x784
 2007 075c 10       		.uleb128 0x10
 2008 075d 76616C00 		.ascii	"val\000"
 2009 0761 06       		.byte	0x6
 2010 0762 CA01     		.2byte	0x1ca
 2011 0764 00050000 		.4byte	0x500
 2012 0768 00       		.byte	0
 2013 0769 10       		.uleb128 0x10
 2014 076a 6C656E00 		.ascii	"len\000"
 2015 076e 06       		.byte	0x6
 2016 076f CD01     		.2byte	0x1cd
 2017 0771 77000000 		.4byte	0x77
 2018 0775 04       		.byte	0x4
 2019 0776 0A       		.uleb128 0xa
 2020 0777 951F0000 		.4byte	.LASF225
 2021 077b 06       		.byte	0x6
 2022 077c D401     		.2byte	0x1d4
 2023 077e 77000000 		.4byte	0x77
 2024 0782 06       		.byte	0x6
 2025 0783 00       		.byte	0
 2026 0784 04       		.uleb128 0x4
 2027 0785 46020000 		.4byte	.LASF226
 2028 0789 06       		.byte	0x6
 2029 078a D601     		.2byte	0x1d6
 2030 078c 53070000 		.4byte	0x753
 2031 0790 09       		.uleb128 0x9
 2032 0791 0C       		.byte	0xc
 2033 0792 06       		.byte	0x6
ARM GAS  C:\Users\mohammed\AppData\Local\Temp\ccG2gzoD.s 			page 73


 2034 0793 D901     		.2byte	0x1d9
 2035 0795 B4070000 		.4byte	0x7b4
 2036 0799 0A       		.uleb128 0xa
 2037 079a C4170000 		.4byte	.LASF227
 2038 079e 06       		.byte	0x6
 2039 079f DC01     		.2byte	0x1dc
 2040 07a1 84070000 		.4byte	0x784
 2041 07a5 00       		.byte	0
 2042 07a6 0A       		.uleb128 0xa
 2043 07a7 C9120000 		.4byte	.LASF228
 2044 07ab 06       		.byte	0x6
 2045 07ac DF01     		.2byte	0x1df
 2046 07ae 17070000 		.4byte	0x717
 2047 07b2 08       		.byte	0x8
 2048 07b3 00       		.byte	0
 2049 07b4 04       		.uleb128 0x4
 2050 07b5 D8050000 		.4byte	.LASF229
 2051 07b9 06       		.byte	0x6
 2052 07ba E101     		.2byte	0x1e1
 2053 07bc 90070000 		.4byte	0x790
 2054 07c0 09       		.uleb128 0x9
 2055 07c1 04       		.byte	0x4
 2056 07c2 06       		.byte	0x6
 2057 07c3 EF01     		.2byte	0x1ef
 2058 07c5 E4070000 		.4byte	0x7e4
 2059 07c9 0A       		.uleb128 0xa
 2060 07ca FE180000 		.4byte	.LASF230
 2061 07ce 06       		.byte	0x6
 2062 07cf F201     		.2byte	0x1f2
 2063 07d1 47070000 		.4byte	0x747
 2064 07d5 00       		.byte	0
 2065 07d6 10       		.uleb128 0x10
 2066 07d7 6D747500 		.ascii	"mtu\000"
 2067 07db 06       		.byte	0x6
 2068 07dc F501     		.2byte	0x1f5
 2069 07de 77000000 		.4byte	0x77
 2070 07e2 02       		.byte	0x2
 2071 07e3 00       		.byte	0
 2072 07e4 04       		.uleb128 0x4
 2073 07e5 5F130000 		.4byte	.LASF231
 2074 07e9 06       		.byte	0x6
 2075 07ea F701     		.2byte	0x1f7
 2076 07ec C0070000 		.4byte	0x7c0
 2077 07f0 09       		.uleb128 0x9
 2078 07f1 10       		.byte	0x10
 2079 07f2 06       		.byte	0x6
 2080 07f3 FA01     		.2byte	0x1fa
 2081 07f5 14080000 		.4byte	0x814
 2082 07f9 0A       		.uleb128 0xa
 2083 07fa 241A0000 		.4byte	.LASF232
 2084 07fe 06       		.byte	0x6
 2085 07ff FD01     		.2byte	0x1fd
 2086 0801 B4070000 		.4byte	0x7b4
 2087 0805 00       		.byte	0
 2088 0806 0A       		.uleb128 0xa
 2089 0807 65140000 		.4byte	.LASF233
 2090 080b 06       		.byte	0x6
ARM GAS  C:\Users\mohammed\AppData\Local\Temp\ccG2gzoD.s 			page 74


 2091 080c 0002     		.2byte	0x200
 2092 080e 77000000 		.4byte	0x77
 2093 0812 0C       		.byte	0xc
 2094 0813 00       		.byte	0
 2095 0814 04       		.uleb128 0x4
 2096 0815 1B140000 		.4byte	.LASF234
 2097 0819 06       		.byte	0x6
 2098 081a 0202     		.2byte	0x202
 2099 081c F0070000 		.4byte	0x7f0
 2100 0820 09       		.uleb128 0x9
 2101 0821 08       		.byte	0x8
 2102 0822 06       		.byte	0x6
 2103 0823 0502     		.2byte	0x205
 2104 0825 51080000 		.4byte	0x851
 2105 0829 0A       		.uleb128 0xa
 2106 082a 4A160000 		.4byte	.LASF235
 2107 082e 06       		.byte	0x6
 2108 082f 0A02     		.2byte	0x20a
 2109 0831 00050000 		.4byte	0x500
 2110 0835 00       		.byte	0
 2111 0836 0A       		.uleb128 0xa
 2112 0837 CA170000 		.4byte	.LASF236
 2113 083b 06       		.byte	0x6
 2114 083c 0F02     		.2byte	0x20f
 2115 083e 77000000 		.4byte	0x77
 2116 0842 04       		.byte	0x4
 2117 0843 0A       		.uleb128 0xa
 2118 0844 370C0000 		.4byte	.LASF237
 2119 0848 06       		.byte	0x6
 2120 0849 1602     		.2byte	0x216
 2121 084b 77000000 		.4byte	0x77
 2122 084f 06       		.byte	0x6
 2123 0850 00       		.byte	0
 2124 0851 04       		.uleb128 0x4
 2125 0852 770F0000 		.4byte	.LASF238
 2126 0856 06       		.byte	0x6
 2127 0857 1802     		.2byte	0x218
 2128 0859 20080000 		.4byte	0x820
 2129 085d 11       		.uleb128 0x11
 2130 085e 04       		.byte	0x4
 2131 085f 07       		.byte	0x7
 2132 0860 3A       		.byte	0x3a
 2133 0861 8A080000 		.4byte	0x88a
 2134 0865 12       		.uleb128 0x12
 2135 0866 C9120000 		.4byte	.LASF228
 2136 086a 07       		.byte	0x7
 2137 086b 3D       		.byte	0x3d
 2138 086c 17070000 		.4byte	0x717
 2139 0870 00       		.byte	0
 2140 0871 12       		.uleb128 0x12
 2141 0872 98120000 		.4byte	.LASF239
 2142 0876 07       		.byte	0x7
 2143 0877 43       		.byte	0x43
 2144 0878 6B000000 		.4byte	0x6b
 2145 087c 02       		.byte	0x2
 2146 087d 12       		.uleb128 0x12
 2147 087e B2080000 		.4byte	.LASF240
ARM GAS  C:\Users\mohammed\AppData\Local\Temp\ccG2gzoD.s 			page 75


 2148 0882 07       		.byte	0x7
 2149 0883 46       		.byte	0x46
 2150 0884 0B070000 		.4byte	0x70b
 2151 0888 03       		.byte	0x3
 2152 0889 00       		.byte	0
 2153 088a 0E       		.uleb128 0xe
 2154 088b EC070000 		.4byte	.LASF241
 2155 088f 07       		.byte	0x7
 2156 0890 48       		.byte	0x48
 2157 0891 5D080000 		.4byte	0x85d
 2158 0895 11       		.uleb128 0x11
 2159 0896 0C       		.byte	0xc
 2160 0897 07       		.byte	0x7
 2161 0898 4E       		.byte	0x4e
 2162 0899 CE080000 		.4byte	0x8ce
 2163 089d 12       		.uleb128 0x12
 2164 089e FE180000 		.4byte	.LASF230
 2165 08a2 07       		.byte	0x7
 2166 08a3 51       		.byte	0x51
 2167 08a4 47070000 		.4byte	0x747
 2168 08a8 00       		.byte	0
 2169 08a9 12       		.uleb128 0x12
 2170 08aa D5100000 		.4byte	.LASF242
 2171 08ae 07       		.byte	0x7
 2172 08af 5C       		.byte	0x5c
 2173 08b0 CE080000 		.4byte	0x8ce
 2174 08b4 04       		.byte	0x4
 2175 08b5 12       		.uleb128 0x12
 2176 08b6 431D0000 		.4byte	.LASF243
 2177 08ba 07       		.byte	0x7
 2178 08bb 61       		.byte	0x61
 2179 08bc 6B000000 		.4byte	0x6b
 2180 08c0 08       		.byte	0x8
 2181 08c1 12       		.uleb128 0x12
 2182 08c2 69100000 		.4byte	.LASF244
 2183 08c6 07       		.byte	0x7
 2184 08c7 64       		.byte	0x64
 2185 08c8 6B000000 		.4byte	0x6b
 2186 08cc 09       		.byte	0x9
 2187 08cd 00       		.byte	0
 2188 08ce 0F       		.uleb128 0xf
 2189 08cf 04       		.byte	0x4
 2190 08d0 14080000 		.4byte	0x814
 2191 08d4 0E       		.uleb128 0xe
 2192 08d5 80000000 		.4byte	.LASF245
 2193 08d9 07       		.byte	0x7
 2194 08da 66       		.byte	0x66
 2195 08db 95080000 		.4byte	0x895
 2196 08df 11       		.uleb128 0x11
 2197 08e0 10       		.byte	0x10
 2198 08e1 07       		.byte	0x7
 2199 08e2 69       		.byte	0x69
 2200 08e3 30090000 		.4byte	0x930
 2201 08e7 12       		.uleb128 0x12
 2202 08e8 FE180000 		.4byte	.LASF230
 2203 08ec 07       		.byte	0x7
 2204 08ed 6C       		.byte	0x6c
ARM GAS  C:\Users\mohammed\AppData\Local\Temp\ccG2gzoD.s 			page 76


 2205 08ee 47070000 		.4byte	0x747
 2206 08f2 00       		.byte	0
 2207 08f3 12       		.uleb128 0x12
 2208 08f4 D5100000 		.4byte	.LASF242
 2209 08f8 07       		.byte	0x7
 2210 08f9 77       		.byte	0x77
 2211 08fa CE080000 		.4byte	0x8ce
 2212 08fe 04       		.byte	0x4
 2213 08ff 12       		.uleb128 0x12
 2214 0900 CD0B0000 		.4byte	.LASF246
 2215 0904 07       		.byte	0x7
 2216 0905 7C       		.byte	0x7c
 2217 0906 6B000000 		.4byte	0x6b
 2218 090a 08       		.byte	0x8
 2219 090b 12       		.uleb128 0x12
 2220 090c 3D040000 		.4byte	.LASF247
 2221 0910 07       		.byte	0x7
 2222 0911 7F       		.byte	0x7f
 2223 0912 6B000000 		.4byte	0x6b
 2224 0916 09       		.byte	0x9
 2225 0917 12       		.uleb128 0x12
 2226 0918 C9120000 		.4byte	.LASF228
 2227 091c 07       		.byte	0x7
 2228 091d 82       		.byte	0x82
 2229 091e 17070000 		.4byte	0x717
 2230 0922 0A       		.byte	0xa
 2231 0923 12       		.uleb128 0x12
 2232 0924 69100000 		.4byte	.LASF244
 2233 0928 07       		.byte	0x7
 2234 0929 85       		.byte	0x85
 2235 092a 6B000000 		.4byte	0x6b
 2236 092e 0C       		.byte	0xc
 2237 092f 00       		.byte	0
 2238 0930 0E       		.uleb128 0xe
 2239 0931 51190000 		.4byte	.LASF248
 2240 0935 07       		.byte	0x7
 2241 0936 87       		.byte	0x87
 2242 0937 DF080000 		.4byte	0x8df
 2243 093b 11       		.uleb128 0x11
 2244 093c 10       		.byte	0x10
 2245 093d 07       		.byte	0x7
 2246 093e 8A       		.byte	0x8a
 2247 093f 5C090000 		.4byte	0x95c
 2248 0943 12       		.uleb128 0x12
 2249 0944 FE180000 		.4byte	.LASF230
 2250 0948 07       		.byte	0x7
 2251 0949 8D       		.byte	0x8d
 2252 094a 47070000 		.4byte	0x747
 2253 094e 00       		.byte	0
 2254 094f 12       		.uleb128 0x12
 2255 0950 F0180000 		.4byte	.LASF249
 2256 0954 07       		.byte	0x7
 2257 0955 90       		.byte	0x90
 2258 0956 B4070000 		.4byte	0x7b4
 2259 095a 04       		.byte	0x4
 2260 095b 00       		.byte	0
 2261 095c 0E       		.uleb128 0xe
ARM GAS  C:\Users\mohammed\AppData\Local\Temp\ccG2gzoD.s 			page 77


 2262 095d EA120000 		.4byte	.LASF250
 2263 0961 07       		.byte	0x7
 2264 0962 92       		.byte	0x92
 2265 0963 3B090000 		.4byte	0x93b
 2266 0967 11       		.uleb128 0x11
 2267 0968 06       		.byte	0x6
 2268 0969 07       		.byte	0x7
 2269 096a A2       		.byte	0xa2
 2270 096b 94090000 		.4byte	0x994
 2271 096f 12       		.uleb128 0x12
 2272 0970 FE180000 		.4byte	.LASF230
 2273 0974 07       		.byte	0x7
 2274 0975 A5       		.byte	0xa5
 2275 0976 47070000 		.4byte	0x747
 2276 097a 00       		.byte	0
 2277 097b 12       		.uleb128 0x12
 2278 097c C9120000 		.4byte	.LASF228
 2279 0980 07       		.byte	0x7
 2280 0981 A8       		.byte	0xa8
 2281 0982 17070000 		.4byte	0x717
 2282 0986 02       		.byte	0x2
 2283 0987 12       		.uleb128 0x12
 2284 0988 69100000 		.4byte	.LASF244
 2285 098c 07       		.byte	0x7
 2286 098d AE       		.byte	0xae
 2287 098e 0B070000 		.4byte	0x70b
 2288 0992 04       		.byte	0x4
 2289 0993 00       		.byte	0
 2290 0994 0E       		.uleb128 0xe
 2291 0995 B5100000 		.4byte	.LASF251
 2292 0999 07       		.byte	0x7
 2293 099a B0       		.byte	0xb0
 2294 099b 67090000 		.4byte	0x967
 2295 099f 04       		.uleb128 0x4
 2296 09a0 09030000 		.4byte	.LASF252
 2297 09a4 08       		.byte	0x8
 2298 09a5 E701     		.2byte	0x1e7
 2299 09a7 AB090000 		.4byte	0x9ab
 2300 09ab 0F       		.uleb128 0xf
 2301 09ac 04       		.byte	0x4
 2302 09ad B1090000 		.4byte	0x9b1
 2303 09b1 13       		.uleb128 0x13
 2304 09b2 C1090000 		.4byte	0x9c1
 2305 09b6 14       		.uleb128 0x14
 2306 09b7 83000000 		.4byte	0x83
 2307 09bb 14       		.uleb128 0x14
 2308 09bc B0000000 		.4byte	0xb0
 2309 09c0 00       		.byte	0
 2310 09c1 0D       		.uleb128 0xd
 2311 09c2 01       		.byte	0x1
 2312 09c3 09       		.byte	0x9
 2313 09c4 25       		.byte	0x25
 2314 09c5 8A0A0000 		.4byte	0xa8a
 2315 09c9 08       		.uleb128 0x8
 2316 09ca 0F060000 		.4byte	.LASF253
 2317 09ce 00       		.sleb128 0
 2318 09cf 08       		.uleb128 0x8
ARM GAS  C:\Users\mohammed\AppData\Local\Temp\ccG2gzoD.s 			page 78


 2319 09d0 B00D0000 		.4byte	.LASF254
 2320 09d4 01       		.sleb128 1
 2321 09d5 08       		.uleb128 0x8
 2322 09d6 D01F0000 		.4byte	.LASF255
 2323 09da 02       		.sleb128 2
 2324 09db 08       		.uleb128 0x8
 2325 09dc BC1F0000 		.4byte	.LASF256
 2326 09e0 03       		.sleb128 3
 2327 09e1 08       		.uleb128 0x8
 2328 09e2 471B0000 		.4byte	.LASF257
 2329 09e6 04       		.sleb128 4
 2330 09e7 08       		.uleb128 0x8
 2331 09e8 260D0000 		.4byte	.LASF258
 2332 09ec 05       		.sleb128 5
 2333 09ed 08       		.uleb128 0x8
 2334 09ee 620D0000 		.4byte	.LASF259
 2335 09f2 06       		.sleb128 6
 2336 09f3 08       		.uleb128 0x8
 2337 09f4 AE0C0000 		.4byte	.LASF260
 2338 09f8 07       		.sleb128 7
 2339 09f9 08       		.uleb128 0x8
 2340 09fa 450F0000 		.4byte	.LASF261
 2341 09fe 08       		.sleb128 8
 2342 09ff 08       		.uleb128 0x8
 2343 0a00 5A080000 		.4byte	.LASF262
 2344 0a04 09       		.sleb128 9
 2345 0a05 08       		.uleb128 0x8
 2346 0a06 650E0000 		.4byte	.LASF263
 2347 0a0a 0A       		.sleb128 10
 2348 0a0b 08       		.uleb128 0x8
 2349 0a0c 27180000 		.4byte	.LASF264
 2350 0a10 0B       		.sleb128 11
 2351 0a11 08       		.uleb128 0x8
 2352 0a12 9E1D0000 		.4byte	.LASF265
 2353 0a16 0C       		.sleb128 12
 2354 0a17 08       		.uleb128 0x8
 2355 0a18 F7050000 		.4byte	.LASF266
 2356 0a1c 0D       		.sleb128 13
 2357 0a1d 08       		.uleb128 0x8
 2358 0a1e 1B000000 		.4byte	.LASF267
 2359 0a22 0E       		.sleb128 14
 2360 0a23 08       		.uleb128 0x8
 2361 0a24 BB200000 		.4byte	.LASF268
 2362 0a28 0F       		.sleb128 15
 2363 0a29 08       		.uleb128 0x8
 2364 0a2a 990B0000 		.4byte	.LASF269
 2365 0a2e 10       		.sleb128 16
 2366 0a2f 08       		.uleb128 0x8
 2367 0a30 4C080000 		.4byte	.LASF270
 2368 0a34 11       		.sleb128 17
 2369 0a35 08       		.uleb128 0x8
 2370 0a36 A81A0000 		.4byte	.LASF271
 2371 0a3a 12       		.sleb128 18
 2372 0a3b 08       		.uleb128 0x8
 2373 0a3c B61A0000 		.4byte	.LASF272
 2374 0a40 13       		.sleb128 19
 2375 0a41 08       		.uleb128 0x8
ARM GAS  C:\Users\mohammed\AppData\Local\Temp\ccG2gzoD.s 			page 79


 2376 0a42 901D0000 		.4byte	.LASF273
 2377 0a46 14       		.sleb128 20
 2378 0a47 08       		.uleb128 0x8
 2379 0a48 AC1D0000 		.4byte	.LASF274
 2380 0a4c 15       		.sleb128 21
 2381 0a4d 08       		.uleb128 0x8
 2382 0a4e CA050000 		.4byte	.LASF275
 2383 0a52 16       		.sleb128 22
 2384 0a53 08       		.uleb128 0x8
 2385 0a54 EC040000 		.4byte	.LASF276
 2386 0a58 17       		.sleb128 23
 2387 0a59 08       		.uleb128 0x8
 2388 0a5a 54010000 		.4byte	.LASF277
 2389 0a5e 18       		.sleb128 24
 2390 0a5f 08       		.uleb128 0x8
 2391 0a60 99190000 		.4byte	.LASF278
 2392 0a64 19       		.sleb128 25
 2393 0a65 08       		.uleb128 0x8
 2394 0a66 D4120000 		.4byte	.LASF279
 2395 0a6a 1A       		.sleb128 26
 2396 0a6b 08       		.uleb128 0x8
 2397 0a6c C00E0000 		.4byte	.LASF280
 2398 0a70 1B       		.sleb128 27
 2399 0a71 08       		.uleb128 0x8
 2400 0a72 0B1F0000 		.4byte	.LASF281
 2401 0a76 1C       		.sleb128 28
 2402 0a77 08       		.uleb128 0x8
 2403 0a78 891C0000 		.4byte	.LASF282
 2404 0a7c 1D       		.sleb128 29
 2405 0a7d 08       		.uleb128 0x8
 2406 0a7e E6130000 		.4byte	.LASF283
 2407 0a82 1E       		.sleb128 30
 2408 0a83 08       		.uleb128 0x8
 2409 0a84 950E0000 		.4byte	.LASF284
 2410 0a88 1F       		.sleb128 31
 2411 0a89 00       		.byte	0
 2412 0a8a 0D       		.uleb128 0xd
 2413 0a8b 01       		.byte	0x1
 2414 0a8c 09       		.byte	0x9
 2415 0a8d 4A       		.byte	0x4a
 2416 0a8e 9F0A0000 		.4byte	0xa9f
 2417 0a92 08       		.uleb128 0x8
 2418 0a93 D01C0000 		.4byte	.LASF285
 2419 0a97 00       		.sleb128 0
 2420 0a98 08       		.uleb128 0x8
 2421 0a99 E4080000 		.4byte	.LASF286
 2422 0a9d 01       		.sleb128 1
 2423 0a9e 00       		.byte	0
 2424 0a9f 07       		.uleb128 0x7
 2425 0aa0 01       		.byte	0x1
 2426 0aa1 0A       		.byte	0xa
 2427 0aa2 BF07     		.2byte	0x7bf
 2428 0aa4 C70A0000 		.4byte	0xac7
 2429 0aa8 08       		.uleb128 0x8
 2430 0aa9 D8070000 		.4byte	.LASF287
 2431 0aad 00       		.sleb128 0
 2432 0aae 08       		.uleb128 0x8
ARM GAS  C:\Users\mohammed\AppData\Local\Temp\ccG2gzoD.s 			page 80


 2433 0aaf D60F0000 		.4byte	.LASF288
 2434 0ab3 01       		.sleb128 1
 2435 0ab4 08       		.uleb128 0x8
 2436 0ab5 7F1F0000 		.4byte	.LASF289
 2437 0ab9 02       		.sleb128 2
 2438 0aba 08       		.uleb128 0x8
 2439 0abb CD030000 		.4byte	.LASF290
 2440 0abf 03       		.sleb128 3
 2441 0ac0 08       		.uleb128 0x8
 2442 0ac1 601A0000 		.4byte	.LASF291
 2443 0ac5 04       		.sleb128 4
 2444 0ac6 00       		.byte	0
 2445 0ac7 04       		.uleb128 0x4
 2446 0ac8 F41B0000 		.4byte	.LASF292
 2447 0acc 0A       		.byte	0xa
 2448 0acd CD07     		.2byte	0x7cd
 2449 0acf 9F0A0000 		.4byte	0xa9f
 2450 0ad3 15       		.uleb128 0x15
 2451 0ad4 A3000000 		.4byte	.LASF295
 2452 0ad8 01       		.byte	0x1
 2453 0ad9 E8       		.byte	0xe8
 2454 0ada 00000000 		.4byte	.LFB2
 2455 0ade E8000000 		.4byte	.LFE2-.LFB2
 2456 0ae2 01       		.uleb128 0x1
 2457 0ae3 9C       		.byte	0x9c
 2458 0ae4 1E0B0000 		.4byte	0xb1e
 2459 0ae8 16       		.uleb128 0x16
 2460 0ae9 C1000000 		.4byte	.LASF297
 2461 0aed 01       		.byte	0x1
 2462 0aee E8       		.byte	0xe8
 2463 0aef 1E0B0000 		.4byte	0xb1e
 2464 0af3 02       		.uleb128 0x2
 2465 0af4 91       		.byte	0x91
 2466 0af5 64       		.sleb128 -28
 2467 0af6 17       		.uleb128 0x17
 2468 0af7 031F0000 		.4byte	.LASF293
 2469 0afb 01       		.byte	0x1
 2470 0afc EA       		.byte	0xea
 2471 0afd 0B070000 		.4byte	0x70b
 2472 0b01 02       		.uleb128 0x2
 2473 0b02 91       		.byte	0x91
 2474 0b03 6F       		.sleb128 -17
 2475 0b04 18       		.uleb128 0x18
 2476 0b05 A8000000 		.4byte	.LBB2
 2477 0b09 2C000000 		.4byte	.LBE2-.LBB2
 2478 0b0d 19       		.uleb128 0x19
 2479 0b0e F4130000 		.4byte	.LASF294
 2480 0b12 01       		.byte	0x1
 2481 0b13 9801     		.2byte	0x198
 2482 0b15 8A080000 		.4byte	0x88a
 2483 0b19 02       		.uleb128 0x2
 2484 0b1a 91       		.byte	0x91
 2485 0b1b 68       		.sleb128 -24
 2486 0b1c 00       		.byte	0
 2487 0b1d 00       		.byte	0
 2488 0b1e 0F       		.uleb128 0xf
 2489 0b1f 04       		.byte	0x4
ARM GAS  C:\Users\mohammed\AppData\Local\Temp\ccG2gzoD.s 			page 81


 2490 0b20 5C090000 		.4byte	0x95c
 2491 0b24 1A       		.uleb128 0x1a
 2492 0b25 33120000 		.4byte	.LASF296
 2493 0b29 01       		.byte	0x1
 2494 0b2a B501     		.2byte	0x1b5
 2495 0b2c 00000000 		.4byte	.LFB3
 2496 0b30 30000000 		.4byte	.LFE3-.LFB3
 2497 0b34 01       		.uleb128 0x1
 2498 0b35 9C       		.byte	0x9c
 2499 0b36 4A0B0000 		.4byte	0xb4a
 2500 0b3a 1B       		.uleb128 0x1b
 2501 0b3b C1000000 		.4byte	.LASF297
 2502 0b3f 01       		.byte	0x1
 2503 0b40 B501     		.2byte	0x1b5
 2504 0b42 4A0B0000 		.4byte	0xb4a
 2505 0b46 02       		.uleb128 0x2
 2506 0b47 91       		.byte	0x91
 2507 0b48 74       		.sleb128 -12
 2508 0b49 00       		.byte	0
 2509 0b4a 0F       		.uleb128 0xf
 2510 0b4b 04       		.byte	0x4
 2511 0b4c 500B0000 		.4byte	0xb50
 2512 0b50 1C       		.uleb128 0x1c
 2513 0b51 47070000 		.4byte	0x747
 2514 0b55 1D       		.uleb128 0x1d
 2515 0b56 3E110000 		.4byte	.LASF299
 2516 0b5a 01       		.byte	0x1
 2517 0b5b F004     		.2byte	0x4f0
 2518 0b5d 00000000 		.4byte	.LFB4
 2519 0b61 1C000000 		.4byte	.LFE4-.LFB4
 2520 0b65 01       		.uleb128 0x1
 2521 0b66 9C       		.byte	0x9c
 2522 0b67 1E       		.uleb128 0x1e
 2523 0b68 09190000 		.4byte	.LASF298
 2524 0b6c 01       		.byte	0x1
 2525 0b6d 2805     		.2byte	0x528
 2526 0b6f 00000000 		.4byte	.LFB5
 2527 0b73 0E000000 		.4byte	.LFE5-.LFB5
 2528 0b77 01       		.uleb128 0x1
 2529 0b78 9C       		.byte	0x9c
 2530 0b79 8D0B0000 		.4byte	0xb8d
 2531 0b7d 1B       		.uleb128 0x1b
 2532 0b7e C1000000 		.4byte	.LASF297
 2533 0b82 01       		.byte	0x1
 2534 0b83 2805     		.2byte	0x528
 2535 0b85 8D0B0000 		.4byte	0xb8d
 2536 0b89 02       		.uleb128 0x2
 2537 0b8a 91       		.byte	0x91
 2538 0b8b 74       		.sleb128 -12
 2539 0b8c 00       		.byte	0
 2540 0b8d 0F       		.uleb128 0xf
 2541 0b8e 04       		.byte	0x4
 2542 0b8f 930B0000 		.4byte	0xb93
 2543 0b93 1C       		.uleb128 0x1c
 2544 0b94 D3030000 		.4byte	0x3d3
 2545 0b98 1D       		.uleb128 0x1d
 2546 0b99 DE100000 		.4byte	.LASF300
ARM GAS  C:\Users\mohammed\AppData\Local\Temp\ccG2gzoD.s 			page 82


 2547 0b9d 01       		.byte	0x1
 2548 0b9e 6005     		.2byte	0x560
 2549 0ba0 00000000 		.4byte	.LFB6
 2550 0ba4 0C000000 		.4byte	.LFE6-.LFB6
 2551 0ba8 01       		.uleb128 0x1
 2552 0ba9 9C       		.byte	0x9c
 2553 0baa 1F       		.uleb128 0x1f
 2554 0bab 99140000 		.4byte	.LASF325
 2555 0baf 01       		.byte	0x1
 2556 0bb0 8C05     		.2byte	0x58c
 2557 0bb2 6B000000 		.4byte	0x6b
 2558 0bb6 00000000 		.4byte	.LFB7
 2559 0bba 60000000 		.4byte	.LFE7-.LFB7
 2560 0bbe 01       		.uleb128 0x1
 2561 0bbf 9C       		.byte	0x9c
 2562 0bc0 F00B0000 		.4byte	0xbf0
 2563 0bc4 1B       		.uleb128 0x1b
 2564 0bc5 A00A0000 		.4byte	.LASF301
 2565 0bc9 01       		.byte	0x1
 2566 0bca 8C05     		.2byte	0x58c
 2567 0bcc F00B0000 		.4byte	0xbf0
 2568 0bd0 02       		.uleb128 0x2
 2569 0bd1 91       		.byte	0x91
 2570 0bd2 6C       		.sleb128 -20
 2571 0bd3 20       		.uleb128 0x20
 2572 0bd4 6900     		.ascii	"i\000"
 2573 0bd6 01       		.byte	0x1
 2574 0bd7 8E05     		.2byte	0x58e
 2575 0bd9 6B000000 		.4byte	0x6b
 2576 0bdd 02       		.uleb128 0x2
 2577 0bde 91       		.byte	0x91
 2578 0bdf 77       		.sleb128 -9
 2579 0be0 19       		.uleb128 0x19
 2580 0be1 C0030000 		.4byte	.LASF302
 2581 0be5 01       		.byte	0x1
 2582 0be6 8F05     		.2byte	0x58f
 2583 0be8 6B000000 		.4byte	0x6b
 2584 0bec 02       		.uleb128 0x2
 2585 0bed 91       		.byte	0x91
 2586 0bee 76       		.sleb128 -10
 2587 0bef 00       		.byte	0
 2588 0bf0 0F       		.uleb128 0xf
 2589 0bf1 04       		.byte	0x4
 2590 0bf2 F60B0000 		.4byte	0xbf6
 2591 0bf6 1C       		.uleb128 0x1c
 2592 0bf7 A6030000 		.4byte	0x3a6
 2593 0bfb 1E       		.uleb128 0x1e
 2594 0bfc FD1A0000 		.4byte	.LASF303
 2595 0c00 01       		.byte	0x1
 2596 0c01 B005     		.2byte	0x5b0
 2597 0c03 00000000 		.4byte	.LFB8
 2598 0c07 12000000 		.4byte	.LFE8-.LFB8
 2599 0c0b 01       		.uleb128 0x1
 2600 0c0c 9C       		.byte	0x9c
 2601 0c0d 210C0000 		.4byte	0xc21
 2602 0c11 1B       		.uleb128 0x1b
 2603 0c12 0F1D0000 		.4byte	.LASF304
ARM GAS  C:\Users\mohammed\AppData\Local\Temp\ccG2gzoD.s 			page 83


 2604 0c16 01       		.byte	0x1
 2605 0c17 B005     		.2byte	0x5b0
 2606 0c19 77000000 		.4byte	0x77
 2607 0c1d 02       		.uleb128 0x2
 2608 0c1e 91       		.byte	0x91
 2609 0c1f 76       		.sleb128 -10
 2610 0c20 00       		.byte	0
 2611 0c21 1E       		.uleb128 0x1e
 2612 0c22 DF0B0000 		.4byte	.LASF305
 2613 0c26 01       		.byte	0x1
 2614 0c27 CA05     		.2byte	0x5ca
 2615 0c29 00000000 		.4byte	.LFB9
 2616 0c2d 0E000000 		.4byte	.LFE9-.LFB9
 2617 0c31 01       		.uleb128 0x1
 2618 0c32 9C       		.byte	0x9c
 2619 0c33 470C0000 		.4byte	0xc47
 2620 0c37 1B       		.uleb128 0x1b
 2621 0c38 C1000000 		.4byte	.LASF297
 2622 0c3c 01       		.byte	0x1
 2623 0c3d CA05     		.2byte	0x5ca
 2624 0c3f 470C0000 		.4byte	0xc47
 2625 0c43 02       		.uleb128 0x2
 2626 0c44 91       		.byte	0x91
 2627 0c45 74       		.sleb128 -12
 2628 0c46 00       		.byte	0
 2629 0c47 0F       		.uleb128 0xf
 2630 0c48 04       		.byte	0x4
 2631 0c49 4D0C0000 		.4byte	0xc4d
 2632 0c4d 1C       		.uleb128 0x1c
 2633 0c4e 44050000 		.4byte	0x544
 2634 0c52 21       		.uleb128 0x21
 2635 0c53 1B070000 		.4byte	.LASF326
 2636 0c57 01       		.byte	0x1
 2637 0c58 E405     		.2byte	0x5e4
 2638 0c5a 00000000 		.4byte	.LFB10
 2639 0c5e 14030000 		.4byte	.LFE10-.LFB10
 2640 0c62 01       		.uleb128 0x1
 2641 0c63 9C       		.byte	0x9c
 2642 0c64 130D0000 		.4byte	0xd13
 2643 0c68 1B       		.uleb128 0x1b
 2644 0c69 DB1D0000 		.4byte	.LASF306
 2645 0c6d 01       		.byte	0x1
 2646 0c6e E405     		.2byte	0x5e4
 2647 0c70 6B000000 		.4byte	0x6b
 2648 0c74 02       		.uleb128 0x2
 2649 0c75 91       		.byte	0x91
 2650 0c76 67       		.sleb128 -25
 2651 0c77 1B       		.uleb128 0x1b
 2652 0c78 C1000000 		.4byte	.LASF297
 2653 0c7c 01       		.byte	0x1
 2654 0c7d E405     		.2byte	0x5e4
 2655 0c7f B0000000 		.4byte	0xb0
 2656 0c83 02       		.uleb128 0x2
 2657 0c84 91       		.byte	0x91
 2658 0c85 60       		.sleb128 -32
 2659 0c86 22       		.uleb128 0x22
 2660 0c87 32000000 		.4byte	.LBB3
ARM GAS  C:\Users\mohammed\AppData\Local\Temp\ccG2gzoD.s 			page 84


 2661 0c8b 34000000 		.4byte	.LBE3-.LBB3
 2662 0c8f A30C0000 		.4byte	0xca3
 2663 0c93 19       		.uleb128 0x19
 2664 0c94 81170000 		.4byte	.LASF307
 2665 0c98 01       		.byte	0x1
 2666 0c99 F105     		.2byte	0x5f1
 2667 0c9b 07030000 		.4byte	0x307
 2668 0c9f 02       		.uleb128 0x2
 2669 0ca0 91       		.byte	0x91
 2670 0ca1 6C       		.sleb128 -20
 2671 0ca2 00       		.byte	0
 2672 0ca3 22       		.uleb128 0x22
 2673 0ca4 BA000000 		.4byte	.LBB4
 2674 0ca8 1A000000 		.4byte	.LBE4-.LBB4
 2675 0cac C00C0000 		.4byte	0xcc0
 2676 0cb0 19       		.uleb128 0x19
 2677 0cb1 791A0000 		.4byte	.LASF308
 2678 0cb5 01       		.byte	0x1
 2679 0cb6 2306     		.2byte	0x623
 2680 0cb8 130D0000 		.4byte	0xd13
 2681 0cbc 02       		.uleb128 0x2
 2682 0cbd 91       		.byte	0x91
 2683 0cbe 68       		.sleb128 -24
 2684 0cbf 00       		.byte	0
 2685 0cc0 22       		.uleb128 0x22
 2686 0cc1 F0000000 		.4byte	.LBB5
 2687 0cc5 3C000000 		.4byte	.LBE5-.LBB5
 2688 0cc9 F90C0000 		.4byte	0xcf9
 2689 0ccd 19       		.uleb128 0x19
 2690 0cce 59020000 		.4byte	.LASF309
 2691 0cd2 01       		.byte	0x1
 2692 0cd3 3B06     		.2byte	0x63b
 2693 0cd5 230D0000 		.4byte	0xd23
 2694 0cd9 02       		.uleb128 0x2
 2695 0cda 91       		.byte	0x91
 2696 0cdb 70       		.sleb128 -16
 2697 0cdc 18       		.uleb128 0x18
 2698 0cdd 04010000 		.4byte	.LBB6
 2699 0ce1 18000000 		.4byte	.LBE6-.LBB6
 2700 0ce5 19       		.uleb128 0x19
 2701 0ce6 7B130000 		.4byte	.LASF310
 2702 0cea 01       		.byte	0x1
 2703 0ceb 4206     		.2byte	0x642
 2704 0ced 51080000 		.4byte	0x851
 2705 0cf1 05       		.uleb128 0x5
 2706 0cf2 03       		.byte	0x3
 2707 0cf3 00000000 		.4byte	gPrepWriteReqMem.6487
 2708 0cf7 00       		.byte	0
 2709 0cf8 00       		.byte	0
 2710 0cf9 18       		.uleb128 0x18
 2711 0cfa 36020000 		.4byte	.LBB7
 2712 0cfe 38000000 		.4byte	.LBE7-.LBB7
 2713 0d02 19       		.uleb128 0x19
 2714 0d03 EF0F0000 		.4byte	.LASF311
 2715 0d07 01       		.byte	0x1
 2716 0d08 1907     		.2byte	0x719
 2717 0d0a 77000000 		.4byte	0x77
ARM GAS  C:\Users\mohammed\AppData\Local\Temp\ccG2gzoD.s 			page 85


 2718 0d0e 02       		.uleb128 0x2
 2719 0d0f 91       		.byte	0x91
 2720 0d10 76       		.sleb128 -10
 2721 0d11 00       		.byte	0
 2722 0d12 00       		.byte	0
 2723 0d13 0B       		.uleb128 0xb
 2724 0d14 6B000000 		.4byte	0x6b
 2725 0d18 230D0000 		.4byte	0xd23
 2726 0d1c 0C       		.uleb128 0xc
 2727 0d1d A9000000 		.4byte	0xa9
 2728 0d21 01       		.byte	0x1
 2729 0d22 00       		.byte	0
 2730 0d23 0F       		.uleb128 0xf
 2731 0d24 04       		.byte	0x4
 2732 0d25 66030000 		.4byte	0x366
 2733 0d29 23       		.uleb128 0x23
 2734 0d2a EC010000 		.4byte	.LASF312
 2735 0d2e 08       		.byte	0x8
 2736 0d2f 8002     		.2byte	0x280
 2737 0d31 9F090000 		.4byte	0x99f
 2738 0d35 0B       		.uleb128 0xb
 2739 0d36 6B000000 		.4byte	0x6b
 2740 0d3a 460D0000 		.4byte	0xd46
 2741 0d3e 24       		.uleb128 0x24
 2742 0d3f A9000000 		.4byte	0xa9
 2743 0d43 DF0A     		.2byte	0xadf
 2744 0d45 00       		.byte	0
 2745 0d46 23       		.uleb128 0x23
 2746 0d47 BB1C0000 		.4byte	.LASF313
 2747 0d4b 08       		.byte	0x8
 2748 0d4c 8502     		.2byte	0x285
 2749 0d4e 350D0000 		.4byte	0xd35
 2750 0d52 25       		.uleb128 0x25
 2751 0d53 AE0A0000 		.4byte	.LASF314
 2752 0d57 01       		.byte	0x1
 2753 0d58 3D       		.byte	0x3d
 2754 0d59 A4000000 		.4byte	0xa4
 2755 0d5d 05       		.uleb128 0x5
 2756 0d5e 03       		.byte	0x3
 2757 0d5f 00000000 		.4byte	cyBle_eventHandlerFlag
 2758 0d63 23       		.uleb128 0x23
 2759 0d64 6E050000 		.4byte	.LASF315
 2760 0d68 08       		.byte	0x8
 2761 0d69 8802     		.2byte	0x288
 2762 0d6b A6030000 		.4byte	0x3a6
 2763 0d6f 23       		.uleb128 0x23
 2764 0d70 4D0C0000 		.4byte	.LASF316
 2765 0d74 08       		.byte	0x8
 2766 0d75 8902     		.2byte	0x289
 2767 0d77 7B0D0000 		.4byte	0xd7b
 2768 0d7b 0F       		.uleb128 0xf
 2769 0d7c 04       		.byte	0x4
 2770 0d7d A6030000 		.4byte	0x3a6
 2771 0d81 25       		.uleb128 0x25
 2772 0d82 CA1A0000 		.4byte	.LASF317
 2773 0d86 01       		.byte	0x1
 2774 0d87 D0       		.byte	0xd0
ARM GAS  C:\Users\mohammed\AppData\Local\Temp\ccG2gzoD.s 			page 86


 2775 0d88 F4040000 		.4byte	0x4f4
 2776 0d8c 05       		.uleb128 0x5
 2777 0d8d 03       		.byte	0x3
 2778 0d8e 00000000 		.4byte	cyBle_authInfo
 2779 0d92 23       		.uleb128 0x23
 2780 0d93 181A0000 		.4byte	.LASF318
 2781 0d97 0A       		.byte	0xa
 2782 0d98 DA09     		.2byte	0x9da
 2783 0d9a C70A0000 		.4byte	0xac7
 2784 0d9e 25       		.uleb128 0x25
 2785 0d9f A70B0000 		.4byte	.LASF319
 2786 0da3 01       		.byte	0x1
 2787 0da4 3B       		.byte	0x3b
 2788 0da5 47070000 		.4byte	0x747
 2789 0da9 05       		.uleb128 0x5
 2790 0daa 03       		.byte	0x3
 2791 0dab 00000000 		.4byte	cyBle_connHandle
 2792 0daf 25       		.uleb128 0x25
 2793 0db0 C50F0000 		.4byte	.LASF320
 2794 0db4 01       		.byte	0x1
 2795 0db5 3E       		.byte	0x3e
 2796 0db6 A4000000 		.4byte	0xa4
 2797 0dba 05       		.uleb128 0x5
 2798 0dbb 03       		.byte	0x3
 2799 0dbc 00000000 		.4byte	cyBle_busyStatus
 2800 0dc0 25       		.uleb128 0x25
 2801 0dc1 51120000 		.4byte	.LASF321
 2802 0dc5 01       		.byte	0x1
 2803 0dc6 41       		.byte	0x41
 2804 0dc7 6B000000 		.4byte	0x6b
 2805 0dcb 05       		.uleb128 0x5
 2806 0dcc 03       		.byte	0x3
 2807 0dcd 00000000 		.4byte	cyBle_advertisingIntervalType
 2808 0dd1 00       		.byte	0
 2809              		.section	.debug_abbrev,"",%progbits
 2810              	.Ldebug_abbrev0:
 2811 0000 01       		.uleb128 0x1
 2812 0001 11       		.uleb128 0x11
 2813 0002 01       		.byte	0x1
 2814 0003 25       		.uleb128 0x25
 2815 0004 0E       		.uleb128 0xe
 2816 0005 13       		.uleb128 0x13
 2817 0006 0B       		.uleb128 0xb
 2818 0007 03       		.uleb128 0x3
 2819 0008 0E       		.uleb128 0xe
 2820 0009 1B       		.uleb128 0x1b
 2821 000a 0E       		.uleb128 0xe
 2822 000b 55       		.uleb128 0x55
 2823 000c 17       		.uleb128 0x17
 2824 000d 11       		.uleb128 0x11
 2825 000e 01       		.uleb128 0x1
 2826 000f 10       		.uleb128 0x10
 2827 0010 17       		.uleb128 0x17
 2828 0011 00       		.byte	0
 2829 0012 00       		.byte	0
 2830 0013 02       		.uleb128 0x2
 2831 0014 24       		.uleb128 0x24
ARM GAS  C:\Users\mohammed\AppData\Local\Temp\ccG2gzoD.s 			page 87


 2832 0015 00       		.byte	0
 2833 0016 0B       		.uleb128 0xb
 2834 0017 0B       		.uleb128 0xb
 2835 0018 3E       		.uleb128 0x3e
 2836 0019 0B       		.uleb128 0xb
 2837 001a 03       		.uleb128 0x3
 2838 001b 0E       		.uleb128 0xe
 2839 001c 00       		.byte	0
 2840 001d 00       		.byte	0
 2841 001e 03       		.uleb128 0x3
 2842 001f 24       		.uleb128 0x24
 2843 0020 00       		.byte	0
 2844 0021 0B       		.uleb128 0xb
 2845 0022 0B       		.uleb128 0xb
 2846 0023 3E       		.uleb128 0x3e
 2847 0024 0B       		.uleb128 0xb
 2848 0025 03       		.uleb128 0x3
 2849 0026 08       		.uleb128 0x8
 2850 0027 00       		.byte	0
 2851 0028 00       		.byte	0
 2852 0029 04       		.uleb128 0x4
 2853 002a 16       		.uleb128 0x16
 2854 002b 00       		.byte	0
 2855 002c 03       		.uleb128 0x3
 2856 002d 0E       		.uleb128 0xe
 2857 002e 3A       		.uleb128 0x3a
 2858 002f 0B       		.uleb128 0xb
 2859 0030 3B       		.uleb128 0x3b
 2860 0031 05       		.uleb128 0x5
 2861 0032 49       		.uleb128 0x49
 2862 0033 13       		.uleb128 0x13
 2863 0034 00       		.byte	0
 2864 0035 00       		.byte	0
 2865 0036 05       		.uleb128 0x5
 2866 0037 35       		.uleb128 0x35
 2867 0038 00       		.byte	0
 2868 0039 49       		.uleb128 0x49
 2869 003a 13       		.uleb128 0x13
 2870 003b 00       		.byte	0
 2871 003c 00       		.byte	0
 2872 003d 06       		.uleb128 0x6
 2873 003e 0F       		.uleb128 0xf
 2874 003f 00       		.byte	0
 2875 0040 0B       		.uleb128 0xb
 2876 0041 0B       		.uleb128 0xb
 2877 0042 00       		.byte	0
 2878 0043 00       		.byte	0
 2879 0044 07       		.uleb128 0x7
 2880 0045 04       		.uleb128 0x4
 2881 0046 01       		.byte	0x1
 2882 0047 0B       		.uleb128 0xb
 2883 0048 0B       		.uleb128 0xb
 2884 0049 3A       		.uleb128 0x3a
 2885 004a 0B       		.uleb128 0xb
 2886 004b 3B       		.uleb128 0x3b
 2887 004c 05       		.uleb128 0x5
 2888 004d 01       		.uleb128 0x1
ARM GAS  C:\Users\mohammed\AppData\Local\Temp\ccG2gzoD.s 			page 88


 2889 004e 13       		.uleb128 0x13
 2890 004f 00       		.byte	0
 2891 0050 00       		.byte	0
 2892 0051 08       		.uleb128 0x8
 2893 0052 28       		.uleb128 0x28
 2894 0053 00       		.byte	0
 2895 0054 03       		.uleb128 0x3
 2896 0055 0E       		.uleb128 0xe
 2897 0056 1C       		.uleb128 0x1c
 2898 0057 0D       		.uleb128 0xd
 2899 0058 00       		.byte	0
 2900 0059 00       		.byte	0
 2901 005a 09       		.uleb128 0x9
 2902 005b 13       		.uleb128 0x13
 2903 005c 01       		.byte	0x1
 2904 005d 0B       		.uleb128 0xb
 2905 005e 0B       		.uleb128 0xb
 2906 005f 3A       		.uleb128 0x3a
 2907 0060 0B       		.uleb128 0xb
 2908 0061 3B       		.uleb128 0x3b
 2909 0062 05       		.uleb128 0x5
 2910 0063 01       		.uleb128 0x1
 2911 0064 13       		.uleb128 0x13
 2912 0065 00       		.byte	0
 2913 0066 00       		.byte	0
 2914 0067 0A       		.uleb128 0xa
 2915 0068 0D       		.uleb128 0xd
 2916 0069 00       		.byte	0
 2917 006a 03       		.uleb128 0x3
 2918 006b 0E       		.uleb128 0xe
 2919 006c 3A       		.uleb128 0x3a
 2920 006d 0B       		.uleb128 0xb
 2921 006e 3B       		.uleb128 0x3b
 2922 006f 05       		.uleb128 0x5
 2923 0070 49       		.uleb128 0x49
 2924 0071 13       		.uleb128 0x13
 2925 0072 38       		.uleb128 0x38
 2926 0073 0B       		.uleb128 0xb
 2927 0074 00       		.byte	0
 2928 0075 00       		.byte	0
 2929 0076 0B       		.uleb128 0xb
 2930 0077 01       		.uleb128 0x1
 2931 0078 01       		.byte	0x1
 2932 0079 49       		.uleb128 0x49
 2933 007a 13       		.uleb128 0x13
 2934 007b 01       		.uleb128 0x1
 2935 007c 13       		.uleb128 0x13
 2936 007d 00       		.byte	0
 2937 007e 00       		.byte	0
 2938 007f 0C       		.uleb128 0xc
 2939 0080 21       		.uleb128 0x21
 2940 0081 00       		.byte	0
 2941 0082 49       		.uleb128 0x49
 2942 0083 13       		.uleb128 0x13
 2943 0084 2F       		.uleb128 0x2f
 2944 0085 0B       		.uleb128 0xb
 2945 0086 00       		.byte	0
ARM GAS  C:\Users\mohammed\AppData\Local\Temp\ccG2gzoD.s 			page 89


 2946 0087 00       		.byte	0
 2947 0088 0D       		.uleb128 0xd
 2948 0089 04       		.uleb128 0x4
 2949 008a 01       		.byte	0x1
 2950 008b 0B       		.uleb128 0xb
 2951 008c 0B       		.uleb128 0xb
 2952 008d 3A       		.uleb128 0x3a
 2953 008e 0B       		.uleb128 0xb
 2954 008f 3B       		.uleb128 0x3b
 2955 0090 0B       		.uleb128 0xb
 2956 0091 01       		.uleb128 0x1
 2957 0092 13       		.uleb128 0x13
 2958 0093 00       		.byte	0
 2959 0094 00       		.byte	0
 2960 0095 0E       		.uleb128 0xe
 2961 0096 16       		.uleb128 0x16
 2962 0097 00       		.byte	0
 2963 0098 03       		.uleb128 0x3
 2964 0099 0E       		.uleb128 0xe
 2965 009a 3A       		.uleb128 0x3a
 2966 009b 0B       		.uleb128 0xb
 2967 009c 3B       		.uleb128 0x3b
 2968 009d 0B       		.uleb128 0xb
 2969 009e 49       		.uleb128 0x49
 2970 009f 13       		.uleb128 0x13
 2971 00a0 00       		.byte	0
 2972 00a1 00       		.byte	0
 2973 00a2 0F       		.uleb128 0xf
 2974 00a3 0F       		.uleb128 0xf
 2975 00a4 00       		.byte	0
 2976 00a5 0B       		.uleb128 0xb
 2977 00a6 0B       		.uleb128 0xb
 2978 00a7 49       		.uleb128 0x49
 2979 00a8 13       		.uleb128 0x13
 2980 00a9 00       		.byte	0
 2981 00aa 00       		.byte	0
 2982 00ab 10       		.uleb128 0x10
 2983 00ac 0D       		.uleb128 0xd
 2984 00ad 00       		.byte	0
 2985 00ae 03       		.uleb128 0x3
 2986 00af 08       		.uleb128 0x8
 2987 00b0 3A       		.uleb128 0x3a
 2988 00b1 0B       		.uleb128 0xb
 2989 00b2 3B       		.uleb128 0x3b
 2990 00b3 05       		.uleb128 0x5
 2991 00b4 49       		.uleb128 0x49
 2992 00b5 13       		.uleb128 0x13
 2993 00b6 38       		.uleb128 0x38
 2994 00b7 0B       		.uleb128 0xb
 2995 00b8 00       		.byte	0
 2996 00b9 00       		.byte	0
 2997 00ba 11       		.uleb128 0x11
 2998 00bb 13       		.uleb128 0x13
 2999 00bc 01       		.byte	0x1
 3000 00bd 0B       		.uleb128 0xb
 3001 00be 0B       		.uleb128 0xb
 3002 00bf 3A       		.uleb128 0x3a
ARM GAS  C:\Users\mohammed\AppData\Local\Temp\ccG2gzoD.s 			page 90


 3003 00c0 0B       		.uleb128 0xb
 3004 00c1 3B       		.uleb128 0x3b
 3005 00c2 0B       		.uleb128 0xb
 3006 00c3 01       		.uleb128 0x1
 3007 00c4 13       		.uleb128 0x13
 3008 00c5 00       		.byte	0
 3009 00c6 00       		.byte	0
 3010 00c7 12       		.uleb128 0x12
 3011 00c8 0D       		.uleb128 0xd
 3012 00c9 00       		.byte	0
 3013 00ca 03       		.uleb128 0x3
 3014 00cb 0E       		.uleb128 0xe
 3015 00cc 3A       		.uleb128 0x3a
 3016 00cd 0B       		.uleb128 0xb
 3017 00ce 3B       		.uleb128 0x3b
 3018 00cf 0B       		.uleb128 0xb
 3019 00d0 49       		.uleb128 0x49
 3020 00d1 13       		.uleb128 0x13
 3021 00d2 38       		.uleb128 0x38
 3022 00d3 0B       		.uleb128 0xb
 3023 00d4 00       		.byte	0
 3024 00d5 00       		.byte	0
 3025 00d6 13       		.uleb128 0x13
 3026 00d7 15       		.uleb128 0x15
 3027 00d8 01       		.byte	0x1
 3028 00d9 27       		.uleb128 0x27
 3029 00da 19       		.uleb128 0x19
 3030 00db 01       		.uleb128 0x1
 3031 00dc 13       		.uleb128 0x13
 3032 00dd 00       		.byte	0
 3033 00de 00       		.byte	0
 3034 00df 14       		.uleb128 0x14
 3035 00e0 05       		.uleb128 0x5
 3036 00e1 00       		.byte	0
 3037 00e2 49       		.uleb128 0x49
 3038 00e3 13       		.uleb128 0x13
 3039 00e4 00       		.byte	0
 3040 00e5 00       		.byte	0
 3041 00e6 15       		.uleb128 0x15
 3042 00e7 2E       		.uleb128 0x2e
 3043 00e8 01       		.byte	0x1
 3044 00e9 03       		.uleb128 0x3
 3045 00ea 0E       		.uleb128 0xe
 3046 00eb 3A       		.uleb128 0x3a
 3047 00ec 0B       		.uleb128 0xb
 3048 00ed 3B       		.uleb128 0x3b
 3049 00ee 0B       		.uleb128 0xb
 3050 00ef 27       		.uleb128 0x27
 3051 00f0 19       		.uleb128 0x19
 3052 00f1 11       		.uleb128 0x11
 3053 00f2 01       		.uleb128 0x1
 3054 00f3 12       		.uleb128 0x12
 3055 00f4 06       		.uleb128 0x6
 3056 00f5 40       		.uleb128 0x40
 3057 00f6 18       		.uleb128 0x18
 3058 00f7 9642     		.uleb128 0x2116
 3059 00f9 19       		.uleb128 0x19
ARM GAS  C:\Users\mohammed\AppData\Local\Temp\ccG2gzoD.s 			page 91


 3060 00fa 01       		.uleb128 0x1
 3061 00fb 13       		.uleb128 0x13
 3062 00fc 00       		.byte	0
 3063 00fd 00       		.byte	0
 3064 00fe 16       		.uleb128 0x16
 3065 00ff 05       		.uleb128 0x5
 3066 0100 00       		.byte	0
 3067 0101 03       		.uleb128 0x3
 3068 0102 0E       		.uleb128 0xe
 3069 0103 3A       		.uleb128 0x3a
 3070 0104 0B       		.uleb128 0xb
 3071 0105 3B       		.uleb128 0x3b
 3072 0106 0B       		.uleb128 0xb
 3073 0107 49       		.uleb128 0x49
 3074 0108 13       		.uleb128 0x13
 3075 0109 02       		.uleb128 0x2
 3076 010a 18       		.uleb128 0x18
 3077 010b 00       		.byte	0
 3078 010c 00       		.byte	0
 3079 010d 17       		.uleb128 0x17
 3080 010e 34       		.uleb128 0x34
 3081 010f 00       		.byte	0
 3082 0110 03       		.uleb128 0x3
 3083 0111 0E       		.uleb128 0xe
 3084 0112 3A       		.uleb128 0x3a
 3085 0113 0B       		.uleb128 0xb
 3086 0114 3B       		.uleb128 0x3b
 3087 0115 0B       		.uleb128 0xb
 3088 0116 49       		.uleb128 0x49
 3089 0117 13       		.uleb128 0x13
 3090 0118 02       		.uleb128 0x2
 3091 0119 18       		.uleb128 0x18
 3092 011a 00       		.byte	0
 3093 011b 00       		.byte	0
 3094 011c 18       		.uleb128 0x18
 3095 011d 0B       		.uleb128 0xb
 3096 011e 01       		.byte	0x1
 3097 011f 11       		.uleb128 0x11
 3098 0120 01       		.uleb128 0x1
 3099 0121 12       		.uleb128 0x12
 3100 0122 06       		.uleb128 0x6
 3101 0123 00       		.byte	0
 3102 0124 00       		.byte	0
 3103 0125 19       		.uleb128 0x19
 3104 0126 34       		.uleb128 0x34
 3105 0127 00       		.byte	0
 3106 0128 03       		.uleb128 0x3
 3107 0129 0E       		.uleb128 0xe
 3108 012a 3A       		.uleb128 0x3a
 3109 012b 0B       		.uleb128 0xb
 3110 012c 3B       		.uleb128 0x3b
 3111 012d 05       		.uleb128 0x5
 3112 012e 49       		.uleb128 0x49
 3113 012f 13       		.uleb128 0x13
 3114 0130 02       		.uleb128 0x2
 3115 0131 18       		.uleb128 0x18
 3116 0132 00       		.byte	0
ARM GAS  C:\Users\mohammed\AppData\Local\Temp\ccG2gzoD.s 			page 92


 3117 0133 00       		.byte	0
 3118 0134 1A       		.uleb128 0x1a
 3119 0135 2E       		.uleb128 0x2e
 3120 0136 01       		.byte	0x1
 3121 0137 03       		.uleb128 0x3
 3122 0138 0E       		.uleb128 0xe
 3123 0139 3A       		.uleb128 0x3a
 3124 013a 0B       		.uleb128 0xb
 3125 013b 3B       		.uleb128 0x3b
 3126 013c 05       		.uleb128 0x5
 3127 013d 27       		.uleb128 0x27
 3128 013e 19       		.uleb128 0x19
 3129 013f 11       		.uleb128 0x11
 3130 0140 01       		.uleb128 0x1
 3131 0141 12       		.uleb128 0x12
 3132 0142 06       		.uleb128 0x6
 3133 0143 40       		.uleb128 0x40
 3134 0144 18       		.uleb128 0x18
 3135 0145 9642     		.uleb128 0x2116
 3136 0147 19       		.uleb128 0x19
 3137 0148 01       		.uleb128 0x1
 3138 0149 13       		.uleb128 0x13
 3139 014a 00       		.byte	0
 3140 014b 00       		.byte	0
 3141 014c 1B       		.uleb128 0x1b
 3142 014d 05       		.uleb128 0x5
 3143 014e 00       		.byte	0
 3144 014f 03       		.uleb128 0x3
 3145 0150 0E       		.uleb128 0xe
 3146 0151 3A       		.uleb128 0x3a
 3147 0152 0B       		.uleb128 0xb
 3148 0153 3B       		.uleb128 0x3b
 3149 0154 05       		.uleb128 0x5
 3150 0155 49       		.uleb128 0x49
 3151 0156 13       		.uleb128 0x13
 3152 0157 02       		.uleb128 0x2
 3153 0158 18       		.uleb128 0x18
 3154 0159 00       		.byte	0
 3155 015a 00       		.byte	0
 3156 015b 1C       		.uleb128 0x1c
 3157 015c 26       		.uleb128 0x26
 3158 015d 00       		.byte	0
 3159 015e 49       		.uleb128 0x49
 3160 015f 13       		.uleb128 0x13
 3161 0160 00       		.byte	0
 3162 0161 00       		.byte	0
 3163 0162 1D       		.uleb128 0x1d
 3164 0163 2E       		.uleb128 0x2e
 3165 0164 00       		.byte	0
 3166 0165 03       		.uleb128 0x3
 3167 0166 0E       		.uleb128 0xe
 3168 0167 3A       		.uleb128 0x3a
 3169 0168 0B       		.uleb128 0xb
 3170 0169 3B       		.uleb128 0x3b
 3171 016a 05       		.uleb128 0x5
 3172 016b 27       		.uleb128 0x27
 3173 016c 19       		.uleb128 0x19
ARM GAS  C:\Users\mohammed\AppData\Local\Temp\ccG2gzoD.s 			page 93


 3174 016d 11       		.uleb128 0x11
 3175 016e 01       		.uleb128 0x1
 3176 016f 12       		.uleb128 0x12
 3177 0170 06       		.uleb128 0x6
 3178 0171 40       		.uleb128 0x40
 3179 0172 18       		.uleb128 0x18
 3180 0173 9642     		.uleb128 0x2116
 3181 0175 19       		.uleb128 0x19
 3182 0176 00       		.byte	0
 3183 0177 00       		.byte	0
 3184 0178 1E       		.uleb128 0x1e
 3185 0179 2E       		.uleb128 0x2e
 3186 017a 01       		.byte	0x1
 3187 017b 03       		.uleb128 0x3
 3188 017c 0E       		.uleb128 0xe
 3189 017d 3A       		.uleb128 0x3a
 3190 017e 0B       		.uleb128 0xb
 3191 017f 3B       		.uleb128 0x3b
 3192 0180 05       		.uleb128 0x5
 3193 0181 27       		.uleb128 0x27
 3194 0182 19       		.uleb128 0x19
 3195 0183 11       		.uleb128 0x11
 3196 0184 01       		.uleb128 0x1
 3197 0185 12       		.uleb128 0x12
 3198 0186 06       		.uleb128 0x6
 3199 0187 40       		.uleb128 0x40
 3200 0188 18       		.uleb128 0x18
 3201 0189 9742     		.uleb128 0x2117
 3202 018b 19       		.uleb128 0x19
 3203 018c 01       		.uleb128 0x1
 3204 018d 13       		.uleb128 0x13
 3205 018e 00       		.byte	0
 3206 018f 00       		.byte	0
 3207 0190 1F       		.uleb128 0x1f
 3208 0191 2E       		.uleb128 0x2e
 3209 0192 01       		.byte	0x1
 3210 0193 3F       		.uleb128 0x3f
 3211 0194 19       		.uleb128 0x19
 3212 0195 03       		.uleb128 0x3
 3213 0196 0E       		.uleb128 0xe
 3214 0197 3A       		.uleb128 0x3a
 3215 0198 0B       		.uleb128 0xb
 3216 0199 3B       		.uleb128 0x3b
 3217 019a 05       		.uleb128 0x5
 3218 019b 27       		.uleb128 0x27
 3219 019c 19       		.uleb128 0x19
 3220 019d 49       		.uleb128 0x49
 3221 019e 13       		.uleb128 0x13
 3222 019f 11       		.uleb128 0x11
 3223 01a0 01       		.uleb128 0x1
 3224 01a1 12       		.uleb128 0x12
 3225 01a2 06       		.uleb128 0x6
 3226 01a3 40       		.uleb128 0x40
 3227 01a4 18       		.uleb128 0x18
 3228 01a5 9742     		.uleb128 0x2117
 3229 01a7 19       		.uleb128 0x19
 3230 01a8 01       		.uleb128 0x1
ARM GAS  C:\Users\mohammed\AppData\Local\Temp\ccG2gzoD.s 			page 94


 3231 01a9 13       		.uleb128 0x13
 3232 01aa 00       		.byte	0
 3233 01ab 00       		.byte	0
 3234 01ac 20       		.uleb128 0x20
 3235 01ad 34       		.uleb128 0x34
 3236 01ae 00       		.byte	0
 3237 01af 03       		.uleb128 0x3
 3238 01b0 08       		.uleb128 0x8
 3239 01b1 3A       		.uleb128 0x3a
 3240 01b2 0B       		.uleb128 0xb
 3241 01b3 3B       		.uleb128 0x3b
 3242 01b4 05       		.uleb128 0x5
 3243 01b5 49       		.uleb128 0x49
 3244 01b6 13       		.uleb128 0x13
 3245 01b7 02       		.uleb128 0x2
 3246 01b8 18       		.uleb128 0x18
 3247 01b9 00       		.byte	0
 3248 01ba 00       		.byte	0
 3249 01bb 21       		.uleb128 0x21
 3250 01bc 2E       		.uleb128 0x2e
 3251 01bd 01       		.byte	0x1
 3252 01be 3F       		.uleb128 0x3f
 3253 01bf 19       		.uleb128 0x19
 3254 01c0 03       		.uleb128 0x3
 3255 01c1 0E       		.uleb128 0xe
 3256 01c2 3A       		.uleb128 0x3a
 3257 01c3 0B       		.uleb128 0xb
 3258 01c4 3B       		.uleb128 0x3b
 3259 01c5 05       		.uleb128 0x5
 3260 01c6 27       		.uleb128 0x27
 3261 01c7 19       		.uleb128 0x19
 3262 01c8 11       		.uleb128 0x11
 3263 01c9 01       		.uleb128 0x1
 3264 01ca 12       		.uleb128 0x12
 3265 01cb 06       		.uleb128 0x6
 3266 01cc 40       		.uleb128 0x40
 3267 01cd 18       		.uleb128 0x18
 3268 01ce 9642     		.uleb128 0x2116
 3269 01d0 19       		.uleb128 0x19
 3270 01d1 01       		.uleb128 0x1
 3271 01d2 13       		.uleb128 0x13
 3272 01d3 00       		.byte	0
 3273 01d4 00       		.byte	0
 3274 01d5 22       		.uleb128 0x22
 3275 01d6 0B       		.uleb128 0xb
 3276 01d7 01       		.byte	0x1
 3277 01d8 11       		.uleb128 0x11
 3278 01d9 01       		.uleb128 0x1
 3279 01da 12       		.uleb128 0x12
 3280 01db 06       		.uleb128 0x6
 3281 01dc 01       		.uleb128 0x1
 3282 01dd 13       		.uleb128 0x13
 3283 01de 00       		.byte	0
 3284 01df 00       		.byte	0
 3285 01e0 23       		.uleb128 0x23
 3286 01e1 34       		.uleb128 0x34
 3287 01e2 00       		.byte	0
ARM GAS  C:\Users\mohammed\AppData\Local\Temp\ccG2gzoD.s 			page 95


 3288 01e3 03       		.uleb128 0x3
 3289 01e4 0E       		.uleb128 0xe
 3290 01e5 3A       		.uleb128 0x3a
 3291 01e6 0B       		.uleb128 0xb
 3292 01e7 3B       		.uleb128 0x3b
 3293 01e8 05       		.uleb128 0x5
 3294 01e9 49       		.uleb128 0x49
 3295 01ea 13       		.uleb128 0x13
 3296 01eb 3F       		.uleb128 0x3f
 3297 01ec 19       		.uleb128 0x19
 3298 01ed 3C       		.uleb128 0x3c
 3299 01ee 19       		.uleb128 0x19
 3300 01ef 00       		.byte	0
 3301 01f0 00       		.byte	0
 3302 01f1 24       		.uleb128 0x24
 3303 01f2 21       		.uleb128 0x21
 3304 01f3 00       		.byte	0
 3305 01f4 49       		.uleb128 0x49
 3306 01f5 13       		.uleb128 0x13
 3307 01f6 2F       		.uleb128 0x2f
 3308 01f7 05       		.uleb128 0x5
 3309 01f8 00       		.byte	0
 3310 01f9 00       		.byte	0
 3311 01fa 25       		.uleb128 0x25
 3312 01fb 34       		.uleb128 0x34
 3313 01fc 00       		.byte	0
 3314 01fd 03       		.uleb128 0x3
 3315 01fe 0E       		.uleb128 0xe
 3316 01ff 3A       		.uleb128 0x3a
 3317 0200 0B       		.uleb128 0xb
 3318 0201 3B       		.uleb128 0x3b
 3319 0202 0B       		.uleb128 0xb
 3320 0203 49       		.uleb128 0x49
 3321 0204 13       		.uleb128 0x13
 3322 0205 3F       		.uleb128 0x3f
 3323 0206 19       		.uleb128 0x19
 3324 0207 02       		.uleb128 0x2
 3325 0208 18       		.uleb128 0x18
 3326 0209 00       		.byte	0
 3327 020a 00       		.byte	0
 3328 020b 00       		.byte	0
 3329              		.section	.debug_aranges,"",%progbits
 3330 0000 5C000000 		.4byte	0x5c
 3331 0004 0200     		.2byte	0x2
 3332 0006 00000000 		.4byte	.Ldebug_info0
 3333 000a 04       		.byte	0x4
 3334 000b 00       		.byte	0
 3335 000c 0000     		.2byte	0
 3336 000e 0000     		.2byte	0
 3337 0010 00000000 		.4byte	.LFB2
 3338 0014 E8000000 		.4byte	.LFE2-.LFB2
 3339 0018 00000000 		.4byte	.LFB3
 3340 001c 30000000 		.4byte	.LFE3-.LFB3
 3341 0020 00000000 		.4byte	.LFB4
 3342 0024 1C000000 		.4byte	.LFE4-.LFB4
 3343 0028 00000000 		.4byte	.LFB5
 3344 002c 0E000000 		.4byte	.LFE5-.LFB5
ARM GAS  C:\Users\mohammed\AppData\Local\Temp\ccG2gzoD.s 			page 96


 3345 0030 00000000 		.4byte	.LFB6
 3346 0034 0C000000 		.4byte	.LFE6-.LFB6
 3347 0038 00000000 		.4byte	.LFB7
 3348 003c 60000000 		.4byte	.LFE7-.LFB7
 3349 0040 00000000 		.4byte	.LFB8
 3350 0044 12000000 		.4byte	.LFE8-.LFB8
 3351 0048 00000000 		.4byte	.LFB9
 3352 004c 0E000000 		.4byte	.LFE9-.LFB9
 3353 0050 00000000 		.4byte	.LFB10
 3354 0054 14030000 		.4byte	.LFE10-.LFB10
 3355 0058 00000000 		.4byte	0
 3356 005c 00000000 		.4byte	0
 3357              		.section	.debug_ranges,"",%progbits
 3358              	.Ldebug_ranges0:
 3359 0000 00000000 		.4byte	.LFB2
 3360 0004 E8000000 		.4byte	.LFE2
 3361 0008 00000000 		.4byte	.LFB3
 3362 000c 30000000 		.4byte	.LFE3
 3363 0010 00000000 		.4byte	.LFB4
 3364 0014 1C000000 		.4byte	.LFE4
 3365 0018 00000000 		.4byte	.LFB5
 3366 001c 0E000000 		.4byte	.LFE5
 3367 0020 00000000 		.4byte	.LFB6
 3368 0024 0C000000 		.4byte	.LFE6
 3369 0028 00000000 		.4byte	.LFB7
 3370 002c 60000000 		.4byte	.LFE7
 3371 0030 00000000 		.4byte	.LFB8
 3372 0034 12000000 		.4byte	.LFE8
 3373 0038 00000000 		.4byte	.LFB9
 3374 003c 0E000000 		.4byte	.LFE9
 3375 0040 00000000 		.4byte	.LFB10
 3376 0044 14030000 		.4byte	.LFE10
 3377 0048 00000000 		.4byte	0
 3378 004c 00000000 		.4byte	0
 3379              		.section	.debug_line,"",%progbits
 3380              	.Ldebug_line0:
 3381 0000 5E020000 		.section	.debug_str,"MS",%progbits,1
 3381      0200F100 
 3381      00000201 
 3381      FB0E0D00 
 3381      01010101 
 3382              	.LASF209:
 3383 0000 4359424C 		.ascii	"CYBLE_GATT_ERR_INVALID_CRC\000"
 3383      455F4741 
 3383      54545F45 
 3383      52525F49 
 3383      4E56414C 
 3384              	.LASF267:
 3385 001b 4359424C 		.ascii	"CYBLE_UDS_STP\000"
 3385      455F5544 
 3385      535F5354 
 3385      5000
 3386              	.LASF15:
 3387 0029 73697A65 		.ascii	"sizetype\000"
 3387      74797065 
 3387      00
 3388              	.LASF144:
ARM GAS  C:\Users\mohammed\AppData\Local\Temp\ccG2gzoD.s 			page 97


 3389 0032 656B6579 		.ascii	"ekeySize\000"
 3389      53697A65 
 3389      00
 3390              	.LASF179:
 3391 003b 4359424C 		.ascii	"CYBLE_GATT_HANDLE_VALUE_CNF\000"
 3391      455F4741 
 3391      54545F48 
 3391      414E444C 
 3391      455F5641 
 3392              	.LASF36:
 3393 0057 4359424C 		.ascii	"CYBLE_EVT_GAP_NUMERIC_COMPARISON_REQUEST\000"
 3393      455F4556 
 3393      545F4741 
 3393      505F4E55 
 3393      4D455249 
 3394              	.LASF245:
 3395 0080 4359424C 		.ascii	"CYBLE_GATTS_PREP_WRITE_REQ_PARAM_T\000"
 3395      455F4741 
 3395      5454535F 
 3395      50524550 
 3395      5F575249 
 3396              	.LASF295:
 3397 00a3 4379426C 		.ascii	"CyBle_WriteReqHandler\000"
 3397      655F5772 
 3397      69746552 
 3397      65714861 
 3397      6E646C65 
 3398              	.LASF102:
 3399 00b9 72657175 		.ascii	"request\000"
 3399      65737400 
 3400              	.LASF297:
 3401 00c1 6576656E 		.ascii	"eventParam\000"
 3401      74506172 
 3401      616D00
 3402              	.LASF30:
 3403 00cc 4359424C 		.ascii	"CYBLE_EVT_GAP_DEVICE_CONNECTED\000"
 3403      455F4556 
 3403      545F4741 
 3403      505F4445 
 3403      56494345 
 3404              	.LASF122:
 3405 00eb 4359424C 		.ascii	"CYBLE_GAP_IOCAP_NOINPUT_NOOUTPUT\000"
 3405      455F4741 
 3405      505F494F 
 3405      4341505F 
 3405      4E4F494E 
 3406              	.LASF44:
 3407 010c 4359424C 		.ascii	"CYBLE_EVT_GATT_CONNECT_IND\000"
 3407      455F4556 
 3407      545F4741 
 3407      54545F43 
 3407      4F4E4E45 
 3408              	.LASF172:
 3409 0127 4359424C 		.ascii	"CYBLE_GATT_WRITE_CMD\000"
 3409      455F4741 
 3409      54545F57 
 3409      52495445 
ARM GAS  C:\Users\mohammed\AppData\Local\Temp\ccG2gzoD.s 			page 98


 3409      5F434D44 
 3410              	.LASF11:
 3411 013c 75696E74 		.ascii	"uint32\000"
 3411      333200
 3412              	.LASF96:
 3413 0143 626C6550 		.ascii	"blePwrLevelInDbm\000"
 3413      77724C65 
 3413      76656C49 
 3413      6E44626D 
 3413      00
 3414              	.LASF277:
 3415 0154 4359424C 		.ascii	"CYBLE_UDS_5ZL\000"
 3415      455F5544 
 3415      535F355A 
 3415      4C00
 3416              	.LASF184:
 3417 0162 4359424C 		.ascii	"CYBLE_GATT_ERR_READ_NOT_PERMITTED\000"
 3417      455F4741 
 3417      54545F45 
 3417      52525F52 
 3417      4541445F 
 3418              	.LASF199:
 3419 0184 4359424C 		.ascii	"CYBLE_GATT_ERR_INSUFFICIENT_RESOURCE\000"
 3419      455F4741 
 3419      54545F45 
 3419      52525F49 
 3419      4E535546 
 3420              	.LASF173:
 3421 01a9 4359424C 		.ascii	"CYBLE_GATT_PREPARE_WRITE_REQ\000"
 3421      455F4741 
 3421      54545F50 
 3421      52455041 
 3421      52455F57 
 3422              	.LASF198:
 3423 01c6 4359424C 		.ascii	"CYBLE_GATT_ERR_UNSUPPORTED_GROUP_TYPE\000"
 3423      455F4741 
 3423      54545F45 
 3423      52525F55 
 3423      4E535550 
 3424              	.LASF312:
 3425 01ec 4379426C 		.ascii	"CyBle_ApplCallback\000"
 3425      655F4170 
 3425      706C4361 
 3425      6C6C6261 
 3425      636B00
 3426              	.LASF64:
 3427 01ff 4359424C 		.ascii	"CYBLE_EVT_GATTS_DATA_SIGNED_CMD_REQ\000"
 3427      455F4556 
 3427      545F4741 
 3427      5454535F 
 3427      44415441 
 3428              	.LASF76:
 3429 0223 4359424C 		.ascii	"CYBLE_EVT_L2CAP_CBFC_RX_CREDIT_IND\000"
 3429      455F4556 
 3429      545F4C32 
 3429      4341505F 
 3429      43424643 
ARM GAS  C:\Users\mohammed\AppData\Local\Temp\ccG2gzoD.s 			page 99


 3430              	.LASF226:
 3431 0246 4359424C 		.ascii	"CYBLE_GATT_VALUE_T\000"
 3431      455F4741 
 3431      54545F56 
 3431      414C5545 
 3431      5F5400
 3432              	.LASF309:
 3433 0259 6D656D52 		.ascii	"memReq\000"
 3433      657100
 3434              	.LASF167:
 3435 0260 4359424C 		.ascii	"CYBLE_GATT_READ_MULTIPLE_RSP\000"
 3435      455F4741 
 3435      54545F52 
 3435      4541445F 
 3435      4D554C54 
 3436              	.LASF107:
 3437 027d 74797065 		.ascii	"type\000"
 3437      00
 3438              	.LASF113:
 3439 0282 4359424C 		.ascii	"CYBLE_TO_REASON_CODE_T\000"
 3439      455F544F 
 3439      5F524541 
 3439      534F4E5F 
 3439      434F4445 
 3440              	.LASF139:
 3441 0299 4359424C 		.ascii	"CYBLE_GAP_AUTH_ERROR_AUTHENTICATION_TIMEOUT\000"
 3441      455F4741 
 3441      505F4155 
 3441      54485F45 
 3441      52524F52 
 3442              	.LASF132:
 3443 02c5 4359424C 		.ascii	"CYBLE_GAP_AUTH_ERROR_UNSPECIFIED_REASON\000"
 3443      455F4741 
 3443      505F4155 
 3443      54485F45 
 3443      52524F52 
 3444              	.LASF161:
 3445 02ed 4359424C 		.ascii	"CYBLE_GATT_READ_BY_TYPE_RSP\000"
 3445      455F4741 
 3445      54545F52 
 3445      4541445F 
 3445      42595F54 
 3446              	.LASF252:
 3447 0309 4359424C 		.ascii	"CYBLE_CALLBACK_T\000"
 3447      455F4341 
 3447      4C4C4241 
 3447      434B5F54 
 3447      00
 3448              	.LASF61:
 3449 031a 4359424C 		.ascii	"CYBLE_EVT_GATTC_HANDLE_VALUE_NTF\000"
 3449      455F4556 
 3449      545F4741 
 3449      5454435F 
 3449      48414E44 
 3450              	.LASF24:
 3451 033b 4359424C 		.ascii	"CYBLE_EVT_GAP_AUTH_REQ\000"
 3451      455F4556 
ARM GAS  C:\Users\mohammed\AppData\Local\Temp\ccG2gzoD.s 			page 100


 3451      545F4741 
 3451      505F4155 
 3451      54485F52 
 3452              	.LASF224:
 3453 0352 4359424C 		.ascii	"CYBLE_CONN_HANDLE_T\000"
 3453      455F434F 
 3453      4E4E5F48 
 3453      414E444C 
 3453      455F5400 
 3454              	.LASF159:
 3455 0366 4359424C 		.ascii	"CYBLE_GATT_FIND_BY_TYPE_VALUE_RSP\000"
 3455      455F4741 
 3455      54545F46 
 3455      494E445F 
 3455      42595F54 
 3456              	.LASF119:
 3457 0388 4359424C 		.ascii	"CYBLE_GAP_IOCAP_DISPLAY_ONLY\000"
 3457      455F4741 
 3457      505F494F 
 3457      4341505F 
 3457      44495350 
 3458              	.LASF85:
 3459 03a5 4359424C 		.ascii	"CYBLE_LL_PWR_LVL_NEG_3_DBM\000"
 3459      455F4C4C 
 3459      5F505752 
 3459      5F4C564C 
 3459      5F4E4547 
 3460              	.LASF302:
 3461 03c0 61646472 		.ascii	"addressValid\000"
 3461      65737356 
 3461      616C6964 
 3461      00
 3462              	.LASF290:
 3463 03cd 4359424C 		.ascii	"CYBLE_STATE_ADVERTISING\000"
 3463      455F5354 
 3463      4154455F 
 3463      41445645 
 3463      52544953 
 3464              	.LASF38:
 3465 03e5 4359424C 		.ascii	"CYBLE_EVT_GAP_OOB_GENERATED_NOTIFICATION\000"
 3465      455F4556 
 3465      545F4741 
 3465      505F4F4F 
 3465      425F4745 
 3466              	.LASF222:
 3467 040e 62644861 		.ascii	"bdHandle\000"
 3467      6E646C65 
 3467      00
 3468              	.LASF211:
 3469 0417 4359424C 		.ascii	"CYBLE_GATTS_ERR_NETWORK_NOT_AVAILABLE\000"
 3469      455F4741 
 3469      5454535F 
 3469      4552525F 
 3469      4E455457 
 3470              	.LASF247:
 3471 043d 65786563 		.ascii	"execWriteFlag\000"
 3471      57726974 
ARM GAS  C:\Users\mohammed\AppData\Local\Temp\ccG2gzoD.s 			page 101


 3471      65466C61 
 3471      6700
 3472              	.LASF125:
 3473 044b 4359424C 		.ascii	"CYBLE_GAP_AUTH_ERROR_PASSKEY_ENTRY_FAILED\000"
 3473      455F4741 
 3473      505F4155 
 3473      54485F45 
 3473      52524F52 
 3474              	.LASF214:
 3475 0475 4359424C 		.ascii	"CYBLE_GATT_ERR_ANCS_INVALID_COMMAND\000"
 3475      455F4741 
 3475      54545F45 
 3475      52525F41 
 3475      4E43535F 
 3476              	.LASF83:
 3477 0499 4359424C 		.ascii	"CYBLE_LL_PWR_LVL_NEG_12_DBM\000"
 3477      455F4C4C 
 3477      5F505752 
 3477      5F4C564C 
 3477      5F4E4547 
 3478              	.LASF155:
 3479 04b5 4359424C 		.ascii	"CYBLE_GATT_XCHNG_MTU_RSP\000"
 3479      455F4741 
 3479      54545F58 
 3479      43484E47 
 3479      5F4D5455 
 3480              	.LASF57:
 3481 04ce 4359424C 		.ascii	"CYBLE_EVT_GATTS_WRITE_CMD_REQ\000"
 3481      455F4556 
 3481      545F4741 
 3481      5454535F 
 3481      57524954 
 3482              	.LASF276:
 3483 04ec 4359424C 		.ascii	"CYBLE_UDS_ANU\000"
 3483      455F5544 
 3483      535F414E 
 3483      5500
 3484              	.LASF4:
 3485 04fa 6C6F6E67 		.ascii	"long int\000"
 3485      20696E74 
 3485      00
 3486              	.LASF114:
 3487 0503 4359424C 		.ascii	"CYBLE_GAP_SEC_LEVEL_1\000"
 3487      455F4741 
 3487      505F5345 
 3487      435F4C45 
 3487      56454C5F 
 3488              	.LASF115:
 3489 0519 4359424C 		.ascii	"CYBLE_GAP_SEC_LEVEL_2\000"
 3489      455F4741 
 3489      505F5345 
 3489      435F4C45 
 3489      56454C5F 
 3490              	.LASF116:
 3491 052f 4359424C 		.ascii	"CYBLE_GAP_SEC_LEVEL_3\000"
 3491      455F4741 
 3491      505F5345 
ARM GAS  C:\Users\mohammed\AppData\Local\Temp\ccG2gzoD.s 			page 102


 3491      435F4C45 
 3491      56454C5F 
 3492              	.LASF117:
 3493 0545 4359424C 		.ascii	"CYBLE_GAP_SEC_LEVEL_4\000"
 3493      455F4741 
 3493      505F5345 
 3493      435F4C45 
 3493      56454C5F 
 3494              	.LASF17:
 3495 055b 4359424C 		.ascii	"CYBLE_EVT_STACK_ON\000"
 3495      455F4556 
 3495      545F5354 
 3495      41434B5F 
 3495      4F4E00
 3496              	.LASF315:
 3497 056e 6379426C 		.ascii	"cyBle_deviceAddress\000"
 3497      655F6465 
 3497      76696365 
 3497      41646472 
 3497      65737300 
 3498              	.LASF186:
 3499 0582 4359424C 		.ascii	"CYBLE_GATT_ERR_INVALID_PDU\000"
 3499      455F4741 
 3499      54545F45 
 3499      52525F49 
 3499      4E56414C 
 3500              	.LASF128:
 3501 059d 4359424C 		.ascii	"CYBLE_GAP_AUTH_ERROR_CONFIRM_VALUE_NOT_MATCH\000"
 3501      455F4741 
 3501      505F4155 
 3501      54485F45 
 3501      52524F52 
 3502              	.LASF275:
 3503 05ca 4359424C 		.ascii	"CYBLE_UDS_ANL\000"
 3503      455F5544 
 3503      535F414E 
 3503      4C00
 3504              	.LASF229:
 3505 05d8 4359424C 		.ascii	"CYBLE_GATT_HANDLE_VALUE_PAIR_T\000"
 3505      455F4741 
 3505      54545F48 
 3505      414E444C 
 3505      455F5641 
 3506              	.LASF266:
 3507 05f7 4359424C 		.ascii	"CYBLE_UDS_ANT\000"
 3507      455F5544 
 3507      535F414E 
 3507      5400
 3508              	.LASF97:
 3509 0605 626C6553 		.ascii	"bleSsChId\000"
 3509      73436849 
 3509      6400
 3510              	.LASF253:
 3511 060f 4359424C 		.ascii	"CYBLE_UDS_FNM\000"
 3511      455F5544 
 3511      535F464E 
 3511      4D00
ARM GAS  C:\Users\mohammed\AppData\Local\Temp\ccG2gzoD.s 			page 103


 3512              	.LASF195:
 3513 061d 4359424C 		.ascii	"CYBLE_GATT_ERR_INVALID_ATTRIBUTE_LEN\000"
 3513      455F4741 
 3513      54545F45 
 3513      52525F49 
 3513      4E56414C 
 3514              	.LASF70:
 3515 0642 4359424C 		.ascii	"CYBLE_EVT_L2CAP_COMMAND_REJ\000"
 3515      455F4556 
 3515      545F4C32 
 3515      4341505F 
 3515      434F4D4D 
 3516              	.LASF165:
 3517 065e 4359424C 		.ascii	"CYBLE_GATT_READ_BLOB_RSP\000"
 3517      455F4741 
 3517      54545F52 
 3517      4541445F 
 3517      424C4F42 
 3518              	.LASF324:
 3519 0677 443A5C49 		.ascii	"D:\\IoT\\ProximityEvents\\Cypress PSoC\\BLE_Proximi"
 3519      6F545C50 
 3519      726F7869 
 3519      6D697479 
 3519      4576656E 
 3520 06a6 74793032 		.ascii	"ty02\\BLE_Proximity01.cydsn\000"
 3520      5C424C45 
 3520      5F50726F 
 3520      78696D69 
 3520      74793031 
 3521              	.LASF0:
 3522 06c1 7369676E 		.ascii	"signed char\000"
 3522      65642063 
 3522      68617200 
 3523              	.LASF82:
 3524 06cd 4359424C 		.ascii	"CYBLE_LL_PWR_LVL_NEG_18_DBM\000"
 3524      455F4C4C 
 3524      5F505752 
 3524      5F4C564C 
 3524      5F4E4547 
 3525              	.LASF156:
 3526 06e9 4359424C 		.ascii	"CYBLE_GATT_FIND_INFO_REQ\000"
 3526      455F4741 
 3526      54545F46 
 3526      494E445F 
 3526      494E464F 
 3527              	.LASF19:
 3528 0702 4359424C 		.ascii	"CYBLE_EVT_HARDWARE_ERROR\000"
 3528      455F4556 
 3528      545F4841 
 3528      52445741 
 3528      52455F45 
 3529              	.LASF326:
 3530 071b 4379426C 		.ascii	"CyBle_EventHandler\000"
 3530      655F4576 
 3530      656E7448 
 3530      616E646C 
 3530      657200
ARM GAS  C:\Users\mohammed\AppData\Local\Temp\ccG2gzoD.s 			page 104


 3531              	.LASF95:
 3532 072e 4359424C 		.ascii	"CYBLE_BLESS_PHY_CH_GRP_ID_T\000"
 3532      455F424C 
 3532      4553535F 
 3532      5048595F 
 3532      43485F47 
 3533              	.LASF217:
 3534 074a 4359424C 		.ascii	"CYBLE_GATT_ERR_CCCD_IMPROPERLY_CONFIGURED\000"
 3534      455F4741 
 3534      54545F45 
 3534      52525F43 
 3534      4343445F 
 3535              	.LASF48:
 3536 0774 4359424C 		.ascii	"CYBLE_EVT_GATTC_READ_BY_GROUP_TYPE_RSP\000"
 3536      455F4556 
 3536      545F4741 
 3536      5454435F 
 3536      52454144 
 3537              	.LASF138:
 3538 079b 4359424C 		.ascii	"CYBLE_GAP_AUTH_ERROR_CROSS_TRANSPORT_KEY_GEN_DER_NO"
 3538      455F4741 
 3538      505F4155 
 3538      54485F45 
 3538      52524F52 
 3539 07ce 545F414C 		.ascii	"T_ALLOWED\000"
 3539      4C4F5745 
 3539      4400
 3540              	.LASF287:
 3541 07d8 4359424C 		.ascii	"CYBLE_STATE_STOPPED\000"
 3541      455F5354 
 3541      4154455F 
 3541      53544F50 
 3541      50454400 
 3542              	.LASF241:
 3543 07ec 4359424C 		.ascii	"CYBLE_GATTS_ERR_PARAM_T\000"
 3543      455F4741 
 3543      5454535F 
 3543      4552525F 
 3543      50415241 
 3544              	.LASF1:
 3545 0804 756E7369 		.ascii	"unsigned char\000"
 3545      676E6564 
 3545      20636861 
 3545      7200
 3546              	.LASF47:
 3547 0812 4359424C 		.ascii	"CYBLE_EVT_GATTC_XCHNG_MTU_RSP\000"
 3547      455F4556 
 3547      545F4741 
 3547      5454435F 
 3547      5843484E 
 3548              	.LASF178:
 3549 0830 4359424C 		.ascii	"CYBLE_GATT_HANDLE_VALUE_IND\000"
 3549      455F4741 
 3549      54545F48 
 3549      414E444C 
 3549      455F5641 
 3550              	.LASF270:
ARM GAS  C:\Users\mohammed\AppData\Local\Temp\ccG2gzoD.s 			page 105


 3551 084c 4359424C 		.ascii	"CYBLE_UDS_HCC\000"
 3551      455F5544 
 3551      535F4843 
 3551      4300
 3552              	.LASF262:
 3553 085a 4359424C 		.ascii	"CYBLE_UDS_HRM\000"
 3553      455F5544 
 3553      535F4852 
 3553      4D00
 3554              	.LASF42:
 3555 0868 4359424C 		.ascii	"CYBLE_EVT_GAP_SMP_NEGOTIATED_AUTH_INFO\000"
 3555      455F4556 
 3555      545F4741 
 3555      505F534D 
 3555      505F4E45 
 3556              	.LASF77:
 3557 088f 4359424C 		.ascii	"CYBLE_EVT_L2CAP_CBFC_TX_CREDIT_IND\000"
 3557      455F4556 
 3557      545F4C32 
 3557      4341505F 
 3557      43424643 
 3558              	.LASF240:
 3559 08b2 6572726F 		.ascii	"errorCode\000"
 3559      72436F64 
 3559      6500
 3560              	.LASF134:
 3561 08bc 4359424C 		.ascii	"CYBLE_GAP_AUTH_ERROR_INVALID_PARAMETERS\000"
 3561      455F4741 
 3561      505F4155 
 3561      54485F45 
 3561      52524F52 
 3562              	.LASF286:
 3563 08e4 4359424C 		.ascii	"CYBLE_UDS_DESCR_COUNT\000"
 3563      455F5544 
 3563      535F4445 
 3563      5343525F 
 3563      434F554E 
 3564              	.LASF104:
 3565 08fa 636F6E66 		.ascii	"configMemory\000"
 3565      69674D65 
 3565      6D6F7279 
 3565      00
 3566              	.LASF74:
 3567 0907 4359424C 		.ascii	"CYBLE_EVT_L2CAP_CBFC_DISCONN_CNF\000"
 3567      455F4556 
 3567      545F4C32 
 3567      4341505F 
 3567      43424643 
 3568              	.LASF51:
 3569 0928 4359424C 		.ascii	"CYBLE_EVT_GATTC_FIND_BY_TYPE_VALUE_RSP\000"
 3569      455F4556 
 3569      545F4741 
 3569      5454435F 
 3569      46494E44 
 3570              	.LASF39:
 3571 094f 4359424C 		.ascii	"CYBLE_EVT_GAP_DATA_LENGTH_CHANGE\000"
 3571      455F4556 
ARM GAS  C:\Users\mohammed\AppData\Local\Temp\ccG2gzoD.s 			page 106


 3571      545F4741 
 3571      505F4441 
 3571      54415F4C 
 3572              	.LASF14:
 3573 0970 63686172 		.ascii	"char\000"
 3573      00
 3574              	.LASF86:
 3575 0975 4359424C 		.ascii	"CYBLE_LL_PWR_LVL_NEG_2_DBM\000"
 3575      455F4C4C 
 3575      5F505752 
 3575      5F4C564C 
 3575      5F4E4547 
 3576              	.LASF171:
 3577 0990 4359424C 		.ascii	"CYBLE_GATT_WRITE_RSP\000"
 3577      455F4741 
 3577      54545F57 
 3577      52495445 
 3577      5F525350 
 3578              	.LASF54:
 3579 09a5 4359424C 		.ascii	"CYBLE_EVT_GATTC_READ_MULTI_RSP\000"
 3579      455F4556 
 3579      545F4741 
 3579      5454435F 
 3579      52454144 
 3580              	.LASF147:
 3581 09c4 4359424C 		.ascii	"CYBLE_GAP_AUTH_INFO_T\000"
 3581      455F4741 
 3581      505F4155 
 3581      54485F49 
 3581      4E464F5F 
 3582              	.LASF121:
 3583 09da 4359424C 		.ascii	"CYBLE_GAP_IOCAP_KEYBOARD_ONLY\000"
 3583      455F4741 
 3583      505F494F 
 3583      4341505F 
 3583      4B455942 
 3584              	.LASF16:
 3585 09f8 4359424C 		.ascii	"CYBLE_EVT_HOST_INVALID\000"
 3585      455F4556 
 3585      545F484F 
 3585      53545F49 
 3585      4E56414C 
 3586              	.LASF206:
 3587 0a0f 4359424C 		.ascii	"CYBLE_GATT_ERR_MISSING_CRC\000"
 3587      455F4741 
 3587      54545F45 
 3587      52525F4D 
 3587      49535349 
 3588              	.LASF196:
 3589 0a2a 4359424C 		.ascii	"CYBLE_GATT_ERR_UNLIKELY_ERROR\000"
 3589      455F4741 
 3589      54545F45 
 3589      52525F55 
 3589      4E4C494B 
 3590              	.LASF41:
 3591 0a48 4359424C 		.ascii	"CYBLE_EVT_GAPC_DIRECT_ADV_REPORT\000"
 3591      455F4556 
ARM GAS  C:\Users\mohammed\AppData\Local\Temp\ccG2gzoD.s 			page 107


 3591      545F4741 
 3591      50435F44 
 3591      49524543 
 3592              	.LASF154:
 3593 0a69 4359424C 		.ascii	"CYBLE_GATT_XCNHG_MTU_REQ\000"
 3593      455F4741 
 3593      54545F58 
 3593      434E4847 
 3593      5F4D5455 
 3594              	.LASF53:
 3595 0a82 4359424C 		.ascii	"CYBLE_EVT_GATTC_READ_BLOB_RSP\000"
 3595      455F4556 
 3595      545F4741 
 3595      5454435F 
 3595      52454144 
 3596              	.LASF301:
 3597 0aa0 64657669 		.ascii	"deviceAddress\000"
 3597      63654164 
 3597      64726573 
 3597      7300
 3598              	.LASF314:
 3599 0aae 6379426C 		.ascii	"cyBle_eventHandlerFlag\000"
 3599      655F6576 
 3599      656E7448 
 3599      616E646C 
 3599      6572466C 
 3600              	.LASF60:
 3601 0ac5 4359424C 		.ascii	"CYBLE_EVT_GATTC_EXEC_WRITE_RSP\000"
 3601      455F4556 
 3601      545F4741 
 3601      5454435F 
 3601      45584543 
 3602              	.LASF200:
 3603 0ae4 4359424C 		.ascii	"CYBLE_GATT_ERR_HEART_RATE_CONTROL_POINT_NOT_SUPPORT"
 3603      455F4741 
 3603      54545F45 
 3603      52525F48 
 3603      45415254 
 3604 0b17 454400   		.ascii	"ED\000"
 3605              	.LASF193:
 3606 0b1a 4359424C 		.ascii	"CYBLE_GATT_ERR_ATTRIBUTE_NOT_LONG\000"
 3606      455F4741 
 3606      54545F45 
 3606      52525F41 
 3606      54545249 
 3607              	.LASF118:
 3608 0b3c 4359424C 		.ascii	"CYBLE_GAP_SEC_LEVEL_MASK\000"
 3608      455F4741 
 3608      505F5345 
 3608      435F4C45 
 3608      56454C5F 
 3609              	.LASF65:
 3610 0b55 4359424C 		.ascii	"CYBLE_EVT_GATTC_STOP_CMD_COMPLETE\000"
 3610      455F4556 
 3610      545F4741 
 3610      5454435F 
 3610      53544F50 
ARM GAS  C:\Users\mohammed\AppData\Local\Temp\ccG2gzoD.s 			page 108


 3611              	.LASF216:
 3612 0b77 4359424C 		.ascii	"CYBLE_GATT_ERR_ANCS_ACTION_FAILED\000"
 3612      455F4741 
 3612      54545F45 
 3612      52525F41 
 3612      4E43535F 
 3613              	.LASF269:
 3614 0b99 4359424C 		.ascii	"CYBLE_UDS_WCC\000"
 3614      455F5544 
 3614      535F5743 
 3614      4300
 3615              	.LASF319:
 3616 0ba7 6379426C 		.ascii	"cyBle_connHandle\000"
 3616      655F636F 
 3616      6E6E4861 
 3616      6E646C65 
 3616      00
 3617              	.LASF153:
 3618 0bb8 4359424C 		.ascii	"CYBLE_GATT_ERROR_RSP\000"
 3618      455F4741 
 3618      54545F45 
 3618      52524F52 
 3618      5F525350 
 3619              	.LASF246:
 3620 0bcd 70726570 		.ascii	"prepWriteReqCount\000"
 3620      57726974 
 3620      65526571 
 3620      436F756E 
 3620      7400
 3621              	.LASF305:
 3622 0bdf 4379426C 		.ascii	"CyBle_GapConnUpdateCompleteEventHandler\000"
 3622      655F4761 
 3622      70436F6E 
 3622      6E557064 
 3622      61746543 
 3623              	.LASF137:
 3624 0c07 4359424C 		.ascii	"CYBLE_GAP_AUTH_ERROR_BR_EDR_PAIRING_IN_PROGRESS\000"
 3624      455F4741 
 3624      505F4155 
 3624      54485F45 
 3624      52524F52 
 3625              	.LASF237:
 3626 0c37 70726570 		.ascii	"prepareWriteQueueSize\000"
 3626      61726557 
 3626      72697465 
 3626      51756575 
 3626      6553697A 
 3627              	.LASF316:
 3628 0c4d 6379426C 		.ascii	"cyBle_sflashDeviceAddress\000"
 3628      655F7366 
 3628      6C617368 
 3628      44657669 
 3628      63654164 
 3629              	.LASF180:
 3630 0c67 4359424C 		.ascii	"CYBLE_GATT_SIGNED_WRITE_CMD\000"
 3630      455F4741 
 3630      54545F53 
ARM GAS  C:\Users\mohammed\AppData\Local\Temp\ccG2gzoD.s 			page 109


 3630      49474E45 
 3630      445F5752 
 3631              	.LASF207:
 3632 0c83 4359424C 		.ascii	"CYBLE_GATTS_ERR_CCCD_IMPROPERLY_CONFIGURED\000"
 3632      455F4741 
 3632      5454535F 
 3632      4552525F 
 3632      43434344 
 3633              	.LASF260:
 3634 0cae 4359424C 		.ascii	"CYBLE_UDS_HGT\000"
 3634      455F5544 
 3634      535F4847 
 3634      5400
 3635              	.LASF176:
 3636 0cbc 4359424C 		.ascii	"CYBLE_GATT_EXECUTE_WRITE_RSP\000"
 3636      455F4741 
 3636      54545F45 
 3636      58454355 
 3636      54455F57 
 3637              	.LASF69:
 3638 0cd9 4359424C 		.ascii	"CYBLE_EVT_L2CAP_CONN_PARAM_UPDATE_RSP\000"
 3638      455F4556 
 3638      545F4C32 
 3638      4341505F 
 3638      434F4E4E 
 3639              	.LASF140:
 3640 0cff 4359424C 		.ascii	"CYBLE_GAP_AUTH_ERROR_LINK_DISCONNECTED\000"
 3640      455F4741 
 3640      505F4155 
 3640      54485F45 
 3640      52524F52 
 3641              	.LASF258:
 3642 0d26 4359424C 		.ascii	"CYBLE_UDS_GND\000"
 3642      455F5544 
 3642      535F474E 
 3642      4400
 3643              	.LASF201:
 3644 0d34 4359424C 		.ascii	"CYBLE_GATT_ERR_USER_DATA_ACCESS_NOT_PERMITTED\000"
 3644      455F4741 
 3644      54545F45 
 3644      52525F55 
 3644      5345525F 
 3645              	.LASF259:
 3646 0d62 4359424C 		.ascii	"CYBLE_UDS_WGT\000"
 3646      455F5544 
 3646      535F5747 
 3646      5400
 3647              	.LASF27:
 3648 0d70 4359424C 		.ascii	"CYBLE_EVT_GAP_AUTH_COMPLETE\000"
 3648      455F4556 
 3648      545F4741 
 3648      505F4155 
 3648      54485F43 
 3649              	.LASF28:
 3650 0d8c 4359424C 		.ascii	"CYBLE_EVT_GAP_AUTH_FAILED\000"
 3650      455F4556 
 3650      545F4741 
ARM GAS  C:\Users\mohammed\AppData\Local\Temp\ccG2gzoD.s 			page 110


 3650      505F4155 
 3650      54485F46 
 3651              	.LASF103:
 3652 0da6 616C6C6F 		.ascii	"allocFree\000"
 3652      63467265 
 3652      6500
 3653              	.LASF254:
 3654 0db0 4359424C 		.ascii	"CYBLE_UDS_LNM\000"
 3654      455F5544 
 3654      535F4C4E 
 3654      4D00
 3655              	.LASF169:
 3656 0dbe 4359424C 		.ascii	"CYBLE_GATT_READ_BY_GROUP_RSP\000"
 3656      455F4741 
 3656      54545F52 
 3656      4541445F 
 3656      42595F47 
 3657              	.LASF191:
 3658 0ddb 4359424C 		.ascii	"CYBLE_GATT_ERR_PREPARE_WRITE_QUEUE_FULL\000"
 3658      455F4741 
 3658      54545F45 
 3658      52525F50 
 3658      52455041 
 3659              	.LASF205:
 3660 0e03 4359424C 		.ascii	"CYBLE_GATT_ERR_OP_CODE_NOT_SUPPORTED\000"
 3660      455F4741 
 3660      54545F45 
 3660      52525F4F 
 3660      505F434F 
 3661              	.LASF89:
 3662 0e28 4359424C 		.ascii	"CYBLE_LL_PWR_LVL_3_DBM\000"
 3662      455F4C4C 
 3662      5F505752 
 3662      5F4C564C 
 3662      5F335F44 
 3663              	.LASF5:
 3664 0e3f 6C6F6E67 		.ascii	"long unsigned int\000"
 3664      20756E73 
 3664      69676E65 
 3664      6420696E 
 3664      7400
 3665              	.LASF162:
 3666 0e51 4359424C 		.ascii	"CYBLE_GATT_READ_REQ\000"
 3666      455F4741 
 3666      54545F52 
 3666      4541445F 
 3666      52455100 
 3667              	.LASF263:
 3668 0e65 4359424C 		.ascii	"CYBLE_UDS_RHR\000"
 3668      455F5544 
 3668      535F5248 
 3668      5200
 3669              	.LASF148:
 3670 0e73 73746174 		.ascii	"status\000"
 3670      757300
 3671              	.LASF87:
 3672 0e7a 4359424C 		.ascii	"CYBLE_LL_PWR_LVL_NEG_1_DBM\000"
ARM GAS  C:\Users\mohammed\AppData\Local\Temp\ccG2gzoD.s 			page 111


 3672      455F4C4C 
 3672      5F505752 
 3672      5F4C564C 
 3672      5F4E4547 
 3673              	.LASF284:
 3674 0e95 4359424C 		.ascii	"CYBLE_UDS_CHAR_COUNT\000"
 3674      455F5544 
 3674      535F4348 
 3674      41525F43 
 3674      4F554E54 
 3675              	.LASF100:
 3676 0eaa 4359424C 		.ascii	"CYBLE_INVALID_REQUEST\000"
 3676      455F494E 
 3676      56414C49 
 3676      445F5245 
 3676      51554553 
 3677              	.LASF280:
 3678 0ec0 4359424C 		.ascii	"CYBLE_UDS_DCI\000"
 3678      455F5544 
 3678      535F4443 
 3678      4900
 3679              	.LASF131:
 3680 0ece 4359424C 		.ascii	"CYBLE_GAP_AUTH_ERROR_COMMAND_NOT_SUPPORTED\000"
 3680      455F4741 
 3680      505F4155 
 3680      54485F45 
 3680      52524F52 
 3681              	.LASF127:
 3682 0ef9 4359424C 		.ascii	"CYBLE_GAP_AUTH_ERROR_AUTHENTICATION_REQ_NOT_MET\000"
 3682      455F4741 
 3682      505F4155 
 3682      54485F45 
 3682      52524F52 
 3683              	.LASF177:
 3684 0f29 4359424C 		.ascii	"CYBLE_GATT_HANDLE_VALUE_NTF\000"
 3684      455F4741 
 3684      54545F48 
 3684      414E444C 
 3684      455F5641 
 3685              	.LASF261:
 3686 0f45 4359424C 		.ascii	"CYBLE_UDS_VO2\000"
 3686      455F5544 
 3686      535F564F 
 3686      3200
 3687              	.LASF213:
 3688 0f53 4359424C 		.ascii	"CYBLE_GATT_ERR_ANCS_UNKNOWN_COMMAND\000"
 3688      455F4741 
 3688      54545F45 
 3688      52525F41 
 3688      4E43535F 
 3689              	.LASF238:
 3690 0f77 4359424C 		.ascii	"CYBLE_PREPARE_WRITE_REQUEST_MEMORY_T\000"
 3690      455F5052 
 3690      45504152 
 3690      455F5752 
 3690      4954455F 
 3691              	.LASF33:
ARM GAS  C:\Users\mohammed\AppData\Local\Temp\ccG2gzoD.s 			page 112


 3692 0f9c 4359424C 		.ascii	"CYBLE_EVT_GAP_CONNECTION_UPDATE_COMPLETE\000"
 3692      455F4556 
 3692      545F4741 
 3692      505F434F 
 3692      4E4E4543 
 3693              	.LASF320:
 3694 0fc5 6379426C 		.ascii	"cyBle_busyStatus\000"
 3694      655F6275 
 3694      73795374 
 3694      61747573 
 3694      00
 3695              	.LASF288:
 3696 0fd6 4359424C 		.ascii	"CYBLE_STATE_INITIALIZING\000"
 3696      455F5354 
 3696      4154455F 
 3696      494E4954 
 3696      49414C49 
 3697              	.LASF311:
 3698 0fef 6379426C 		.ascii	"cyBle_mtuSize\000"
 3698      655F6D74 
 3698      7553697A 
 3698      6500
 3699              	.LASF133:
 3700 0ffd 4359424C 		.ascii	"CYBLE_GAP_AUTH_ERROR_REPEATED_ATTEMPTS\000"
 3700      455F4741 
 3700      505F4155 
 3700      54485F45 
 3700      52524F52 
 3701              	.LASF73:
 3702 1024 4359424C 		.ascii	"CYBLE_EVT_L2CAP_CBFC_DISCONN_IND\000"
 3702      455F4556 
 3702      545F4C32 
 3702      4341505F 
 3702      43424643 
 3703              	.LASF25:
 3704 1045 4359424C 		.ascii	"CYBLE_EVT_GAP_PASSKEY_ENTRY_REQUEST\000"
 3704      455F4556 
 3704      545F4741 
 3704      505F5041 
 3704      53534B45 
 3705              	.LASF244:
 3706 1069 67617474 		.ascii	"gattErrorCode\000"
 3706      4572726F 
 3706      72436F64 
 3706      6500
 3707              	.LASF135:
 3708 1077 4359424C 		.ascii	"CYBLE_GAP_AUTH_ERROR_DHKEY_CHECK_FAILED\000"
 3708      455F4741 
 3708      505F4155 
 3708      54485F45 
 3708      52524F52 
 3709              	.LASF91:
 3710 109f 4359424C 		.ascii	"CYBLE_BLESS_PWR_LVL_T\000"
 3710      455F424C 
 3710      4553535F 
 3710      5057525F 
 3710      4C564C5F 
ARM GAS  C:\Users\mohammed\AppData\Local\Temp\ccG2gzoD.s 			page 113


 3711              	.LASF251:
 3712 10b5 4359424C 		.ascii	"CYBLE_GATTS_CHAR_VAL_READ_REQ_T\000"
 3712      455F4741 
 3712      5454535F 
 3712      43484152 
 3712      5F56414C 
 3713              	.LASF242:
 3714 10d5 62617365 		.ascii	"baseAddr\000"
 3714      41646472 
 3714      00
 3715              	.LASF300:
 3716 10de 4379426C 		.ascii	"CyBle_GattConnectReqHandler\000"
 3716      655F4761 
 3716      7474436F 
 3716      6E6E6563 
 3716      74526571 
 3717              	.LASF130:
 3718 10fa 4359424C 		.ascii	"CYBLE_GAP_AUTH_ERROR_INSUFFICIENT_ENCRYPTION_KEY_SI"
 3718      455F4741 
 3718      505F4155 
 3718      54485F45 
 3718      52524F52 
 3719 112d 5A4500   		.ascii	"ZE\000"
 3720              	.LASF6:
 3721 1130 6C6F6E67 		.ascii	"long long int\000"
 3721      206C6F6E 
 3721      6720696E 
 3721      7400
 3722              	.LASF299:
 3723 113e 4379426C 		.ascii	"CyBle_GattDisconnectEventHandler\000"
 3723      655F4761 
 3723      74744469 
 3723      73636F6E 
 3723      6E656374 
 3724              	.LASF105:
 3725 115f 4359424C 		.ascii	"CYBLE_MEMORY_REQUEST_T\000"
 3725      455F4D45 
 3725      4D4F5259 
 3725      5F524551 
 3725      55455354 
 3726              	.LASF142:
 3727 1176 73656375 		.ascii	"security\000"
 3727      72697479 
 3727      00
 3728              	.LASF13:
 3729 117f 646F7562 		.ascii	"double\000"
 3729      6C6500
 3730              	.LASF79:
 3731 1186 4359424C 		.ascii	"CYBLE_EVT_PENDING_FLASH_WRITE\000"
 3731      455F4556 
 3731      545F5045 
 3731      4E44494E 
 3731      475F464C 
 3732              	.LASF194:
 3733 11a4 4359424C 		.ascii	"CYBLE_GATT_ERR_INSUFFICIENT_ENC_KEY_SIZE\000"
 3733      455F4741 
 3733      54545F45 
ARM GAS  C:\Users\mohammed\AppData\Local\Temp\ccG2gzoD.s 			page 114


 3733      52525F49 
 3733      4E535546 
 3734              	.LASF90:
 3735 11cd 4359424C 		.ascii	"CYBLE_LL_PWR_LVL_MAX\000"
 3735      455F4C4C 
 3735      5F505752 
 3735      5F4C564C 
 3735      5F4D4158 
 3736              	.LASF218:
 3737 11e2 4359424C 		.ascii	"CYBLE_GATT_ERR_PROCEDURE_ALREADY_IN_PROGRESS\000"
 3737      455F4741 
 3737      54545F45 
 3737      52525F50 
 3737      524F4345 
 3738              	.LASF40:
 3739 120f 4359424C 		.ascii	"CYBLE_EVT_GAP_ENHANCE_CONN_COMPLETE\000"
 3739      455F4556 
 3739      545F4741 
 3739      505F454E 
 3739      48414E43 
 3740              	.LASF296:
 3741 1233 4379426C 		.ascii	"CyBle_ValueConfirmation\000"
 3741      655F5661 
 3741      6C756543 
 3741      6F6E6669 
 3741      726D6174 
 3742              	.LASF12:
 3743 124b 666C6F61 		.ascii	"float\000"
 3743      7400
 3744              	.LASF321:
 3745 1251 6379426C 		.ascii	"cyBle_advertisingIntervalType\000"
 3745      655F6164 
 3745      76657274 
 3745      6973696E 
 3745      67496E74 
 3746              	.LASF66:
 3747 126f 4359424C 		.ascii	"CYBLE_EVT_GATTS_READ_CHAR_VAL_ACCESS_REQ\000"
 3747      455F4556 
 3747      545F4741 
 3747      5454535F 
 3747      52454144 
 3748              	.LASF239:
 3749 1298 6F70636F 		.ascii	"opcode\000"
 3749      646500
 3750              	.LASF190:
 3751 129f 4359424C 		.ascii	"CYBLE_GATT_ERR_INSUFFICIENT_AUTHORIZATION\000"
 3751      455F4741 
 3751      54545F45 
 3751      52525F49 
 3751      4E535546 
 3752              	.LASF228:
 3753 12c9 61747472 		.ascii	"attrHandle\000"
 3753      48616E64 
 3753      6C6500
 3754              	.LASF279:
 3755 12d4 4359424C 		.ascii	"CYBLE_UDS_2ZL\000"
 3755      455F5544 
ARM GAS  C:\Users\mohammed\AppData\Local\Temp\ccG2gzoD.s 			page 115


 3755      535F325A 
 3755      4C00
 3756              	.LASF143:
 3757 12e2 626F6E64 		.ascii	"bonding\000"
 3757      696E6700 
 3758              	.LASF250:
 3759 12ea 4359424C 		.ascii	"CYBLE_GATTS_WRITE_REQ_PARAM_T\000"
 3759      455F4741 
 3759      5454535F 
 3759      57524954 
 3759      455F5245 
 3760              	.LASF8:
 3761 1308 756E7369 		.ascii	"unsigned int\000"
 3761      676E6564 
 3761      20696E74 
 3761      00
 3762              	.LASF58:
 3763 1315 4359424C 		.ascii	"CYBLE_EVT_GATTS_PREP_WRITE_REQ\000"
 3763      455F4556 
 3763      545F4741 
 3763      5454535F 
 3763      50524550 
 3764              	.LASF187:
 3765 1334 4359424C 		.ascii	"CYBLE_GATT_ERR_INSUFFICIENT_AUTHENTICATION\000"
 3765      455F4741 
 3765      54545F45 
 3765      52525F49 
 3765      4E535546 
 3766              	.LASF231:
 3767 135f 4359424C 		.ascii	"CYBLE_GATT_XCHG_MTU_PARAM_T\000"
 3767      455F4741 
 3767      54545F58 
 3767      4348475F 
 3767      4D54555F 
 3768              	.LASF310:
 3769 137b 67507265 		.ascii	"gPrepWriteReqMem\000"
 3769      70577269 
 3769      74655265 
 3769      714D656D 
 3769      00
 3770              	.LASF93:
 3771 138c 4359424C 		.ascii	"CYBLE_LL_CONN_CH_TYPE\000"
 3771      455F4C4C 
 3771      5F434F4E 
 3771      4E5F4348 
 3771      5F545950 
 3772              	.LASF204:
 3773 13a2 4359424C 		.ascii	"CYBLE_GATTS_ERR_PROCEDURE_ALREADY_IN_PROGRESS\000"
 3773      455F4741 
 3773      5454535F 
 3773      4552525F 
 3773      50524F43 
 3774              	.LASF109:
 3775 13d0 4359424C 		.ascii	"CYBLE_GAP_ADV_MODE_TO\000"
 3775      455F4741 
 3775      505F4144 
 3775      565F4D4F 
ARM GAS  C:\Users\mohammed\AppData\Local\Temp\ccG2gzoD.s 			page 116


 3775      44455F54 
 3776              	.LASF283:
 3777 13e6 4359424C 		.ascii	"CYBLE_UDS_LNG\000"
 3777      455F5544 
 3777      535F4C4E 
 3777      4700
 3778              	.LASF294:
 3779 13f4 6572725F 		.ascii	"err_param\000"
 3779      70617261 
 3779      6D00
 3780              	.LASF174:
 3781 13fe 4359424C 		.ascii	"CYBLE_GATT_PREPARE_WRITE_RSP\000"
 3781      455F4741 
 3781      54545F50 
 3781      52455041 
 3781      52455F57 
 3782              	.LASF234:
 3783 141b 4359424C 		.ascii	"CYBLE_GATT_HANDLE_VALUE_OFFSET_PARAM_T\000"
 3783      455F4741 
 3783      54545F48 
 3783      414E444C 
 3783      455F5641 
 3784              	.LASF192:
 3785 1442 4359424C 		.ascii	"CYBLE_GATT_ERR_ATTRIBUTE_NOT_FOUND\000"
 3785      455F4741 
 3785      54545F45 
 3785      52525F41 
 3785      54545249 
 3786              	.LASF233:
 3787 1465 6F666673 		.ascii	"offset\000"
 3787      657400
 3788              	.LASF81:
 3789 146c 4359424C 		.ascii	"CYBLE_EVT_MAX\000"
 3789      455F4556 
 3789      545F4D41 
 3789      5800
 3790              	.LASF34:
 3791 147a 4359424C 		.ascii	"CYBLE_EVT_GAPC_SCAN_START_STOP\000"
 3791      455F4556 
 3791      545F4741 
 3791      50435F53 
 3791      43414E5F 
 3792              	.LASF325:
 3793 1499 4379426C 		.ascii	"CyBle_IsDeviceAddressValid\000"
 3793      655F4973 
 3793      44657669 
 3793      63654164 
 3793      64726573 
 3794              	.LASF141:
 3795 14b4 4359424C 		.ascii	"CYBLE_GAP_AUTH_FAILED_REASON_T\000"
 3795      455F4741 
 3795      505F4155 
 3795      54485F46 
 3795      41494C45 
 3796              	.LASF55:
 3797 14d3 4359424C 		.ascii	"CYBLE_EVT_GATTS_WRITE_REQ\000"
 3797      455F4556 
ARM GAS  C:\Users\mohammed\AppData\Local\Temp\ccG2gzoD.s 			page 117


 3797      545F4741 
 3797      5454535F 
 3797      57524954 
 3798              	.LASF26:
 3799 14ed 4359424C 		.ascii	"CYBLE_EVT_GAP_PASSKEY_DISPLAY_REQUEST\000"
 3799      455F4556 
 3799      545F4741 
 3799      505F5041 
 3799      53534B45 
 3800              	.LASF166:
 3801 1513 4359424C 		.ascii	"CYBLE_GATT_READ_MULTIPLE_REQ\000"
 3801      455F4741 
 3801      54545F52 
 3801      4541445F 
 3801      4D554C54 
 3802              	.LASF52:
 3803 1530 4359424C 		.ascii	"CYBLE_EVT_GATTC_READ_RSP\000"
 3803      455F4556 
 3803      545F4741 
 3803      5454435F 
 3803      52454144 
 3804              	.LASF189:
 3805 1549 4359424C 		.ascii	"CYBLE_GATT_ERR_INVALID_OFFSET\000"
 3805      455F4741 
 3805      54545F45 
 3805      52525F49 
 3805      4E56414C 
 3806              	.LASF160:
 3807 1567 4359424C 		.ascii	"CYBLE_GATT_READ_BY_TYPE_REQ\000"
 3807      455F4741 
 3807      54545F52 
 3807      4541445F 
 3807      42595F54 
 3808              	.LASF72:
 3809 1583 4359424C 		.ascii	"CYBLE_EVT_L2CAP_CBFC_CONN_CNF\000"
 3809      455F4556 
 3809      545F4C32 
 3809      4341505F 
 3809      43424643 
 3810              	.LASF219:
 3811 15a1 4359424C 		.ascii	"CYBLE_GATT_ERR_OUT_OF_RANGE\000"
 3811      455F4741 
 3811      54545F45 
 3811      52525F4F 
 3811      55545F4F 
 3812              	.LASF158:
 3813 15bd 4359424C 		.ascii	"CYBLE_GATT_FIND_BY_TYPE_VALUE_REQ\000"
 3813      455F4741 
 3813      54545F46 
 3813      494E445F 
 3813      42595F54 
 3814              	.LASF84:
 3815 15df 4359424C 		.ascii	"CYBLE_LL_PWR_LVL_NEG_6_DBM\000"
 3815      455F4C4C 
 3815      5F505752 
 3815      5F4C564C 
 3815      5F4E4547 
ARM GAS  C:\Users\mohammed\AppData\Local\Temp\ccG2gzoD.s 			page 118


 3816              	.LASF22:
 3817 15fa 4359424C 		.ascii	"CYBLE_EVT_MEMORY_REQUEST\000"
 3817      455F4556 
 3817      545F4D45 
 3817      4D4F5259 
 3817      5F524551 
 3818              	.LASF124:
 3819 1613 4359424C 		.ascii	"CYBLE_GAP_AUTH_ERROR_NONE\000"
 3819      455F4741 
 3819      505F4155 
 3819      54485F45 
 3819      52524F52 
 3820              	.LASF32:
 3821 162d 4359424C 		.ascii	"CYBLE_EVT_GAP_ENCRYPT_CHANGE\000"
 3821      455F4556 
 3821      545F4741 
 3821      505F454E 
 3821      43525950 
 3822              	.LASF235:
 3823 164a 71756575 		.ascii	"queueBuffer\000"
 3823      65427566 
 3823      66657200 
 3824              	.LASF46:
 3825 1656 4359424C 		.ascii	"CYBLE_EVT_GATTS_XCNHG_MTU_REQ\000"
 3825      455F4556 
 3825      545F4741 
 3825      5454535F 
 3825      58434E48 
 3826              	.LASF157:
 3827 1674 4359424C 		.ascii	"CYBLE_GATT_FIND_INFO_RSP\000"
 3827      455F4741 
 3827      54545F46 
 3827      494E445F 
 3827      494E464F 
 3828              	.LASF126:
 3829 168d 4359424C 		.ascii	"CYBLE_GAP_AUTH_ERROR_OOB_DATA_NOT_AVAILABLE\000"
 3829      455F4741 
 3829      505F4155 
 3829      54485F45 
 3829      52524F52 
 3830              	.LASF99:
 3831 16b9 4359424C 		.ascii	"CYBLE_PREPARED_WRITE_REQUEST\000"
 3831      455F5052 
 3831      45504152 
 3831      45445F57 
 3831      52495445 
 3832              	.LASF152:
 3833 16d6 4359424C 		.ascii	"CYBLE_GAP_CONN_PARAM_UPDATED_IN_CONTROLLER_T\000"
 3833      455F4741 
 3833      505F434F 
 3833      4E4E5F50 
 3833      4152414D 
 3834              	.LASF7:
 3835 1703 6C6F6E67 		.ascii	"long long unsigned int\000"
 3835      206C6F6E 
 3835      6720756E 
 3835      7369676E 
ARM GAS  C:\Users\mohammed\AppData\Local\Temp\ccG2gzoD.s 			page 119


 3835      65642069 
 3836              	.LASF183:
 3837 171a 4359424C 		.ascii	"CYBLE_GATT_ERR_INVALID_HANDLE\000"
 3837      455F4741 
 3837      54545F45 
 3837      52525F49 
 3837      4E56414C 
 3838              	.LASF18:
 3839 1738 4359424C 		.ascii	"CYBLE_EVT_TIMEOUT\000"
 3839      455F4556 
 3839      545F5449 
 3839      4D454F55 
 3839      5400
 3840              	.LASF181:
 3841 174a 4359424C 		.ascii	"CYBLE_GATT_UNKNOWN_PDU_IND\000"
 3841      455F4741 
 3841      54545F55 
 3841      4E4B4E4F 
 3841      574E5F50 
 3842              	.LASF221:
 3843 1765 4359424C 		.ascii	"CYBLE_GATT_DB_ATTR_HANDLE_T\000"
 3843      455F4741 
 3843      54545F44 
 3843      425F4154 
 3843      54525F48 
 3844              	.LASF307:
 3845 1781 626C6553 		.ascii	"bleSsPowerLevel\000"
 3845      73506F77 
 3845      65724C65 
 3845      76656C00 
 3846              	.LASF75:
 3847 1791 4359424C 		.ascii	"CYBLE_EVT_L2CAP_CBFC_DATA_READ\000"
 3847      455F4556 
 3847      545F4C32 
 3847      4341505F 
 3847      43424643 
 3848              	.LASF182:
 3849 17b0 4359424C 		.ascii	"CYBLE_GATT_ERR_NONE\000"
 3849      455F4741 
 3849      54545F45 
 3849      52525F4E 
 3849      4F4E4500 
 3850              	.LASF227:
 3851 17c4 76616C75 		.ascii	"value\000"
 3851      6500
 3852              	.LASF236:
 3853 17ca 746F7461 		.ascii	"totalAttrValueLength\000"
 3853      6C417474 
 3853      7256616C 
 3853      75654C65 
 3853      6E677468 
 3854              	.LASF220:
 3855 17df 4359424C 		.ascii	"CYBLE_GATT_ERR_CODE_T\000"
 3855      455F4741 
 3855      54545F45 
 3855      52525F43 
 3855      4F44455F 
ARM GAS  C:\Users\mohammed\AppData\Local\Temp\ccG2gzoD.s 			page 120


 3856              	.LASF110:
 3857 17f5 4359424C 		.ascii	"CYBLE_GAP_SCAN_TO\000"
 3857      455F4741 
 3857      505F5343 
 3857      414E5F54 
 3857      4F00
 3858              	.LASF203:
 3859 1807 4359424C 		.ascii	"CYBLE_GATT_ERR_HTS_OUT_OF_RANGE\000"
 3859      455F4741 
 3859      54545F45 
 3859      52525F48 
 3859      54535F4F 
 3860              	.LASF264:
 3861 1827 4359424C 		.ascii	"CYBLE_UDS_MRH\000"
 3861      455F5544 
 3861      535F4D52 
 3861      4800
 3862              	.LASF108:
 3863 1835 4359424C 		.ascii	"CYBLE_GAP_BD_ADDR_T\000"
 3863      455F4741 
 3863      505F4244 
 3863      5F414444 
 3863      525F5400 
 3864              	.LASF164:
 3865 1849 4359424C 		.ascii	"CYBLE_GATT_READ_BLOB_REQ\000"
 3865      455F4741 
 3865      54545F52 
 3865      4541445F 
 3865      424C4F42 
 3866              	.LASF322:
 3867 1862 474E5520 		.ascii	"GNU C 4.9.3 20150303 (release) [ARM/embedded-4_9-br"
 3867      4320342E 
 3867      392E3320 
 3867      32303135 
 3867      30333033 
 3868 1895 616E6368 		.ascii	"anch revision 221220] -mcpu=cortex-m0 -mthumb -g -O"
 3868      20726576 
 3868      6973696F 
 3868      6E203232 
 3868      31323230 
 3869 18c8 30202D66 		.ascii	"0 -ffunction-sections -ffat-lto-objects\000"
 3869      66756E63 
 3869      74696F6E 
 3869      2D736563 
 3869      74696F6E 
 3870              	.LASF249:
 3871 18f0 68616E64 		.ascii	"handleValPair\000"
 3871      6C655661 
 3871      6C506169 
 3871      7200
 3872              	.LASF230:
 3873 18fe 636F6E6E 		.ascii	"connHandle\000"
 3873      48616E64 
 3873      6C6500
 3874              	.LASF298:
 3875 1909 4379426C 		.ascii	"CyBle_TimeOutEventHandler\000"
 3875      655F5469 
ARM GAS  C:\Users\mohammed\AppData\Local\Temp\ccG2gzoD.s 			page 121


 3875      6D654F75 
 3875      74457665 
 3875      6E744861 
 3876              	.LASF323:
 3877 1923 2E5C4765 		.ascii	".\\Generated_Source\\PSoC4\\CYBLE_eventHandler.c\000"
 3877      6E657261 
 3877      7465645F 
 3877      536F7572 
 3877      63655C50 
 3878              	.LASF248:
 3879 1951 4359424C 		.ascii	"CYBLE_GATTS_EXEC_WRITE_REQ_T\000"
 3879      455F4741 
 3879      5454535F 
 3879      45584543 
 3879      5F575249 
 3880              	.LASF129:
 3881 196e 4359424C 		.ascii	"CYBLE_GAP_AUTH_ERROR_PAIRING_NOT_SUPPORTED\000"
 3881      455F4741 
 3881      505F4155 
 3881      54485F45 
 3881      52524F52 
 3882              	.LASF278:
 3883 1999 4359424C 		.ascii	"CYBLE_UDS_3ZL\000"
 3883      455F5544 
 3883      535F335A 
 3883      4C00
 3884              	.LASF112:
 3885 19a7 4359424C 		.ascii	"CYBLE_GENERIC_TO\000"
 3885      455F4745 
 3885      4E455249 
 3885      435F544F 
 3885      00
 3886              	.LASF50:
 3887 19b8 4359424C 		.ascii	"CYBLE_EVT_GATTC_FIND_INFO_RSP\000"
 3887      455F4556 
 3887      545F4741 
 3887      5454435F 
 3887      46494E44 
 3888              	.LASF49:
 3889 19d6 4359424C 		.ascii	"CYBLE_EVT_GATTC_READ_BY_TYPE_RSP\000"
 3889      455F4556 
 3889      545F4741 
 3889      5454435F 
 3889      52454144 
 3890              	.LASF208:
 3891 19f7 4359424C 		.ascii	"CYBLE_GATTS_ERR_OPERATION_FAILED\000"
 3891      455F4741 
 3891      5454535F 
 3891      4552525F 
 3891      4F504552 
 3892              	.LASF318:
 3893 1a18 6379426C 		.ascii	"cyBle_state\000"
 3893      655F7374 
 3893      61746500 
 3894              	.LASF232:
 3895 1a24 68616E64 		.ascii	"handleValuePair\000"
 3895      6C655661 
ARM GAS  C:\Users\mohammed\AppData\Local\Temp\ccG2gzoD.s 			page 122


 3895      6C756550 
 3895      61697200 
 3896              	.LASF146:
 3897 1a34 70616972 		.ascii	"pairingProperties\000"
 3897      696E6750 
 3897      726F7065 
 3897      72746965 
 3897      7300
 3898              	.LASF56:
 3899 1a46 4359424C 		.ascii	"CYBLE_EVT_GATTC_WRITE_RSP\000"
 3899      455F4556 
 3899      545F4741 
 3899      5454435F 
 3899      57524954 
 3900              	.LASF291:
 3901 1a60 4359424C 		.ascii	"CYBLE_STATE_DISCONNECTED\000"
 3901      455F5354 
 3901      4154455F 
 3901      44495343 
 3901      4F4E4E45 
 3902              	.LASF308:
 3903 1a79 6C654D61 		.ascii	"leMask\000"
 3903      736B00
 3904              	.LASF29:
 3905 1a80 4359424C 		.ascii	"CYBLE_EVT_GAPP_ADVERTISEMENT_START_STOP\000"
 3905      455F4556 
 3905      545F4741 
 3905      50505F41 
 3905      44564552 
 3906              	.LASF271:
 3907 1aa8 4359424C 		.ascii	"CYBLE_UDS_FBL\000"
 3907      455F5544 
 3907      535F4642 
 3907      4C00
 3908              	.LASF272:
 3909 1ab6 4359424C 		.ascii	"CYBLE_UDS_FBU\000"
 3909      455F5544 
 3909      535F4642 
 3909      5500
 3910              	.LASF9:
 3911 1ac4 75696E74 		.ascii	"uint8\000"
 3911      3800
 3912              	.LASF317:
 3913 1aca 6379426C 		.ascii	"cyBle_authInfo\000"
 3913      655F6175 
 3913      7468496E 
 3913      666F00
 3914              	.LASF37:
 3915 1ad9 4359424C 		.ascii	"CYBLE_EVT_GAP_KEYPRESS_NOTIFICATION\000"
 3915      455F4556 
 3915      545F4741 
 3915      505F4B45 
 3915      59505245 
 3916              	.LASF303:
 3917 1afd 4379426C 		.ascii	"CyBle_L2Cap_ConnParamUpdateRspEventHandler\000"
 3917      655F4C32 
 3917      4361705F 
ARM GAS  C:\Users\mohammed\AppData\Local\Temp\ccG2gzoD.s 			page 123


 3917      436F6E6E 
 3917      50617261 
 3918              	.LASF170:
 3919 1b28 4359424C 		.ascii	"CYBLE_GATT_WRITE_REQ\000"
 3919      455F4741 
 3919      54545F57 
 3919      52495445 
 3919      5F524551 
 3920              	.LASF2:
 3921 1b3d 73686F72 		.ascii	"short int\000"
 3921      7420696E 
 3921      7400
 3922              	.LASF257:
 3923 1b47 4359424C 		.ascii	"CYBLE_UDS_DOB\000"
 3923      455F5544 
 3923      535F444F 
 3923      4200
 3924              	.LASF145:
 3925 1b55 61757468 		.ascii	"authErr\000"
 3925      45727200 
 3926              	.LASF202:
 3927 1b5d 4359424C 		.ascii	"CYBLE_GATT_ERR_CPS_INAPPROPRIATE_CONNECTION_PARAMET"
 3927      455F4741 
 3927      54545F45 
 3927      52525F43 
 3927      50535F49 
 3928 1b90 45525300 		.ascii	"ERS\000"
 3929              	.LASF188:
 3930 1b94 4359424C 		.ascii	"CYBLE_GATT_ERR_REQUEST_NOT_SUPPORTED\000"
 3930      455F4741 
 3930      54545F45 
 3930      52525F52 
 3930      45515545 
 3931              	.LASF43:
 3932 1bb9 4359424C 		.ascii	"CYBLE_EVT_GATTC_ERROR_RSP\000"
 3932      455F4556 
 3932      545F4741 
 3932      5454435F 
 3932      4552524F 
 3933              	.LASF123:
 3934 1bd3 4359424C 		.ascii	"CYBLE_GAP_IOCAP_KEYBOARD_DISPLAY\000"
 3934      455F4741 
 3934      505F494F 
 3934      4341505F 
 3934      4B455942 
 3935              	.LASF292:
 3936 1bf4 4359424C 		.ascii	"CYBLE_STATE_T\000"
 3936      455F5354 
 3936      4154455F 
 3936      5400
 3937              	.LASF71:
 3938 1c02 4359424C 		.ascii	"CYBLE_EVT_L2CAP_CBFC_CONN_IND\000"
 3938      455F4556 
 3938      545F4C32 
 3938      4341505F 
 3938      43424643 
 3939              	.LASF59:
ARM GAS  C:\Users\mohammed\AppData\Local\Temp\ccG2gzoD.s 			page 124


 3940 1c20 4359424C 		.ascii	"CYBLE_EVT_GATTS_EXEC_WRITE_REQ\000"
 3940      455F4556 
 3940      545F4741 
 3940      5454535F 
 3940      45584543 
 3941              	.LASF23:
 3942 1c3f 4359424C 		.ascii	"CYBLE_EVT_GAPC_SCAN_PROGRESS_RESULT\000"
 3942      455F4556 
 3942      545F4741 
 3942      50435F53 
 3942      43414E5F 
 3943              	.LASF215:
 3944 1c63 4359424C 		.ascii	"CYBLE_GATT_ERR_ANCS_INVALID_PARAMETER\000"
 3944      455F4741 
 3944      54545F45 
 3944      52525F41 
 3944      4E43535F 
 3945              	.LASF282:
 3946 1c89 4359424C 		.ascii	"CYBLE_UDS_UCP\000"
 3946      455F5544 
 3946      535F5543 
 3946      5000
 3947              	.LASF210:
 3948 1c97 4359424C 		.ascii	"CYBLE_GATTS_ERR_HPS_INVALID_REQUEST\000"
 3948      455F4741 
 3948      5454535F 
 3948      4552525F 
 3948      4850535F 
 3949              	.LASF313:
 3950 1cbb 6379426C 		.ascii	"cyBle_stackMemoryRam\000"
 3950      655F7374 
 3950      61636B4D 
 3950      656D6F72 
 3950      7952616D 
 3951              	.LASF285:
 3952 1cd0 4359424C 		.ascii	"CYBLE_UDS_CCCD\000"
 3952      455F5544 
 3952      535F4343 
 3952      434400
 3953              	.LASF106:
 3954 1cdf 62644164 		.ascii	"bdAddr\000"
 3954      647200
 3955              	.LASF212:
 3956 1ce6 4359424C 		.ascii	"CYBLE_GATT_ERR_ANS_COMMAND_NOT_SUPPORTED\000"
 3956      455F4741 
 3956      54545F45 
 3956      52525F41 
 3956      4E535F43 
 3957              	.LASF304:
 3958 1d0f 72657370 		.ascii	"response\000"
 3958      6F6E7365 
 3958      00
 3959              	.LASF163:
 3960 1d18 4359424C 		.ascii	"CYBLE_GATT_READ_RSP\000"
 3960      455F4741 
 3960      54545F52 
 3960      4541445F 
ARM GAS  C:\Users\mohammed\AppData\Local\Temp\ccG2gzoD.s 			page 125


 3960      52535000 
 3961              	.LASF88:
 3962 1d2c 4359424C 		.ascii	"CYBLE_LL_PWR_LVL_0_DBM\000"
 3962      455F4C4C 
 3962      5F505752 
 3962      5F4C564C 
 3962      5F305F44 
 3963              	.LASF243:
 3964 1d43 63757272 		.ascii	"currentPrepWriteReqCount\000"
 3964      656E7450 
 3964      72657057 
 3964      72697465 
 3964      52657143 
 3965              	.LASF92:
 3966 1d5c 4359424C 		.ascii	"CYBLE_LL_ADV_CH_TYPE\000"
 3966      455F4C4C 
 3966      5F414456 
 3966      5F43485F 
 3966      54595045 
 3967              	.LASF80:
 3968 1d71 4359424C 		.ascii	"CYBLE_EVT_LE_PING_AUTH_TIMEOUT\000"
 3968      455F4556 
 3968      545F4C45 
 3968      5F50494E 
 3968      475F4155 
 3969              	.LASF273:
 3970 1d90 4359424C 		.ascii	"CYBLE_UDS_AEL\000"
 3970      455F5544 
 3970      535F4145 
 3970      4C00
 3971              	.LASF265:
 3972 1d9e 4359424C 		.ascii	"CYBLE_UDS_AET\000"
 3972      455F5544 
 3972      535F4145 
 3972      5400
 3973              	.LASF274:
 3974 1dac 4359424C 		.ascii	"CYBLE_UDS_AEU\000"
 3974      455F5544 
 3974      535F4145 
 3974      5500
 3975              	.LASF62:
 3976 1dba 4359424C 		.ascii	"CYBLE_EVT_GATTC_HANDLE_VALUE_IND\000"
 3976      455F4556 
 3976      545F4741 
 3976      5454435F 
 3976      48414E44 
 3977              	.LASF306:
 3978 1ddb 6576656E 		.ascii	"eventCode\000"
 3978      74436F64 
 3978      6500
 3979              	.LASF21:
 3980 1de5 4359424C 		.ascii	"CYBLE_EVT_STACK_BUSY_STATUS\000"
 3980      455F4556 
 3980      545F5354 
 3980      41434B5F 
 3980      42555359 
 3981              	.LASF150:
ARM GAS  C:\Users\mohammed\AppData\Local\Temp\ccG2gzoD.s 			page 126


 3982 1e01 636F6E6E 		.ascii	"connLatency\000"
 3982      4C617465 
 3982      6E637900 
 3983              	.LASF136:
 3984 1e0d 4359424C 		.ascii	"CYBLE_GAP_AUTH_ERROR_NUMERIC_COMPARISON_FAILED\000"
 3984      455F4741 
 3984      505F4155 
 3984      54485F45 
 3984      52524F52 
 3985              	.LASF120:
 3986 1e3c 4359424C 		.ascii	"CYBLE_GAP_IOCAP_DISPLAY_YESNO\000"
 3986      455F4741 
 3986      505F494F 
 3986      4341505F 
 3986      44495350 
 3987              	.LASF35:
 3988 1e5a 4359424C 		.ascii	"CYBLE_EVT_GAP_KEYINFO_EXCHNGE_CMPLT\000"
 3988      455F4556 
 3988      545F4741 
 3988      505F4B45 
 3988      59494E46 
 3989              	.LASF175:
 3990 1e7e 4359424C 		.ascii	"CYBLE_GATT_EXECUTE_WRITE_REQ\000"
 3990      455F4741 
 3990      54545F45 
 3990      58454355 
 3990      54455F57 
 3991              	.LASF98:
 3992 1e9b 4359424C 		.ascii	"CYBLE_BLESS_PWR_IN_DB_T\000"
 3992      455F424C 
 3992      4553535F 
 3992      5057525F 
 3992      494E5F44 
 3993              	.LASF94:
 3994 1eb3 4359424C 		.ascii	"CYBLE_LL_MAX_CH_TYPE\000"
 3994      455F4C4C 
 3994      5F4D4158 
 3994      5F43485F 
 3994      54595045 
 3995              	.LASF68:
 3996 1ec8 4359424C 		.ascii	"CYBLE_EVT_L2CAP_CONN_PARAM_UPDATE_REQ\000"
 3996      455F4556 
 3996      545F4C32 
 3996      4341505F 
 3996      434F4E4E 
 3997              	.LASF101:
 3998 1eee 4359424C 		.ascii	"CYBLE_PROTOCOL_REQ_T\000"
 3998      455F5052 
 3998      4F544F43 
 3998      4F4C5F52 
 3998      45515F54 
 3999              	.LASF293:
 4000 1f03 67617474 		.ascii	"gattErr\000"
 4000      45727200 
 4001              	.LASF281:
 4002 1f0b 4359424C 		.ascii	"CYBLE_UDS_UIX\000"
 4002      455F5544 
ARM GAS  C:\Users\mohammed\AppData\Local\Temp\ccG2gzoD.s 			page 127


 4002      535F5549 
 4002      5800
 4003              	.LASF185:
 4004 1f19 4359424C 		.ascii	"CYBLE_GATT_ERR_WRITE_NOT_PERMITTED\000"
 4004      455F4741 
 4004      54545F45 
 4004      52525F57 
 4004      52495445 
 4005              	.LASF149:
 4006 1f3c 636F6E6E 		.ascii	"connIntv\000"
 4006      496E7476 
 4006      00
 4007              	.LASF3:
 4008 1f45 73686F72 		.ascii	"short unsigned int\000"
 4008      7420756E 
 4008      7369676E 
 4008      65642069 
 4008      6E7400
 4009              	.LASF197:
 4010 1f58 4359424C 		.ascii	"CYBLE_GATT_ERR_INSUFFICIENT_ENCRYPTION\000"
 4010      455F4741 
 4010      54545F45 
 4010      52525F49 
 4010      4E535546 
 4011              	.LASF289:
 4012 1f7f 4359424C 		.ascii	"CYBLE_STATE_CONNECTED\000"
 4012      455F5354 
 4012      4154455F 
 4012      434F4E4E 
 4012      45435445 
 4013              	.LASF225:
 4014 1f95 61637475 		.ascii	"actualLen\000"
 4014      616C4C65 
 4014      6E00
 4015              	.LASF168:
 4016 1f9f 4359424C 		.ascii	"CYBLE_GATT_READ_BY_GROUP_REQ\000"
 4016      455F4741 
 4016      54545F52 
 4016      4541445F 
 4016      42595F47 
 4017              	.LASF256:
 4018 1fbc 4359424C 		.ascii	"CYBLE_UDS_AGE\000"
 4018      455F5544 
 4018      535F4147 
 4018      4500
 4019              	.LASF223:
 4020 1fca 61747449 		.ascii	"attId\000"
 4020      6400
 4021              	.LASF255:
 4022 1fd0 4359424C 		.ascii	"CYBLE_UDS_EML\000"
 4022      455F5544 
 4022      535F454D 
 4022      4C00
 4023              	.LASF20:
 4024 1fde 4359424C 		.ascii	"CYBLE_EVT_HCI_STATUS\000"
 4024      455F4556 
 4024      545F4843 
ARM GAS  C:\Users\mohammed\AppData\Local\Temp\ccG2gzoD.s 			page 128


 4024      495F5354 
 4024      41545553 
 4025              	.LASF45:
 4026 1ff3 4359424C 		.ascii	"CYBLE_EVT_GATT_DISCONNECT_IND\000"
 4026      455F4556 
 4026      545F4741 
 4026      54545F44 
 4026      4953434F 
 4027              	.LASF151:
 4028 2011 73757065 		.ascii	"supervisionTO\000"
 4028      72766973 
 4028      696F6E54 
 4028      4F00
 4029              	.LASF111:
 4030 201f 4359424C 		.ascii	"CYBLE_GATT_RSP_TO\000"
 4030      455F4741 
 4030      54545F52 
 4030      53505F54 
 4030      4F00
 4031              	.LASF78:
 4032 2031 4359424C 		.ascii	"CYBLE_EVT_L2CAP_CBFC_DATA_WRITE_IND\000"
 4032      455F4556 
 4032      545F4C32 
 4032      4341505F 
 4032      43424643 
 4033              	.LASF67:
 4034 2055 4359424C 		.ascii	"CYBLE_EVT_GATTC_LONG_PROCEDURE_END\000"
 4034      455F4556 
 4034      545F4741 
 4034      5454435F 
 4034      4C4F4E47 
 4035              	.LASF31:
 4036 2078 4359424C 		.ascii	"CYBLE_EVT_GAP_DEVICE_DISCONNECTED\000"
 4036      455F4556 
 4036      545F4741 
 4036      505F4445 
 4036      56494345 
 4037              	.LASF63:
 4038 209a 4359424C 		.ascii	"CYBLE_EVT_GATTS_HANDLE_VALUE_CNF\000"
 4038      455F4556 
 4038      545F4741 
 4038      5454535F 
 4038      48414E44 
 4039              	.LASF268:
 4040 20bb 4359424C 		.ascii	"CYBLE_UDS_DTA\000"
 4040      455F5544 
 4040      535F4454 
 4040      4100
 4041              	.LASF10:
 4042 20c9 75696E74 		.ascii	"uint16\000"
 4042      313600
 4043              		.ident	"GCC: (GNU Tools for ARM Embedded Processors) 4.9.3 20150303 (release) [ARM/embedded-4_9-br
