ARM GAS  C:\Users\mohammed\AppData\Local\Temp\cceuH2T0.s 			page 1


   1              		.cpu cortex-m0
   2              		.fpu softvfp
   3              		.eabi_attribute 20, 1
   4              		.eabi_attribute 21, 1
   5              		.eabi_attribute 23, 3
   6              		.eabi_attribute 24, 1
   7              		.eabi_attribute 25, 1
   8              		.eabi_attribute 26, 1
   9              		.eabi_attribute 30, 6
  10              		.eabi_attribute 34, 0
  11              		.eabi_attribute 18, 4
  12              		.code	16
  13              		.file	"CYBLE_uds.c"
  14              		.text
  15              	.Ltext0:
  16              		.cfi_sections	.debug_frame
  17              		.bss
  18              		.align	2
  19              	CyBle_UdsApplCallback:
  20 0000 00000000 		.space	4
  21              		.global	cyBle_udss
  22              		.section	.rodata
  23              		.align	2
  24              		.type	cyBle_udss, %object
  25              		.size	cyBle_udss, 126
  26              	cyBle_udss:
  27 0000 1700     		.short	23
  28 0002 1900     		.short	25
  29 0004 0000     		.short	0
  30 0006 1B00     		.short	27
  31 0008 0000     		.short	0
  32 000a 1D00     		.short	29
  33 000c 0000     		.short	0
  34 000e 1F00     		.short	31
  35 0010 0000     		.short	0
  36 0012 2100     		.short	33
  37 0014 0000     		.short	0
  38 0016 2300     		.short	35
  39 0018 0000     		.short	0
  40 001a 2500     		.short	37
  41 001c 0000     		.short	0
  42 001e 2700     		.short	39
  43 0020 0000     		.short	0
  44 0022 2900     		.short	41
  45 0024 0000     		.short	0
  46 0026 2B00     		.short	43
  47 0028 0000     		.short	0
  48 002a 2D00     		.short	45
  49 002c 0000     		.short	0
  50 002e 2F00     		.short	47
  51 0030 0000     		.short	0
  52 0032 3100     		.short	49
  53 0034 0000     		.short	0
  54 0036 3300     		.short	51
  55 0038 0000     		.short	0
  56 003a 3500     		.short	53
  57 003c 0000     		.short	0
ARM GAS  C:\Users\mohammed\AppData\Local\Temp\cceuH2T0.s 			page 2


  58 003e 3700     		.short	55
  59 0040 0000     		.short	0
  60 0042 3900     		.short	57
  61 0044 0000     		.short	0
  62 0046 3B00     		.short	59
  63 0048 0000     		.short	0
  64 004a 3D00     		.short	61
  65 004c 0000     		.short	0
  66 004e 3F00     		.short	63
  67 0050 0000     		.short	0
  68 0052 4100     		.short	65
  69 0054 0000     		.short	0
  70 0056 4300     		.short	67
  71 0058 0000     		.short	0
  72 005a 4500     		.short	69
  73 005c 0000     		.short	0
  74 005e 4700     		.short	71
  75 0060 0000     		.short	0
  76 0062 4900     		.short	73
  77 0064 0000     		.short	0
  78 0066 4B00     		.short	75
  79 0068 0000     		.short	0
  80 006a 4D00     		.short	77
  81 006c 0000     		.short	0
  82 006e 4F00     		.short	79
  83 0070 5000     		.short	80
  84 0072 5200     		.short	82
  85 0074 0000     		.short	0
  86 0076 5400     		.short	84
  87 0078 5500     		.short	85
  88 007a 5700     		.short	87
  89 007c 0000     		.short	0
  90              		.comm	cyBle_udsFlag,1,1
  91 007e 0000     		.bss
  92              		.align	1
  93              	cyBle_udssReqHandle:
  94 0004 0000     		.space	2
  95 0006 0000     		.section	.text.CyBle_UdsInit,"ax",%progbits
  96              		.align	2
  97              		.global	CyBle_UdsInit
  98              		.code	16
  99              		.thumb_func
 100              		.type	CyBle_UdsInit, %function
 101              	CyBle_UdsInit:
 102              	.LFB2:
 103              		.file 1 ".\\Generated_Source\\PSoC4\\CYBLE_uds.c"
   1:.\Generated_Source\PSoC4/CYBLE_uds.c **** /***************************************************************************//**
   2:.\Generated_Source\PSoC4/CYBLE_uds.c **** * \file CYBLE_uds.c
   3:.\Generated_Source\PSoC4/CYBLE_uds.c **** * \version 3.10
   4:.\Generated_Source\PSoC4/CYBLE_uds.c **** * 
   5:.\Generated_Source\PSoC4/CYBLE_uds.c **** * \brief
   6:.\Generated_Source\PSoC4/CYBLE_uds.c **** *  This file contains the source code for
   7:.\Generated_Source\PSoC4/CYBLE_uds.c **** *  the User Data Service of the BLE Component.
   8:.\Generated_Source\PSoC4/CYBLE_uds.c **** * 
   9:.\Generated_Source\PSoC4/CYBLE_uds.c **** ********************************************************************************
  10:.\Generated_Source\PSoC4/CYBLE_uds.c **** * \copyright
  11:.\Generated_Source\PSoC4/CYBLE_uds.c **** * Copyright 2014-2016, Cypress Semiconductor Corporation.  All rights reserved.
ARM GAS  C:\Users\mohammed\AppData\Local\Temp\cceuH2T0.s 			page 3


  12:.\Generated_Source\PSoC4/CYBLE_uds.c **** * You may use this file only in accordance with the license, terms, conditions,
  13:.\Generated_Source\PSoC4/CYBLE_uds.c **** * disclaimers, and limitations in the end user license agreement accompanying
  14:.\Generated_Source\PSoC4/CYBLE_uds.c **** * the software package with which this file was provided.
  15:.\Generated_Source\PSoC4/CYBLE_uds.c **** *******************************************************************************/
  16:.\Generated_Source\PSoC4/CYBLE_uds.c **** 
  17:.\Generated_Source\PSoC4/CYBLE_uds.c **** 
  18:.\Generated_Source\PSoC4/CYBLE_uds.c **** #include "CYBLE_eventHandler.h"
  19:.\Generated_Source\PSoC4/CYBLE_uds.c **** 
  20:.\Generated_Source\PSoC4/CYBLE_uds.c **** static CYBLE_CALLBACK_T CyBle_UdsApplCallback;
  21:.\Generated_Source\PSoC4/CYBLE_uds.c **** 
  22:.\Generated_Source\PSoC4/CYBLE_uds.c **** #ifdef CYBLE_UDS_SERVER
  23:.\Generated_Source\PSoC4/CYBLE_uds.c **** /* Generated code */
  24:.\Generated_Source\PSoC4/CYBLE_uds.c **** const CYBLE_UDSS_T cyBle_udss =
  25:.\Generated_Source\PSoC4/CYBLE_uds.c **** {
  26:.\Generated_Source\PSoC4/CYBLE_uds.c ****     0x0017u,    /* Handle of the UDS service */
  27:.\Generated_Source\PSoC4/CYBLE_uds.c ****     {
  28:.\Generated_Source\PSoC4/CYBLE_uds.c ****         
  29:.\Generated_Source\PSoC4/CYBLE_uds.c ****         /* First Name characteristic */
  30:.\Generated_Source\PSoC4/CYBLE_uds.c ****         {
  31:.\Generated_Source\PSoC4/CYBLE_uds.c ****             0x0019u, /* Handle of the First Name characteristic */ 
  32:.\Generated_Source\PSoC4/CYBLE_uds.c ****             
  33:.\Generated_Source\PSoC4/CYBLE_uds.c ****             /* Array of Descriptors handles */
  34:.\Generated_Source\PSoC4/CYBLE_uds.c ****             {
  35:.\Generated_Source\PSoC4/CYBLE_uds.c ****                 CYBLE_GATT_INVALID_ATTR_HANDLE_VALUE, 
  36:.\Generated_Source\PSoC4/CYBLE_uds.c ****             }, 
  37:.\Generated_Source\PSoC4/CYBLE_uds.c ****         }, 
  38:.\Generated_Source\PSoC4/CYBLE_uds.c ****         
  39:.\Generated_Source\PSoC4/CYBLE_uds.c ****         /* Last Name characteristic */
  40:.\Generated_Source\PSoC4/CYBLE_uds.c ****         {
  41:.\Generated_Source\PSoC4/CYBLE_uds.c ****             0x001Bu, /* Handle of the Last Name characteristic */ 
  42:.\Generated_Source\PSoC4/CYBLE_uds.c ****             
  43:.\Generated_Source\PSoC4/CYBLE_uds.c ****             /* Array of Descriptors handles */
  44:.\Generated_Source\PSoC4/CYBLE_uds.c ****             {
  45:.\Generated_Source\PSoC4/CYBLE_uds.c ****                 CYBLE_GATT_INVALID_ATTR_HANDLE_VALUE, 
  46:.\Generated_Source\PSoC4/CYBLE_uds.c ****             }, 
  47:.\Generated_Source\PSoC4/CYBLE_uds.c ****         }, 
  48:.\Generated_Source\PSoC4/CYBLE_uds.c ****         
  49:.\Generated_Source\PSoC4/CYBLE_uds.c ****         /* Email Address characteristic */
  50:.\Generated_Source\PSoC4/CYBLE_uds.c ****         {
  51:.\Generated_Source\PSoC4/CYBLE_uds.c ****             0x001Du, /* Handle of the Email Address characteristic */ 
  52:.\Generated_Source\PSoC4/CYBLE_uds.c ****             
  53:.\Generated_Source\PSoC4/CYBLE_uds.c ****             /* Array of Descriptors handles */
  54:.\Generated_Source\PSoC4/CYBLE_uds.c ****             {
  55:.\Generated_Source\PSoC4/CYBLE_uds.c ****                 CYBLE_GATT_INVALID_ATTR_HANDLE_VALUE, 
  56:.\Generated_Source\PSoC4/CYBLE_uds.c ****             }, 
  57:.\Generated_Source\PSoC4/CYBLE_uds.c ****         }, 
  58:.\Generated_Source\PSoC4/CYBLE_uds.c ****         
  59:.\Generated_Source\PSoC4/CYBLE_uds.c ****         /* Age characteristic */
  60:.\Generated_Source\PSoC4/CYBLE_uds.c ****         {
  61:.\Generated_Source\PSoC4/CYBLE_uds.c ****             0x001Fu, /* Handle of the Age characteristic */ 
  62:.\Generated_Source\PSoC4/CYBLE_uds.c ****             
  63:.\Generated_Source\PSoC4/CYBLE_uds.c ****             /* Array of Descriptors handles */
  64:.\Generated_Source\PSoC4/CYBLE_uds.c ****             {
  65:.\Generated_Source\PSoC4/CYBLE_uds.c ****                 CYBLE_GATT_INVALID_ATTR_HANDLE_VALUE, 
  66:.\Generated_Source\PSoC4/CYBLE_uds.c ****             }, 
  67:.\Generated_Source\PSoC4/CYBLE_uds.c ****         }, 
  68:.\Generated_Source\PSoC4/CYBLE_uds.c ****         
ARM GAS  C:\Users\mohammed\AppData\Local\Temp\cceuH2T0.s 			page 4


  69:.\Generated_Source\PSoC4/CYBLE_uds.c ****         /* Date of Birth characteristic */
  70:.\Generated_Source\PSoC4/CYBLE_uds.c ****         {
  71:.\Generated_Source\PSoC4/CYBLE_uds.c ****             0x0021u, /* Handle of the Date of Birth characteristic */ 
  72:.\Generated_Source\PSoC4/CYBLE_uds.c ****             
  73:.\Generated_Source\PSoC4/CYBLE_uds.c ****             /* Array of Descriptors handles */
  74:.\Generated_Source\PSoC4/CYBLE_uds.c ****             {
  75:.\Generated_Source\PSoC4/CYBLE_uds.c ****                 CYBLE_GATT_INVALID_ATTR_HANDLE_VALUE, 
  76:.\Generated_Source\PSoC4/CYBLE_uds.c ****             }, 
  77:.\Generated_Source\PSoC4/CYBLE_uds.c ****         }, 
  78:.\Generated_Source\PSoC4/CYBLE_uds.c ****         
  79:.\Generated_Source\PSoC4/CYBLE_uds.c ****         /* Gender characteristic */
  80:.\Generated_Source\PSoC4/CYBLE_uds.c ****         {
  81:.\Generated_Source\PSoC4/CYBLE_uds.c ****             0x0023u, /* Handle of the Gender characteristic */ 
  82:.\Generated_Source\PSoC4/CYBLE_uds.c ****             
  83:.\Generated_Source\PSoC4/CYBLE_uds.c ****             /* Array of Descriptors handles */
  84:.\Generated_Source\PSoC4/CYBLE_uds.c ****             {
  85:.\Generated_Source\PSoC4/CYBLE_uds.c ****                 CYBLE_GATT_INVALID_ATTR_HANDLE_VALUE, 
  86:.\Generated_Source\PSoC4/CYBLE_uds.c ****             }, 
  87:.\Generated_Source\PSoC4/CYBLE_uds.c ****         }, 
  88:.\Generated_Source\PSoC4/CYBLE_uds.c ****         
  89:.\Generated_Source\PSoC4/CYBLE_uds.c ****         /* Weight characteristic */
  90:.\Generated_Source\PSoC4/CYBLE_uds.c ****         {
  91:.\Generated_Source\PSoC4/CYBLE_uds.c ****             0x0025u, /* Handle of the Weight characteristic */ 
  92:.\Generated_Source\PSoC4/CYBLE_uds.c ****             
  93:.\Generated_Source\PSoC4/CYBLE_uds.c ****             /* Array of Descriptors handles */
  94:.\Generated_Source\PSoC4/CYBLE_uds.c ****             {
  95:.\Generated_Source\PSoC4/CYBLE_uds.c ****                 CYBLE_GATT_INVALID_ATTR_HANDLE_VALUE, 
  96:.\Generated_Source\PSoC4/CYBLE_uds.c ****             }, 
  97:.\Generated_Source\PSoC4/CYBLE_uds.c ****         }, 
  98:.\Generated_Source\PSoC4/CYBLE_uds.c ****         
  99:.\Generated_Source\PSoC4/CYBLE_uds.c ****         /* Height characteristic */
 100:.\Generated_Source\PSoC4/CYBLE_uds.c ****         {
 101:.\Generated_Source\PSoC4/CYBLE_uds.c ****             0x0027u, /* Handle of the Height characteristic */ 
 102:.\Generated_Source\PSoC4/CYBLE_uds.c ****             
 103:.\Generated_Source\PSoC4/CYBLE_uds.c ****             /* Array of Descriptors handles */
 104:.\Generated_Source\PSoC4/CYBLE_uds.c ****             {
 105:.\Generated_Source\PSoC4/CYBLE_uds.c ****                 CYBLE_GATT_INVALID_ATTR_HANDLE_VALUE, 
 106:.\Generated_Source\PSoC4/CYBLE_uds.c ****             }, 
 107:.\Generated_Source\PSoC4/CYBLE_uds.c ****         }, 
 108:.\Generated_Source\PSoC4/CYBLE_uds.c ****         
 109:.\Generated_Source\PSoC4/CYBLE_uds.c ****         /* VO2 Max characteristic */
 110:.\Generated_Source\PSoC4/CYBLE_uds.c ****         {
 111:.\Generated_Source\PSoC4/CYBLE_uds.c ****             0x0029u, /* Handle of the VO2 Max characteristic */ 
 112:.\Generated_Source\PSoC4/CYBLE_uds.c ****             
 113:.\Generated_Source\PSoC4/CYBLE_uds.c ****             /* Array of Descriptors handles */
 114:.\Generated_Source\PSoC4/CYBLE_uds.c ****             {
 115:.\Generated_Source\PSoC4/CYBLE_uds.c ****                 CYBLE_GATT_INVALID_ATTR_HANDLE_VALUE, 
 116:.\Generated_Source\PSoC4/CYBLE_uds.c ****             }, 
 117:.\Generated_Source\PSoC4/CYBLE_uds.c ****         }, 
 118:.\Generated_Source\PSoC4/CYBLE_uds.c ****         
 119:.\Generated_Source\PSoC4/CYBLE_uds.c ****         /* Heart Rate Max characteristic */
 120:.\Generated_Source\PSoC4/CYBLE_uds.c ****         {
 121:.\Generated_Source\PSoC4/CYBLE_uds.c ****             0x002Bu, /* Handle of the Heart Rate Max characteristic */ 
 122:.\Generated_Source\PSoC4/CYBLE_uds.c ****             
 123:.\Generated_Source\PSoC4/CYBLE_uds.c ****             /* Array of Descriptors handles */
 124:.\Generated_Source\PSoC4/CYBLE_uds.c ****             {
 125:.\Generated_Source\PSoC4/CYBLE_uds.c ****                 CYBLE_GATT_INVALID_ATTR_HANDLE_VALUE, 
ARM GAS  C:\Users\mohammed\AppData\Local\Temp\cceuH2T0.s 			page 5


 126:.\Generated_Source\PSoC4/CYBLE_uds.c ****             }, 
 127:.\Generated_Source\PSoC4/CYBLE_uds.c ****         }, 
 128:.\Generated_Source\PSoC4/CYBLE_uds.c ****         
 129:.\Generated_Source\PSoC4/CYBLE_uds.c ****         /* Resting Heart Rate characteristic */
 130:.\Generated_Source\PSoC4/CYBLE_uds.c ****         {
 131:.\Generated_Source\PSoC4/CYBLE_uds.c ****             0x002Du, /* Handle of the Resting Heart Rate characteristic */ 
 132:.\Generated_Source\PSoC4/CYBLE_uds.c ****             
 133:.\Generated_Source\PSoC4/CYBLE_uds.c ****             /* Array of Descriptors handles */
 134:.\Generated_Source\PSoC4/CYBLE_uds.c ****             {
 135:.\Generated_Source\PSoC4/CYBLE_uds.c ****                 CYBLE_GATT_INVALID_ATTR_HANDLE_VALUE, 
 136:.\Generated_Source\PSoC4/CYBLE_uds.c ****             }, 
 137:.\Generated_Source\PSoC4/CYBLE_uds.c ****         }, 
 138:.\Generated_Source\PSoC4/CYBLE_uds.c ****         
 139:.\Generated_Source\PSoC4/CYBLE_uds.c ****         /* Maximum Recommended Heart Rate characteristic */
 140:.\Generated_Source\PSoC4/CYBLE_uds.c ****         {
 141:.\Generated_Source\PSoC4/CYBLE_uds.c ****             0x002Fu, /* Handle of the Maximum Recommended Heart Rate characteristic */ 
 142:.\Generated_Source\PSoC4/CYBLE_uds.c ****             
 143:.\Generated_Source\PSoC4/CYBLE_uds.c ****             /* Array of Descriptors handles */
 144:.\Generated_Source\PSoC4/CYBLE_uds.c ****             {
 145:.\Generated_Source\PSoC4/CYBLE_uds.c ****                 CYBLE_GATT_INVALID_ATTR_HANDLE_VALUE, 
 146:.\Generated_Source\PSoC4/CYBLE_uds.c ****             }, 
 147:.\Generated_Source\PSoC4/CYBLE_uds.c ****         }, 
 148:.\Generated_Source\PSoC4/CYBLE_uds.c ****         
 149:.\Generated_Source\PSoC4/CYBLE_uds.c ****         /* Aerobic Threshold characteristic */
 150:.\Generated_Source\PSoC4/CYBLE_uds.c ****         {
 151:.\Generated_Source\PSoC4/CYBLE_uds.c ****             0x0031u, /* Handle of the Aerobic Threshold characteristic */ 
 152:.\Generated_Source\PSoC4/CYBLE_uds.c ****             
 153:.\Generated_Source\PSoC4/CYBLE_uds.c ****             /* Array of Descriptors handles */
 154:.\Generated_Source\PSoC4/CYBLE_uds.c ****             {
 155:.\Generated_Source\PSoC4/CYBLE_uds.c ****                 CYBLE_GATT_INVALID_ATTR_HANDLE_VALUE, 
 156:.\Generated_Source\PSoC4/CYBLE_uds.c ****             }, 
 157:.\Generated_Source\PSoC4/CYBLE_uds.c ****         }, 
 158:.\Generated_Source\PSoC4/CYBLE_uds.c ****         
 159:.\Generated_Source\PSoC4/CYBLE_uds.c ****         /* Anaerobic Threshold characteristic */
 160:.\Generated_Source\PSoC4/CYBLE_uds.c ****         {
 161:.\Generated_Source\PSoC4/CYBLE_uds.c ****             0x0033u, /* Handle of the Anaerobic Threshold characteristic */ 
 162:.\Generated_Source\PSoC4/CYBLE_uds.c ****             
 163:.\Generated_Source\PSoC4/CYBLE_uds.c ****             /* Array of Descriptors handles */
 164:.\Generated_Source\PSoC4/CYBLE_uds.c ****             {
 165:.\Generated_Source\PSoC4/CYBLE_uds.c ****                 CYBLE_GATT_INVALID_ATTR_HANDLE_VALUE, 
 166:.\Generated_Source\PSoC4/CYBLE_uds.c ****             }, 
 167:.\Generated_Source\PSoC4/CYBLE_uds.c ****         }, 
 168:.\Generated_Source\PSoC4/CYBLE_uds.c ****         
 169:.\Generated_Source\PSoC4/CYBLE_uds.c ****         /* Sport Type for Aerobic and Anaerobic Thresholds characteristic */
 170:.\Generated_Source\PSoC4/CYBLE_uds.c ****         {
 171:.\Generated_Source\PSoC4/CYBLE_uds.c ****             0x0035u, /* Handle of the Sport Type for Aerobic and Anaerobic Thresholds characteristi
 172:.\Generated_Source\PSoC4/CYBLE_uds.c ****             
 173:.\Generated_Source\PSoC4/CYBLE_uds.c ****             /* Array of Descriptors handles */
 174:.\Generated_Source\PSoC4/CYBLE_uds.c ****             {
 175:.\Generated_Source\PSoC4/CYBLE_uds.c ****                 CYBLE_GATT_INVALID_ATTR_HANDLE_VALUE, 
 176:.\Generated_Source\PSoC4/CYBLE_uds.c ****             }, 
 177:.\Generated_Source\PSoC4/CYBLE_uds.c ****         }, 
 178:.\Generated_Source\PSoC4/CYBLE_uds.c ****         
 179:.\Generated_Source\PSoC4/CYBLE_uds.c ****         /* Date of Threshold Assessment characteristic */
 180:.\Generated_Source\PSoC4/CYBLE_uds.c ****         {
 181:.\Generated_Source\PSoC4/CYBLE_uds.c ****             0x0037u, /* Handle of the Date of Threshold Assessment characteristic */ 
 182:.\Generated_Source\PSoC4/CYBLE_uds.c ****             
ARM GAS  C:\Users\mohammed\AppData\Local\Temp\cceuH2T0.s 			page 6


 183:.\Generated_Source\PSoC4/CYBLE_uds.c ****             /* Array of Descriptors handles */
 184:.\Generated_Source\PSoC4/CYBLE_uds.c ****             {
 185:.\Generated_Source\PSoC4/CYBLE_uds.c ****                 CYBLE_GATT_INVALID_ATTR_HANDLE_VALUE, 
 186:.\Generated_Source\PSoC4/CYBLE_uds.c ****             }, 
 187:.\Generated_Source\PSoC4/CYBLE_uds.c ****         }, 
 188:.\Generated_Source\PSoC4/CYBLE_uds.c ****         
 189:.\Generated_Source\PSoC4/CYBLE_uds.c ****         /* Waist Circumference characteristic */
 190:.\Generated_Source\PSoC4/CYBLE_uds.c ****         {
 191:.\Generated_Source\PSoC4/CYBLE_uds.c ****             0x0039u, /* Handle of the Waist Circumference characteristic */ 
 192:.\Generated_Source\PSoC4/CYBLE_uds.c ****             
 193:.\Generated_Source\PSoC4/CYBLE_uds.c ****             /* Array of Descriptors handles */
 194:.\Generated_Source\PSoC4/CYBLE_uds.c ****             {
 195:.\Generated_Source\PSoC4/CYBLE_uds.c ****                 CYBLE_GATT_INVALID_ATTR_HANDLE_VALUE, 
 196:.\Generated_Source\PSoC4/CYBLE_uds.c ****             }, 
 197:.\Generated_Source\PSoC4/CYBLE_uds.c ****         }, 
 198:.\Generated_Source\PSoC4/CYBLE_uds.c ****         
 199:.\Generated_Source\PSoC4/CYBLE_uds.c ****         /* Hip Circumference characteristic */
 200:.\Generated_Source\PSoC4/CYBLE_uds.c ****         {
 201:.\Generated_Source\PSoC4/CYBLE_uds.c ****             0x003Bu, /* Handle of the Hip Circumference characteristic */ 
 202:.\Generated_Source\PSoC4/CYBLE_uds.c ****             
 203:.\Generated_Source\PSoC4/CYBLE_uds.c ****             /* Array of Descriptors handles */
 204:.\Generated_Source\PSoC4/CYBLE_uds.c ****             {
 205:.\Generated_Source\PSoC4/CYBLE_uds.c ****                 CYBLE_GATT_INVALID_ATTR_HANDLE_VALUE, 
 206:.\Generated_Source\PSoC4/CYBLE_uds.c ****             }, 
 207:.\Generated_Source\PSoC4/CYBLE_uds.c ****         }, 
 208:.\Generated_Source\PSoC4/CYBLE_uds.c ****         
 209:.\Generated_Source\PSoC4/CYBLE_uds.c ****         /* Fat Burn Heart Rate Lower Limit characteristic */
 210:.\Generated_Source\PSoC4/CYBLE_uds.c ****         {
 211:.\Generated_Source\PSoC4/CYBLE_uds.c ****             0x003Du, /* Handle of the Fat Burn Heart Rate Lower Limit characteristic */ 
 212:.\Generated_Source\PSoC4/CYBLE_uds.c ****             
 213:.\Generated_Source\PSoC4/CYBLE_uds.c ****             /* Array of Descriptors handles */
 214:.\Generated_Source\PSoC4/CYBLE_uds.c ****             {
 215:.\Generated_Source\PSoC4/CYBLE_uds.c ****                 CYBLE_GATT_INVALID_ATTR_HANDLE_VALUE, 
 216:.\Generated_Source\PSoC4/CYBLE_uds.c ****             }, 
 217:.\Generated_Source\PSoC4/CYBLE_uds.c ****         }, 
 218:.\Generated_Source\PSoC4/CYBLE_uds.c ****         
 219:.\Generated_Source\PSoC4/CYBLE_uds.c ****         /* Fat Burn Heart Rate Upper Limit characteristic */
 220:.\Generated_Source\PSoC4/CYBLE_uds.c ****         {
 221:.\Generated_Source\PSoC4/CYBLE_uds.c ****             0x003Fu, /* Handle of the Fat Burn Heart Rate Upper Limit characteristic */ 
 222:.\Generated_Source\PSoC4/CYBLE_uds.c ****             
 223:.\Generated_Source\PSoC4/CYBLE_uds.c ****             /* Array of Descriptors handles */
 224:.\Generated_Source\PSoC4/CYBLE_uds.c ****             {
 225:.\Generated_Source\PSoC4/CYBLE_uds.c ****                 CYBLE_GATT_INVALID_ATTR_HANDLE_VALUE, 
 226:.\Generated_Source\PSoC4/CYBLE_uds.c ****             }, 
 227:.\Generated_Source\PSoC4/CYBLE_uds.c ****         }, 
 228:.\Generated_Source\PSoC4/CYBLE_uds.c ****         
 229:.\Generated_Source\PSoC4/CYBLE_uds.c ****         /* Aerobic Heart Rate Lower Limit characteristic */
 230:.\Generated_Source\PSoC4/CYBLE_uds.c ****         {
 231:.\Generated_Source\PSoC4/CYBLE_uds.c ****             0x0041u, /* Handle of the Aerobic Heart Rate Lower Limit characteristic */ 
 232:.\Generated_Source\PSoC4/CYBLE_uds.c ****             
 233:.\Generated_Source\PSoC4/CYBLE_uds.c ****             /* Array of Descriptors handles */
 234:.\Generated_Source\PSoC4/CYBLE_uds.c ****             {
 235:.\Generated_Source\PSoC4/CYBLE_uds.c ****                 CYBLE_GATT_INVALID_ATTR_HANDLE_VALUE, 
 236:.\Generated_Source\PSoC4/CYBLE_uds.c ****             }, 
 237:.\Generated_Source\PSoC4/CYBLE_uds.c ****         }, 
 238:.\Generated_Source\PSoC4/CYBLE_uds.c ****         
 239:.\Generated_Source\PSoC4/CYBLE_uds.c ****         /* Aerobic Heart Rate Upper Limit characteristic */
ARM GAS  C:\Users\mohammed\AppData\Local\Temp\cceuH2T0.s 			page 7


 240:.\Generated_Source\PSoC4/CYBLE_uds.c ****         {
 241:.\Generated_Source\PSoC4/CYBLE_uds.c ****             0x0043u, /* Handle of the Aerobic Heart Rate Upper Limit characteristic */ 
 242:.\Generated_Source\PSoC4/CYBLE_uds.c ****             
 243:.\Generated_Source\PSoC4/CYBLE_uds.c ****             /* Array of Descriptors handles */
 244:.\Generated_Source\PSoC4/CYBLE_uds.c ****             {
 245:.\Generated_Source\PSoC4/CYBLE_uds.c ****                 CYBLE_GATT_INVALID_ATTR_HANDLE_VALUE, 
 246:.\Generated_Source\PSoC4/CYBLE_uds.c ****             }, 
 247:.\Generated_Source\PSoC4/CYBLE_uds.c ****         }, 
 248:.\Generated_Source\PSoC4/CYBLE_uds.c ****         
 249:.\Generated_Source\PSoC4/CYBLE_uds.c ****         /* Anaerobic Heart Rate Lower Limit characteristic */
 250:.\Generated_Source\PSoC4/CYBLE_uds.c ****         {
 251:.\Generated_Source\PSoC4/CYBLE_uds.c ****             0x0045u, /* Handle of the Anaerobic Heart Rate Lower Limit characteristic */ 
 252:.\Generated_Source\PSoC4/CYBLE_uds.c ****             
 253:.\Generated_Source\PSoC4/CYBLE_uds.c ****             /* Array of Descriptors handles */
 254:.\Generated_Source\PSoC4/CYBLE_uds.c ****             {
 255:.\Generated_Source\PSoC4/CYBLE_uds.c ****                 CYBLE_GATT_INVALID_ATTR_HANDLE_VALUE, 
 256:.\Generated_Source\PSoC4/CYBLE_uds.c ****             }, 
 257:.\Generated_Source\PSoC4/CYBLE_uds.c ****         }, 
 258:.\Generated_Source\PSoC4/CYBLE_uds.c ****         
 259:.\Generated_Source\PSoC4/CYBLE_uds.c ****         /* Anaerobic Heart Rate Upper Limit characteristic */
 260:.\Generated_Source\PSoC4/CYBLE_uds.c ****         {
 261:.\Generated_Source\PSoC4/CYBLE_uds.c ****             0x0047u, /* Handle of the Anaerobic Heart Rate Upper Limit characteristic */ 
 262:.\Generated_Source\PSoC4/CYBLE_uds.c ****             
 263:.\Generated_Source\PSoC4/CYBLE_uds.c ****             /* Array of Descriptors handles */
 264:.\Generated_Source\PSoC4/CYBLE_uds.c ****             {
 265:.\Generated_Source\PSoC4/CYBLE_uds.c ****                 CYBLE_GATT_INVALID_ATTR_HANDLE_VALUE, 
 266:.\Generated_Source\PSoC4/CYBLE_uds.c ****             }, 
 267:.\Generated_Source\PSoC4/CYBLE_uds.c ****         }, 
 268:.\Generated_Source\PSoC4/CYBLE_uds.c ****         
 269:.\Generated_Source\PSoC4/CYBLE_uds.c ****         /* Five Zone Heart Rate Limits characteristic */
 270:.\Generated_Source\PSoC4/CYBLE_uds.c ****         {
 271:.\Generated_Source\PSoC4/CYBLE_uds.c ****             0x0049u, /* Handle of the Five Zone Heart Rate Limits characteristic */ 
 272:.\Generated_Source\PSoC4/CYBLE_uds.c ****             
 273:.\Generated_Source\PSoC4/CYBLE_uds.c ****             /* Array of Descriptors handles */
 274:.\Generated_Source\PSoC4/CYBLE_uds.c ****             {
 275:.\Generated_Source\PSoC4/CYBLE_uds.c ****                 CYBLE_GATT_INVALID_ATTR_HANDLE_VALUE, 
 276:.\Generated_Source\PSoC4/CYBLE_uds.c ****             }, 
 277:.\Generated_Source\PSoC4/CYBLE_uds.c ****         }, 
 278:.\Generated_Source\PSoC4/CYBLE_uds.c ****         
 279:.\Generated_Source\PSoC4/CYBLE_uds.c ****         /* Three Zone Heart Rate Limits characteristic */
 280:.\Generated_Source\PSoC4/CYBLE_uds.c ****         {
 281:.\Generated_Source\PSoC4/CYBLE_uds.c ****             0x004Bu, /* Handle of the Three Zone Heart Rate Limits characteristic */ 
 282:.\Generated_Source\PSoC4/CYBLE_uds.c ****             
 283:.\Generated_Source\PSoC4/CYBLE_uds.c ****             /* Array of Descriptors handles */
 284:.\Generated_Source\PSoC4/CYBLE_uds.c ****             {
 285:.\Generated_Source\PSoC4/CYBLE_uds.c ****                 CYBLE_GATT_INVALID_ATTR_HANDLE_VALUE, 
 286:.\Generated_Source\PSoC4/CYBLE_uds.c ****             }, 
 287:.\Generated_Source\PSoC4/CYBLE_uds.c ****         }, 
 288:.\Generated_Source\PSoC4/CYBLE_uds.c ****         
 289:.\Generated_Source\PSoC4/CYBLE_uds.c ****         /* Two Zone Heart Rate Limit characteristic */
 290:.\Generated_Source\PSoC4/CYBLE_uds.c ****         {
 291:.\Generated_Source\PSoC4/CYBLE_uds.c ****             0x004Du, /* Handle of the Two Zone Heart Rate Limit characteristic */ 
 292:.\Generated_Source\PSoC4/CYBLE_uds.c ****             
 293:.\Generated_Source\PSoC4/CYBLE_uds.c ****             /* Array of Descriptors handles */
 294:.\Generated_Source\PSoC4/CYBLE_uds.c ****             {
 295:.\Generated_Source\PSoC4/CYBLE_uds.c ****                 CYBLE_GATT_INVALID_ATTR_HANDLE_VALUE, 
 296:.\Generated_Source\PSoC4/CYBLE_uds.c ****             }, 
ARM GAS  C:\Users\mohammed\AppData\Local\Temp\cceuH2T0.s 			page 8


 297:.\Generated_Source\PSoC4/CYBLE_uds.c ****         }, 
 298:.\Generated_Source\PSoC4/CYBLE_uds.c ****         
 299:.\Generated_Source\PSoC4/CYBLE_uds.c ****         /* Database Change Increment characteristic */
 300:.\Generated_Source\PSoC4/CYBLE_uds.c ****         {
 301:.\Generated_Source\PSoC4/CYBLE_uds.c ****             0x004Fu, /* Handle of the Database Change Increment characteristic */ 
 302:.\Generated_Source\PSoC4/CYBLE_uds.c ****             
 303:.\Generated_Source\PSoC4/CYBLE_uds.c ****             /* Array of Descriptors handles */
 304:.\Generated_Source\PSoC4/CYBLE_uds.c ****             {
 305:.\Generated_Source\PSoC4/CYBLE_uds.c ****                 0x0050u, /* Handle of the Client Characteristic Configuration descriptor */ 
 306:.\Generated_Source\PSoC4/CYBLE_uds.c ****             }, 
 307:.\Generated_Source\PSoC4/CYBLE_uds.c ****         }, 
 308:.\Generated_Source\PSoC4/CYBLE_uds.c ****         
 309:.\Generated_Source\PSoC4/CYBLE_uds.c ****         /* User Index characteristic */
 310:.\Generated_Source\PSoC4/CYBLE_uds.c ****         {
 311:.\Generated_Source\PSoC4/CYBLE_uds.c ****             0x0052u, /* Handle of the User Index characteristic */ 
 312:.\Generated_Source\PSoC4/CYBLE_uds.c ****             
 313:.\Generated_Source\PSoC4/CYBLE_uds.c ****             /* Array of Descriptors handles */
 314:.\Generated_Source\PSoC4/CYBLE_uds.c ****             {
 315:.\Generated_Source\PSoC4/CYBLE_uds.c ****                 CYBLE_GATT_INVALID_ATTR_HANDLE_VALUE, 
 316:.\Generated_Source\PSoC4/CYBLE_uds.c ****             }, 
 317:.\Generated_Source\PSoC4/CYBLE_uds.c ****         }, 
 318:.\Generated_Source\PSoC4/CYBLE_uds.c ****         
 319:.\Generated_Source\PSoC4/CYBLE_uds.c ****         /* User Control Point characteristic */
 320:.\Generated_Source\PSoC4/CYBLE_uds.c ****         {
 321:.\Generated_Source\PSoC4/CYBLE_uds.c ****             0x0054u, /* Handle of the User Control Point characteristic */ 
 322:.\Generated_Source\PSoC4/CYBLE_uds.c ****             
 323:.\Generated_Source\PSoC4/CYBLE_uds.c ****             /* Array of Descriptors handles */
 324:.\Generated_Source\PSoC4/CYBLE_uds.c ****             {
 325:.\Generated_Source\PSoC4/CYBLE_uds.c ****                 0x0055u, /* Handle of the Client Characteristic Configuration descriptor */ 
 326:.\Generated_Source\PSoC4/CYBLE_uds.c ****             }, 
 327:.\Generated_Source\PSoC4/CYBLE_uds.c ****         }, 
 328:.\Generated_Source\PSoC4/CYBLE_uds.c ****         
 329:.\Generated_Source\PSoC4/CYBLE_uds.c ****         /* Language characteristic */
 330:.\Generated_Source\PSoC4/CYBLE_uds.c ****         {
 331:.\Generated_Source\PSoC4/CYBLE_uds.c ****             0x0057u, /* Handle of the Language characteristic */ 
 332:.\Generated_Source\PSoC4/CYBLE_uds.c ****             
 333:.\Generated_Source\PSoC4/CYBLE_uds.c ****             /* Array of Descriptors handles */
 334:.\Generated_Source\PSoC4/CYBLE_uds.c ****             {
 335:.\Generated_Source\PSoC4/CYBLE_uds.c ****                 CYBLE_GATT_INVALID_ATTR_HANDLE_VALUE, 
 336:.\Generated_Source\PSoC4/CYBLE_uds.c ****             }, 
 337:.\Generated_Source\PSoC4/CYBLE_uds.c ****         }, 
 338:.\Generated_Source\PSoC4/CYBLE_uds.c ****     },
 339:.\Generated_Source\PSoC4/CYBLE_uds.c **** };
 340:.\Generated_Source\PSoC4/CYBLE_uds.c **** /* End of generated code */
 341:.\Generated_Source\PSoC4/CYBLE_uds.c ****     uint8 cyBle_udsFlag;
 342:.\Generated_Source\PSoC4/CYBLE_uds.c ****     
 343:.\Generated_Source\PSoC4/CYBLE_uds.c **** static CYBLE_GATT_DB_ATTR_HANDLE_T cyBle_udssReqHandle;
 344:.\Generated_Source\PSoC4/CYBLE_uds.c **** 
 345:.\Generated_Source\PSoC4/CYBLE_uds.c **** #endif /* CYBLE_UDS_SERVER */
 346:.\Generated_Source\PSoC4/CYBLE_uds.c **** 
 347:.\Generated_Source\PSoC4/CYBLE_uds.c **** #ifdef CYBLE_UDS_CLIENT
 348:.\Generated_Source\PSoC4/CYBLE_uds.c ****     
 349:.\Generated_Source\PSoC4/CYBLE_uds.c **** /* Server's User Data Service characteristics GATT DB handles structure */
 350:.\Generated_Source\PSoC4/CYBLE_uds.c **** CYBLE_UDSC_T cyBle_udsc;
 351:.\Generated_Source\PSoC4/CYBLE_uds.c **** 
 352:.\Generated_Source\PSoC4/CYBLE_uds.c **** /* Internal storage for last request handle to check response */
 353:.\Generated_Source\PSoC4/CYBLE_uds.c **** static CYBLE_GATT_DB_ATTR_HANDLE_T cyBle_udscReqHandle;
ARM GAS  C:\Users\mohammed\AppData\Local\Temp\cceuH2T0.s 			page 9


 354:.\Generated_Source\PSoC4/CYBLE_uds.c ****     
 355:.\Generated_Source\PSoC4/CYBLE_uds.c **** /* Read Long Descriptors variables */
 356:.\Generated_Source\PSoC4/CYBLE_uds.c **** static uint8 * cyBle_udscRdLongBuffPtr = NULL;
 357:.\Generated_Source\PSoC4/CYBLE_uds.c **** static uint8 cyBle_udscRdLongBuffLen = 0u;
 358:.\Generated_Source\PSoC4/CYBLE_uds.c **** static uint8 cyBle_udscCurrLen = 0u;
 359:.\Generated_Source\PSoC4/CYBLE_uds.c ****     
 360:.\Generated_Source\PSoC4/CYBLE_uds.c **** #endif /* CYBLE_UDS_CLIENT */
 361:.\Generated_Source\PSoC4/CYBLE_uds.c **** 
 362:.\Generated_Source\PSoC4/CYBLE_uds.c **** 
 363:.\Generated_Source\PSoC4/CYBLE_uds.c **** /******************************************************************************
 364:.\Generated_Source\PSoC4/CYBLE_uds.c **** * Function Name: CyBle_UdsInit
 365:.\Generated_Source\PSoC4/CYBLE_uds.c **** ***************************************************************************//**
 366:.\Generated_Source\PSoC4/CYBLE_uds.c **** * 
 367:.\Generated_Source\PSoC4/CYBLE_uds.c **** *  Initializes the profile internals.
 368:.\Generated_Source\PSoC4/CYBLE_uds.c **** * 
 369:.\Generated_Source\PSoC4/CYBLE_uds.c **** * \return
 370:.\Generated_Source\PSoC4/CYBLE_uds.c **** *  None.
 371:.\Generated_Source\PSoC4/CYBLE_uds.c **** * 
 372:.\Generated_Source\PSoC4/CYBLE_uds.c **** ******************************************************************************/
 373:.\Generated_Source\PSoC4/CYBLE_uds.c **** void CyBle_UdsInit(void)
 374:.\Generated_Source\PSoC4/CYBLE_uds.c **** {
 104              		.loc 1 374 0
 105              		.cfi_startproc
 106 0000 80B5     		push	{r7, lr}
 107              		.cfi_def_cfa_offset 8
 108              		.cfi_offset 7, -8
 109              		.cfi_offset 14, -4
 110 0002 00AF     		add	r7, sp, #0
 111              		.cfi_def_cfa_register 7
 375:.\Generated_Source\PSoC4/CYBLE_uds.c **** #ifdef CYBLE_UDS_SERVER
 376:.\Generated_Source\PSoC4/CYBLE_uds.c ****     cyBle_udsFlag = 0u;
 112              		.loc 1 376 0
 113 0004 034B     		ldr	r3, .L2
 114 0006 0022     		mov	r2, #0
 115 0008 1A70     		strb	r2, [r3]
 377:.\Generated_Source\PSoC4/CYBLE_uds.c ****     cyBle_udssReqHandle = CYBLE_GATT_INVALID_ATTR_HANDLE_VALUE;
 116              		.loc 1 377 0
 117 000a 034B     		ldr	r3, .L2+4
 118 000c 0022     		mov	r2, #0
 119 000e 1A80     		strh	r2, [r3]
 378:.\Generated_Source\PSoC4/CYBLE_uds.c **** #endif /* CYBLE_UDS_SERVER */
 379:.\Generated_Source\PSoC4/CYBLE_uds.c **** #ifdef CYBLE_UDS_CLIENT
 380:.\Generated_Source\PSoC4/CYBLE_uds.c ****     if(cyBle_serverInfo[CYBLE_SRVI_UDS].range.startHandle == CYBLE_GATT_INVALID_ATTR_HANDLE_VALUE)
 381:.\Generated_Source\PSoC4/CYBLE_uds.c ****     {
 382:.\Generated_Source\PSoC4/CYBLE_uds.c ****         (void)memset(&cyBle_udsc, 0, sizeof(cyBle_udsc));
 383:.\Generated_Source\PSoC4/CYBLE_uds.c ****     }
 384:.\Generated_Source\PSoC4/CYBLE_uds.c ****     cyBle_udscReqHandle = CYBLE_GATT_INVALID_ATTR_HANDLE_VALUE;
 385:.\Generated_Source\PSoC4/CYBLE_uds.c **** #endif /* CYBLE_UDS_CLIENT */
 386:.\Generated_Source\PSoC4/CYBLE_uds.c **** }
 120              		.loc 1 386 0
 121 0010 BD46     		mov	sp, r7
 122              		@ sp needed
 123 0012 80BD     		pop	{r7, pc}
 124              	.L3:
 125              		.align	2
 126              	.L2:
 127 0014 00000000 		.word	cyBle_udsFlag
ARM GAS  C:\Users\mohammed\AppData\Local\Temp\cceuH2T0.s 			page 10


 128 0018 04000000 		.word	cyBle_udssReqHandle
 129              		.cfi_endproc
 130              	.LFE2:
 131              		.size	CyBle_UdsInit, .-CyBle_UdsInit
 132              		.section	.text.CyBle_UdsRegisterAttrCallback,"ax",%progbits
 133              		.align	2
 134              		.global	CyBle_UdsRegisterAttrCallback
 135              		.code	16
 136              		.thumb_func
 137              		.type	CyBle_UdsRegisterAttrCallback, %function
 138              	CyBle_UdsRegisterAttrCallback:
 139              	.LFB3:
 387:.\Generated_Source\PSoC4/CYBLE_uds.c **** 
 388:.\Generated_Source\PSoC4/CYBLE_uds.c **** 
 389:.\Generated_Source\PSoC4/CYBLE_uds.c **** /******************************************************************************
 390:.\Generated_Source\PSoC4/CYBLE_uds.c **** * Function Name: CyBle_UdsRegisterAttrCallback
 391:.\Generated_Source\PSoC4/CYBLE_uds.c **** ***************************************************************************//**
 392:.\Generated_Source\PSoC4/CYBLE_uds.c **** * 
 393:.\Generated_Source\PSoC4/CYBLE_uds.c **** *  Registers a callback function for service-specific attribute operations.
 394:.\Generated_Source\PSoC4/CYBLE_uds.c **** *  Service-specific write requests from a peer device will not be handled with
 395:.\Generated_Source\PSoC4/CYBLE_uds.c **** *  an unregistered callback function.
 396:.\Generated_Source\PSoC4/CYBLE_uds.c **** * 
 397:.\Generated_Source\PSoC4/CYBLE_uds.c **** *  \param callbackFunc: An application layer event callback function to receive 
 398:.\Generated_Source\PSoC4/CYBLE_uds.c **** *                        events from the BLE Component. The definition of 
 399:.\Generated_Source\PSoC4/CYBLE_uds.c **** *                        CYBLE_CALLBACK_T for UDS is: \n
 400:.\Generated_Source\PSoC4/CYBLE_uds.c **** *    typedef void (* CYBLE_CALLBACK_T) (uint32 eventCode, void *eventParam),
 401:.\Generated_Source\PSoC4/CYBLE_uds.c **** *    where:
 402:.\Generated_Source\PSoC4/CYBLE_uds.c **** *      * eventCode indicates the event that triggered this callback.
 403:.\Generated_Source\PSoC4/CYBLE_uds.c **** *      * eventParam contains the parameters corresponding to the current event.
 404:.\Generated_Source\PSoC4/CYBLE_uds.c **** *
 405:.\Generated_Source\PSoC4/CYBLE_uds.c **** * \return
 406:.\Generated_Source\PSoC4/CYBLE_uds.c **** *  None.
 407:.\Generated_Source\PSoC4/CYBLE_uds.c **** *
 408:.\Generated_Source\PSoC4/CYBLE_uds.c **** * \events
 409:.\Generated_Source\PSoC4/CYBLE_uds.c **** *  None.
 410:.\Generated_Source\PSoC4/CYBLE_uds.c **** *
 411:.\Generated_Source\PSoC4/CYBLE_uds.c **** * \sideeffect
 412:.\Generated_Source\PSoC4/CYBLE_uds.c **** *  The *eventParams in the callback function should not be used by the 
 413:.\Generated_Source\PSoC4/CYBLE_uds.c **** *  application once the callback function execution is finished. Otherwise this
 414:.\Generated_Source\PSoC4/CYBLE_uds.c **** *  data may become corrupted.
 415:.\Generated_Source\PSoC4/CYBLE_uds.c **** *  
 416:.\Generated_Source\PSoC4/CYBLE_uds.c **** ******************************************************************************/
 417:.\Generated_Source\PSoC4/CYBLE_uds.c **** void CyBle_UdsRegisterAttrCallback(CYBLE_CALLBACK_T callbackFunc)
 418:.\Generated_Source\PSoC4/CYBLE_uds.c **** {
 140              		.loc 1 418 0
 141              		.cfi_startproc
 142 0000 80B5     		push	{r7, lr}
 143              		.cfi_def_cfa_offset 8
 144              		.cfi_offset 7, -8
 145              		.cfi_offset 14, -4
 146 0002 82B0     		sub	sp, sp, #8
 147              		.cfi_def_cfa_offset 16
 148 0004 00AF     		add	r7, sp, #0
 149              		.cfi_def_cfa_register 7
 150 0006 7860     		str	r0, [r7, #4]
 419:.\Generated_Source\PSoC4/CYBLE_uds.c ****     CyBle_UdsApplCallback = callbackFunc;
 151              		.loc 1 419 0
ARM GAS  C:\Users\mohammed\AppData\Local\Temp\cceuH2T0.s 			page 11


 152 0008 024B     		ldr	r3, .L5
 153 000a 7A68     		ldr	r2, [r7, #4]
 154 000c 1A60     		str	r2, [r3]
 420:.\Generated_Source\PSoC4/CYBLE_uds.c **** }
 155              		.loc 1 420 0
 156 000e BD46     		mov	sp, r7
 157 0010 02B0     		add	sp, sp, #8
 158              		@ sp needed
 159 0012 80BD     		pop	{r7, pc}
 160              	.L6:
 161              		.align	2
 162              	.L5:
 163 0014 00000000 		.word	CyBle_UdsApplCallback
 164              		.cfi_endproc
 165              	.LFE3:
 166              		.size	CyBle_UdsRegisterAttrCallback, .-CyBle_UdsRegisterAttrCallback
 167              		.section	.text.CyBle_UdssSetCharacteristicValue,"ax",%progbits
 168              		.align	2
 169              		.global	CyBle_UdssSetCharacteristicValue
 170              		.code	16
 171              		.thumb_func
 172              		.type	CyBle_UdssSetCharacteristicValue, %function
 173              	CyBle_UdssSetCharacteristicValue:
 174              	.LFB4:
 421:.\Generated_Source\PSoC4/CYBLE_uds.c **** 
 422:.\Generated_Source\PSoC4/CYBLE_uds.c **** 
 423:.\Generated_Source\PSoC4/CYBLE_uds.c **** #ifdef CYBLE_UDS_SERVER
 424:.\Generated_Source\PSoC4/CYBLE_uds.c **** 
 425:.\Generated_Source\PSoC4/CYBLE_uds.c **** 
 426:.\Generated_Source\PSoC4/CYBLE_uds.c **** /******************************************************************************
 427:.\Generated_Source\PSoC4/CYBLE_uds.c **** * Function Name: CyBle_UdssSetCharacteristicValue
 428:.\Generated_Source\PSoC4/CYBLE_uds.c **** ***************************************************************************//**
 429:.\Generated_Source\PSoC4/CYBLE_uds.c **** * 
 430:.\Generated_Source\PSoC4/CYBLE_uds.c **** *  Sets the value of the characteristic, as identified by charIndex.
 431:.\Generated_Source\PSoC4/CYBLE_uds.c **** * 
 432:.\Generated_Source\PSoC4/CYBLE_uds.c **** *  \param charIndex:  The index of the service characteristic.
 433:.\Generated_Source\PSoC4/CYBLE_uds.c **** *  \param attrSize:   The size of the characteristic value attribute.
 434:.\Generated_Source\PSoC4/CYBLE_uds.c **** *  \param attrValue: The pointer to the characteristic value data that should be
 435:.\Generated_Source\PSoC4/CYBLE_uds.c **** *                     stored to the GATT database.
 436:.\Generated_Source\PSoC4/CYBLE_uds.c **** * 
 437:.\Generated_Source\PSoC4/CYBLE_uds.c **** * \return
 438:.\Generated_Source\PSoC4/CYBLE_uds.c **** *  A return value is of type CYBLE_API_RESULT_T.
 439:.\Generated_Source\PSoC4/CYBLE_uds.c **** *  * CYBLE_ERROR_OK - The request handled successfully.
 440:.\Generated_Source\PSoC4/CYBLE_uds.c **** *  * CYBLE_ERROR_INVALID_PARAMETER - Validation of the input parameter failed.
 441:.\Generated_Source\PSoC4/CYBLE_uds.c **** *  * CYBLE_ERROR_GATT_DB_INVALID_ATTR_HANDLE - An optional characteristic is absent
 442:.\Generated_Source\PSoC4/CYBLE_uds.c **** *
 443:.\Generated_Source\PSoC4/CYBLE_uds.c **** * \events
 444:.\Generated_Source\PSoC4/CYBLE_uds.c **** *  None
 445:.\Generated_Source\PSoC4/CYBLE_uds.c **** *
 446:.\Generated_Source\PSoC4/CYBLE_uds.c **** ******************************************************************************/
 447:.\Generated_Source\PSoC4/CYBLE_uds.c **** CYBLE_API_RESULT_T CyBle_UdssSetCharacteristicValue(CYBLE_UDS_CHAR_INDEX_T charIndex, uint8 attrSiz
 448:.\Generated_Source\PSoC4/CYBLE_uds.c **** {
 175              		.loc 1 448 0
 176              		.cfi_startproc
 177 0000 80B5     		push	{r7, lr}
 178              		.cfi_def_cfa_offset 8
 179              		.cfi_offset 7, -8
ARM GAS  C:\Users\mohammed\AppData\Local\Temp\cceuH2T0.s 			page 12


 180              		.cfi_offset 14, -4
 181 0002 86B0     		sub	sp, sp, #24
 182              		.cfi_def_cfa_offset 32
 183 0004 00AF     		add	r7, sp, #0
 184              		.cfi_def_cfa_register 7
 185 0006 3A60     		str	r2, [r7]
 186 0008 FB1D     		add	r3, r7, #7
 187 000a 021C     		add	r2, r0, #0
 188 000c 1A70     		strb	r2, [r3]
 189 000e BB1D     		add	r3, r7, #6
 190 0010 0A1C     		add	r2, r1, #0
 191 0012 1A70     		strb	r2, [r3]
 449:.\Generated_Source\PSoC4/CYBLE_uds.c ****     CYBLE_API_RESULT_T apiResult;
 450:.\Generated_Source\PSoC4/CYBLE_uds.c ****     
 451:.\Generated_Source\PSoC4/CYBLE_uds.c ****     /* Check parameters */
 452:.\Generated_Source\PSoC4/CYBLE_uds.c ****     if(charIndex >= CYBLE_UDS_CHAR_COUNT)
 192              		.loc 1 452 0
 193 0014 FB1D     		add	r3, r7, #7
 194 0016 1B78     		ldrb	r3, [r3]
 195 0018 1E2B     		cmp	r3, #30
 196 001a 04D9     		bls	.L8
 453:.\Generated_Source\PSoC4/CYBLE_uds.c ****     {
 454:.\Generated_Source\PSoC4/CYBLE_uds.c ****         apiResult = CYBLE_ERROR_INVALID_PARAMETER;
 197              		.loc 1 454 0
 198 001c 1623     		mov	r3, #22
 199 001e FB18     		add	r3, r7, r3
 200 0020 0122     		mov	r2, #1
 201 0022 1A80     		strh	r2, [r3]
 202 0024 32E0     		b	.L9
 203              	.L8:
 455:.\Generated_Source\PSoC4/CYBLE_uds.c ****     }
 456:.\Generated_Source\PSoC4/CYBLE_uds.c **** 	else if(CYBLE_GATT_INVALID_ATTR_HANDLE_VALUE == cyBle_udss.charInfo[charIndex].charHandle)
 204              		.loc 1 456 0
 205 0026 FB1D     		add	r3, r7, #7
 206 0028 1B78     		ldrb	r3, [r3]
 207 002a 1C4A     		ldr	r2, .L14
 208 002c 9B00     		lsl	r3, r3, #2
 209 002e D318     		add	r3, r2, r3
 210 0030 5B88     		ldrh	r3, [r3, #2]
 211 0032 002B     		cmp	r3, #0
 212 0034 04D1     		bne	.L10
 457:.\Generated_Source\PSoC4/CYBLE_uds.c ****     {
 458:.\Generated_Source\PSoC4/CYBLE_uds.c ****         apiResult = CYBLE_ERROR_GATT_DB_INVALID_ATTR_HANDLE;
 213              		.loc 1 458 0
 214 0036 1623     		mov	r3, #22
 215 0038 FB18     		add	r3, r7, r3
 216 003a 1322     		mov	r2, #19
 217 003c 1A80     		strh	r2, [r3]
 218 003e 25E0     		b	.L9
 219              	.L10:
 220              	.LBB2:
 459:.\Generated_Source\PSoC4/CYBLE_uds.c ****     } 
 460:.\Generated_Source\PSoC4/CYBLE_uds.c ****     else
 461:.\Generated_Source\PSoC4/CYBLE_uds.c ****     {
 462:.\Generated_Source\PSoC4/CYBLE_uds.c ****         CYBLE_GATT_HANDLE_VALUE_PAIR_T locHandleValuePair;
 463:.\Generated_Source\PSoC4/CYBLE_uds.c ****         
 464:.\Generated_Source\PSoC4/CYBLE_uds.c ****         /* Store characteristic value into GATT database */
ARM GAS  C:\Users\mohammed\AppData\Local\Temp\cceuH2T0.s 			page 13


 465:.\Generated_Source\PSoC4/CYBLE_uds.c ****         locHandleValuePair.attrHandle = cyBle_udss.charInfo[charIndex].charHandle;
 221              		.loc 1 465 0
 222 0040 FB1D     		add	r3, r7, #7
 223 0042 1B78     		ldrb	r3, [r3]
 224 0044 154A     		ldr	r2, .L14
 225 0046 9B00     		lsl	r3, r3, #2
 226 0048 D318     		add	r3, r2, r3
 227 004a 5A88     		ldrh	r2, [r3, #2]
 228 004c 0823     		mov	r3, #8
 229 004e FB18     		add	r3, r7, r3
 230 0050 1A81     		strh	r2, [r3, #8]
 466:.\Generated_Source\PSoC4/CYBLE_uds.c ****         locHandleValuePair.value.len = attrSize;
 231              		.loc 1 466 0
 232 0052 BB1D     		add	r3, r7, #6
 233 0054 1B78     		ldrb	r3, [r3]
 234 0056 9AB2     		uxth	r2, r3
 235 0058 0823     		mov	r3, #8
 236 005a FB18     		add	r3, r7, r3
 237 005c 9A80     		strh	r2, [r3, #4]
 467:.\Generated_Source\PSoC4/CYBLE_uds.c ****         locHandleValuePair.value.val = attrValue;
 238              		.loc 1 467 0
 239 005e 0823     		mov	r3, #8
 240 0060 FB18     		add	r3, r7, r3
 241 0062 3A68     		ldr	r2, [r7]
 242 0064 1A60     		str	r2, [r3]
 468:.\Generated_Source\PSoC4/CYBLE_uds.c ****         
 469:.\Generated_Source\PSoC4/CYBLE_uds.c ****         if(CYBLE_GATT_ERR_NONE != CyBle_GattsWriteAttributeValue(&locHandleValuePair,
 243              		.loc 1 469 0
 244 0066 0823     		mov	r3, #8
 245 0068 FB18     		add	r3, r7, r3
 246 006a 181C     		mov	r0, r3
 247 006c 0021     		mov	r1, #0
 248 006e 0022     		mov	r2, #0
 249 0070 0023     		mov	r3, #0
 250 0072 FFF7FEFF 		bl	CyBle_GattsWriteAttributeValue
 251 0076 031E     		sub	r3, r0, #0
 252 0078 04D0     		beq	.L11
 470:.\Generated_Source\PSoC4/CYBLE_uds.c ****                                     0u, NULL, CYBLE_GATT_DB_LOCALLY_INITIATED))
 471:.\Generated_Source\PSoC4/CYBLE_uds.c ****         {
 472:.\Generated_Source\PSoC4/CYBLE_uds.c ****             apiResult = CYBLE_ERROR_INVALID_PARAMETER;
 253              		.loc 1 472 0
 254 007a 1623     		mov	r3, #22
 255 007c FB18     		add	r3, r7, r3
 256 007e 0122     		mov	r2, #1
 257 0080 1A80     		strh	r2, [r3]
 258 0082 03E0     		b	.L9
 259              	.L11:
 473:.\Generated_Source\PSoC4/CYBLE_uds.c ****         }
 474:.\Generated_Source\PSoC4/CYBLE_uds.c ****         else
 475:.\Generated_Source\PSoC4/CYBLE_uds.c ****         {
 476:.\Generated_Source\PSoC4/CYBLE_uds.c ****             apiResult = CYBLE_ERROR_OK;
 260              		.loc 1 476 0
 261 0084 1623     		mov	r3, #22
 262 0086 FB18     		add	r3, r7, r3
 263 0088 0022     		mov	r2, #0
 264 008a 1A80     		strh	r2, [r3]
 265              	.L9:
ARM GAS  C:\Users\mohammed\AppData\Local\Temp\cceuH2T0.s 			page 14


 266              	.LBE2:
 477:.\Generated_Source\PSoC4/CYBLE_uds.c ****         }
 478:.\Generated_Source\PSoC4/CYBLE_uds.c ****     }
 479:.\Generated_Source\PSoC4/CYBLE_uds.c **** 
 480:.\Generated_Source\PSoC4/CYBLE_uds.c ****     return (apiResult);
 267              		.loc 1 480 0
 268 008c 1623     		mov	r3, #22
 269 008e FB18     		add	r3, r7, r3
 270 0090 1B88     		ldrh	r3, [r3]
 481:.\Generated_Source\PSoC4/CYBLE_uds.c **** }
 271              		.loc 1 481 0
 272 0092 181C     		mov	r0, r3
 273 0094 BD46     		mov	sp, r7
 274 0096 06B0     		add	sp, sp, #24
 275              		@ sp needed
 276 0098 80BD     		pop	{r7, pc}
 277              	.L15:
 278 009a C046     		.align	2
 279              	.L14:
 280 009c 00000000 		.word	cyBle_udss
 281              		.cfi_endproc
 282              	.LFE4:
 283              		.size	CyBle_UdssSetCharacteristicValue, .-CyBle_UdssSetCharacteristicValue
 284              		.section	.text.CyBle_UdssGetCharacteristicValue,"ax",%progbits
 285              		.align	2
 286              		.global	CyBle_UdssGetCharacteristicValue
 287              		.code	16
 288              		.thumb_func
 289              		.type	CyBle_UdssGetCharacteristicValue, %function
 290              	CyBle_UdssGetCharacteristicValue:
 291              	.LFB5:
 482:.\Generated_Source\PSoC4/CYBLE_uds.c **** 
 483:.\Generated_Source\PSoC4/CYBLE_uds.c **** 
 484:.\Generated_Source\PSoC4/CYBLE_uds.c **** /******************************************************************************
 485:.\Generated_Source\PSoC4/CYBLE_uds.c **** * Function Name: CyBle_UdssGetCharacteristicValue
 486:.\Generated_Source\PSoC4/CYBLE_uds.c **** ***************************************************************************//**
 487:.\Generated_Source\PSoC4/CYBLE_uds.c **** * 
 488:.\Generated_Source\PSoC4/CYBLE_uds.c **** *  Gets the value of the characteristic, as identified by charIndex.
 489:.\Generated_Source\PSoC4/CYBLE_uds.c **** * 
 490:.\Generated_Source\PSoC4/CYBLE_uds.c **** *  \param charIndex:  The index of the service characteristic.
 491:.\Generated_Source\PSoC4/CYBLE_uds.c **** *  \param attrSize:   The size of the characteristic value attribute.
 492:.\Generated_Source\PSoC4/CYBLE_uds.c **** *  \param attrValue: The pointer to the location where characteristic 
 493:.\Generated_Source\PSoC4/CYBLE_uds.c **** *                     value data should be stored.
 494:.\Generated_Source\PSoC4/CYBLE_uds.c **** * 
 495:.\Generated_Source\PSoC4/CYBLE_uds.c **** * \return
 496:.\Generated_Source\PSoC4/CYBLE_uds.c **** *  A return value is of type CYBLE_API_RESULT_T.
 497:.\Generated_Source\PSoC4/CYBLE_uds.c **** *   * CYBLE_ERROR_OK - The characteristic value was read successfully
 498:.\Generated_Source\PSoC4/CYBLE_uds.c **** *   * CYBLE_ERROR_INVALID_PARAMETER - Validation of the input parameter failed.
 499:.\Generated_Source\PSoC4/CYBLE_uds.c **** *   * CYBLE_ERROR_INVALID_OPERATION - Operation is invalid for this characteristic.
 500:.\Generated_Source\PSoC4/CYBLE_uds.c **** *   * CYBLE_ERROR_GATT_DB_INVALID_ATTR_HANDLE - A characteristic is absent.
 501:.\Generated_Source\PSoC4/CYBLE_uds.c **** *
 502:.\Generated_Source\PSoC4/CYBLE_uds.c **** * \events
 503:.\Generated_Source\PSoC4/CYBLE_uds.c **** *  None.
 504:.\Generated_Source\PSoC4/CYBLE_uds.c **** *
 505:.\Generated_Source\PSoC4/CYBLE_uds.c **** ******************************************************************************/
 506:.\Generated_Source\PSoC4/CYBLE_uds.c **** CYBLE_API_RESULT_T CyBle_UdssGetCharacteristicValue(CYBLE_UDS_CHAR_INDEX_T charIndex, uint8 attrSiz
 507:.\Generated_Source\PSoC4/CYBLE_uds.c **** {
ARM GAS  C:\Users\mohammed\AppData\Local\Temp\cceuH2T0.s 			page 15


 292              		.loc 1 507 0
 293              		.cfi_startproc
 294 0000 80B5     		push	{r7, lr}
 295              		.cfi_def_cfa_offset 8
 296              		.cfi_offset 7, -8
 297              		.cfi_offset 14, -4
 298 0002 86B0     		sub	sp, sp, #24
 299              		.cfi_def_cfa_offset 32
 300 0004 00AF     		add	r7, sp, #0
 301              		.cfi_def_cfa_register 7
 302 0006 3A60     		str	r2, [r7]
 303 0008 FB1D     		add	r3, r7, #7
 304 000a 021C     		add	r2, r0, #0
 305 000c 1A70     		strb	r2, [r3]
 306 000e BB1D     		add	r3, r7, #6
 307 0010 0A1C     		add	r2, r1, #0
 308 0012 1A70     		strb	r2, [r3]
 508:.\Generated_Source\PSoC4/CYBLE_uds.c ****     CYBLE_API_RESULT_T apiResult;
 509:.\Generated_Source\PSoC4/CYBLE_uds.c ****     
 510:.\Generated_Source\PSoC4/CYBLE_uds.c ****     /* Check parameters */
 511:.\Generated_Source\PSoC4/CYBLE_uds.c ****     if(charIndex >= CYBLE_UDS_CHAR_COUNT)
 309              		.loc 1 511 0
 310 0014 FB1D     		add	r3, r7, #7
 311 0016 1B78     		ldrb	r3, [r3]
 312 0018 1E2B     		cmp	r3, #30
 313 001a 04D9     		bls	.L17
 512:.\Generated_Source\PSoC4/CYBLE_uds.c ****     {
 513:.\Generated_Source\PSoC4/CYBLE_uds.c ****         apiResult = CYBLE_ERROR_INVALID_PARAMETER;
 314              		.loc 1 513 0
 315 001c 1623     		mov	r3, #22
 316 001e FB18     		add	r3, r7, r3
 317 0020 0122     		mov	r2, #1
 318 0022 1A80     		strh	r2, [r3]
 319 0024 31E0     		b	.L18
 320              	.L17:
 514:.\Generated_Source\PSoC4/CYBLE_uds.c ****     }
 515:.\Generated_Source\PSoC4/CYBLE_uds.c **** 	else if(CYBLE_GATT_INVALID_ATTR_HANDLE_VALUE == cyBle_udss.charInfo[charIndex].charHandle)
 321              		.loc 1 515 0
 322 0026 FB1D     		add	r3, r7, #7
 323 0028 1B78     		ldrb	r3, [r3]
 324 002a 1B4A     		ldr	r2, .L23
 325 002c 9B00     		lsl	r3, r3, #2
 326 002e D318     		add	r3, r2, r3
 327 0030 5B88     		ldrh	r3, [r3, #2]
 328 0032 002B     		cmp	r3, #0
 329 0034 04D1     		bne	.L19
 516:.\Generated_Source\PSoC4/CYBLE_uds.c ****     {
 517:.\Generated_Source\PSoC4/CYBLE_uds.c ****         apiResult = CYBLE_ERROR_GATT_DB_INVALID_ATTR_HANDLE;
 330              		.loc 1 517 0
 331 0036 1623     		mov	r3, #22
 332 0038 FB18     		add	r3, r7, r3
 333 003a 1322     		mov	r2, #19
 334 003c 1A80     		strh	r2, [r3]
 335 003e 24E0     		b	.L18
 336              	.L19:
 337              	.LBB3:
 518:.\Generated_Source\PSoC4/CYBLE_uds.c ****     }
ARM GAS  C:\Users\mohammed\AppData\Local\Temp\cceuH2T0.s 			page 16


 519:.\Generated_Source\PSoC4/CYBLE_uds.c ****     else
 520:.\Generated_Source\PSoC4/CYBLE_uds.c ****     {
 521:.\Generated_Source\PSoC4/CYBLE_uds.c ****         CYBLE_GATT_HANDLE_VALUE_PAIR_T locHandleValuePair;
 522:.\Generated_Source\PSoC4/CYBLE_uds.c ****         
 523:.\Generated_Source\PSoC4/CYBLE_uds.c ****         /* Get characteristic value from GATT database */
 524:.\Generated_Source\PSoC4/CYBLE_uds.c ****         locHandleValuePair.attrHandle = cyBle_udss.charInfo[charIndex].charHandle;
 338              		.loc 1 524 0
 339 0040 FB1D     		add	r3, r7, #7
 340 0042 1B78     		ldrb	r3, [r3]
 341 0044 144A     		ldr	r2, .L23
 342 0046 9B00     		lsl	r3, r3, #2
 343 0048 D318     		add	r3, r2, r3
 344 004a 5A88     		ldrh	r2, [r3, #2]
 345 004c 0823     		mov	r3, #8
 346 004e FB18     		add	r3, r7, r3
 347 0050 1A81     		strh	r2, [r3, #8]
 525:.\Generated_Source\PSoC4/CYBLE_uds.c ****         locHandleValuePair.value.len = attrSize;
 348              		.loc 1 525 0
 349 0052 BB1D     		add	r3, r7, #6
 350 0054 1B78     		ldrb	r3, [r3]
 351 0056 9AB2     		uxth	r2, r3
 352 0058 0823     		mov	r3, #8
 353 005a FB18     		add	r3, r7, r3
 354 005c 9A80     		strh	r2, [r3, #4]
 526:.\Generated_Source\PSoC4/CYBLE_uds.c ****         locHandleValuePair.value.val = attrValue;
 355              		.loc 1 526 0
 356 005e 0823     		mov	r3, #8
 357 0060 FB18     		add	r3, r7, r3
 358 0062 3A68     		ldr	r2, [r7]
 359 0064 1A60     		str	r2, [r3]
 527:.\Generated_Source\PSoC4/CYBLE_uds.c ****         
 528:.\Generated_Source\PSoC4/CYBLE_uds.c ****         if(CYBLE_GATT_ERR_NONE != CyBle_GattsReadAttributeValue(&locHandleValuePair,
 360              		.loc 1 528 0
 361 0066 0823     		mov	r3, #8
 362 0068 FB18     		add	r3, r7, r3
 363 006a 181C     		mov	r0, r3
 364 006c 0021     		mov	r1, #0
 365 006e 0022     		mov	r2, #0
 366 0070 FFF7FEFF 		bl	CyBle_GattsReadAttributeValue
 367 0074 031E     		sub	r3, r0, #0
 368 0076 04D0     		beq	.L20
 529:.\Generated_Source\PSoC4/CYBLE_uds.c ****                                     0u, CYBLE_GATT_DB_LOCALLY_INITIATED))
 530:.\Generated_Source\PSoC4/CYBLE_uds.c ****         {
 531:.\Generated_Source\PSoC4/CYBLE_uds.c ****             apiResult = CYBLE_ERROR_INVALID_PARAMETER;
 369              		.loc 1 531 0
 370 0078 1623     		mov	r3, #22
 371 007a FB18     		add	r3, r7, r3
 372 007c 0122     		mov	r2, #1
 373 007e 1A80     		strh	r2, [r3]
 374 0080 03E0     		b	.L18
 375              	.L20:
 532:.\Generated_Source\PSoC4/CYBLE_uds.c ****         }
 533:.\Generated_Source\PSoC4/CYBLE_uds.c ****         else
 534:.\Generated_Source\PSoC4/CYBLE_uds.c ****         {
 535:.\Generated_Source\PSoC4/CYBLE_uds.c ****             apiResult = CYBLE_ERROR_OK;
 376              		.loc 1 535 0
 377 0082 1623     		mov	r3, #22
ARM GAS  C:\Users\mohammed\AppData\Local\Temp\cceuH2T0.s 			page 17


 378 0084 FB18     		add	r3, r7, r3
 379 0086 0022     		mov	r2, #0
 380 0088 1A80     		strh	r2, [r3]
 381              	.L18:
 382              	.LBE3:
 536:.\Generated_Source\PSoC4/CYBLE_uds.c ****         }
 537:.\Generated_Source\PSoC4/CYBLE_uds.c ****     }
 538:.\Generated_Source\PSoC4/CYBLE_uds.c **** 
 539:.\Generated_Source\PSoC4/CYBLE_uds.c ****     return (apiResult);
 383              		.loc 1 539 0
 384 008a 1623     		mov	r3, #22
 385 008c FB18     		add	r3, r7, r3
 386 008e 1B88     		ldrh	r3, [r3]
 540:.\Generated_Source\PSoC4/CYBLE_uds.c **** }
 387              		.loc 1 540 0
 388 0090 181C     		mov	r0, r3
 389 0092 BD46     		mov	sp, r7
 390 0094 06B0     		add	sp, sp, #24
 391              		@ sp needed
 392 0096 80BD     		pop	{r7, pc}
 393              	.L24:
 394              		.align	2
 395              	.L23:
 396 0098 00000000 		.word	cyBle_udss
 397              		.cfi_endproc
 398              	.LFE5:
 399              		.size	CyBle_UdssGetCharacteristicValue, .-CyBle_UdssGetCharacteristicValue
 400              		.section	.text.CyBle_UdssGetCharacteristicDescriptor,"ax",%progbits
 401              		.align	2
 402              		.global	CyBle_UdssGetCharacteristicDescriptor
 403              		.code	16
 404              		.thumb_func
 405              		.type	CyBle_UdssGetCharacteristicDescriptor, %function
 406              	CyBle_UdssGetCharacteristicDescriptor:
 407              	.LFB6:
 541:.\Generated_Source\PSoC4/CYBLE_uds.c **** 
 542:.\Generated_Source\PSoC4/CYBLE_uds.c **** 
 543:.\Generated_Source\PSoC4/CYBLE_uds.c **** /******************************************************************************
 544:.\Generated_Source\PSoC4/CYBLE_uds.c **** * Function Name: CyBle_UdssGetCharacteristicDescriptor
 545:.\Generated_Source\PSoC4/CYBLE_uds.c **** ***************************************************************************//**
 546:.\Generated_Source\PSoC4/CYBLE_uds.c **** * 
 547:.\Generated_Source\PSoC4/CYBLE_uds.c **** *  Gets a characteristic descriptor of the specified characteristic.
 548:.\Generated_Source\PSoC4/CYBLE_uds.c **** * 
 549:.\Generated_Source\PSoC4/CYBLE_uds.c **** *  \param charIndex:  The index of the characteristic.
 550:.\Generated_Source\PSoC4/CYBLE_uds.c **** *  \param descrIndex: The index of the descriptor.
 551:.\Generated_Source\PSoC4/CYBLE_uds.c **** *  \param attrSize:   The size of the descriptor value attribute.
 552:.\Generated_Source\PSoC4/CYBLE_uds.c **** *  \param attrValue: The pointer to the location where characteristic descriptor value 
 553:.\Generated_Source\PSoC4/CYBLE_uds.c **** *                     data should be stored. 
 554:.\Generated_Source\PSoC4/CYBLE_uds.c **** * 
 555:.\Generated_Source\PSoC4/CYBLE_uds.c **** * \return
 556:.\Generated_Source\PSoC4/CYBLE_uds.c **** *  A return value is of type CYBLE_API_RESULT_T.
 557:.\Generated_Source\PSoC4/CYBLE_uds.c **** *   * CYBLE_ERROR_OK - Characteristic Descriptor value was read successfully
 558:.\Generated_Source\PSoC4/CYBLE_uds.c **** *   * CYBLE_ERROR_INVALID_PARAMETER - Validation of the input parameter failed.
 559:.\Generated_Source\PSoC4/CYBLE_uds.c **** *   * CYBLE_ERROR_GATT_DB_INVALID_ATTR_HANDLE - A characteristic is absent.
 560:.\Generated_Source\PSoC4/CYBLE_uds.c **** *
 561:.\Generated_Source\PSoC4/CYBLE_uds.c **** * \events
 562:.\Generated_Source\PSoC4/CYBLE_uds.c **** *  None.
ARM GAS  C:\Users\mohammed\AppData\Local\Temp\cceuH2T0.s 			page 18


 563:.\Generated_Source\PSoC4/CYBLE_uds.c **** *
 564:.\Generated_Source\PSoC4/CYBLE_uds.c **** ******************************************************************************/
 565:.\Generated_Source\PSoC4/CYBLE_uds.c **** CYBLE_API_RESULT_T CyBle_UdssGetCharacteristicDescriptor(CYBLE_UDS_CHAR_INDEX_T charIndex, 
 566:.\Generated_Source\PSoC4/CYBLE_uds.c ****                                                          CYBLE_UDS_DESCR_INDEX_T descrIndex,
 567:.\Generated_Source\PSoC4/CYBLE_uds.c ****                                                          uint8 attrSize, uint8 *attrValue)
 568:.\Generated_Source\PSoC4/CYBLE_uds.c **** {
 408              		.loc 1 568 0
 409              		.cfi_startproc
 410 0000 90B5     		push	{r4, r7, lr}
 411              		.cfi_def_cfa_offset 12
 412              		.cfi_offset 4, -12
 413              		.cfi_offset 7, -8
 414              		.cfi_offset 14, -4
 415 0002 87B0     		sub	sp, sp, #28
 416              		.cfi_def_cfa_offset 40
 417 0004 00AF     		add	r7, sp, #0
 418              		.cfi_def_cfa_register 7
 419 0006 041C     		mov	r4, r0
 420 0008 081C     		mov	r0, r1
 421 000a 111C     		mov	r1, r2
 422 000c 3B60     		str	r3, [r7]
 423 000e FB1D     		add	r3, r7, #7
 424 0010 221C     		add	r2, r4, #0
 425 0012 1A70     		strb	r2, [r3]
 426 0014 BB1D     		add	r3, r7, #6
 427 0016 021C     		add	r2, r0, #0
 428 0018 1A70     		strb	r2, [r3]
 429 001a 7B1D     		add	r3, r7, #5
 430 001c 0A1C     		add	r2, r1, #0
 431 001e 1A70     		strb	r2, [r3]
 569:.\Generated_Source\PSoC4/CYBLE_uds.c ****     CYBLE_API_RESULT_T apiResult;
 570:.\Generated_Source\PSoC4/CYBLE_uds.c ****     
 571:.\Generated_Source\PSoC4/CYBLE_uds.c ****     /* Check parameters */
 572:.\Generated_Source\PSoC4/CYBLE_uds.c ****     if((charIndex >= CYBLE_UDS_CHAR_COUNT) || (descrIndex >= CYBLE_UDS_DESCR_COUNT))
 432              		.loc 1 572 0
 433 0020 FB1D     		add	r3, r7, #7
 434 0022 1B78     		ldrb	r3, [r3]
 435 0024 1E2B     		cmp	r3, #30
 436 0026 03D8     		bhi	.L26
 437              		.loc 1 572 0 is_stmt 0 discriminator 1
 438 0028 BB1D     		add	r3, r7, #6
 439 002a 1B78     		ldrb	r3, [r3]
 440 002c 002B     		cmp	r3, #0
 441 002e 04D0     		beq	.L27
 442              	.L26:
 573:.\Generated_Source\PSoC4/CYBLE_uds.c ****     {
 574:.\Generated_Source\PSoC4/CYBLE_uds.c ****         apiResult = CYBLE_ERROR_INVALID_PARAMETER;
 443              		.loc 1 574 0 is_stmt 1
 444 0030 1623     		mov	r3, #22
 445 0032 FB18     		add	r3, r7, r3
 446 0034 0122     		mov	r2, #1
 447 0036 1A80     		strh	r2, [r3]
 448 0038 35E0     		b	.L28
 449              	.L27:
 575:.\Generated_Source\PSoC4/CYBLE_uds.c ****     }
 576:.\Generated_Source\PSoC4/CYBLE_uds.c ****     else if(CYBLE_GATT_INVALID_ATTR_HANDLE_VALUE == cyBle_udss.charInfo[charIndex].descrHandle[CYBL
 450              		.loc 1 576 0
ARM GAS  C:\Users\mohammed\AppData\Local\Temp\cceuH2T0.s 			page 19


 451 003a FB1D     		add	r3, r7, #7
 452 003c 1B78     		ldrb	r3, [r3]
 453 003e 1D4A     		ldr	r2, .L33
 454 0040 9B00     		lsl	r3, r3, #2
 455 0042 D318     		add	r3, r2, r3
 456 0044 9B88     		ldrh	r3, [r3, #4]
 457 0046 002B     		cmp	r3, #0
 458 0048 04D1     		bne	.L29
 577:.\Generated_Source\PSoC4/CYBLE_uds.c ****     {
 578:.\Generated_Source\PSoC4/CYBLE_uds.c ****         apiResult = CYBLE_ERROR_GATT_DB_INVALID_ATTR_HANDLE;
 459              		.loc 1 578 0
 460 004a 1623     		mov	r3, #22
 461 004c FB18     		add	r3, r7, r3
 462 004e 1322     		mov	r2, #19
 463 0050 1A80     		strh	r2, [r3]
 464 0052 28E0     		b	.L28
 465              	.L29:
 466              	.LBB4:
 579:.\Generated_Source\PSoC4/CYBLE_uds.c ****     }
 580:.\Generated_Source\PSoC4/CYBLE_uds.c ****     else
 581:.\Generated_Source\PSoC4/CYBLE_uds.c ****     {
 582:.\Generated_Source\PSoC4/CYBLE_uds.c ****         CYBLE_GATT_HANDLE_VALUE_PAIR_T locHandleValuePair;
 583:.\Generated_Source\PSoC4/CYBLE_uds.c ****         
 584:.\Generated_Source\PSoC4/CYBLE_uds.c ****         /* Get data from database */
 585:.\Generated_Source\PSoC4/CYBLE_uds.c ****         locHandleValuePair.attrHandle = cyBle_udss.charInfo[charIndex].descrHandle[descrIndex];
 467              		.loc 1 585 0
 468 0054 FB1D     		add	r3, r7, #7
 469 0056 1978     		ldrb	r1, [r3]
 470 0058 BB1D     		add	r3, r7, #6
 471 005a 1B78     		ldrb	r3, [r3]
 472 005c 154A     		ldr	r2, .L33
 473 005e 4900     		lsl	r1, r1, #1
 474 0060 CB18     		add	r3, r1, r3
 475 0062 5B00     		lsl	r3, r3, #1
 476 0064 D318     		add	r3, r2, r3
 477 0066 9A88     		ldrh	r2, [r3, #4]
 478 0068 0823     		mov	r3, #8
 479 006a FB18     		add	r3, r7, r3
 480 006c 1A81     		strh	r2, [r3, #8]
 586:.\Generated_Source\PSoC4/CYBLE_uds.c ****         locHandleValuePair.value.len = attrSize;
 481              		.loc 1 586 0
 482 006e 7B1D     		add	r3, r7, #5
 483 0070 1B78     		ldrb	r3, [r3]
 484 0072 9AB2     		uxth	r2, r3
 485 0074 0823     		mov	r3, #8
 486 0076 FB18     		add	r3, r7, r3
 487 0078 9A80     		strh	r2, [r3, #4]
 587:.\Generated_Source\PSoC4/CYBLE_uds.c ****         locHandleValuePair.value.val = attrValue;
 488              		.loc 1 587 0
 489 007a 0823     		mov	r3, #8
 490 007c FB18     		add	r3, r7, r3
 491 007e 3A68     		ldr	r2, [r7]
 492 0080 1A60     		str	r2, [r3]
 588:.\Generated_Source\PSoC4/CYBLE_uds.c **** 
 589:.\Generated_Source\PSoC4/CYBLE_uds.c ****         if(CYBLE_GATT_ERR_NONE != CyBle_GattsReadAttributeValue(&locHandleValuePair,
 493              		.loc 1 589 0
 494 0082 0823     		mov	r3, #8
ARM GAS  C:\Users\mohammed\AppData\Local\Temp\cceuH2T0.s 			page 20


 495 0084 FB18     		add	r3, r7, r3
 496 0086 181C     		mov	r0, r3
 497 0088 0021     		mov	r1, #0
 498 008a 0022     		mov	r2, #0
 499 008c FFF7FEFF 		bl	CyBle_GattsReadAttributeValue
 500 0090 031E     		sub	r3, r0, #0
 501 0092 04D0     		beq	.L30
 590:.\Generated_Source\PSoC4/CYBLE_uds.c ****                                     0u, CYBLE_GATT_DB_LOCALLY_INITIATED))
 591:.\Generated_Source\PSoC4/CYBLE_uds.c ****         {
 592:.\Generated_Source\PSoC4/CYBLE_uds.c ****             apiResult = CYBLE_ERROR_INVALID_PARAMETER;
 502              		.loc 1 592 0
 503 0094 1623     		mov	r3, #22
 504 0096 FB18     		add	r3, r7, r3
 505 0098 0122     		mov	r2, #1
 506 009a 1A80     		strh	r2, [r3]
 507 009c 03E0     		b	.L28
 508              	.L30:
 593:.\Generated_Source\PSoC4/CYBLE_uds.c ****         }
 594:.\Generated_Source\PSoC4/CYBLE_uds.c ****         else
 595:.\Generated_Source\PSoC4/CYBLE_uds.c ****         {
 596:.\Generated_Source\PSoC4/CYBLE_uds.c ****             apiResult = CYBLE_ERROR_OK;
 509              		.loc 1 596 0
 510 009e 1623     		mov	r3, #22
 511 00a0 FB18     		add	r3, r7, r3
 512 00a2 0022     		mov	r2, #0
 513 00a4 1A80     		strh	r2, [r3]
 514              	.L28:
 515              	.LBE4:
 597:.\Generated_Source\PSoC4/CYBLE_uds.c ****         }
 598:.\Generated_Source\PSoC4/CYBLE_uds.c ****     }
 599:.\Generated_Source\PSoC4/CYBLE_uds.c **** 
 600:.\Generated_Source\PSoC4/CYBLE_uds.c ****     return (apiResult);
 516              		.loc 1 600 0
 517 00a6 1623     		mov	r3, #22
 518 00a8 FB18     		add	r3, r7, r3
 519 00aa 1B88     		ldrh	r3, [r3]
 601:.\Generated_Source\PSoC4/CYBLE_uds.c **** }
 520              		.loc 1 601 0
 521 00ac 181C     		mov	r0, r3
 522 00ae BD46     		mov	sp, r7
 523 00b0 07B0     		add	sp, sp, #28
 524              		@ sp needed
 525 00b2 90BD     		pop	{r4, r7, pc}
 526              	.L34:
 527              		.align	2
 528              	.L33:
 529 00b4 00000000 		.word	cyBle_udss
 530              		.cfi_endproc
 531              	.LFE6:
 532              		.size	CyBle_UdssGetCharacteristicDescriptor, .-CyBle_UdssGetCharacteristicDescriptor
 533              		.section	.text.CyBle_UdssSendNotification,"ax",%progbits
 534              		.align	2
 535              		.global	CyBle_UdssSendNotification
 536              		.code	16
 537              		.thumb_func
 538              		.type	CyBle_UdssSendNotification, %function
 539              	CyBle_UdssSendNotification:
ARM GAS  C:\Users\mohammed\AppData\Local\Temp\cceuH2T0.s 			page 21


 540              	.LFB7:
 602:.\Generated_Source\PSoC4/CYBLE_uds.c **** 
 603:.\Generated_Source\PSoC4/CYBLE_uds.c **** 
 604:.\Generated_Source\PSoC4/CYBLE_uds.c **** /******************************************************************************
 605:.\Generated_Source\PSoC4/CYBLE_uds.c **** * Function Name: CyBle_UdssSendNotification
 606:.\Generated_Source\PSoC4/CYBLE_uds.c **** ***************************************************************************//**
 607:.\Generated_Source\PSoC4/CYBLE_uds.c **** * 
 608:.\Generated_Source\PSoC4/CYBLE_uds.c **** *  Sends a notification of the specified characteristic value, as identified by
 609:.\Generated_Source\PSoC4/CYBLE_uds.c **** *  the charIndex.
 610:.\Generated_Source\PSoC4/CYBLE_uds.c **** * 
 611:.\Generated_Source\PSoC4/CYBLE_uds.c **** *  \param connHandle: The connection handle which consist of the device ID and ATT 
 612:.\Generated_Source\PSoC4/CYBLE_uds.c **** *                     connection ID.
 613:.\Generated_Source\PSoC4/CYBLE_uds.c **** *  \param charIndex:  The index of the service characteristic.
 614:.\Generated_Source\PSoC4/CYBLE_uds.c **** *  \param attrSize:   The size of the characteristic value attribute.
 615:.\Generated_Source\PSoC4/CYBLE_uds.c **** *  \param attrValue: The pointer to the characteristic value data
 616:.\Generated_Source\PSoC4/CYBLE_uds.c **** *                     that should be sent to the client device. 
 617:.\Generated_Source\PSoC4/CYBLE_uds.c **** * 
 618:.\Generated_Source\PSoC4/CYBLE_uds.c **** * \return
 619:.\Generated_Source\PSoC4/CYBLE_uds.c **** *  A return value is of type CYBLE_API_RESULT_T.
 620:.\Generated_Source\PSoC4/CYBLE_uds.c **** *   * CYBLE_ERROR_OK - The request handled successfully.
 621:.\Generated_Source\PSoC4/CYBLE_uds.c **** *   * CYBLE_ERROR_INVALID_PARAMETER - Validation of the input parameter failed.
 622:.\Generated_Source\PSoC4/CYBLE_uds.c **** *   * CYBLE_ERROR_INVALID_OPERATION - Operation is invalid for this 
 623:.\Generated_Source\PSoC4/CYBLE_uds.c **** *                                     characteristic
 624:.\Generated_Source\PSoC4/CYBLE_uds.c **** *   * CYBLE_ERROR_GATT_DB_INVALID_ATTR_HANDLE - An optional characteristic is absent.
 625:.\Generated_Source\PSoC4/CYBLE_uds.c **** *   * CYBLE_ERROR_INVALID_STATE - Connection with the client is not established.
 626:.\Generated_Source\PSoC4/CYBLE_uds.c **** *   * CYBLE_ERROR_MEMORY_ALLOCATION_FAILED - Memory allocation failed.
 627:.\Generated_Source\PSoC4/CYBLE_uds.c **** *   * CYBLE_ERROR_NTF_DISABLED - Notification is not enabled by the client.
 628:.\Generated_Source\PSoC4/CYBLE_uds.c **** *
 629:.\Generated_Source\PSoC4/CYBLE_uds.c **** * \events
 630:.\Generated_Source\PSoC4/CYBLE_uds.c **** *  None.
 631:.\Generated_Source\PSoC4/CYBLE_uds.c **** *
 632:.\Generated_Source\PSoC4/CYBLE_uds.c **** ******************************************************************************/
 633:.\Generated_Source\PSoC4/CYBLE_uds.c **** CYBLE_API_RESULT_T CyBle_UdssSendNotification(CYBLE_CONN_HANDLE_T connHandle,
 634:.\Generated_Source\PSoC4/CYBLE_uds.c ****                     CYBLE_UDS_CHAR_INDEX_T charIndex, uint8 attrSize, uint8 *attrValue)
 635:.\Generated_Source\PSoC4/CYBLE_uds.c **** {
 541              		.loc 1 635 0
 542              		.cfi_startproc
 543 0000 90B5     		push	{r4, r7, lr}
 544              		.cfi_def_cfa_offset 12
 545              		.cfi_offset 4, -12
 546              		.cfi_offset 7, -8
 547              		.cfi_offset 14, -4
 548 0002 89B0     		sub	sp, sp, #36
 549              		.cfi_def_cfa_offset 48
 550 0004 00AF     		add	r7, sp, #0
 551              		.cfi_def_cfa_register 7
 552 0006 0C24     		mov	r4, #12
 553 0008 3C19     		add	r4, r7, r4
 554 000a 2080     		strh	r0, [r4]
 555 000c 081C     		mov	r0, r1
 556 000e 111C     		mov	r1, r2
 557 0010 7B60     		str	r3, [r7, #4]
 558 0012 0B23     		mov	r3, #11
 559 0014 FB18     		add	r3, r7, r3
 560 0016 021C     		add	r2, r0, #0
 561 0018 1A70     		strb	r2, [r3]
 562 001a 0A23     		mov	r3, #10
ARM GAS  C:\Users\mohammed\AppData\Local\Temp\cceuH2T0.s 			page 22


 563 001c FB18     		add	r3, r7, r3
 564 001e 0A1C     		add	r2, r1, #0
 565 0020 1A70     		strb	r2, [r3]
 636:.\Generated_Source\PSoC4/CYBLE_uds.c ****     CYBLE_API_RESULT_T apiResult;
 637:.\Generated_Source\PSoC4/CYBLE_uds.c ****     
 638:.\Generated_Source\PSoC4/CYBLE_uds.c ****     /* Send Notification if it is enabled and connected */
 639:.\Generated_Source\PSoC4/CYBLE_uds.c ****     if(CYBLE_STATE_CONNECTED != CyBle_GetState())
 566              		.loc 1 639 0
 567 0022 354B     		ldr	r3, .L42
 568 0024 1B78     		ldrb	r3, [r3]
 569 0026 022B     		cmp	r3, #2
 570 0028 04D0     		beq	.L36
 640:.\Generated_Source\PSoC4/CYBLE_uds.c ****     {
 641:.\Generated_Source\PSoC4/CYBLE_uds.c ****         apiResult = CYBLE_ERROR_INVALID_STATE;
 571              		.loc 1 641 0
 572 002a 1E23     		mov	r3, #30
 573 002c FB18     		add	r3, r7, r3
 574 002e 0422     		mov	r2, #4
 575 0030 FF32     		add	r2, r2, #255
 576 0032 1A80     		strh	r2, [r3]
 577              	.L36:
 642:.\Generated_Source\PSoC4/CYBLE_uds.c ****     }
 643:.\Generated_Source\PSoC4/CYBLE_uds.c ****     if(charIndex >= CYBLE_UDS_CHAR_COUNT)
 578              		.loc 1 643 0
 579 0034 0B23     		mov	r3, #11
 580 0036 FB18     		add	r3, r7, r3
 581 0038 1B78     		ldrb	r3, [r3]
 582 003a 1E2B     		cmp	r3, #30
 583 003c 04D9     		bls	.L37
 644:.\Generated_Source\PSoC4/CYBLE_uds.c ****     {
 645:.\Generated_Source\PSoC4/CYBLE_uds.c ****         apiResult = CYBLE_ERROR_INVALID_PARAMETER;
 584              		.loc 1 645 0
 585 003e 1E23     		mov	r3, #30
 586 0040 FB18     		add	r3, r7, r3
 587 0042 0122     		mov	r2, #1
 588 0044 1A80     		strh	r2, [r3]
 589 0046 4FE0     		b	.L38
 590              	.L37:
 646:.\Generated_Source\PSoC4/CYBLE_uds.c ****     }
 647:.\Generated_Source\PSoC4/CYBLE_uds.c ****     else if(CYBLE_GATT_INVALID_ATTR_HANDLE_VALUE == cyBle_udss.charInfo[charIndex].descrHandle[CYBL
 591              		.loc 1 647 0
 592 0048 0B23     		mov	r3, #11
 593 004a FB18     		add	r3, r7, r3
 594 004c 1B78     		ldrb	r3, [r3]
 595 004e 2B4A     		ldr	r2, .L42+4
 596 0050 9B00     		lsl	r3, r3, #2
 597 0052 D318     		add	r3, r2, r3
 598 0054 9B88     		ldrh	r3, [r3, #4]
 599 0056 002B     		cmp	r3, #0
 600 0058 04D1     		bne	.L39
 648:.\Generated_Source\PSoC4/CYBLE_uds.c ****     {
 649:.\Generated_Source\PSoC4/CYBLE_uds.c **** 		apiResult = CYBLE_ERROR_GATT_DB_INVALID_ATTR_HANDLE;
 601              		.loc 1 649 0
 602 005a 1E23     		mov	r3, #30
 603 005c FB18     		add	r3, r7, r3
 604 005e 1322     		mov	r2, #19
 605 0060 1A80     		strh	r2, [r3]
ARM GAS  C:\Users\mohammed\AppData\Local\Temp\cceuH2T0.s 			page 23


 606 0062 41E0     		b	.L38
 607              	.L39:
 650:.\Generated_Source\PSoC4/CYBLE_uds.c **** 	}
 651:.\Generated_Source\PSoC4/CYBLE_uds.c ****     else if(!CYBLE_IS_NOTIFICATION_ENABLED(cyBle_udss.charInfo[charIndex].descrHandle[CYBLE_UDS_CCC
 608              		.loc 1 651 0
 609 0064 0B23     		mov	r3, #11
 610 0066 FB18     		add	r3, r7, r3
 611 0068 1B78     		ldrb	r3, [r3]
 612 006a 244A     		ldr	r2, .L42+4
 613 006c 9B00     		lsl	r3, r3, #2
 614 006e D318     		add	r3, r2, r3
 615 0070 9B88     		ldrh	r3, [r3, #4]
 616 0072 5A1E     		sub	r2, r3, #1
 617 0074 2249     		ldr	r1, .L42+8
 618 0076 131C     		mov	r3, r2
 619 0078 9B00     		lsl	r3, r3, #2
 620 007a 9B18     		add	r3, r3, r2
 621 007c 9B00     		lsl	r3, r3, #2
 622 007e CB18     		add	r3, r1, r3
 623 0080 0833     		add	r3, r3, #8
 624 0082 9B68     		ldr	r3, [r3, #8]
 625 0084 5B68     		ldr	r3, [r3, #4]
 626 0086 181C     		mov	r0, r3
 627 0088 FFF7FEFF 		bl	CyBle_Get16ByPtr
 628 008c 031C     		mov	r3, r0
 629 008e 1A1C     		mov	r2, r3
 630 0090 0123     		mov	r3, #1
 631 0092 1340     		and	r3, r2
 632 0094 9BB2     		uxth	r3, r3
 633 0096 002B     		cmp	r3, #0
 634 0098 05D1     		bne	.L40
 652:.\Generated_Source\PSoC4/CYBLE_uds.c ****     {
 653:.\Generated_Source\PSoC4/CYBLE_uds.c ****         apiResult = CYBLE_ERROR_NTF_DISABLED;
 635              		.loc 1 653 0
 636 009a 1E23     		mov	r3, #30
 637 009c FB18     		add	r3, r7, r3
 638 009e 8022     		mov	r2, #128
 639 00a0 5200     		lsl	r2, r2, #1
 640 00a2 1A80     		strh	r2, [r3]
 641 00a4 20E0     		b	.L38
 642              	.L40:
 643              	.LBB5:
 654:.\Generated_Source\PSoC4/CYBLE_uds.c ****     }
 655:.\Generated_Source\PSoC4/CYBLE_uds.c ****     else
 656:.\Generated_Source\PSoC4/CYBLE_uds.c ****     {
 657:.\Generated_Source\PSoC4/CYBLE_uds.c ****         CYBLE_GATTS_HANDLE_VALUE_NTF_T ntfParam;
 658:.\Generated_Source\PSoC4/CYBLE_uds.c ****         
 659:.\Generated_Source\PSoC4/CYBLE_uds.c ****         /* Fill all fields of write request structure ... */
 660:.\Generated_Source\PSoC4/CYBLE_uds.c ****         ntfParam.attrHandle = cyBle_udss.charInfo[charIndex].charHandle; 
 644              		.loc 1 660 0
 645 00a6 0B23     		mov	r3, #11
 646 00a8 FB18     		add	r3, r7, r3
 647 00aa 1B78     		ldrb	r3, [r3]
 648 00ac 134A     		ldr	r2, .L42+4
 649 00ae 9B00     		lsl	r3, r3, #2
 650 00b0 D318     		add	r3, r2, r3
 651 00b2 5A88     		ldrh	r2, [r3, #2]
ARM GAS  C:\Users\mohammed\AppData\Local\Temp\cceuH2T0.s 			page 24


 652 00b4 1023     		mov	r3, #16
 653 00b6 FB18     		add	r3, r7, r3
 654 00b8 1A81     		strh	r2, [r3, #8]
 661:.\Generated_Source\PSoC4/CYBLE_uds.c ****         ntfParam.value.val = attrValue;
 655              		.loc 1 661 0
 656 00ba 1023     		mov	r3, #16
 657 00bc FB18     		add	r3, r7, r3
 658 00be 7A68     		ldr	r2, [r7, #4]
 659 00c0 1A60     		str	r2, [r3]
 662:.\Generated_Source\PSoC4/CYBLE_uds.c ****         ntfParam.value.len = attrSize;
 660              		.loc 1 662 0
 661 00c2 0A23     		mov	r3, #10
 662 00c4 FB18     		add	r3, r7, r3
 663 00c6 1B78     		ldrb	r3, [r3]
 664 00c8 9AB2     		uxth	r2, r3
 665 00ca 1023     		mov	r3, #16
 666 00cc FB18     		add	r3, r7, r3
 667 00ce 9A80     		strh	r2, [r3, #4]
 663:.\Generated_Source\PSoC4/CYBLE_uds.c ****         
 664:.\Generated_Source\PSoC4/CYBLE_uds.c ****         /* Send notification to client using previously filled structure */
 665:.\Generated_Source\PSoC4/CYBLE_uds.c ****         apiResult = CyBle_GattsNotification(connHandle, &ntfParam);
 668              		.loc 1 665 0
 669 00d0 1E23     		mov	r3, #30
 670 00d2 FC18     		add	r4, r7, r3
 671 00d4 0C23     		mov	r3, #12
 672 00d6 FB18     		add	r3, r7, r3
 673 00d8 1022     		mov	r2, #16
 674 00da BA18     		add	r2, r7, r2
 675 00dc 1868     		ldr	r0, [r3]
 676 00de 111C     		mov	r1, r2
 677 00e0 FFF7FEFF 		bl	CyBle_GattsNotification
 678 00e4 031C     		mov	r3, r0
 679 00e6 2380     		strh	r3, [r4]
 680              	.L38:
 681              	.LBE5:
 666:.\Generated_Source\PSoC4/CYBLE_uds.c ****     }
 667:.\Generated_Source\PSoC4/CYBLE_uds.c **** 
 668:.\Generated_Source\PSoC4/CYBLE_uds.c ****     return (apiResult);
 682              		.loc 1 668 0
 683 00e8 1E23     		mov	r3, #30
 684 00ea FB18     		add	r3, r7, r3
 685 00ec 1B88     		ldrh	r3, [r3]
 669:.\Generated_Source\PSoC4/CYBLE_uds.c **** }
 686              		.loc 1 669 0
 687 00ee 181C     		mov	r0, r3
 688 00f0 BD46     		mov	sp, r7
 689 00f2 09B0     		add	sp, sp, #36
 690              		@ sp needed
 691 00f4 90BD     		pop	{r4, r7, pc}
 692              	.L43:
 693 00f6 C046     		.align	2
 694              	.L42:
 695 00f8 00000000 		.word	cyBle_state
 696 00fc 00000000 		.word	cyBle_udss
 697 0100 00000000 		.word	cyBle_gattDB
 698              		.cfi_endproc
 699              	.LFE7:
ARM GAS  C:\Users\mohammed\AppData\Local\Temp\cceuH2T0.s 			page 25


 700              		.size	CyBle_UdssSendNotification, .-CyBle_UdssSendNotification
 701              		.section	.text.CyBle_UdssSendIndication,"ax",%progbits
 702              		.align	2
 703              		.global	CyBle_UdssSendIndication
 704              		.code	16
 705              		.thumb_func
 706              		.type	CyBle_UdssSendIndication, %function
 707              	CyBle_UdssSendIndication:
 708              	.LFB8:
 670:.\Generated_Source\PSoC4/CYBLE_uds.c **** 
 671:.\Generated_Source\PSoC4/CYBLE_uds.c **** 
 672:.\Generated_Source\PSoC4/CYBLE_uds.c **** /******************************************************************************
 673:.\Generated_Source\PSoC4/CYBLE_uds.c **** * Function Name: CyBle_UdssSendIndication
 674:.\Generated_Source\PSoC4/CYBLE_uds.c **** ***************************************************************************//**
 675:.\Generated_Source\PSoC4/CYBLE_uds.c **** * 
 676:.\Generated_Source\PSoC4/CYBLE_uds.c **** *  Sends an indication of the specified characteristic value, as identified by
 677:.\Generated_Source\PSoC4/CYBLE_uds.c **** *  the charIndex.
 678:.\Generated_Source\PSoC4/CYBLE_uds.c **** * 
 679:.\Generated_Source\PSoC4/CYBLE_uds.c **** *  \param connHandle: The connection handle which consist of the device ID and ATT 
 680:.\Generated_Source\PSoC4/CYBLE_uds.c **** *                     connection ID.
 681:.\Generated_Source\PSoC4/CYBLE_uds.c **** *  \param charIndex:  The index of the service characteristic.
 682:.\Generated_Source\PSoC4/CYBLE_uds.c **** *  \param attrSize:   The size of the characteristic value attribute.
 683:.\Generated_Source\PSoC4/CYBLE_uds.c **** *  \param attrValue: The pointer to the characteristic value data that should be sent 
 684:.\Generated_Source\PSoC4/CYBLE_uds.c **** *                     to the client device.
 685:.\Generated_Source\PSoC4/CYBLE_uds.c **** * 
 686:.\Generated_Source\PSoC4/CYBLE_uds.c **** * \return
 687:.\Generated_Source\PSoC4/CYBLE_uds.c **** *  A return value is of type CYBLE_API_RESULT_T.
 688:.\Generated_Source\PSoC4/CYBLE_uds.c **** *   * CYBLE_ERROR_OK - The request handled successfully.
 689:.\Generated_Source\PSoC4/CYBLE_uds.c **** *   * CYBLE_ERROR_INVALID_PARAMETER - Validation of the input parameter failed.
 690:.\Generated_Source\PSoC4/CYBLE_uds.c **** *   * CYBLE_ERROR_INVALID_OPERATION - Operation is invalid for this 
 691:.\Generated_Source\PSoC4/CYBLE_uds.c **** *                                      characteristic.
 692:.\Generated_Source\PSoC4/CYBLE_uds.c **** *   * CYBLE_ERROR_GATT_DB_INVALID_ATTR_HANDLE - An optional characteristic is absent.
 693:.\Generated_Source\PSoC4/CYBLE_uds.c **** *   * CYBLE_ERROR_INVALID_STATE - Connection with the client is not established.
 694:.\Generated_Source\PSoC4/CYBLE_uds.c **** *   * CYBLE_ERROR_MEMORY_ALLOCATION_FAILED - Memory allocation failed.
 695:.\Generated_Source\PSoC4/CYBLE_uds.c **** *   * CYBLE_ERROR_NTF_DISABLED - Notification is not enabled by the client.
 696:.\Generated_Source\PSoC4/CYBLE_uds.c **** *   * CYBLE_ERROR_IND_DISABLED - Indication is disabled for this characteristic.
 697:.\Generated_Source\PSoC4/CYBLE_uds.c **** *
 698:.\Generated_Source\PSoC4/CYBLE_uds.c **** * \events
 699:.\Generated_Source\PSoC4/CYBLE_uds.c **** *  In case of successful execution (return value = CYBLE_ERROR_OK)
 700:.\Generated_Source\PSoC4/CYBLE_uds.c **** *  the next events can appear: \n
 701:.\Generated_Source\PSoC4/CYBLE_uds.c **** *   If the UDS service-specific callback is registered 
 702:.\Generated_Source\PSoC4/CYBLE_uds.c **** *      (with CyBle_UdsRegisterAttrCallback):
 703:.\Generated_Source\PSoC4/CYBLE_uds.c **** *  * CYBLE_EVT_UDSS_INDICATION_CONFIRMED - If the indication is
 704:.\Generated_Source\PSoC4/CYBLE_uds.c **** *                                successfully delivered to the peer device.
 705:.\Generated_Source\PSoC4/CYBLE_uds.c **** *  .
 706:.\Generated_Source\PSoC4/CYBLE_uds.c **** *   Otherwise (if the UDS service-specific callback is not registered):
 707:.\Generated_Source\PSoC4/CYBLE_uds.c **** *  * CYBLE_EVT_GATTS_HANDLE_VALUE_CNF - If the indication is
 708:.\Generated_Source\PSoC4/CYBLE_uds.c **** *                                successfully delivered to the peer device.
 709:.\Generated_Source\PSoC4/CYBLE_uds.c **** *
 710:.\Generated_Source\PSoC4/CYBLE_uds.c **** ******************************************************************************/
 711:.\Generated_Source\PSoC4/CYBLE_uds.c **** CYBLE_API_RESULT_T CyBle_UdssSendIndication(CYBLE_CONN_HANDLE_T connHandle,
 712:.\Generated_Source\PSoC4/CYBLE_uds.c ****                     CYBLE_UDS_CHAR_INDEX_T charIndex, uint8 attrSize, uint8 *attrValue)
 713:.\Generated_Source\PSoC4/CYBLE_uds.c **** {
 709              		.loc 1 713 0
 710              		.cfi_startproc
 711 0000 90B5     		push	{r4, r7, lr}
 712              		.cfi_def_cfa_offset 12
ARM GAS  C:\Users\mohammed\AppData\Local\Temp\cceuH2T0.s 			page 26


 713              		.cfi_offset 4, -12
 714              		.cfi_offset 7, -8
 715              		.cfi_offset 14, -4
 716 0002 89B0     		sub	sp, sp, #36
 717              		.cfi_def_cfa_offset 48
 718 0004 00AF     		add	r7, sp, #0
 719              		.cfi_def_cfa_register 7
 720 0006 0C24     		mov	r4, #12
 721 0008 3C19     		add	r4, r7, r4
 722 000a 2080     		strh	r0, [r4]
 723 000c 081C     		mov	r0, r1
 724 000e 111C     		mov	r1, r2
 725 0010 7B60     		str	r3, [r7, #4]
 726 0012 0B23     		mov	r3, #11
 727 0014 FB18     		add	r3, r7, r3
 728 0016 021C     		add	r2, r0, #0
 729 0018 1A70     		strb	r2, [r3]
 730 001a 0A23     		mov	r3, #10
 731 001c FB18     		add	r3, r7, r3
 732 001e 0A1C     		add	r2, r1, #0
 733 0020 1A70     		strb	r2, [r3]
 714:.\Generated_Source\PSoC4/CYBLE_uds.c ****     CYBLE_API_RESULT_T apiResult;
 715:.\Generated_Source\PSoC4/CYBLE_uds.c ****     
 716:.\Generated_Source\PSoC4/CYBLE_uds.c ****     /* Send Indication if it is enabled and connected */
 717:.\Generated_Source\PSoC4/CYBLE_uds.c ****     if(CYBLE_STATE_CONNECTED != CyBle_GetState())
 734              		.loc 1 717 0
 735 0022 3A4B     		ldr	r3, .L52
 736 0024 1B78     		ldrb	r3, [r3]
 737 0026 022B     		cmp	r3, #2
 738 0028 04D0     		beq	.L45
 718:.\Generated_Source\PSoC4/CYBLE_uds.c ****     {
 719:.\Generated_Source\PSoC4/CYBLE_uds.c ****         apiResult = CYBLE_ERROR_INVALID_STATE;
 739              		.loc 1 719 0
 740 002a 1E23     		mov	r3, #30
 741 002c FB18     		add	r3, r7, r3
 742 002e 0422     		mov	r2, #4
 743 0030 FF32     		add	r2, r2, #255
 744 0032 1A80     		strh	r2, [r3]
 745              	.L45:
 720:.\Generated_Source\PSoC4/CYBLE_uds.c ****     }
 721:.\Generated_Source\PSoC4/CYBLE_uds.c ****     if(charIndex >= CYBLE_UDS_CHAR_COUNT)
 746              		.loc 1 721 0
 747 0034 0B23     		mov	r3, #11
 748 0036 FB18     		add	r3, r7, r3
 749 0038 1B78     		ldrb	r3, [r3]
 750 003a 1E2B     		cmp	r3, #30
 751 003c 04D9     		bls	.L46
 722:.\Generated_Source\PSoC4/CYBLE_uds.c ****     {
 723:.\Generated_Source\PSoC4/CYBLE_uds.c ****         apiResult = CYBLE_ERROR_INVALID_PARAMETER;
 752              		.loc 1 723 0
 753 003e 1E23     		mov	r3, #30
 754 0040 FB18     		add	r3, r7, r3
 755 0042 0122     		mov	r2, #1
 756 0044 1A80     		strh	r2, [r3]
 757 0046 59E0     		b	.L47
 758              	.L46:
 724:.\Generated_Source\PSoC4/CYBLE_uds.c ****     }
ARM GAS  C:\Users\mohammed\AppData\Local\Temp\cceuH2T0.s 			page 27


 725:.\Generated_Source\PSoC4/CYBLE_uds.c ****     else if(CYBLE_GATT_INVALID_ATTR_HANDLE_VALUE == cyBle_udss.charInfo[charIndex].descrHandle[CYBL
 759              		.loc 1 725 0
 760 0048 0B23     		mov	r3, #11
 761 004a FB18     		add	r3, r7, r3
 762 004c 1B78     		ldrb	r3, [r3]
 763 004e 304A     		ldr	r2, .L52+4
 764 0050 9B00     		lsl	r3, r3, #2
 765 0052 D318     		add	r3, r2, r3
 766 0054 9B88     		ldrh	r3, [r3, #4]
 767 0056 002B     		cmp	r3, #0
 768 0058 04D1     		bne	.L48
 726:.\Generated_Source\PSoC4/CYBLE_uds.c ****     {
 727:.\Generated_Source\PSoC4/CYBLE_uds.c **** 		apiResult = CYBLE_ERROR_GATT_DB_INVALID_ATTR_HANDLE;
 769              		.loc 1 727 0
 770 005a 1E23     		mov	r3, #30
 771 005c FB18     		add	r3, r7, r3
 772 005e 1322     		mov	r2, #19
 773 0060 1A80     		strh	r2, [r3]
 774 0062 4BE0     		b	.L47
 775              	.L48:
 728:.\Generated_Source\PSoC4/CYBLE_uds.c **** 	}
 729:.\Generated_Source\PSoC4/CYBLE_uds.c ****     else if(!CYBLE_IS_INDICATION_ENABLED(cyBle_udss.charInfo[charIndex].descrHandle[CYBLE_UDS_CCCD]
 776              		.loc 1 729 0
 777 0064 0B23     		mov	r3, #11
 778 0066 FB18     		add	r3, r7, r3
 779 0068 1B78     		ldrb	r3, [r3]
 780 006a 294A     		ldr	r2, .L52+4
 781 006c 9B00     		lsl	r3, r3, #2
 782 006e D318     		add	r3, r2, r3
 783 0070 9B88     		ldrh	r3, [r3, #4]
 784 0072 5A1E     		sub	r2, r3, #1
 785 0074 2749     		ldr	r1, .L52+8
 786 0076 131C     		mov	r3, r2
 787 0078 9B00     		lsl	r3, r3, #2
 788 007a 9B18     		add	r3, r3, r2
 789 007c 9B00     		lsl	r3, r3, #2
 790 007e CB18     		add	r3, r1, r3
 791 0080 0833     		add	r3, r3, #8
 792 0082 9B68     		ldr	r3, [r3, #8]
 793 0084 5B68     		ldr	r3, [r3, #4]
 794 0086 181C     		mov	r0, r3
 795 0088 FFF7FEFF 		bl	CyBle_Get16ByPtr
 796 008c 031C     		mov	r3, r0
 797 008e 1A1C     		mov	r2, r3
 798 0090 0223     		mov	r3, #2
 799 0092 1340     		and	r3, r2
 800 0094 9BB2     		uxth	r3, r3
 801 0096 002B     		cmp	r3, #0
 802 0098 05D1     		bne	.L49
 730:.\Generated_Source\PSoC4/CYBLE_uds.c ****     {
 731:.\Generated_Source\PSoC4/CYBLE_uds.c ****         apiResult = CYBLE_ERROR_IND_DISABLED;
 803              		.loc 1 731 0
 804 009a 1E23     		mov	r3, #30
 805 009c FB18     		add	r3, r7, r3
 806 009e 0222     		mov	r2, #2
 807 00a0 FF32     		add	r2, r2, #255
 808 00a2 1A80     		strh	r2, [r3]
ARM GAS  C:\Users\mohammed\AppData\Local\Temp\cceuH2T0.s 			page 28


 809 00a4 2AE0     		b	.L47
 810              	.L49:
 811              	.LBB6:
 732:.\Generated_Source\PSoC4/CYBLE_uds.c ****     }
 733:.\Generated_Source\PSoC4/CYBLE_uds.c ****     else
 734:.\Generated_Source\PSoC4/CYBLE_uds.c ****     {
 735:.\Generated_Source\PSoC4/CYBLE_uds.c ****         CYBLE_GATTS_HANDLE_VALUE_IND_T indParam;
 736:.\Generated_Source\PSoC4/CYBLE_uds.c ****         
 737:.\Generated_Source\PSoC4/CYBLE_uds.c ****         /* Fill all fields of write request structure ... */
 738:.\Generated_Source\PSoC4/CYBLE_uds.c ****         indParam.attrHandle = cyBle_udss.charInfo[charIndex].charHandle; 
 812              		.loc 1 738 0
 813 00a6 0B23     		mov	r3, #11
 814 00a8 FB18     		add	r3, r7, r3
 815 00aa 1B78     		ldrb	r3, [r3]
 816 00ac 184A     		ldr	r2, .L52+4
 817 00ae 9B00     		lsl	r3, r3, #2
 818 00b0 D318     		add	r3, r2, r3
 819 00b2 5A88     		ldrh	r2, [r3, #2]
 820 00b4 1023     		mov	r3, #16
 821 00b6 FB18     		add	r3, r7, r3
 822 00b8 1A81     		strh	r2, [r3, #8]
 739:.\Generated_Source\PSoC4/CYBLE_uds.c ****         indParam.value.val = attrValue;
 823              		.loc 1 739 0
 824 00ba 1023     		mov	r3, #16
 825 00bc FB18     		add	r3, r7, r3
 826 00be 7A68     		ldr	r2, [r7, #4]
 827 00c0 1A60     		str	r2, [r3]
 740:.\Generated_Source\PSoC4/CYBLE_uds.c ****         indParam.value.len = attrSize;
 828              		.loc 1 740 0
 829 00c2 0A23     		mov	r3, #10
 830 00c4 FB18     		add	r3, r7, r3
 831 00c6 1B78     		ldrb	r3, [r3]
 832 00c8 9AB2     		uxth	r2, r3
 833 00ca 1023     		mov	r3, #16
 834 00cc FB18     		add	r3, r7, r3
 835 00ce 9A80     		strh	r2, [r3, #4]
 741:.\Generated_Source\PSoC4/CYBLE_uds.c ****         
 742:.\Generated_Source\PSoC4/CYBLE_uds.c ****         /* Send notification to client using previously filled structure */
 743:.\Generated_Source\PSoC4/CYBLE_uds.c ****         apiResult = CyBle_GattsIndication(connHandle, &indParam);
 836              		.loc 1 743 0
 837 00d0 1E23     		mov	r3, #30
 838 00d2 FC18     		add	r4, r7, r3
 839 00d4 0C23     		mov	r3, #12
 840 00d6 FB18     		add	r3, r7, r3
 841 00d8 1022     		mov	r2, #16
 842 00da BA18     		add	r2, r7, r2
 843 00dc 1868     		ldr	r0, [r3]
 844 00de 111C     		mov	r1, r2
 845 00e0 FFF7FEFF 		bl	CyBle_GattsIndication
 846 00e4 031C     		mov	r3, r0
 847 00e6 2380     		strh	r3, [r4]
 744:.\Generated_Source\PSoC4/CYBLE_uds.c ****         
 745:.\Generated_Source\PSoC4/CYBLE_uds.c ****         if(CYBLE_ERROR_OK == apiResult)
 848              		.loc 1 745 0
 849 00e8 1E23     		mov	r3, #30
 850 00ea FB18     		add	r3, r7, r3
 851 00ec 1B88     		ldrh	r3, [r3]
ARM GAS  C:\Users\mohammed\AppData\Local\Temp\cceuH2T0.s 			page 29


 852 00ee 002B     		cmp	r3, #0
 853 00f0 04D1     		bne	.L47
 746:.\Generated_Source\PSoC4/CYBLE_uds.c ****         {
 747:.\Generated_Source\PSoC4/CYBLE_uds.c ****             /* Save handle to support service specific value confirmation response from client */
 748:.\Generated_Source\PSoC4/CYBLE_uds.c ****             cyBle_udssReqHandle = indParam.attrHandle;
 854              		.loc 1 748 0
 855 00f2 1023     		mov	r3, #16
 856 00f4 FB18     		add	r3, r7, r3
 857 00f6 1A89     		ldrh	r2, [r3, #8]
 858 00f8 074B     		ldr	r3, .L52+12
 859 00fa 1A80     		strh	r2, [r3]
 860              	.L47:
 861              	.LBE6:
 749:.\Generated_Source\PSoC4/CYBLE_uds.c ****         }
 750:.\Generated_Source\PSoC4/CYBLE_uds.c ****     }
 751:.\Generated_Source\PSoC4/CYBLE_uds.c **** 
 752:.\Generated_Source\PSoC4/CYBLE_uds.c ****     return (apiResult);
 862              		.loc 1 752 0
 863 00fc 1E23     		mov	r3, #30
 864 00fe FB18     		add	r3, r7, r3
 865 0100 1B88     		ldrh	r3, [r3]
 753:.\Generated_Source\PSoC4/CYBLE_uds.c **** }
 866              		.loc 1 753 0
 867 0102 181C     		mov	r0, r3
 868 0104 BD46     		mov	sp, r7
 869 0106 09B0     		add	sp, sp, #36
 870              		@ sp needed
 871 0108 90BD     		pop	{r4, r7, pc}
 872              	.L53:
 873 010a C046     		.align	2
 874              	.L52:
 875 010c 00000000 		.word	cyBle_state
 876 0110 00000000 		.word	cyBle_udss
 877 0114 00000000 		.word	cyBle_gattDB
 878 0118 04000000 		.word	cyBle_udssReqHandle
 879              		.cfi_endproc
 880              	.LFE8:
 881              		.size	CyBle_UdssSendIndication, .-CyBle_UdssSendIndication
 882              		.section	.text.CyBle_UdssConfirmationEventHandler,"ax",%progbits
 883              		.align	2
 884              		.global	CyBle_UdssConfirmationEventHandler
 885              		.code	16
 886              		.thumb_func
 887              		.type	CyBle_UdssConfirmationEventHandler, %function
 888              	CyBle_UdssConfirmationEventHandler:
 889              	.LFB9:
 754:.\Generated_Source\PSoC4/CYBLE_uds.c **** 
 755:.\Generated_Source\PSoC4/CYBLE_uds.c **** 
 756:.\Generated_Source\PSoC4/CYBLE_uds.c **** /******************************************************************************
 757:.\Generated_Source\PSoC4/CYBLE_uds.c **** * Function Name: CyBle_UdssConfirmationEventHandler
 758:.\Generated_Source\PSoC4/CYBLE_uds.c **** ***************************************************************************//**
 759:.\Generated_Source\PSoC4/CYBLE_uds.c **** * 
 760:.\Generated_Source\PSoC4/CYBLE_uds.c **** *  Handles the Value Confirmation request event from the BLE stack.
 761:.\Generated_Source\PSoC4/CYBLE_uds.c **** * 
 762:.\Generated_Source\PSoC4/CYBLE_uds.c **** *  \param eventParam: The pointer to a structure of type CYBLE_CONN_HANDLE_T.
 763:.\Generated_Source\PSoC4/CYBLE_uds.c **** * 
 764:.\Generated_Source\PSoC4/CYBLE_uds.c **** * \return
ARM GAS  C:\Users\mohammed\AppData\Local\Temp\cceuH2T0.s 			page 30


 765:.\Generated_Source\PSoC4/CYBLE_uds.c **** *  None.
 766:.\Generated_Source\PSoC4/CYBLE_uds.c **** * 
 767:.\Generated_Source\PSoC4/CYBLE_uds.c **** ******************************************************************************/
 768:.\Generated_Source\PSoC4/CYBLE_uds.c **** void CyBle_UdssConfirmationEventHandler(const CYBLE_CONN_HANDLE_T *eventParam)
 769:.\Generated_Source\PSoC4/CYBLE_uds.c **** {
 890              		.loc 1 769 0
 891              		.cfi_startproc
 892 0000 80B5     		push	{r7, lr}
 893              		.cfi_def_cfa_offset 8
 894              		.cfi_offset 7, -8
 895              		.cfi_offset 14, -4
 896 0002 86B0     		sub	sp, sp, #24
 897              		.cfi_def_cfa_offset 32
 898 0004 00AF     		add	r7, sp, #0
 899              		.cfi_def_cfa_register 7
 900 0006 7860     		str	r0, [r7, #4]
 770:.\Generated_Source\PSoC4/CYBLE_uds.c ****     if((NULL != CyBle_UdsApplCallback) 
 901              		.loc 1 770 0
 902 0008 1D4B     		ldr	r3, .L56
 903 000a 1B68     		ldr	r3, [r3]
 904 000c 002B     		cmp	r3, #0
 905 000e 33D0     		beq	.L54
 771:.\Generated_Source\PSoC4/CYBLE_uds.c ****         && (cyBle_udss.charInfo[CYBLE_UDS_UCP].charHandle == cyBle_udssReqHandle))
 906              		.loc 1 771 0
 907 0010 5422     		mov	r2, #84
 908 0012 1C4B     		ldr	r3, .L56+4
 909 0014 1B88     		ldrh	r3, [r3]
 910 0016 9A42     		cmp	r2, r3
 911 0018 2ED1     		bne	.L54
 912              	.LBB7:
 772:.\Generated_Source\PSoC4/CYBLE_uds.c ****     {   
 773:.\Generated_Source\PSoC4/CYBLE_uds.c ****         CYBLE_UDS_CHAR_VALUE_T locCharIndex;
 774:.\Generated_Source\PSoC4/CYBLE_uds.c ****         
 775:.\Generated_Source\PSoC4/CYBLE_uds.c ****         cyBle_udssReqHandle = CYBLE_GATT_INVALID_ATTR_HANDLE_VALUE;
 913              		.loc 1 775 0
 914 001a 1A4B     		ldr	r3, .L56+4
 915 001c 0022     		mov	r2, #0
 916 001e 1A80     		strh	r2, [r3]
 776:.\Generated_Source\PSoC4/CYBLE_uds.c ****         
 777:.\Generated_Source\PSoC4/CYBLE_uds.c ****         cyBle_udsFlag &= (uint8) ~CYBLE_UDS_FLAG_PROCESS;
 917              		.loc 1 777 0
 918 0020 194B     		ldr	r3, .L56+8
 919 0022 1B78     		ldrb	r3, [r3]
 920 0024 0122     		mov	r2, #1
 921 0026 9343     		bic	r3, r2
 922 0028 DAB2     		uxtb	r2, r3
 923 002a 174B     		ldr	r3, .L56+8
 924 002c 1A70     		strb	r2, [r3]
 778:.\Generated_Source\PSoC4/CYBLE_uds.c ****         
 779:.\Generated_Source\PSoC4/CYBLE_uds.c ****         locCharIndex.connHandle = *eventParam;
 925              		.loc 1 779 0
 926 002e 0C23     		mov	r3, #12
 927 0030 FA18     		add	r2, r7, r3
 928 0032 7B68     		ldr	r3, [r7, #4]
 929 0034 111C     		mov	r1, r2
 930 0036 1A1C     		mov	r2, r3
 931 0038 0223     		mov	r3, #2
ARM GAS  C:\Users\mohammed\AppData\Local\Temp\cceuH2T0.s 			page 31


 932 003a 081C     		mov	r0, r1
 933 003c 111C     		mov	r1, r2
 934 003e 1A1C     		mov	r2, r3
 935 0040 FFF7FEFF 		bl	memcpy
 780:.\Generated_Source\PSoC4/CYBLE_uds.c ****         locCharIndex.charIndex = CYBLE_UDS_UCP;
 936              		.loc 1 780 0
 937 0044 0C23     		mov	r3, #12
 938 0046 FB18     		add	r3, r7, r3
 939 0048 1D22     		mov	r2, #29
 940 004a 9A70     		strb	r2, [r3, #2]
 781:.\Generated_Source\PSoC4/CYBLE_uds.c ****         locCharIndex.value = NULL;
 941              		.loc 1 781 0
 942 004c 0C23     		mov	r3, #12
 943 004e FB18     		add	r3, r7, r3
 944 0050 0022     		mov	r2, #0
 945 0052 5A60     		str	r2, [r3, #4]
 782:.\Generated_Source\PSoC4/CYBLE_uds.c ****         
 783:.\Generated_Source\PSoC4/CYBLE_uds.c ****         cyBle_eventHandlerFlag &= (uint8)~CYBLE_CALLBACK;
 946              		.loc 1 783 0
 947 0054 0D4B     		ldr	r3, .L56+12
 948 0056 1B78     		ldrb	r3, [r3]
 949 0058 DBB2     		uxtb	r3, r3
 950 005a 0122     		mov	r2, #1
 951 005c 9343     		bic	r3, r2
 952 005e DAB2     		uxtb	r2, r3
 953 0060 0A4B     		ldr	r3, .L56+12
 954 0062 1A70     		strb	r2, [r3]
 784:.\Generated_Source\PSoC4/CYBLE_uds.c ****         CyBle_UdsApplCallback((uint32)CYBLE_EVT_UDSS_INDICATION_CONFIRMED, &locCharIndex);
 955              		.loc 1 784 0
 956 0064 064B     		ldr	r3, .L56
 957 0066 1B68     		ldr	r3, [r3]
 958 0068 F022     		mov	r2, #240
 959 006a FF32     		add	r2, r2, #255
 960 006c 111C     		mov	r1, r2
 961 006e 0C22     		mov	r2, #12
 962 0070 BA18     		add	r2, r7, r2
 963 0072 081C     		mov	r0, r1
 964 0074 111C     		mov	r1, r2
 965 0076 9847     		blx	r3
 966              	.L54:
 967              	.LBE7:
 785:.\Generated_Source\PSoC4/CYBLE_uds.c ****     }
 786:.\Generated_Source\PSoC4/CYBLE_uds.c **** }
 968              		.loc 1 786 0
 969 0078 BD46     		mov	sp, r7
 970 007a 06B0     		add	sp, sp, #24
 971              		@ sp needed
 972 007c 80BD     		pop	{r7, pc}
 973              	.L57:
 974 007e C046     		.align	2
 975              	.L56:
 976 0080 00000000 		.word	CyBle_UdsApplCallback
 977 0084 04000000 		.word	cyBle_udssReqHandle
 978 0088 00000000 		.word	cyBle_udsFlag
 979 008c 00000000 		.word	cyBle_eventHandlerFlag
 980              		.cfi_endproc
 981              	.LFE9:
ARM GAS  C:\Users\mohammed\AppData\Local\Temp\cceuH2T0.s 			page 32


 982              		.size	CyBle_UdssConfirmationEventHandler, .-CyBle_UdssConfirmationEventHandler
 983              		.section	.text.CyBle_UdssReadRequestEventHandler,"ax",%progbits
 984              		.align	2
 985              		.global	CyBle_UdssReadRequestEventHandler
 986              		.code	16
 987              		.thumb_func
 988              		.type	CyBle_UdssReadRequestEventHandler, %function
 989              	CyBle_UdssReadRequestEventHandler:
 990              	.LFB10:
 787:.\Generated_Source\PSoC4/CYBLE_uds.c **** 
 788:.\Generated_Source\PSoC4/CYBLE_uds.c **** 
 789:.\Generated_Source\PSoC4/CYBLE_uds.c **** /******************************************************************************
 790:.\Generated_Source\PSoC4/CYBLE_uds.c **** * Function Name: CyBle_UdssReadRequestEventHandler
 791:.\Generated_Source\PSoC4/CYBLE_uds.c **** ***************************************************************************//**
 792:.\Generated_Source\PSoC4/CYBLE_uds.c **** * 
 793:.\Generated_Source\PSoC4/CYBLE_uds.c **** *  Handles the Read Request Event.
 794:.\Generated_Source\PSoC4/CYBLE_uds.c **** * 
 795:.\Generated_Source\PSoC4/CYBLE_uds.c **** *  \param eventParam: The pointer to the data structure specified by the event.
 796:.\Generated_Source\PSoC4/CYBLE_uds.c **** * 
 797:.\Generated_Source\PSoC4/CYBLE_uds.c **** * \return
 798:.\Generated_Source\PSoC4/CYBLE_uds.c **** *  None.
 799:.\Generated_Source\PSoC4/CYBLE_uds.c **** * 
 800:.\Generated_Source\PSoC4/CYBLE_uds.c **** ******************************************************************************/
 801:.\Generated_Source\PSoC4/CYBLE_uds.c **** void CyBle_UdssReadRequestEventHandler(CYBLE_GATTS_CHAR_VAL_READ_REQ_T *eventParam)
 802:.\Generated_Source\PSoC4/CYBLE_uds.c **** {
 991              		.loc 1 802 0
 992              		.cfi_startproc
 993 0000 80B5     		push	{r7, lr}
 994              		.cfi_def_cfa_offset 8
 995              		.cfi_offset 7, -8
 996              		.cfi_offset 14, -4
 997 0002 86B0     		sub	sp, sp, #24
 998              		.cfi_def_cfa_offset 32
 999 0004 00AF     		add	r7, sp, #0
 1000              		.cfi_def_cfa_register 7
 1001 0006 7860     		str	r0, [r7, #4]
 803:.\Generated_Source\PSoC4/CYBLE_uds.c ****     if(CyBle_UdsApplCallback != NULL)
 1002              		.loc 1 803 0
 1003 0008 294B     		ldr	r3, .L66
 1004 000a 1B68     		ldr	r3, [r3]
 1005 000c 002B     		cmp	r3, #0
 1006 000e 4CD0     		beq	.L58
 1007              	.LBB8:
 804:.\Generated_Source\PSoC4/CYBLE_uds.c ****     {
 805:.\Generated_Source\PSoC4/CYBLE_uds.c ****         CYBLE_UDS_CHAR_VALUE_T locCharValue;
 806:.\Generated_Source\PSoC4/CYBLE_uds.c ****         locCharValue.connHandle = eventParam->connHandle;
 1008              		.loc 1 806 0
 1009 0010 0C23     		mov	r3, #12
 1010 0012 FB18     		add	r3, r7, r3
 1011 0014 7A68     		ldr	r2, [r7, #4]
 1012 0016 1288     		ldrh	r2, [r2]
 1013 0018 1A80     		strh	r2, [r3]
 807:.\Generated_Source\PSoC4/CYBLE_uds.c ****         locCharValue.gattErrorCode = CYBLE_GATT_ERR_NONE;
 1014              		.loc 1 807 0
 1015 001a 0C23     		mov	r3, #12
 1016 001c FB18     		add	r3, r7, r3
 1017 001e 0022     		mov	r2, #0
ARM GAS  C:\Users\mohammed\AppData\Local\Temp\cceuH2T0.s 			page 33


 1018 0020 1A72     		strb	r2, [r3, #8]
 808:.\Generated_Source\PSoC4/CYBLE_uds.c ****         locCharValue.value = NULL;
 1019              		.loc 1 808 0
 1020 0022 0C23     		mov	r3, #12
 1021 0024 FB18     		add	r3, r7, r3
 1022 0026 0022     		mov	r2, #0
 1023 0028 5A60     		str	r2, [r3, #4]
 809:.\Generated_Source\PSoC4/CYBLE_uds.c ****     
 810:.\Generated_Source\PSoC4/CYBLE_uds.c ****         for(locCharValue.charIndex = CYBLE_UDS_FNM; 
 1024              		.loc 1 810 0
 1025 002a 0C23     		mov	r3, #12
 1026 002c FB18     		add	r3, r7, r3
 1027 002e 0022     		mov	r2, #0
 1028 0030 9A70     		strb	r2, [r3, #2]
 1029 0032 35E0     		b	.L60
 1030              	.L65:
 811:.\Generated_Source\PSoC4/CYBLE_uds.c ****             locCharValue.charIndex < CYBLE_UDS_CHAR_COUNT; 
 812:.\Generated_Source\PSoC4/CYBLE_uds.c ****             locCharValue.charIndex++)
 813:.\Generated_Source\PSoC4/CYBLE_uds.c ****         {
 814:.\Generated_Source\PSoC4/CYBLE_uds.c ****             if(locCharValue.charIndex == CYBLE_UDS_UCP)
 1031              		.loc 1 814 0
 1032 0034 0C23     		mov	r3, #12
 1033 0036 FB18     		add	r3, r7, r3
 1034 0038 9B78     		ldrb	r3, [r3, #2]
 1035 003a 1D2B     		cmp	r3, #29
 1036 003c 03D1     		bne	.L61
 815:.\Generated_Source\PSoC4/CYBLE_uds.c ****             {
 816:.\Generated_Source\PSoC4/CYBLE_uds.c ****                 /* Omit UCP characteristic */
 817:.\Generated_Source\PSoC4/CYBLE_uds.c ****                 locCharValue.charIndex = CYBLE_UDS_LNG;
 1037              		.loc 1 817 0
 1038 003e 0C23     		mov	r3, #12
 1039 0040 FB18     		add	r3, r7, r3
 1040 0042 1E22     		mov	r2, #30
 1041 0044 9A70     		strb	r2, [r3, #2]
 1042              	.L61:
 818:.\Generated_Source\PSoC4/CYBLE_uds.c ****             }
 819:.\Generated_Source\PSoC4/CYBLE_uds.c ****             
 820:.\Generated_Source\PSoC4/CYBLE_uds.c ****             if(eventParam->attrHandle == cyBle_udss.charInfo[locCharValue.charIndex].charHandle)
 1043              		.loc 1 820 0
 1044 0046 7B68     		ldr	r3, [r7, #4]
 1045 0048 5A88     		ldrh	r2, [r3, #2]
 1046 004a 0C23     		mov	r3, #12
 1047 004c FB18     		add	r3, r7, r3
 1048 004e 9B78     		ldrb	r3, [r3, #2]
 1049 0050 1849     		ldr	r1, .L66+4
 1050 0052 9B00     		lsl	r3, r3, #2
 1051 0054 CB18     		add	r3, r1, r3
 1052 0056 5B88     		ldrh	r3, [r3, #2]
 1053 0058 9A42     		cmp	r2, r3
 1054 005a 19D1     		bne	.L62
 821:.\Generated_Source\PSoC4/CYBLE_uds.c ****             {
 822:.\Generated_Source\PSoC4/CYBLE_uds.c **** 
 823:.\Generated_Source\PSoC4/CYBLE_uds.c ****                 CyBle_UdsApplCallback((uint32)CYBLE_EVT_UDSS_READ_CHAR, &locCharValue);
 1055              		.loc 1 823 0
 1056 005c 144B     		ldr	r3, .L66
 1057 005e 1B68     		ldr	r3, [r3]
 1058 0060 F922     		mov	r2, #249
ARM GAS  C:\Users\mohammed\AppData\Local\Temp\cceuH2T0.s 			page 34


 1059 0062 5100     		lsl	r1, r2, #1
 1060 0064 0C22     		mov	r2, #12
 1061 0066 BA18     		add	r2, r7, r2
 1062 0068 081C     		mov	r0, r1
 1063 006a 111C     		mov	r1, r2
 1064 006c 9847     		blx	r3
 824:.\Generated_Source\PSoC4/CYBLE_uds.c ****                         
 825:.\Generated_Source\PSoC4/CYBLE_uds.c ****                 if(locCharValue.gattErrorCode == CYBLE_GATT_ERR_USER_DATA_ACCESS_NOT_PERMITTED)
 1065              		.loc 1 825 0
 1066 006e 0C23     		mov	r3, #12
 1067 0070 FB18     		add	r3, r7, r3
 1068 0072 1B7A     		ldrb	r3, [r3, #8]
 1069 0074 802B     		cmp	r3, #128
 1070 0076 02D1     		bne	.L63
 826:.\Generated_Source\PSoC4/CYBLE_uds.c **** 	            {
 827:.\Generated_Source\PSoC4/CYBLE_uds.c ****                     eventParam->gattErrorCode = CYBLE_GATT_ERR_USER_DATA_ACCESS_NOT_PERMITTED;
 1071              		.loc 1 827 0
 1072 0078 7B68     		ldr	r3, [r7, #4]
 1073 007a 8022     		mov	r2, #128
 1074 007c 1A71     		strb	r2, [r3, #4]
 1075              	.L63:
 828:.\Generated_Source\PSoC4/CYBLE_uds.c ****                 }
 829:.\Generated_Source\PSoC4/CYBLE_uds.c ****                 
 830:.\Generated_Source\PSoC4/CYBLE_uds.c ****                 cyBle_eventHandlerFlag &= (uint8)~CYBLE_CALLBACK;
 1076              		.loc 1 830 0
 1077 007e 0E4B     		ldr	r3, .L66+8
 1078 0080 1B78     		ldrb	r3, [r3]
 1079 0082 DBB2     		uxtb	r3, r3
 1080 0084 0122     		mov	r2, #1
 1081 0086 9343     		bic	r3, r2
 1082 0088 DAB2     		uxtb	r2, r3
 1083 008a 0B4B     		ldr	r3, .L66+8
 1084 008c 1A70     		strb	r2, [r3]
 831:.\Generated_Source\PSoC4/CYBLE_uds.c ****                 break;
 1085              		.loc 1 831 0
 1086 008e 0CE0     		b	.L58
 1087              	.L62:
 812:.\Generated_Source\PSoC4/CYBLE_uds.c ****         {
 1088              		.loc 1 812 0
 1089 0090 0C23     		mov	r3, #12
 1090 0092 FB18     		add	r3, r7, r3
 1091 0094 9B78     		ldrb	r3, [r3, #2]
 1092 0096 0133     		add	r3, r3, #1
 1093 0098 DAB2     		uxtb	r2, r3
 1094 009a 0C23     		mov	r3, #12
 1095 009c FB18     		add	r3, r7, r3
 1096 009e 9A70     		strb	r2, [r3, #2]
 1097              	.L60:
 811:.\Generated_Source\PSoC4/CYBLE_uds.c ****             locCharValue.charIndex++)
 1098              		.loc 1 811 0 discriminator 1
 1099 00a0 0C23     		mov	r3, #12
 1100 00a2 FB18     		add	r3, r7, r3
 1101 00a4 9B78     		ldrb	r3, [r3, #2]
 810:.\Generated_Source\PSoC4/CYBLE_uds.c ****             locCharValue.charIndex < CYBLE_UDS_CHAR_COUNT; 
 1102              		.loc 1 810 0 discriminator 1
 1103 00a6 1E2B     		cmp	r3, #30
 1104 00a8 C4D9     		bls	.L65
ARM GAS  C:\Users\mohammed\AppData\Local\Temp\cceuH2T0.s 			page 35


 1105              	.L58:
 1106              	.LBE8:
 832:.\Generated_Source\PSoC4/CYBLE_uds.c ****             }
 833:.\Generated_Source\PSoC4/CYBLE_uds.c ****         }
 834:.\Generated_Source\PSoC4/CYBLE_uds.c ****     }
 835:.\Generated_Source\PSoC4/CYBLE_uds.c **** }
 1107              		.loc 1 835 0
 1108 00aa BD46     		mov	sp, r7
 1109 00ac 06B0     		add	sp, sp, #24
 1110              		@ sp needed
 1111 00ae 80BD     		pop	{r7, pc}
 1112              	.L67:
 1113              		.align	2
 1114              	.L66:
 1115 00b0 00000000 		.word	CyBle_UdsApplCallback
 1116 00b4 00000000 		.word	cyBle_udss
 1117 00b8 00000000 		.word	cyBle_eventHandlerFlag
 1118              		.cfi_endproc
 1119              	.LFE10:
 1120              		.size	CyBle_UdssReadRequestEventHandler, .-CyBle_UdssReadRequestEventHandler
 1121              		.section	.text.CyBle_UdssWriteEventHandler,"ax",%progbits
 1122              		.align	2
 1123              		.global	CyBle_UdssWriteEventHandler
 1124              		.code	16
 1125              		.thumb_func
 1126              		.type	CyBle_UdssWriteEventHandler, %function
 1127              	CyBle_UdssWriteEventHandler:
 1128              	.LFB11:
 836:.\Generated_Source\PSoC4/CYBLE_uds.c **** 
 837:.\Generated_Source\PSoC4/CYBLE_uds.c **** 
 838:.\Generated_Source\PSoC4/CYBLE_uds.c **** /******************************************************************************
 839:.\Generated_Source\PSoC4/CYBLE_uds.c **** * Function Name: CyBle_UdssWriteEventHandler
 840:.\Generated_Source\PSoC4/CYBLE_uds.c **** ***************************************************************************//**
 841:.\Generated_Source\PSoC4/CYBLE_uds.c **** * 
 842:.\Generated_Source\PSoC4/CYBLE_uds.c **** *  Handles the Write Request Event.
 843:.\Generated_Source\PSoC4/CYBLE_uds.c **** * 
 844:.\Generated_Source\PSoC4/CYBLE_uds.c **** *  \param eventParam: The pointer to the data structure specified by the event.
 845:.\Generated_Source\PSoC4/CYBLE_uds.c **** * 
 846:.\Generated_Source\PSoC4/CYBLE_uds.c **** * \return
 847:.\Generated_Source\PSoC4/CYBLE_uds.c **** *  CYBLE_GATT_ERR_CODE_T - An API result state if the API succeeded
 848:.\Generated_Source\PSoC4/CYBLE_uds.c **** *  (CYBLE_GATT_ERR_NONE) or failed with error codes:
 849:.\Generated_Source\PSoC4/CYBLE_uds.c **** *   * CYBLE_GATTS_ERR_PROCEDURE_ALREADY_IN_PROGRESS
 850:.\Generated_Source\PSoC4/CYBLE_uds.c **** *   * CYBLE_GATTS_ERR_CCCD_IMPROPERLY_CONFIGURED
 851:.\Generated_Source\PSoC4/CYBLE_uds.c **** * 
 852:.\Generated_Source\PSoC4/CYBLE_uds.c **** ******************************************************************************/
 853:.\Generated_Source\PSoC4/CYBLE_uds.c **** CYBLE_GATT_ERR_CODE_T CyBle_UdssWriteEventHandler(CYBLE_GATTS_WRITE_REQ_PARAM_T *eventParam)
 854:.\Generated_Source\PSoC4/CYBLE_uds.c **** {
 1129              		.loc 1 854 0
 1130              		.cfi_startproc
 1131 0000 90B5     		push	{r4, r7, lr}
 1132              		.cfi_def_cfa_offset 12
 1133              		.cfi_offset 4, -12
 1134              		.cfi_offset 7, -8
 1135              		.cfi_offset 14, -4
 1136 0002 89B0     		sub	sp, sp, #36
 1137              		.cfi_def_cfa_offset 48
 1138 0004 00AF     		add	r7, sp, #0
ARM GAS  C:\Users\mohammed\AppData\Local\Temp\cceuH2T0.s 			page 36


 1139              		.cfi_def_cfa_register 7
 1140 0006 7860     		str	r0, [r7, #4]
 855:.\Generated_Source\PSoC4/CYBLE_uds.c ****     CYBLE_GATT_ERR_CODE_T gattErr = CYBLE_GATT_ERR_NONE;
 1141              		.loc 1 855 0
 1142 0008 1F23     		mov	r3, #31
 1143 000a FB18     		add	r3, r7, r3
 1144 000c 0022     		mov	r2, #0
 1145 000e 1A70     		strb	r2, [r3]
 856:.\Generated_Source\PSoC4/CYBLE_uds.c ****     
 857:.\Generated_Source\PSoC4/CYBLE_uds.c ****     if(NULL != CyBle_UdsApplCallback)
 1146              		.loc 1 857 0
 1147 0010 AA4B     		ldr	r3, .L89
 1148 0012 1B68     		ldr	r3, [r3]
 1149 0014 002B     		cmp	r3, #0
 1150 0016 00D1     		bne	.LCB986
 1151 0018 49E1     		b	.L69	@long jump
 1152              	.LCB986:
 1153              	.LBB9:
 858:.\Generated_Source\PSoC4/CYBLE_uds.c ****     {
 859:.\Generated_Source\PSoC4/CYBLE_uds.c **** 	    CYBLE_UDS_CHAR_VALUE_T locCharValue;
 860:.\Generated_Source\PSoC4/CYBLE_uds.c ****         locCharValue.connHandle = eventParam->connHandle;
 1154              		.loc 1 860 0
 1155 001a 0C23     		mov	r3, #12
 1156 001c FB18     		add	r3, r7, r3
 1157 001e 7A68     		ldr	r2, [r7, #4]
 1158 0020 1288     		ldrh	r2, [r2]
 1159 0022 1A80     		strh	r2, [r3]
 861:.\Generated_Source\PSoC4/CYBLE_uds.c ****         locCharValue.gattErrorCode = CYBLE_GATT_ERR_NONE;
 1160              		.loc 1 861 0
 1161 0024 0C23     		mov	r3, #12
 1162 0026 FB18     		add	r3, r7, r3
 1163 0028 0022     		mov	r2, #0
 1164 002a 1A72     		strb	r2, [r3, #8]
 862:.\Generated_Source\PSoC4/CYBLE_uds.c **** 	
 863:.\Generated_Source\PSoC4/CYBLE_uds.c **** 	    if((eventParam->handleValPair.attrHandle == cyBle_udss.charInfo[CYBLE_UDS_DCI].descrHandle[CYB
 1165              		.loc 1 863 0
 1166 002c 7B68     		ldr	r3, [r7, #4]
 1167 002e 9B89     		ldrh	r3, [r3, #12]
 1168 0030 5022     		mov	r2, #80
 1169 0032 9342     		cmp	r3, r2
 1170 0034 04D0     		beq	.L70
 864:.\Generated_Source\PSoC4/CYBLE_uds.c ****            (eventParam->handleValPair.attrHandle == cyBle_udss.charInfo[CYBLE_UDS_UCP].descrHandle[
 1171              		.loc 1 864 0 discriminator 1
 1172 0036 7B68     		ldr	r3, [r7, #4]
 1173 0038 9B89     		ldrh	r3, [r3, #12]
 1174 003a 5522     		mov	r2, #85
 863:.\Generated_Source\PSoC4/CYBLE_uds.c ****            (eventParam->handleValPair.attrHandle == cyBle_udss.charInfo[CYBLE_UDS_UCP].descrHandle[
 1175              		.loc 1 863 0 discriminator 1
 1176 003c 9342     		cmp	r3, r2
 1177 003e 5AD1     		bne	.L71
 1178              	.L70:
 865:.\Generated_Source\PSoC4/CYBLE_uds.c **** 	    {
 866:.\Generated_Source\PSoC4/CYBLE_uds.c ****             locCharValue.value = NULL;
 1179              		.loc 1 866 0
 1180 0040 0C23     		mov	r3, #12
 1181 0042 FB18     		add	r3, r7, r3
 1182 0044 0022     		mov	r2, #0
ARM GAS  C:\Users\mohammed\AppData\Local\Temp\cceuH2T0.s 			page 37


 1183 0046 5A60     		str	r2, [r3, #4]
 867:.\Generated_Source\PSoC4/CYBLE_uds.c ****             gattErr = CyBle_GattsWriteAttributeValue(&eventParam->handleValPair,
 1184              		.loc 1 867 0
 1185 0048 7B68     		ldr	r3, [r7, #4]
 1186 004a 1A1D     		add	r2, r3, #4
 1187 004c 7B68     		ldr	r3, [r7, #4]
 1188 004e 1F21     		mov	r1, #31
 1189 0050 7C18     		add	r4, r7, r1
 1190 0052 101C     		mov	r0, r2
 1191 0054 0021     		mov	r1, #0
 1192 0056 1A1C     		mov	r2, r3
 1193 0058 4023     		mov	r3, #64
 1194 005a FFF7FEFF 		bl	CyBle_GattsWriteAttributeValue
 1195 005e 031C     		mov	r3, r0
 1196 0060 2370     		strb	r3, [r4]
 868:.\Generated_Source\PSoC4/CYBLE_uds.c ****                          0u, &eventParam->connHandle, CYBLE_GATT_DB_PEER_INITIATED);
 869:.\Generated_Source\PSoC4/CYBLE_uds.c ****             
 870:.\Generated_Source\PSoC4/CYBLE_uds.c ****             if(CYBLE_GATT_ERR_NONE == gattErr)
 1197              		.loc 1 870 0
 1198 0062 1F23     		mov	r3, #31
 1199 0064 FB18     		add	r3, r7, r3
 1200 0066 1B78     		ldrb	r3, [r3]
 1201 0068 002B     		cmp	r3, #0
 1202 006a 3BD1     		bne	.L72
 1203              	.LBB10:
 871:.\Generated_Source\PSoC4/CYBLE_uds.c ****             {
 872:.\Generated_Source\PSoC4/CYBLE_uds.c ****                 uint32 eventCode;
 873:.\Generated_Source\PSoC4/CYBLE_uds.c ****                 
 874:.\Generated_Source\PSoC4/CYBLE_uds.c ****                 if(eventParam->handleValPair.attrHandle == cyBle_udss.charInfo[CYBLE_UDS_DCI].descr
 1204              		.loc 1 874 0
 1205 006c 7B68     		ldr	r3, [r7, #4]
 1206 006e 9B89     		ldrh	r3, [r3, #12]
 1207 0070 5022     		mov	r2, #80
 1208 0072 9342     		cmp	r3, r2
 1209 0074 17D1     		bne	.L73
 875:.\Generated_Source\PSoC4/CYBLE_uds.c ****                 {
 876:.\Generated_Source\PSoC4/CYBLE_uds.c ****                     locCharValue.charIndex = CYBLE_UDS_DCI;
 1210              		.loc 1 876 0
 1211 0076 0C23     		mov	r3, #12
 1212 0078 FB18     		add	r3, r7, r3
 1213 007a 1B22     		mov	r2, #27
 1214 007c 9A70     		strb	r2, [r3, #2]
 877:.\Generated_Source\PSoC4/CYBLE_uds.c ****                     
 878:.\Generated_Source\PSoC4/CYBLE_uds.c ****                     if(CYBLE_IS_NOTIFICATION_ENABLED_IN_PTR(eventParam->handleValPair.value.val))
 1215              		.loc 1 878 0
 1216 007e 7B68     		ldr	r3, [r7, #4]
 1217 0080 5B68     		ldr	r3, [r3, #4]
 1218 0082 181C     		mov	r0, r3
 1219 0084 FFF7FEFF 		bl	CyBle_Get16ByPtr
 1220 0088 031C     		mov	r3, r0
 1221 008a 1A1C     		mov	r2, r3
 1222 008c 0123     		mov	r3, #1
 1223 008e 1340     		and	r3, r2
 1224 0090 9BB2     		uxth	r3, r3
 1225 0092 002B     		cmp	r3, #0
 1226 0094 03D0     		beq	.L74
 879:.\Generated_Source\PSoC4/CYBLE_uds.c ****                     {
ARM GAS  C:\Users\mohammed\AppData\Local\Temp\cceuH2T0.s 			page 38


 880:.\Generated_Source\PSoC4/CYBLE_uds.c ****                         eventCode = (uint32) CYBLE_EVT_UDSS_NOTIFICATION_ENABLED;
 1227              		.loc 1 880 0
 1228 0096 F823     		mov	r3, #248
 1229 0098 5B00     		lsl	r3, r3, #1
 1230 009a BB61     		str	r3, [r7, #24]
 1231 009c 1AE0     		b	.L76
 1232              	.L74:
 881:.\Generated_Source\PSoC4/CYBLE_uds.c ****                     }
 882:.\Generated_Source\PSoC4/CYBLE_uds.c ****                     else
 883:.\Generated_Source\PSoC4/CYBLE_uds.c ****                     {
 884:.\Generated_Source\PSoC4/CYBLE_uds.c ****                         eventCode = (uint32) CYBLE_EVT_UDSS_NOTIFICATION_DISABLED;
 1233              		.loc 1 884 0
 1234 009e F223     		mov	r3, #242
 1235 00a0 FF33     		add	r3, r3, #255
 1236 00a2 BB61     		str	r3, [r7, #24]
 1237 00a4 16E0     		b	.L76
 1238              	.L73:
 885:.\Generated_Source\PSoC4/CYBLE_uds.c ****                     }
 886:.\Generated_Source\PSoC4/CYBLE_uds.c ****                 }
 887:.\Generated_Source\PSoC4/CYBLE_uds.c ****                 else
 888:.\Generated_Source\PSoC4/CYBLE_uds.c ****                 {
 889:.\Generated_Source\PSoC4/CYBLE_uds.c ****                     locCharValue.charIndex = CYBLE_UDS_UCP;
 1239              		.loc 1 889 0
 1240 00a6 0C23     		mov	r3, #12
 1241 00a8 FB18     		add	r3, r7, r3
 1242 00aa 1D22     		mov	r2, #29
 1243 00ac 9A70     		strb	r2, [r3, #2]
 890:.\Generated_Source\PSoC4/CYBLE_uds.c ****                     
 891:.\Generated_Source\PSoC4/CYBLE_uds.c ****                     if(CYBLE_IS_INDICATION_ENABLED_IN_PTR(eventParam->handleValPair.value.val))
 1244              		.loc 1 891 0
 1245 00ae 7B68     		ldr	r3, [r7, #4]
 1246 00b0 5B68     		ldr	r3, [r3, #4]
 1247 00b2 181C     		mov	r0, r3
 1248 00b4 FFF7FEFF 		bl	CyBle_Get16ByPtr
 1249 00b8 031C     		mov	r3, r0
 1250 00ba 1A1C     		mov	r2, r3
 1251 00bc 0223     		mov	r3, #2
 1252 00be 1340     		and	r3, r2
 1253 00c0 9BB2     		uxth	r3, r3
 1254 00c2 002B     		cmp	r3, #0
 1255 00c4 03D0     		beq	.L77
 892:.\Generated_Source\PSoC4/CYBLE_uds.c ****                     {
 893:.\Generated_Source\PSoC4/CYBLE_uds.c ****                         eventCode = (uint32) CYBLE_EVT_UDSS_INDICATION_ENABLED;
 1256              		.loc 1 893 0
 1257 00c6 EE23     		mov	r3, #238
 1258 00c8 FF33     		add	r3, r3, #255
 1259 00ca BB61     		str	r3, [r7, #24]
 1260 00cc 02E0     		b	.L76
 1261              	.L77:
 894:.\Generated_Source\PSoC4/CYBLE_uds.c ****                     }
 895:.\Generated_Source\PSoC4/CYBLE_uds.c ****                     else
 896:.\Generated_Source\PSoC4/CYBLE_uds.c ****                     {
 897:.\Generated_Source\PSoC4/CYBLE_uds.c ****                         eventCode = (uint32) CYBLE_EVT_UDSS_INDICATION_DISABLED;
 1262              		.loc 1 897 0
 1263 00ce F723     		mov	r3, #247
 1264 00d0 5B00     		lsl	r3, r3, #1
 1265 00d2 BB61     		str	r3, [r7, #24]
ARM GAS  C:\Users\mohammed\AppData\Local\Temp\cceuH2T0.s 			page 39


 1266              	.L76:
 898:.\Generated_Source\PSoC4/CYBLE_uds.c ****                     }
 899:.\Generated_Source\PSoC4/CYBLE_uds.c ****                 }
 900:.\Generated_Source\PSoC4/CYBLE_uds.c ****                 
 901:.\Generated_Source\PSoC4/CYBLE_uds.c ****                 CyBle_UdsApplCallback(eventCode, &locCharValue);
 1267              		.loc 1 901 0
 1268 00d4 794B     		ldr	r3, .L89
 1269 00d6 1B68     		ldr	r3, [r3]
 1270 00d8 B969     		ldr	r1, [r7, #24]
 1271 00da 0C22     		mov	r2, #12
 1272 00dc BA18     		add	r2, r7, r2
 1273 00de 081C     		mov	r0, r1
 1274 00e0 111C     		mov	r1, r2
 1275 00e2 9847     		blx	r3
 1276              	.L72:
 1277              	.LBE10:
 902:.\Generated_Source\PSoC4/CYBLE_uds.c ****             }
 903:.\Generated_Source\PSoC4/CYBLE_uds.c **** 
 904:.\Generated_Source\PSoC4/CYBLE_uds.c ****         #if((CYBLE_GAP_ROLE_PERIPHERAL || CYBLE_GAP_ROLE_CENTRAL) && \
 905:.\Generated_Source\PSoC4/CYBLE_uds.c ****             (CYBLE_BONDING_REQUIREMENT == CYBLE_BONDING_YES))
 906:.\Generated_Source\PSoC4/CYBLE_uds.c ****             /* Set flag to store bonding data to flash */
 907:.\Generated_Source\PSoC4/CYBLE_uds.c ****             if(cyBle_peerBonding == CYBLE_GAP_BONDING)
 908:.\Generated_Source\PSoC4/CYBLE_uds.c ****             {
 909:.\Generated_Source\PSoC4/CYBLE_uds.c ****                 cyBle_pendingFlashWrite |= CYBLE_PENDING_CCCD_FLASH_WRITE_BIT;
 910:.\Generated_Source\PSoC4/CYBLE_uds.c ****             }
 911:.\Generated_Source\PSoC4/CYBLE_uds.c ****         #endif /* (CYBLE_BONDING_REQUIREMENT == CYBLE_BONDING_YES) */
 912:.\Generated_Source\PSoC4/CYBLE_uds.c **** 			    
 913:.\Generated_Source\PSoC4/CYBLE_uds.c ****             cyBle_eventHandlerFlag &= (uint8)~CYBLE_CALLBACK;
 1278              		.loc 1 913 0
 1279 00e4 764B     		ldr	r3, .L89+4
 1280 00e6 1B78     		ldrb	r3, [r3]
 1281 00e8 DBB2     		uxtb	r3, r3
 1282 00ea 0122     		mov	r2, #1
 1283 00ec 9343     		bic	r3, r2
 1284 00ee DAB2     		uxtb	r2, r3
 1285 00f0 734B     		ldr	r3, .L89+4
 1286 00f2 1A70     		strb	r2, [r3]
 1287 00f4 DBE0     		b	.L69
 1288              	.L71:
 914:.\Generated_Source\PSoC4/CYBLE_uds.c ****         }
 915:.\Generated_Source\PSoC4/CYBLE_uds.c **** 	    else
 916:.\Generated_Source\PSoC4/CYBLE_uds.c ****         {
 917:.\Generated_Source\PSoC4/CYBLE_uds.c ****             for(locCharValue.charIndex = CYBLE_UDS_FNM; 
 1289              		.loc 1 917 0
 1290 00f6 0C23     		mov	r3, #12
 1291 00f8 FB18     		add	r3, r7, r3
 1292 00fa 0022     		mov	r2, #0
 1293 00fc 9A70     		strb	r2, [r3, #2]
 1294 00fe D0E0     		b	.L79
 1295              	.L87:
 918:.\Generated_Source\PSoC4/CYBLE_uds.c ****                 locCharValue.charIndex < CYBLE_UDS_CHAR_COUNT; 
 919:.\Generated_Source\PSoC4/CYBLE_uds.c ****                 locCharValue.charIndex++)
 920:.\Generated_Source\PSoC4/CYBLE_uds.c **** 	        {
 921:.\Generated_Source\PSoC4/CYBLE_uds.c ****                 if(eventParam->handleValPair.attrHandle == cyBle_udss.charInfo[locCharValue.charInd
 1296              		.loc 1 921 0
 1297 0100 7B68     		ldr	r3, [r7, #4]
 1298 0102 9A89     		ldrh	r2, [r3, #12]
ARM GAS  C:\Users\mohammed\AppData\Local\Temp\cceuH2T0.s 			page 40


 1299 0104 0C23     		mov	r3, #12
 1300 0106 FB18     		add	r3, r7, r3
 1301 0108 9B78     		ldrb	r3, [r3, #2]
 1302 010a 6E49     		ldr	r1, .L89+8
 1303 010c 9B00     		lsl	r3, r3, #2
 1304 010e CB18     		add	r3, r1, r3
 1305 0110 5B88     		ldrh	r3, [r3, #2]
 1306 0112 9A42     		cmp	r2, r3
 1307 0114 00D0     		beq	.LCB1132
 1308 0116 BCE0     		b	.L80	@long jump
 1309              	.LCB1132:
 922:.\Generated_Source\PSoC4/CYBLE_uds.c **** 	            {
 923:.\Generated_Source\PSoC4/CYBLE_uds.c **** 	                gattErr = CyBle_GattDbCheckPermission(eventParam->handleValPair.attrHandle, 
 1310              		.loc 1 923 0
 1311 0118 7B68     		ldr	r3, [r7, #4]
 1312 011a 9A89     		ldrh	r2, [r3, #12]
 1313 011c 7B68     		ldr	r3, [r7, #4]
 1314 011e 1F21     		mov	r1, #31
 1315 0120 7C18     		add	r4, r7, r1
 1316 0122 101C     		mov	r0, r2
 1317 0124 191C     		mov	r1, r3
 1318 0126 4222     		mov	r2, #66
 1319 0128 FFF7FEFF 		bl	CyBle_GattDbCheckPermission
 1320 012c 031C     		mov	r3, r0
 1321 012e 2370     		strb	r3, [r4]
 924:.\Generated_Source\PSoC4/CYBLE_uds.c ****                                                          &eventParam->connHandle,
 925:.\Generated_Source\PSoC4/CYBLE_uds.c ****                                                          CYBLE_GATT_DB_WRITE | CYBLE_GATT_DB_PEER_I
 926:.\Generated_Source\PSoC4/CYBLE_uds.c ****                     
 927:.\Generated_Source\PSoC4/CYBLE_uds.c ****                     if((gattErr == CYBLE_GATT_ERR_NONE) && (locCharValue.charIndex == CYBLE_UDS_UCP
 1322              		.loc 1 927 0
 1323 0130 1F23     		mov	r3, #31
 1324 0132 FB18     		add	r3, r7, r3
 1325 0134 1B78     		ldrb	r3, [r3]
 1326 0136 002B     		cmp	r3, #0
 1327 0138 29D1     		bne	.L81
 1328              		.loc 1 927 0 is_stmt 0 discriminator 1
 1329 013a 0C23     		mov	r3, #12
 1330 013c FB18     		add	r3, r7, r3
 1331 013e 9B78     		ldrb	r3, [r3, #2]
 1332 0140 1D2B     		cmp	r3, #29
 1333 0142 24D1     		bne	.L81
 928:.\Generated_Source\PSoC4/CYBLE_uds.c ****                     {
 929:.\Generated_Source\PSoC4/CYBLE_uds.c ****                         if(CYBLE_UDS_IS_PROCEDURE_IN_PROGRESS)
 1334              		.loc 1 929 0 is_stmt 1
 1335 0144 604B     		ldr	r3, .L89+12
 1336 0146 1B78     		ldrb	r3, [r3]
 1337 0148 0122     		mov	r2, #1
 1338 014a 1340     		and	r3, r2
 1339 014c DBB2     		uxtb	r3, r3
 1340 014e 002B     		cmp	r3, #0
 1341 0150 04D0     		beq	.L82
 930:.\Generated_Source\PSoC4/CYBLE_uds.c ****                         {
 931:.\Generated_Source\PSoC4/CYBLE_uds.c ****                             gattErr = CYBLE_GATT_ERR_PROCEDURE_ALREADY_IN_PROGRESS;
 1342              		.loc 1 931 0
 1343 0152 1F23     		mov	r3, #31
 1344 0154 FB18     		add	r3, r7, r3
 1345 0156 FE22     		mov	r2, #254
ARM GAS  C:\Users\mohammed\AppData\Local\Temp\cceuH2T0.s 			page 41


 1346 0158 1A70     		strb	r2, [r3]
 1347 015a 18E0     		b	.L81
 1348              	.L82:
 932:.\Generated_Source\PSoC4/CYBLE_uds.c ****                         }
 933:.\Generated_Source\PSoC4/CYBLE_uds.c ****                         else if(!CYBLE_IS_INDICATION_ENABLED(cyBle_udss.charInfo[CYBLE_UDS_UCP].
 1349              		.loc 1 933 0
 1350 015c 5523     		mov	r3, #85
 1351 015e 5A1E     		sub	r2, r3, #1
 1352 0160 5A49     		ldr	r1, .L89+16
 1353 0162 131C     		mov	r3, r2
 1354 0164 9B00     		lsl	r3, r3, #2
 1355 0166 9B18     		add	r3, r3, r2
 1356 0168 9B00     		lsl	r3, r3, #2
 1357 016a CB18     		add	r3, r1, r3
 1358 016c 0833     		add	r3, r3, #8
 1359 016e 9B68     		ldr	r3, [r3, #8]
 1360 0170 5B68     		ldr	r3, [r3, #4]
 1361 0172 181C     		mov	r0, r3
 1362 0174 FFF7FEFF 		bl	CyBle_Get16ByPtr
 1363 0178 031C     		mov	r3, r0
 1364 017a 1A1C     		mov	r2, r3
 1365 017c 0223     		mov	r3, #2
 1366 017e 1340     		and	r3, r2
 1367 0180 9BB2     		uxth	r3, r3
 1368 0182 002B     		cmp	r3, #0
 1369 0184 03D1     		bne	.L81
 934:.\Generated_Source\PSoC4/CYBLE_uds.c ****                                                                      descrHandle[CYBLE_UDS_CCCD]))
 935:.\Generated_Source\PSoC4/CYBLE_uds.c ****                         {
 936:.\Generated_Source\PSoC4/CYBLE_uds.c ****                             gattErr = CYBLE_GATT_ERR_CCCD_IMPROPERLY_CONFIGURED;
 1370              		.loc 1 936 0
 1371 0186 1F23     		mov	r3, #31
 1372 0188 FB18     		add	r3, r7, r3
 1373 018a FD22     		mov	r2, #253
 1374 018c 1A70     		strb	r2, [r3]
 1375              	.L81:
 937:.\Generated_Source\PSoC4/CYBLE_uds.c ****                         }
 938:.\Generated_Source\PSoC4/CYBLE_uds.c ****                         else
 939:.\Generated_Source\PSoC4/CYBLE_uds.c ****                         {
 940:.\Generated_Source\PSoC4/CYBLE_uds.c ****                         }
 941:.\Generated_Source\PSoC4/CYBLE_uds.c ****                     }
 942:.\Generated_Source\PSoC4/CYBLE_uds.c ****                     
 943:.\Generated_Source\PSoC4/CYBLE_uds.c ****                     if(gattErr == CYBLE_GATT_ERR_NONE)
 1376              		.loc 1 943 0
 1377 018e 1F23     		mov	r3, #31
 1378 0190 FB18     		add	r3, r7, r3
 1379 0192 1B78     		ldrb	r3, [r3]
 1380 0194 002B     		cmp	r3, #0
 1381 0196 00D0     		beq	.LCB1199
 1382 0198 72E0     		b	.L83	@long jump
 1383              	.LCB1199:
 944:.\Generated_Source\PSoC4/CYBLE_uds.c ****                     {
 945:.\Generated_Source\PSoC4/CYBLE_uds.c ****                         locCharValue.value = &eventParam->handleValPair.value;
 1384              		.loc 1 945 0
 1385 019a 7B68     		ldr	r3, [r7, #4]
 1386 019c 1A1D     		add	r2, r3, #4
 1387 019e 0C23     		mov	r3, #12
 1388 01a0 FB18     		add	r3, r7, r3
ARM GAS  C:\Users\mohammed\AppData\Local\Temp\cceuH2T0.s 			page 42


 1389 01a2 5A60     		str	r2, [r3, #4]
 946:.\Generated_Source\PSoC4/CYBLE_uds.c ****                         
 947:.\Generated_Source\PSoC4/CYBLE_uds.c ****                         if(!CYBLE_GATT_DB_ATTR_CHECK_PRPTY(eventParam->handleValPair.attrHandle, CY
 1390              		.loc 1 947 0
 1391 01a4 7B68     		ldr	r3, [r7, #4]
 1392 01a6 9B89     		ldrh	r3, [r3, #12]
 1393 01a8 5A1E     		sub	r2, r3, #1
 1394 01aa 4849     		ldr	r1, .L89+16
 1395 01ac 131C     		mov	r3, r2
 1396 01ae 9B00     		lsl	r3, r3, #2
 1397 01b0 9B18     		add	r3, r3, r2
 1398 01b2 9B00     		lsl	r3, r3, #2
 1399 01b4 CB18     		add	r3, r1, r3
 1400 01b6 5A68     		ldr	r2, [r3, #4]
 1401 01b8 8023     		mov	r3, #128
 1402 01ba 1B01     		lsl	r3, r3, #4
 1403 01bc 1340     		and	r3, r2
 1404 01be 04D1     		bne	.L84
 948:.\Generated_Source\PSoC4/CYBLE_uds.c ****                         {
 949:.\Generated_Source\PSoC4/CYBLE_uds.c ****                             gattErr = CYBLE_GATT_ERR_WRITE_NOT_PERMITTED;
 1405              		.loc 1 949 0
 1406 01c0 1F23     		mov	r3, #31
 1407 01c2 FB18     		add	r3, r7, r3
 1408 01c4 0322     		mov	r2, #3
 1409 01c6 1A70     		strb	r2, [r3]
 1410 01c8 5AE0     		b	.L83
 1411              	.L84:
 950:.\Generated_Source\PSoC4/CYBLE_uds.c ****                         }
 951:.\Generated_Source\PSoC4/CYBLE_uds.c ****                         else if(eventParam->handleValPair.value.len > CYBLE_GATT_DB_ATTR_GET_ATTR_G
 1412              		.loc 1 951 0
 1413 01ca 7B68     		ldr	r3, [r7, #4]
 1414 01cc 1989     		ldrh	r1, [r3, #8]
 1415 01ce 7B68     		ldr	r3, [r7, #4]
 1416 01d0 9B89     		ldrh	r3, [r3, #12]
 1417 01d2 5A1E     		sub	r2, r3, #1
 1418 01d4 3D48     		ldr	r0, .L89+16
 1419 01d6 131C     		mov	r3, r2
 1420 01d8 9B00     		lsl	r3, r3, #2
 1421 01da 9B18     		add	r3, r3, r2
 1422 01dc 9B00     		lsl	r3, r3, #2
 1423 01de C318     		add	r3, r0, r3
 1424 01e0 0833     		add	r3, r3, #8
 1425 01e2 9B88     		ldrh	r3, [r3, #4]
 1426 01e4 9942     		cmp	r1, r3
 1427 01e6 04D9     		bls	.L85
 952:.\Generated_Source\PSoC4/CYBLE_uds.c ****                         {
 953:.\Generated_Source\PSoC4/CYBLE_uds.c ****                             gattErr = CYBLE_GATT_ERR_INVALID_ATTRIBUTE_LEN;   
 1428              		.loc 1 953 0
 1429 01e8 1F23     		mov	r3, #31
 1430 01ea FB18     		add	r3, r7, r3
 1431 01ec 0D22     		mov	r2, #13
 1432 01ee 1A70     		strb	r2, [r3]
 1433 01f0 46E0     		b	.L83
 1434              	.L85:
 954:.\Generated_Source\PSoC4/CYBLE_uds.c ****                         }
 955:.\Generated_Source\PSoC4/CYBLE_uds.c ****                         else
 956:.\Generated_Source\PSoC4/CYBLE_uds.c ****                         {
ARM GAS  C:\Users\mohammed\AppData\Local\Temp\cceuH2T0.s 			page 43


 957:.\Generated_Source\PSoC4/CYBLE_uds.c ****                             CyBle_UdsApplCallback((uint32)CYBLE_EVT_UDSS_WRITE_CHAR, &locCharValue)
 1435              		.loc 1 957 0
 1436 01f2 324B     		ldr	r3, .L89
 1437 01f4 1B68     		ldr	r3, [r3]
 1438 01f6 F422     		mov	r2, #244
 1439 01f8 FF32     		add	r2, r2, #255
 1440 01fa 111C     		mov	r1, r2
 1441 01fc 0C22     		mov	r2, #12
 1442 01fe BA18     		add	r2, r7, r2
 1443 0200 081C     		mov	r0, r1
 1444 0202 111C     		mov	r1, r2
 1445 0204 9847     		blx	r3
 958:.\Generated_Source\PSoC4/CYBLE_uds.c ****                             
 959:.\Generated_Source\PSoC4/CYBLE_uds.c ****                             if(locCharValue.gattErrorCode == CYBLE_GATT_ERR_USER_DATA_ACCESS_NOT_PE
 1446              		.loc 1 959 0
 1447 0206 0C23     		mov	r3, #12
 1448 0208 FB18     		add	r3, r7, r3
 1449 020a 1B7A     		ldrb	r3, [r3, #8]
 1450 020c 802B     		cmp	r3, #128
 1451 020e 04D1     		bne	.L86
 960:.\Generated_Source\PSoC4/CYBLE_uds.c ****             	            {
 961:.\Generated_Source\PSoC4/CYBLE_uds.c ****                                 gattErr = CYBLE_GATT_ERR_USER_DATA_ACCESS_NOT_PERMITTED;
 1452              		.loc 1 961 0
 1453 0210 1F23     		mov	r3, #31
 1454 0212 FB18     		add	r3, r7, r3
 1455 0214 8022     		mov	r2, #128
 1456 0216 1A70     		strb	r2, [r3]
 1457 0218 32E0     		b	.L83
 1458              	.L86:
 962:.\Generated_Source\PSoC4/CYBLE_uds.c ****                             }
 963:.\Generated_Source\PSoC4/CYBLE_uds.c ****                             else
 964:.\Generated_Source\PSoC4/CYBLE_uds.c ****                             {
 965:.\Generated_Source\PSoC4/CYBLE_uds.c ****                                 gattErr = CyBle_GattsWriteAttributeValue(&eventParam->handleValPair
 1459              		.loc 1 965 0
 1460 021a 7B68     		ldr	r3, [r7, #4]
 1461 021c 1A1D     		add	r2, r3, #4
 1462 021e 7B68     		ldr	r3, [r7, #4]
 1463 0220 1F21     		mov	r1, #31
 1464 0222 7C18     		add	r4, r7, r1
 1465 0224 101C     		mov	r0, r2
 1466 0226 0021     		mov	r1, #0
 1467 0228 1A1C     		mov	r2, r3
 1468 022a 4023     		mov	r3, #64
 1469 022c FFF7FEFF 		bl	CyBle_GattsWriteAttributeValue
 1470 0230 031C     		mov	r3, r0
 1471 0232 2370     		strb	r3, [r4]
 966:.\Generated_Source\PSoC4/CYBLE_uds.c ****             	                      0u, &eventParam->connHandle, CYBLE_GATT_DB_PEER_INITIATED);
 967:.\Generated_Source\PSoC4/CYBLE_uds.c ****                     
 968:.\Generated_Source\PSoC4/CYBLE_uds.c ****                                 if(gattErr == CYBLE_GATT_ERR_NONE)
 1472              		.loc 1 968 0
 1473 0234 1F23     		mov	r3, #31
 1474 0236 FB18     		add	r3, r7, r3
 1475 0238 1B78     		ldrb	r3, [r3]
 1476 023a 002B     		cmp	r3, #0
 1477 023c 20D1     		bne	.L83
 969:.\Generated_Source\PSoC4/CYBLE_uds.c ****                     	        {
 970:.\Generated_Source\PSoC4/CYBLE_uds.c ****                                     CYBLE_GATT_DB_ATTR_SET_ATTR_GEN_LEN
ARM GAS  C:\Users\mohammed\AppData\Local\Temp\cceuH2T0.s 			page 44


 1478              		.loc 1 970 0
 1479 023e 0C23     		mov	r3, #12
 1480 0240 FB18     		add	r3, r7, r3
 1481 0242 9B78     		ldrb	r3, [r3, #2]
 1482 0244 1F4A     		ldr	r2, .L89+8
 1483 0246 9B00     		lsl	r3, r3, #2
 1484 0248 D318     		add	r3, r2, r3
 1485 024a 5B88     		ldrh	r3, [r3, #2]
 1486 024c 5A1E     		sub	r2, r3, #1
 1487 024e 1F49     		ldr	r1, .L89+16
 1488 0250 131C     		mov	r3, r2
 1489 0252 9B00     		lsl	r3, r3, #2
 1490 0254 9B18     		add	r3, r3, r2
 1491 0256 9B00     		lsl	r3, r3, #2
 1492 0258 CB18     		add	r3, r1, r3
 1493 025a 0833     		add	r3, r3, #8
 1494 025c 9A68     		ldr	r2, [r3, #8]
 1495 025e 0C23     		mov	r3, #12
 1496 0260 FB18     		add	r3, r7, r3
 1497 0262 5B68     		ldr	r3, [r3, #4]
 1498 0264 9B88     		ldrh	r3, [r3, #4]
 1499 0266 1380     		strh	r3, [r2]
 971:.\Generated_Source\PSoC4/CYBLE_uds.c ****                                         (cyBle_udss.charInfo[locCharValue.charIndex].charHandle,
 972:.\Generated_Source\PSoC4/CYBLE_uds.c ****                                             locCharValue.value->len);
 973:.\Generated_Source\PSoC4/CYBLE_uds.c ****                                     
 974:.\Generated_Source\PSoC4/CYBLE_uds.c ****                                     if(locCharValue.charIndex == CYBLE_UDS_UCP)
 1500              		.loc 1 974 0
 1501 0268 0C23     		mov	r3, #12
 1502 026a FB18     		add	r3, r7, r3
 1503 026c 9B78     		ldrb	r3, [r3, #2]
 1504 026e 1D2B     		cmp	r3, #29
 1505 0270 06D1     		bne	.L83
 975:.\Generated_Source\PSoC4/CYBLE_uds.c ****                                     {
 976:.\Generated_Source\PSoC4/CYBLE_uds.c ****                                         cyBle_udsFlag |= CYBLE_UDS_FLAG_PROCESS;
 1506              		.loc 1 976 0
 1507 0272 154B     		ldr	r3, .L89+12
 1508 0274 1B78     		ldrb	r3, [r3]
 1509 0276 0122     		mov	r2, #1
 1510 0278 1343     		orr	r3, r2
 1511 027a DAB2     		uxtb	r2, r3
 1512 027c 124B     		ldr	r3, .L89+12
 1513 027e 1A70     		strb	r2, [r3]
 1514              	.L83:
 977:.\Generated_Source\PSoC4/CYBLE_uds.c ****                                     }
 978:.\Generated_Source\PSoC4/CYBLE_uds.c ****                     	        }
 979:.\Generated_Source\PSoC4/CYBLE_uds.c ****                             }
 980:.\Generated_Source\PSoC4/CYBLE_uds.c ****                         }
 981:.\Generated_Source\PSoC4/CYBLE_uds.c ****                     }
 982:.\Generated_Source\PSoC4/CYBLE_uds.c ****                     cyBle_eventHandlerFlag &= (uint8)~CYBLE_CALLBACK;
 1515              		.loc 1 982 0
 1516 0280 0F4B     		ldr	r3, .L89+4
 1517 0282 1B78     		ldrb	r3, [r3]
 1518 0284 DBB2     		uxtb	r3, r3
 1519 0286 0122     		mov	r2, #1
 1520 0288 9343     		bic	r3, r2
 1521 028a DAB2     		uxtb	r2, r3
 1522 028c 0C4B     		ldr	r3, .L89+4
ARM GAS  C:\Users\mohammed\AppData\Local\Temp\cceuH2T0.s 			page 45


 1523 028e 1A70     		strb	r2, [r3]
 983:.\Generated_Source\PSoC4/CYBLE_uds.c ****                     break;
 1524              		.loc 1 983 0
 1525 0290 0DE0     		b	.L69
 1526              	.L80:
 919:.\Generated_Source\PSoC4/CYBLE_uds.c **** 	        {
 1527              		.loc 1 919 0
 1528 0292 0C23     		mov	r3, #12
 1529 0294 FB18     		add	r3, r7, r3
 1530 0296 9B78     		ldrb	r3, [r3, #2]
 1531 0298 0133     		add	r3, r3, #1
 1532 029a DAB2     		uxtb	r2, r3
 1533 029c 0C23     		mov	r3, #12
 1534 029e FB18     		add	r3, r7, r3
 1535 02a0 9A70     		strb	r2, [r3, #2]
 1536              	.L79:
 918:.\Generated_Source\PSoC4/CYBLE_uds.c ****                 locCharValue.charIndex++)
 1537              		.loc 1 918 0 discriminator 1
 1538 02a2 0C23     		mov	r3, #12
 1539 02a4 FB18     		add	r3, r7, r3
 1540 02a6 9B78     		ldrb	r3, [r3, #2]
 917:.\Generated_Source\PSoC4/CYBLE_uds.c ****                 locCharValue.charIndex < CYBLE_UDS_CHAR_COUNT; 
 1541              		.loc 1 917 0 discriminator 1
 1542 02a8 1E2B     		cmp	r3, #30
 1543 02aa 00D8     		bhi	.LCB1352
 1544 02ac 28E7     		b	.L87	@long jump
 1545              	.LCB1352:
 1546              	.L69:
 1547              	.LBE9:
 984:.\Generated_Source\PSoC4/CYBLE_uds.c **** 				}
 985:.\Generated_Source\PSoC4/CYBLE_uds.c ****             }
 986:.\Generated_Source\PSoC4/CYBLE_uds.c ****         }
 987:.\Generated_Source\PSoC4/CYBLE_uds.c ****     }
 988:.\Generated_Source\PSoC4/CYBLE_uds.c **** 
 989:.\Generated_Source\PSoC4/CYBLE_uds.c ****     return (gattErr);
 1548              		.loc 1 989 0
 1549 02ae 1F23     		mov	r3, #31
 1550 02b0 FB18     		add	r3, r7, r3
 1551 02b2 1B78     		ldrb	r3, [r3]
 990:.\Generated_Source\PSoC4/CYBLE_uds.c **** }
 1552              		.loc 1 990 0
 1553 02b4 181C     		mov	r0, r3
 1554 02b6 BD46     		mov	sp, r7
 1555 02b8 09B0     		add	sp, sp, #36
 1556              		@ sp needed
 1557 02ba 90BD     		pop	{r4, r7, pc}
 1558              	.L90:
 1559              		.align	2
 1560              	.L89:
 1561 02bc 00000000 		.word	CyBle_UdsApplCallback
 1562 02c0 00000000 		.word	cyBle_eventHandlerFlag
 1563 02c4 00000000 		.word	cyBle_udss
 1564 02c8 00000000 		.word	cyBle_udsFlag
 1565 02cc 00000000 		.word	cyBle_gattDB
 1566              		.cfi_endproc
 1567              	.LFE11:
 1568              		.size	CyBle_UdssWriteEventHandler, .-CyBle_UdssWriteEventHandler
ARM GAS  C:\Users\mohammed\AppData\Local\Temp\cceuH2T0.s 			page 46


 1569              		.section	.text.CyBle_UdssPrepareWriteRequestEventHandler,"ax",%progbits
 1570              		.align	2
 1571              		.global	CyBle_UdssPrepareWriteRequestEventHandler
 1572              		.code	16
 1573              		.thumb_func
 1574              		.type	CyBle_UdssPrepareWriteRequestEventHandler, %function
 1575              	CyBle_UdssPrepareWriteRequestEventHandler:
 1576              	.LFB12:
 991:.\Generated_Source\PSoC4/CYBLE_uds.c **** 
 992:.\Generated_Source\PSoC4/CYBLE_uds.c **** /****************************************************************************** 
 993:.\Generated_Source\PSoC4/CYBLE_uds.c **** * Function Name: CyBle_UdssPrepareWriteEventHandler
 994:.\Generated_Source\PSoC4/CYBLE_uds.c **** ***************************************************************************//**
 995:.\Generated_Source\PSoC4/CYBLE_uds.c **** * 
 996:.\Generated_Source\PSoC4/CYBLE_uds.c **** *  Handles the Prepare Write Request Event.
 997:.\Generated_Source\PSoC4/CYBLE_uds.c **** * 
 998:.\Generated_Source\PSoC4/CYBLE_uds.c **** *  \param eventParam: The pointer to the data that comes with a prepare 
 999:.\Generated_Source\PSoC4/CYBLE_uds.c **** *                      write request.
1000:.\Generated_Source\PSoC4/CYBLE_uds.c **** *                                                  
1001:.\Generated_Source\PSoC4/CYBLE_uds.c **** * 
1002:.\Generated_Source\PSoC4/CYBLE_uds.c **** * \return
1003:.\Generated_Source\PSoC4/CYBLE_uds.c **** *  None.
1004:.\Generated_Source\PSoC4/CYBLE_uds.c **** * 
1005:.\Generated_Source\PSoC4/CYBLE_uds.c **** ******************************************************************************/
1006:.\Generated_Source\PSoC4/CYBLE_uds.c **** void CyBle_UdssPrepareWriteRequestEventHandler(CYBLE_GATTS_PREP_WRITE_REQ_PARAM_T *eventParam)
1007:.\Generated_Source\PSoC4/CYBLE_uds.c **** {
 1577              		.loc 1 1007 0
 1578              		.cfi_startproc
 1579 0000 80B5     		push	{r7, lr}
 1580              		.cfi_def_cfa_offset 8
 1581              		.cfi_offset 7, -8
 1582              		.cfi_offset 14, -4
 1583 0002 84B0     		sub	sp, sp, #16
 1584              		.cfi_def_cfa_offset 24
 1585 0004 00AF     		add	r7, sp, #0
 1586              		.cfi_def_cfa_register 7
 1587 0006 7860     		str	r0, [r7, #4]
1008:.\Generated_Source\PSoC4/CYBLE_uds.c ****     CYBLE_UDS_CHAR_INDEX_T locCharIndex;
1009:.\Generated_Source\PSoC4/CYBLE_uds.c ****     uint16 locMtu = CYBLE_GATT_MTU;
 1588              		.loc 1 1009 0
 1589 0008 0C23     		mov	r3, #12
 1590 000a FB18     		add	r3, r7, r3
 1591 000c 1722     		mov	r2, #23
 1592 000e 1A80     		strh	r2, [r3]
1010:.\Generated_Source\PSoC4/CYBLE_uds.c ****     (void) CyBle_GattGetMtuSize(&locMtu);
 1593              		.loc 1 1010 0
 1594 0010 0C23     		mov	r3, #12
 1595 0012 FB18     		add	r3, r7, r3
 1596 0014 181C     		mov	r0, r3
 1597 0016 FFF7FEFF 		bl	CyBle_GattGetMtuSize
1011:.\Generated_Source\PSoC4/CYBLE_uds.c ****     
1012:.\Generated_Source\PSoC4/CYBLE_uds.c ****     for(locCharIndex = CYBLE_UDS_FNM; locCharIndex <= CYBLE_UDS_EML; locCharIndex++)
 1598              		.loc 1 1012 0
 1599 001a 0F23     		mov	r3, #15
 1600 001c FB18     		add	r3, r7, r3
 1601 001e 0022     		mov	r2, #0
 1602 0020 1A70     		strb	r2, [r3]
 1603 0022 44E0     		b	.L92
ARM GAS  C:\Users\mohammed\AppData\Local\Temp\cceuH2T0.s 			page 47


 1604              	.L98:
1013:.\Generated_Source\PSoC4/CYBLE_uds.c ****     {
1014:.\Generated_Source\PSoC4/CYBLE_uds.c ****         if(eventParam->baseAddr[eventParam->currentPrepWriteReqCount - 1u].handleValuePair.attrHand
 1605              		.loc 1 1014 0
 1606 0024 7B68     		ldr	r3, [r7, #4]
 1607 0026 5A68     		ldr	r2, [r3, #4]
 1608 0028 7B68     		ldr	r3, [r7, #4]
 1609 002a 1B7A     		ldrb	r3, [r3, #8]
 1610 002c 2449     		ldr	r1, .L99
 1611 002e 8C46     		mov	ip, r1
 1612 0030 6344     		add	r3, r3, ip
 1613 0032 1B01     		lsl	r3, r3, #4
 1614 0034 D318     		add	r3, r2, r3
 1615 0036 1A89     		ldrh	r2, [r3, #8]
1015:.\Generated_Source\PSoC4/CYBLE_uds.c ****                 cyBle_udss.charInfo[locCharIndex].charHandle)
 1616              		.loc 1 1015 0
 1617 0038 0F23     		mov	r3, #15
 1618 003a FB18     		add	r3, r7, r3
 1619 003c 1B78     		ldrb	r3, [r3]
 1620 003e 2149     		ldr	r1, .L99+4
 1621 0040 9B00     		lsl	r3, r3, #2
 1622 0042 CB18     		add	r3, r1, r3
 1623 0044 5B88     		ldrh	r3, [r3, #2]
1014:.\Generated_Source\PSoC4/CYBLE_uds.c ****                 cyBle_udss.charInfo[locCharIndex].charHandle)
 1624              		.loc 1 1014 0
 1625 0046 9A42     		cmp	r2, r3
 1626 0048 2AD1     		bne	.L93
1016:.\Generated_Source\PSoC4/CYBLE_uds.c ****         {
1017:.\Generated_Source\PSoC4/CYBLE_uds.c ****             if(CYBLE_GATT_DB_ATTR_GET_ATTR_GEN_MAX_LEN(cyBle_udss.charInfo[locCharIndex].charHandle
 1627              		.loc 1 1017 0
 1628 004a 0F23     		mov	r3, #15
 1629 004c FB18     		add	r3, r7, r3
 1630 004e 1B78     		ldrb	r3, [r3]
 1631 0050 1C4A     		ldr	r2, .L99+4
 1632 0052 9B00     		lsl	r3, r3, #2
 1633 0054 D318     		add	r3, r2, r3
 1634 0056 5B88     		ldrh	r3, [r3, #2]
 1635 0058 5A1E     		sub	r2, r3, #1
 1636 005a 1B49     		ldr	r1, .L99+8
 1637 005c 131C     		mov	r3, r2
 1638 005e 9B00     		lsl	r3, r3, #2
 1639 0060 9B18     		add	r3, r3, r2
 1640 0062 9B00     		lsl	r3, r3, #2
 1641 0064 CB18     		add	r3, r1, r3
 1642 0066 0833     		add	r3, r3, #8
 1643 0068 9B88     		ldrh	r3, [r3, #4]
 1644 006a 1A1C     		mov	r2, r3
 1645 006c 0C23     		mov	r3, #12
 1646 006e FB18     		add	r3, r7, r3
 1647 0070 1B88     		ldrh	r3, [r3]
 1648 0072 033B     		sub	r3, r3, #3
 1649 0074 9A42     		cmp	r2, r3
 1650 0076 07D9     		bls	.L94
1018:.\Generated_Source\PSoC4/CYBLE_uds.c ****             {   
1019:.\Generated_Source\PSoC4/CYBLE_uds.c ****                 #ifdef ATT_QUEUED_WRITE_SUPPORT
1020:.\Generated_Source\PSoC4/CYBLE_uds.c ****                     if(eventParam->currentPrepWriteReqCount == CYBLE_GATTS_FIRST_PREP_WRITE_REQ)
 1651              		.loc 1 1020 0
ARM GAS  C:\Users\mohammed\AppData\Local\Temp\cceuH2T0.s 			page 48


 1652 0078 7B68     		ldr	r3, [r7, #4]
 1653 007a 1B7A     		ldrb	r3, [r3, #8]
 1654 007c 012B     		cmp	r3, #1
 1655 007e 06D1     		bne	.L96
1021:.\Generated_Source\PSoC4/CYBLE_uds.c ****                     {
1022:.\Generated_Source\PSoC4/CYBLE_uds.c ****                         CyBle_GattsPrepWriteReqSupport(CYBLE_GATTS_PREP_WRITE_SUPPORT);
 1656              		.loc 1 1022 0
 1657 0080 0120     		mov	r0, #1
 1658 0082 FFF7FEFF 		bl	CyBle_GattsPrepWriteReqSupport
 1659 0086 02E0     		b	.L96
 1660              	.L94:
1023:.\Generated_Source\PSoC4/CYBLE_uds.c ****                     }
1024:.\Generated_Source\PSoC4/CYBLE_uds.c ****                 #endif /* ATT_QUEUED_WRITE_SUPPORT */
1025:.\Generated_Source\PSoC4/CYBLE_uds.c ****             } 
1026:.\Generated_Source\PSoC4/CYBLE_uds.c ****             else
1027:.\Generated_Source\PSoC4/CYBLE_uds.c ****             {
1028:.\Generated_Source\PSoC4/CYBLE_uds.c ****                 eventParam->gattErrorCode = CYBLE_GATT_ERR_ATTRIBUTE_NOT_LONG;
 1661              		.loc 1 1028 0
 1662 0088 7B68     		ldr	r3, [r7, #4]
 1663 008a 0B22     		mov	r2, #11
 1664 008c 5A72     		strb	r2, [r3, #9]
 1665              	.L96:
1029:.\Generated_Source\PSoC4/CYBLE_uds.c ****             }
1030:.\Generated_Source\PSoC4/CYBLE_uds.c ****             
1031:.\Generated_Source\PSoC4/CYBLE_uds.c ****             /* Indicate that request was handled */
1032:.\Generated_Source\PSoC4/CYBLE_uds.c ****             cyBle_eventHandlerFlag &= (uint8)~CYBLE_CALLBACK;
 1666              		.loc 1 1032 0
 1667 008e 0F4B     		ldr	r3, .L99+12
 1668 0090 1B78     		ldrb	r3, [r3]
 1669 0092 DBB2     		uxtb	r3, r3
 1670 0094 0122     		mov	r2, #1
 1671 0096 9343     		bic	r3, r2
 1672 0098 DAB2     		uxtb	r2, r3
 1673 009a 0C4B     		ldr	r3, .L99+12
 1674 009c 1A70     		strb	r2, [r3]
1033:.\Generated_Source\PSoC4/CYBLE_uds.c ****             break;
 1675              		.loc 1 1033 0
 1676 009e 0BE0     		b	.L91
 1677              	.L93:
1012:.\Generated_Source\PSoC4/CYBLE_uds.c ****     {
 1678              		.loc 1 1012 0 discriminator 2
 1679 00a0 0F23     		mov	r3, #15
 1680 00a2 FB18     		add	r3, r7, r3
 1681 00a4 1A78     		ldrb	r2, [r3]
 1682 00a6 0F23     		mov	r3, #15
 1683 00a8 FB18     		add	r3, r7, r3
 1684 00aa 0132     		add	r2, r2, #1
 1685 00ac 1A70     		strb	r2, [r3]
 1686              	.L92:
1012:.\Generated_Source\PSoC4/CYBLE_uds.c ****     {
 1687              		.loc 1 1012 0 is_stmt 0 discriminator 1
 1688 00ae 0F23     		mov	r3, #15
 1689 00b0 FB18     		add	r3, r7, r3
 1690 00b2 1B78     		ldrb	r3, [r3]
 1691 00b4 022B     		cmp	r3, #2
 1692 00b6 B5D9     		bls	.L98
 1693              	.L91:
ARM GAS  C:\Users\mohammed\AppData\Local\Temp\cceuH2T0.s 			page 49


1034:.\Generated_Source\PSoC4/CYBLE_uds.c ****         }
1035:.\Generated_Source\PSoC4/CYBLE_uds.c ****     }
1036:.\Generated_Source\PSoC4/CYBLE_uds.c **** }
 1694              		.loc 1 1036 0 is_stmt 1
 1695 00b8 BD46     		mov	sp, r7
 1696 00ba 04B0     		add	sp, sp, #16
 1697              		@ sp needed
 1698 00bc 80BD     		pop	{r7, pc}
 1699              	.L100:
 1700 00be C046     		.align	2
 1701              	.L99:
 1702 00c0 FFFFFF0F 		.word	268435455
 1703 00c4 00000000 		.word	cyBle_udss
 1704 00c8 00000000 		.word	cyBle_gattDB
 1705 00cc 00000000 		.word	cyBle_eventHandlerFlag
 1706              		.cfi_endproc
 1707              	.LFE12:
 1708              		.size	CyBle_UdssPrepareWriteRequestEventHandler, .-CyBle_UdssPrepareWriteRequestEventHandler
 1709              		.section	.text.CyBle_UdssExecuteWriteRequestEventHandler,"ax",%progbits
 1710              		.align	2
 1711              		.global	CyBle_UdssExecuteWriteRequestEventHandler
 1712              		.code	16
 1713              		.thumb_func
 1714              		.type	CyBle_UdssExecuteWriteRequestEventHandler, %function
 1715              	CyBle_UdssExecuteWriteRequestEventHandler:
 1716              	.LFB13:
1037:.\Generated_Source\PSoC4/CYBLE_uds.c **** 
1038:.\Generated_Source\PSoC4/CYBLE_uds.c **** /****************************************************************************** 
1039:.\Generated_Source\PSoC4/CYBLE_uds.c **** * Function Name: CyBle_UdssExecuteWriteRequestEventHandler
1040:.\Generated_Source\PSoC4/CYBLE_uds.c **** ***************************************************************************//**
1041:.\Generated_Source\PSoC4/CYBLE_uds.c **** * 
1042:.\Generated_Source\PSoC4/CYBLE_uds.c **** *  Handles the Execute Write Request Event.
1043:.\Generated_Source\PSoC4/CYBLE_uds.c **** * 
1044:.\Generated_Source\PSoC4/CYBLE_uds.c **** *  \param eventParam: The pointer to the data that came with a write request.
1045:.\Generated_Source\PSoC4/CYBLE_uds.c **** * 
1046:.\Generated_Source\PSoC4/CYBLE_uds.c **** * \return
1047:.\Generated_Source\PSoC4/CYBLE_uds.c **** *  None.
1048:.\Generated_Source\PSoC4/CYBLE_uds.c **** * 
1049:.\Generated_Source\PSoC4/CYBLE_uds.c **** ******************************************************************************/
1050:.\Generated_Source\PSoC4/CYBLE_uds.c **** void CyBle_UdssExecuteWriteRequestEventHandler(CYBLE_GATTS_EXEC_WRITE_REQ_T *eventParam)
1051:.\Generated_Source\PSoC4/CYBLE_uds.c **** {
 1717              		.loc 1 1051 0
 1718              		.cfi_startproc
 1719 0000 90B5     		push	{r4, r7, lr}
 1720              		.cfi_def_cfa_offset 12
 1721              		.cfi_offset 4, -12
 1722              		.cfi_offset 7, -8
 1723              		.cfi_offset 14, -4
 1724 0002 93B0     		sub	sp, sp, #76
 1725              		.cfi_def_cfa_offset 88
 1726 0004 00AF     		add	r7, sp, #0
 1727              		.cfi_def_cfa_register 7
 1728 0006 7860     		str	r0, [r7, #4]
1052:.\Generated_Source\PSoC4/CYBLE_uds.c ****     uint8 locCount;
1053:.\Generated_Source\PSoC4/CYBLE_uds.c ****     CYBLE_UDS_CHAR_VALUE_T locCharValue[CYBLE_UDS_LONG_CHAR_COUNT];
1054:.\Generated_Source\PSoC4/CYBLE_uds.c ****     CYBLE_GATT_VALUE_T locGattValue[CYBLE_UDS_LONG_CHAR_COUNT];
1055:.\Generated_Source\PSoC4/CYBLE_uds.c ****     CYBLE_UDS_CHAR_INDEX_T locCharIndex;
ARM GAS  C:\Users\mohammed\AppData\Local\Temp\cceuH2T0.s 			page 50


1056:.\Generated_Source\PSoC4/CYBLE_uds.c ****     for(locCharIndex = CYBLE_UDS_FNM; locCharIndex <= CYBLE_UDS_EML; locCharIndex++)
 1729              		.loc 1 1056 0
 1730 0008 4623     		mov	r3, #70
 1731 000a FB18     		add	r3, r7, r3
 1732 000c 0022     		mov	r2, #0
 1733 000e 1A70     		strb	r2, [r3]
 1734 0010 17E0     		b	.L102
 1735              	.L103:
1057:.\Generated_Source\PSoC4/CYBLE_uds.c ****     {
1058:.\Generated_Source\PSoC4/CYBLE_uds.c ****         locGattValue[locCharIndex].len = 0u;
 1736              		.loc 1 1058 0 discriminator 3
 1737 0012 4623     		mov	r3, #70
 1738 0014 FB18     		add	r3, r7, r3
 1739 0016 1B78     		ldrb	r3, [r3]
 1740 0018 0822     		mov	r2, #8
 1741 001a BA18     		add	r2, r7, r2
 1742 001c DB00     		lsl	r3, r3, #3
 1743 001e D318     		add	r3, r2, r3
 1744 0020 0022     		mov	r2, #0
 1745 0022 9A80     		strh	r2, [r3, #4]
1059:.\Generated_Source\PSoC4/CYBLE_uds.c ****         locGattValue[locCharIndex].val = NULL;
 1746              		.loc 1 1059 0 discriminator 3
 1747 0024 4623     		mov	r3, #70
 1748 0026 FB18     		add	r3, r7, r3
 1749 0028 1A78     		ldrb	r2, [r3]
 1750 002a 0823     		mov	r3, #8
 1751 002c FB18     		add	r3, r7, r3
 1752 002e D200     		lsl	r2, r2, #3
 1753 0030 0021     		mov	r1, #0
 1754 0032 D150     		str	r1, [r2, r3]
1056:.\Generated_Source\PSoC4/CYBLE_uds.c ****     {
 1755              		.loc 1 1056 0 discriminator 3
 1756 0034 4623     		mov	r3, #70
 1757 0036 FB18     		add	r3, r7, r3
 1758 0038 1A78     		ldrb	r2, [r3]
 1759 003a 4623     		mov	r3, #70
 1760 003c FB18     		add	r3, r7, r3
 1761 003e 0132     		add	r2, r2, #1
 1762 0040 1A70     		strb	r2, [r3]
 1763              	.L102:
1056:.\Generated_Source\PSoC4/CYBLE_uds.c ****     {
 1764              		.loc 1 1056 0 is_stmt 0 discriminator 1
 1765 0042 4623     		mov	r3, #70
 1766 0044 FB18     		add	r3, r7, r3
 1767 0046 1B78     		ldrb	r3, [r3]
 1768 0048 022B     		cmp	r3, #2
 1769 004a E2D9     		bls	.L103
1060:.\Generated_Source\PSoC4/CYBLE_uds.c ****     }
1061:.\Generated_Source\PSoC4/CYBLE_uds.c ****     
1062:.\Generated_Source\PSoC4/CYBLE_uds.c ****     for(locCount = 0u; locCount < eventParam->prepWriteReqCount; locCount++)
 1770              		.loc 1 1062 0 is_stmt 1
 1771 004c 4723     		mov	r3, #71
 1772 004e FB18     		add	r3, r7, r3
 1773 0050 0022     		mov	r2, #0
 1774 0052 1A70     		strb	r2, [r3]
 1775 0054 75E0     		b	.L104
 1776              	.L109:
ARM GAS  C:\Users\mohammed\AppData\Local\Temp\cceuH2T0.s 			page 51


1063:.\Generated_Source\PSoC4/CYBLE_uds.c ****     {
1064:.\Generated_Source\PSoC4/CYBLE_uds.c ****         for(locCharIndex = CYBLE_UDS_FNM; locCharIndex <= CYBLE_UDS_EML; locCharIndex++)
 1777              		.loc 1 1064 0
 1778 0056 4623     		mov	r3, #70
 1779 0058 FB18     		add	r3, r7, r3
 1780 005a 0022     		mov	r2, #0
 1781 005c 1A70     		strb	r2, [r3]
 1782 005e 64E0     		b	.L105
 1783              	.L108:
1065:.\Generated_Source\PSoC4/CYBLE_uds.c ****         {
1066:.\Generated_Source\PSoC4/CYBLE_uds.c ****             if(eventParam->baseAddr[locCount].handleValuePair.attrHandle ==
 1784              		.loc 1 1066 0
 1785 0060 7B68     		ldr	r3, [r7, #4]
 1786 0062 5A68     		ldr	r2, [r3, #4]
 1787 0064 4723     		mov	r3, #71
 1788 0066 FB18     		add	r3, r7, r3
 1789 0068 1B78     		ldrb	r3, [r3]
 1790 006a 1B01     		lsl	r3, r3, #4
 1791 006c D318     		add	r3, r2, r3
 1792 006e 1A89     		ldrh	r2, [r3, #8]
1067:.\Generated_Source\PSoC4/CYBLE_uds.c ****                 cyBle_udss.charInfo[locCharIndex].charHandle)
 1793              		.loc 1 1067 0
 1794 0070 4623     		mov	r3, #70
 1795 0072 FB18     		add	r3, r7, r3
 1796 0074 1B78     		ldrb	r3, [r3]
 1797 0076 9549     		ldr	r1, .L115
 1798 0078 9B00     		lsl	r3, r3, #2
 1799 007a CB18     		add	r3, r1, r3
 1800 007c 5B88     		ldrh	r3, [r3, #2]
1066:.\Generated_Source\PSoC4/CYBLE_uds.c ****                 cyBle_udss.charInfo[locCharIndex].charHandle)
 1801              		.loc 1 1066 0
 1802 007e 9A42     		cmp	r2, r3
 1803 0080 4CD1     		bne	.L106
1068:.\Generated_Source\PSoC4/CYBLE_uds.c ****             {
1069:.\Generated_Source\PSoC4/CYBLE_uds.c ****                 locGattValue[locCharIndex].len = eventParam->baseAddr[locCount].offset + 
 1804              		.loc 1 1069 0
 1805 0082 4623     		mov	r3, #70
 1806 0084 FB18     		add	r3, r7, r3
 1807 0086 1978     		ldrb	r1, [r3]
 1808 0088 7B68     		ldr	r3, [r7, #4]
 1809 008a 5A68     		ldr	r2, [r3, #4]
 1810 008c 4723     		mov	r3, #71
 1811 008e FB18     		add	r3, r7, r3
 1812 0090 1B78     		ldrb	r3, [r3]
 1813 0092 1B01     		lsl	r3, r3, #4
 1814 0094 D318     		add	r3, r2, r3
 1815 0096 9A89     		ldrh	r2, [r3, #12]
1070:.\Generated_Source\PSoC4/CYBLE_uds.c ****                                    eventParam->baseAddr[locCount].handleValuePair.value.len;
 1816              		.loc 1 1070 0
 1817 0098 7B68     		ldr	r3, [r7, #4]
 1818 009a 5868     		ldr	r0, [r3, #4]
 1819 009c 4723     		mov	r3, #71
 1820 009e FB18     		add	r3, r7, r3
 1821 00a0 1B78     		ldrb	r3, [r3]
 1822 00a2 1B01     		lsl	r3, r3, #4
 1823 00a4 C318     		add	r3, r0, r3
 1824 00a6 9B88     		ldrh	r3, [r3, #4]
ARM GAS  C:\Users\mohammed\AppData\Local\Temp\cceuH2T0.s 			page 52


1069:.\Generated_Source\PSoC4/CYBLE_uds.c ****                                    eventParam->baseAddr[locCount].handleValuePair.value.len;
 1825              		.loc 1 1069 0
 1826 00a8 D318     		add	r3, r2, r3
 1827 00aa 98B2     		uxth	r0, r3
 1828 00ac 0823     		mov	r3, #8
 1829 00ae FA18     		add	r2, r7, r3
 1830 00b0 CB00     		lsl	r3, r1, #3
 1831 00b2 D318     		add	r3, r2, r3
 1832 00b4 021C     		add	r2, r0, #0
 1833 00b6 9A80     		strh	r2, [r3, #4]
1071:.\Generated_Source\PSoC4/CYBLE_uds.c **** 
1072:.\Generated_Source\PSoC4/CYBLE_uds.c ****                 if(locGattValue[locCharIndex].val == NULL)
 1834              		.loc 1 1072 0
 1835 00b8 4623     		mov	r3, #70
 1836 00ba FB18     		add	r3, r7, r3
 1837 00bc 1A78     		ldrb	r2, [r3]
 1838 00be 0823     		mov	r3, #8
 1839 00c0 FB18     		add	r3, r7, r3
 1840 00c2 D200     		lsl	r2, r2, #3
 1841 00c4 D358     		ldr	r3, [r2, r3]
 1842 00c6 002B     		cmp	r3, #0
 1843 00c8 0FD1     		bne	.L107
1073:.\Generated_Source\PSoC4/CYBLE_uds.c ****                 {
1074:.\Generated_Source\PSoC4/CYBLE_uds.c ****                     locGattValue[locCharIndex].val = eventParam->baseAddr[locCount].handleValuePair
 1844              		.loc 1 1074 0
 1845 00ca 4623     		mov	r3, #70
 1846 00cc FB18     		add	r3, r7, r3
 1847 00ce 1A78     		ldrb	r2, [r3]
 1848 00d0 7B68     		ldr	r3, [r7, #4]
 1849 00d2 5968     		ldr	r1, [r3, #4]
 1850 00d4 4723     		mov	r3, #71
 1851 00d6 FB18     		add	r3, r7, r3
 1852 00d8 1B78     		ldrb	r3, [r3]
 1853 00da 1B01     		lsl	r3, r3, #4
 1854 00dc CB18     		add	r3, r1, r3
 1855 00de 1968     		ldr	r1, [r3]
 1856 00e0 0823     		mov	r3, #8
 1857 00e2 FB18     		add	r3, r7, r3
 1858 00e4 D200     		lsl	r2, r2, #3
 1859 00e6 D150     		str	r1, [r2, r3]
 1860 00e8 18E0     		b	.L106
 1861              	.L107:
1075:.\Generated_Source\PSoC4/CYBLE_uds.c ****                 }
1076:.\Generated_Source\PSoC4/CYBLE_uds.c ****                 else if(eventParam->baseAddr[locCount].offset == 0u)
 1862              		.loc 1 1076 0
 1863 00ea 7B68     		ldr	r3, [r7, #4]
 1864 00ec 5A68     		ldr	r2, [r3, #4]
 1865 00ee 4723     		mov	r3, #71
 1866 00f0 FB18     		add	r3, r7, r3
 1867 00f2 1B78     		ldrb	r3, [r3]
 1868 00f4 1B01     		lsl	r3, r3, #4
 1869 00f6 D318     		add	r3, r2, r3
 1870 00f8 9B89     		ldrh	r3, [r3, #12]
 1871 00fa 002B     		cmp	r3, #0
 1872 00fc 0ED1     		bne	.L106
1077:.\Generated_Source\PSoC4/CYBLE_uds.c ****                 {
1078:.\Generated_Source\PSoC4/CYBLE_uds.c ****                     /* Case when client wants to rewrite value from beginning */
ARM GAS  C:\Users\mohammed\AppData\Local\Temp\cceuH2T0.s 			page 53


1079:.\Generated_Source\PSoC4/CYBLE_uds.c ****                     locGattValue[locCharIndex].val = eventParam->baseAddr[locCount].handleValuePair
 1873              		.loc 1 1079 0
 1874 00fe 4623     		mov	r3, #70
 1875 0100 FB18     		add	r3, r7, r3
 1876 0102 1A78     		ldrb	r2, [r3]
 1877 0104 7B68     		ldr	r3, [r7, #4]
 1878 0106 5968     		ldr	r1, [r3, #4]
 1879 0108 4723     		mov	r3, #71
 1880 010a FB18     		add	r3, r7, r3
 1881 010c 1B78     		ldrb	r3, [r3]
 1882 010e 1B01     		lsl	r3, r3, #4
 1883 0110 CB18     		add	r3, r1, r3
 1884 0112 1968     		ldr	r1, [r3]
 1885 0114 0823     		mov	r3, #8
 1886 0116 FB18     		add	r3, r7, r3
 1887 0118 D200     		lsl	r2, r2, #3
 1888 011a D150     		str	r1, [r2, r3]
 1889              	.L106:
1064:.\Generated_Source\PSoC4/CYBLE_uds.c ****         {
 1890              		.loc 1 1064 0 discriminator 2
 1891 011c 4623     		mov	r3, #70
 1892 011e FB18     		add	r3, r7, r3
 1893 0120 1A78     		ldrb	r2, [r3]
 1894 0122 4623     		mov	r3, #70
 1895 0124 FB18     		add	r3, r7, r3
 1896 0126 0132     		add	r2, r2, #1
 1897 0128 1A70     		strb	r2, [r3]
 1898              	.L105:
1064:.\Generated_Source\PSoC4/CYBLE_uds.c ****         {
 1899              		.loc 1 1064 0 is_stmt 0 discriminator 1
 1900 012a 4623     		mov	r3, #70
 1901 012c FB18     		add	r3, r7, r3
 1902 012e 1B78     		ldrb	r3, [r3]
 1903 0130 022B     		cmp	r3, #2
 1904 0132 95D9     		bls	.L108
1062:.\Generated_Source\PSoC4/CYBLE_uds.c ****     {
 1905              		.loc 1 1062 0 is_stmt 1 discriminator 2
 1906 0134 4723     		mov	r3, #71
 1907 0136 FB18     		add	r3, r7, r3
 1908 0138 1A78     		ldrb	r2, [r3]
 1909 013a 4723     		mov	r3, #71
 1910 013c FB18     		add	r3, r7, r3
 1911 013e 0132     		add	r2, r2, #1
 1912 0140 1A70     		strb	r2, [r3]
 1913              	.L104:
1062:.\Generated_Source\PSoC4/CYBLE_uds.c ****     {
 1914              		.loc 1 1062 0 is_stmt 0 discriminator 1
 1915 0142 7B68     		ldr	r3, [r7, #4]
 1916 0144 1B7A     		ldrb	r3, [r3, #8]
 1917 0146 4722     		mov	r2, #71
 1918 0148 BA18     		add	r2, r7, r2
 1919 014a 1278     		ldrb	r2, [r2]
 1920 014c 9A42     		cmp	r2, r3
 1921 014e 00D2     		bcs	.LCB1708
 1922 0150 81E7     		b	.L109	@long jump
 1923              	.LCB1708:
1080:.\Generated_Source\PSoC4/CYBLE_uds.c ****                 }
ARM GAS  C:\Users\mohammed\AppData\Local\Temp\cceuH2T0.s 			page 54


1081:.\Generated_Source\PSoC4/CYBLE_uds.c ****                 else
1082:.\Generated_Source\PSoC4/CYBLE_uds.c ****                 {
1083:.\Generated_Source\PSoC4/CYBLE_uds.c ****                     /* Do nothing */
1084:.\Generated_Source\PSoC4/CYBLE_uds.c ****                 }
1085:.\Generated_Source\PSoC4/CYBLE_uds.c ****             }
1086:.\Generated_Source\PSoC4/CYBLE_uds.c ****         }
1087:.\Generated_Source\PSoC4/CYBLE_uds.c ****     }
1088:.\Generated_Source\PSoC4/CYBLE_uds.c ****     
1089:.\Generated_Source\PSoC4/CYBLE_uds.c ****     for(locCharIndex = CYBLE_UDS_FNM; locCharIndex <= CYBLE_UDS_EML; locCharIndex++)
 1924              		.loc 1 1089 0 is_stmt 1
 1925 0152 4623     		mov	r3, #70
 1926 0154 FB18     		add	r3, r7, r3
 1927 0156 0022     		mov	r2, #0
 1928 0158 1A70     		strb	r2, [r3]
 1929 015a ADE0     		b	.L110
 1930              	.L114:
1090:.\Generated_Source\PSoC4/CYBLE_uds.c ****     {
1091:.\Generated_Source\PSoC4/CYBLE_uds.c ****         if((locGattValue[locCharIndex].len != 0u) &&
 1931              		.loc 1 1091 0
 1932 015c 4623     		mov	r3, #70
 1933 015e FB18     		add	r3, r7, r3
 1934 0160 1B78     		ldrb	r3, [r3]
 1935 0162 0822     		mov	r2, #8
 1936 0164 BA18     		add	r2, r7, r2
 1937 0166 DB00     		lsl	r3, r3, #3
 1938 0168 D318     		add	r3, r2, r3
 1939 016a 9B88     		ldrh	r3, [r3, #4]
 1940 016c 002B     		cmp	r3, #0
 1941 016e 00D1     		bne	.LCB1726
 1942 0170 9BE0     		b	.L111	@long jump
 1943              	.LCB1726:
1092:.\Generated_Source\PSoC4/CYBLE_uds.c ****            (locGattValue[locCharIndex].len <= 
 1944              		.loc 1 1092 0 discriminator 1
 1945 0172 4623     		mov	r3, #70
 1946 0174 FB18     		add	r3, r7, r3
 1947 0176 1B78     		ldrb	r3, [r3]
 1948 0178 0822     		mov	r2, #8
 1949 017a BA18     		add	r2, r7, r2
 1950 017c DB00     		lsl	r3, r3, #3
 1951 017e D318     		add	r3, r2, r3
 1952 0180 9988     		ldrh	r1, [r3, #4]
1093:.\Generated_Source\PSoC4/CYBLE_uds.c ****             CYBLE_GATT_DB_ATTR_GET_ATTR_GEN_MAX_LEN(cyBle_udss.charInfo[locCharIndex].charHandle)))
 1953              		.loc 1 1093 0 discriminator 1
 1954 0182 4623     		mov	r3, #70
 1955 0184 FB18     		add	r3, r7, r3
 1956 0186 1B78     		ldrb	r3, [r3]
 1957 0188 504A     		ldr	r2, .L115
 1958 018a 9B00     		lsl	r3, r3, #2
 1959 018c D318     		add	r3, r2, r3
 1960 018e 5B88     		ldrh	r3, [r3, #2]
 1961 0190 5A1E     		sub	r2, r3, #1
 1962 0192 4F48     		ldr	r0, .L115+4
 1963 0194 131C     		mov	r3, r2
 1964 0196 9B00     		lsl	r3, r3, #2
 1965 0198 9B18     		add	r3, r3, r2
 1966 019a 9B00     		lsl	r3, r3, #2
 1967 019c C318     		add	r3, r0, r3
ARM GAS  C:\Users\mohammed\AppData\Local\Temp\cceuH2T0.s 			page 55


 1968 019e 0833     		add	r3, r3, #8
 1969 01a0 9B88     		ldrh	r3, [r3, #4]
1091:.\Generated_Source\PSoC4/CYBLE_uds.c ****            (locGattValue[locCharIndex].len <= 
 1970              		.loc 1 1091 0 discriminator 1
 1971 01a2 9942     		cmp	r1, r3
 1972 01a4 00D9     		bls	.LCB1752
 1973 01a6 80E0     		b	.L111	@long jump
 1974              	.LCB1752:
1094:.\Generated_Source\PSoC4/CYBLE_uds.c ****         {
1095:.\Generated_Source\PSoC4/CYBLE_uds.c ****             /* Check the execWriteFlag before execute or cancel write long operation */
1096:.\Generated_Source\PSoC4/CYBLE_uds.c ****             if(eventParam->execWriteFlag == CYBLE_GATT_EXECUTE_WRITE_EXEC_FLAG)
 1975              		.loc 1 1096 0
 1976 01a8 7B68     		ldr	r3, [r7, #4]
 1977 01aa 5B7A     		ldrb	r3, [r3, #9]
 1978 01ac 012B     		cmp	r3, #1
 1979 01ae 74D1     		bne	.L112
1097:.\Generated_Source\PSoC4/CYBLE_uds.c ****             {
1098:.\Generated_Source\PSoC4/CYBLE_uds.c ****                 locCharValue[locCharIndex].gattErrorCode = CYBLE_GATT_ERR_NONE;
 1980              		.loc 1 1098 0
 1981 01b0 4623     		mov	r3, #70
 1982 01b2 FB18     		add	r3, r7, r3
 1983 01b4 1A78     		ldrb	r2, [r3]
 1984 01b6 2023     		mov	r3, #32
 1985 01b8 F918     		add	r1, r7, r3
 1986 01ba 131C     		mov	r3, r2
 1987 01bc 5B00     		lsl	r3, r3, #1
 1988 01be 9B18     		add	r3, r3, r2
 1989 01c0 9B00     		lsl	r3, r3, #2
 1990 01c2 CB18     		add	r3, r1, r3
 1991 01c4 0833     		add	r3, r3, #8
 1992 01c6 0022     		mov	r2, #0
 1993 01c8 1A70     		strb	r2, [r3]
1099:.\Generated_Source\PSoC4/CYBLE_uds.c ****                 locCharValue[locCharIndex].connHandle = eventParam->connHandle;
 1994              		.loc 1 1099 0
 1995 01ca 4623     		mov	r3, #70
 1996 01cc FB18     		add	r3, r7, r3
 1997 01ce 1A78     		ldrb	r2, [r3]
 1998 01d0 2023     		mov	r3, #32
 1999 01d2 F918     		add	r1, r7, r3
 2000 01d4 131C     		mov	r3, r2
 2001 01d6 5B00     		lsl	r3, r3, #1
 2002 01d8 9B18     		add	r3, r3, r2
 2003 01da 9B00     		lsl	r3, r3, #2
 2004 01dc 7A68     		ldr	r2, [r7, #4]
 2005 01de 1288     		ldrh	r2, [r2]
 2006 01e0 5A52     		strh	r2, [r3, r1]
1100:.\Generated_Source\PSoC4/CYBLE_uds.c ****                 locCharValue[locCharIndex].charIndex = locCharIndex;
 2007              		.loc 1 1100 0
 2008 01e2 4623     		mov	r3, #70
 2009 01e4 FB18     		add	r3, r7, r3
 2010 01e6 1A78     		ldrb	r2, [r3]
 2011 01e8 2023     		mov	r3, #32
 2012 01ea F918     		add	r1, r7, r3
 2013 01ec 131C     		mov	r3, r2
 2014 01ee 5B00     		lsl	r3, r3, #1
 2015 01f0 9B18     		add	r3, r3, r2
 2016 01f2 9B00     		lsl	r3, r3, #2
ARM GAS  C:\Users\mohammed\AppData\Local\Temp\cceuH2T0.s 			page 56


 2017 01f4 4622     		mov	r2, #70
 2018 01f6 BA18     		add	r2, r7, r2
 2019 01f8 CB18     		add	r3, r1, r3
 2020 01fa 1278     		ldrb	r2, [r2]
 2021 01fc 9A70     		strb	r2, [r3, #2]
1101:.\Generated_Source\PSoC4/CYBLE_uds.c ****                 locCharValue[locCharIndex].value = &locGattValue[locCharIndex];
 2022              		.loc 1 1101 0
 2023 01fe 4623     		mov	r3, #70
 2024 0200 FB18     		add	r3, r7, r3
 2025 0202 1A78     		ldrb	r2, [r3]
 2026 0204 4623     		mov	r3, #70
 2027 0206 FB18     		add	r3, r7, r3
 2028 0208 1B78     		ldrb	r3, [r3]
 2029 020a 0821     		mov	r1, #8
 2030 020c 7918     		add	r1, r7, r1
 2031 020e DB00     		lsl	r3, r3, #3
 2032 0210 C918     		add	r1, r1, r3
 2033 0212 2023     		mov	r3, #32
 2034 0214 F818     		add	r0, r7, r3
 2035 0216 131C     		mov	r3, r2
 2036 0218 5B00     		lsl	r3, r3, #1
 2037 021a 9B18     		add	r3, r3, r2
 2038 021c 9B00     		lsl	r3, r3, #2
 2039 021e C318     		add	r3, r0, r3
 2040 0220 5960     		str	r1, [r3, #4]
1102:.\Generated_Source\PSoC4/CYBLE_uds.c ****             
1103:.\Generated_Source\PSoC4/CYBLE_uds.c ****                 CyBle_UdsApplCallback((uint32)CYBLE_EVT_UDSS_WRITE_CHAR, &locCharValue[locCharIndex
 2041              		.loc 1 1103 0
 2042 0222 2C4B     		ldr	r3, .L115+8
 2043 0224 1C68     		ldr	r4, [r3]
 2044 0226 4623     		mov	r3, #70
 2045 0228 FB18     		add	r3, r7, r3
 2046 022a 1A78     		ldrb	r2, [r3]
 2047 022c 2023     		mov	r3, #32
 2048 022e F918     		add	r1, r7, r3
 2049 0230 131C     		mov	r3, r2
 2050 0232 5B00     		lsl	r3, r3, #1
 2051 0234 9B18     		add	r3, r3, r2
 2052 0236 9B00     		lsl	r3, r3, #2
 2053 0238 CA18     		add	r2, r1, r3
 2054 023a F423     		mov	r3, #244
 2055 023c FF33     		add	r3, r3, #255
 2056 023e 181C     		mov	r0, r3
 2057 0240 111C     		mov	r1, r2
 2058 0242 A047     		blx	r4
1104:.\Generated_Source\PSoC4/CYBLE_uds.c ****                            
1105:.\Generated_Source\PSoC4/CYBLE_uds.c ****                 if(locCharValue[locCharIndex].gattErrorCode == CYBLE_GATT_ERR_USER_DATA_ACCESS_NOT_
 2059              		.loc 1 1105 0
 2060 0244 4623     		mov	r3, #70
 2061 0246 FB18     		add	r3, r7, r3
 2062 0248 1A78     		ldrb	r2, [r3]
 2063 024a 2023     		mov	r3, #32
 2064 024c F918     		add	r1, r7, r3
 2065 024e 131C     		mov	r3, r2
 2066 0250 5B00     		lsl	r3, r3, #1
 2067 0252 9B18     		add	r3, r3, r2
 2068 0254 9B00     		lsl	r3, r3, #2
ARM GAS  C:\Users\mohammed\AppData\Local\Temp\cceuH2T0.s 			page 57


 2069 0256 CB18     		add	r3, r1, r3
 2070 0258 0833     		add	r3, r3, #8
 2071 025a 1B78     		ldrb	r3, [r3]
 2072 025c 802B     		cmp	r3, #128
 2073 025e 03D1     		bne	.L113
1106:.\Generated_Source\PSoC4/CYBLE_uds.c ****                 {
1107:.\Generated_Source\PSoC4/CYBLE_uds.c ****                     eventParam->gattErrorCode = CYBLE_GATT_ERR_USER_DATA_ACCESS_NOT_PERMITTED;
 2074              		.loc 1 1107 0
 2075 0260 7B68     		ldr	r3, [r7, #4]
 2076 0262 8022     		mov	r2, #128
 2077 0264 1A73     		strb	r2, [r3, #12]
 2078 0266 18E0     		b	.L112
 2079              	.L113:
1108:.\Generated_Source\PSoC4/CYBLE_uds.c ****                 }
1109:.\Generated_Source\PSoC4/CYBLE_uds.c ****                 else
1110:.\Generated_Source\PSoC4/CYBLE_uds.c ****                 {
1111:.\Generated_Source\PSoC4/CYBLE_uds.c ****                     CYBLE_GATT_DB_ATTR_SET_ATTR_GEN_LEN(cyBle_udss.charInfo[locCharIndex].charHandl
 2080              		.loc 1 1111 0
 2081 0268 4623     		mov	r3, #70
 2082 026a FB18     		add	r3, r7, r3
 2083 026c 1B78     		ldrb	r3, [r3]
 2084 026e 174A     		ldr	r2, .L115
 2085 0270 9B00     		lsl	r3, r3, #2
 2086 0272 D318     		add	r3, r2, r3
 2087 0274 5B88     		ldrh	r3, [r3, #2]
 2088 0276 5A1E     		sub	r2, r3, #1
 2089 0278 1549     		ldr	r1, .L115+4
 2090 027a 131C     		mov	r3, r2
 2091 027c 9B00     		lsl	r3, r3, #2
 2092 027e 9B18     		add	r3, r3, r2
 2093 0280 9B00     		lsl	r3, r3, #2
 2094 0282 CB18     		add	r3, r1, r3
 2095 0284 0833     		add	r3, r3, #8
 2096 0286 9B68     		ldr	r3, [r3, #8]
 2097 0288 4622     		mov	r2, #70
 2098 028a BA18     		add	r2, r7, r2
 2099 028c 1278     		ldrb	r2, [r2]
 2100 028e 0821     		mov	r1, #8
 2101 0290 7918     		add	r1, r7, r1
 2102 0292 D200     		lsl	r2, r2, #3
 2103 0294 8A18     		add	r2, r1, r2
 2104 0296 9288     		ldrh	r2, [r2, #4]
 2105 0298 1A80     		strh	r2, [r3]
 2106              	.L112:
1112:.\Generated_Source\PSoC4/CYBLE_uds.c ****                                                             locGattValue[locCharIndex].len);    
1113:.\Generated_Source\PSoC4/CYBLE_uds.c ****                 }
1114:.\Generated_Source\PSoC4/CYBLE_uds.c ****             }
1115:.\Generated_Source\PSoC4/CYBLE_uds.c ****             
1116:.\Generated_Source\PSoC4/CYBLE_uds.c ****             /* Indicate that request was handled */
1117:.\Generated_Source\PSoC4/CYBLE_uds.c ****             cyBle_eventHandlerFlag &= (uint8)~CYBLE_CALLBACK;
 2107              		.loc 1 1117 0
 2108 029a 0F4B     		ldr	r3, .L115+12
 2109 029c 1B78     		ldrb	r3, [r3]
 2110 029e DBB2     		uxtb	r3, r3
 2111 02a0 0122     		mov	r2, #1
 2112 02a2 9343     		bic	r3, r2
 2113 02a4 DAB2     		uxtb	r2, r3
ARM GAS  C:\Users\mohammed\AppData\Local\Temp\cceuH2T0.s 			page 58


 2114 02a6 0C4B     		ldr	r3, .L115+12
 2115 02a8 1A70     		strb	r2, [r3]
 2116              	.L111:
1089:.\Generated_Source\PSoC4/CYBLE_uds.c ****     {
 2117              		.loc 1 1089 0 discriminator 2
 2118 02aa 4623     		mov	r3, #70
 2119 02ac FB18     		add	r3, r7, r3
 2120 02ae 1A78     		ldrb	r2, [r3]
 2121 02b0 4623     		mov	r3, #70
 2122 02b2 FB18     		add	r3, r7, r3
 2123 02b4 0132     		add	r2, r2, #1
 2124 02b6 1A70     		strb	r2, [r3]
 2125              	.L110:
1089:.\Generated_Source\PSoC4/CYBLE_uds.c ****     {
 2126              		.loc 1 1089 0 is_stmt 0 discriminator 1
 2127 02b8 4623     		mov	r3, #70
 2128 02ba FB18     		add	r3, r7, r3
 2129 02bc 1B78     		ldrb	r3, [r3]
 2130 02be 022B     		cmp	r3, #2
 2131 02c0 00D8     		bhi	.LCB1902
 2132 02c2 4BE7     		b	.L114	@long jump
 2133              	.LCB1902:
1118:.\Generated_Source\PSoC4/CYBLE_uds.c ****         }
1119:.\Generated_Source\PSoC4/CYBLE_uds.c ****     }
1120:.\Generated_Source\PSoC4/CYBLE_uds.c **** }
 2134              		.loc 1 1120 0 is_stmt 1
 2135 02c4 BD46     		mov	sp, r7
 2136 02c6 13B0     		add	sp, sp, #76
 2137              		@ sp needed
 2138 02c8 90BD     		pop	{r4, r7, pc}
 2139              	.L116:
 2140 02ca C046     		.align	2
 2141              	.L115:
 2142 02cc 00000000 		.word	cyBle_udss
 2143 02d0 00000000 		.word	cyBle_gattDB
 2144 02d4 00000000 		.word	CyBle_UdsApplCallback
 2145 02d8 00000000 		.word	cyBle_eventHandlerFlag
 2146              		.cfi_endproc
 2147              	.LFE13:
 2148              		.size	CyBle_UdssExecuteWriteRequestEventHandler, .-CyBle_UdssExecuteWriteRequestEventHandler
 2149              		.text
 2150              	.Letext0:
 2151              		.file 2 ".\\Generated_Source\\PSoC4\\cytypes.h"
 2152              		.file 3 ".\\Generated_Source\\PSoC4\\CYBLE_Stack.h"
 2153              		.file 4 ".\\Generated_Source\\PSoC4\\CYBLE_StackGatt.h"
 2154              		.file 5 ".\\Generated_Source\\PSoC4\\CYBLE_StackGattServer.h"
 2155              		.file 6 ".\\Generated_Source\\PSoC4\\CYBLE_StackGattDb.h"
 2156              		.file 7 ".\\Generated_Source\\PSoC4\\CYBLE.h"
 2157              		.file 8 ".\\Generated_Source\\PSoC4\\CYBLE_uds.h"
 2158              		.file 9 ".\\Generated_Source\\PSoC4\\CYBLE_eventHandler.h"
 2159              		.file 10 ".\\Generated_Source\\PSoC4\\CYBLE_gatt.h"