ARM GAS  C:\Users\mohammed\AppData\Local\Temp\cctb0af1.s 			page 1


   1              		.cpu cortex-m0
   2              		.fpu softvfp
   3              		.eabi_attribute 20, 1
   4              		.eabi_attribute 21, 1
   5              		.eabi_attribute 23, 3
   6              		.eabi_attribute 24, 1
   7              		.eabi_attribute 25, 1
   8              		.eabi_attribute 26, 1
   9              		.eabi_attribute 30, 6
  10              		.eabi_attribute 34, 0
  11              		.eabi_attribute 18, 4
  12              		.code	16
  13              		.file	"CYBLE_HAL_PVT.c"
  14              		.text
  15              	.Ltext0:
  16              		.cfi_sections	.debug_frame
  17              		.section	.text.CyBLE_Nvram_Write,"ax",%progbits
  18              		.align	2
  19              		.global	CyBLE_Nvram_Write
  20              		.code	16
  21              		.thumb_func
  22              		.type	CyBLE_Nvram_Write, %function
  23              	CyBLE_Nvram_Write:
  24              	.LFB2:
  25              		.file 1 ".\\Generated_Source\\PSoC4\\CYBLE_HAL_PVT.c"
   1:.\Generated_Source\PSoC4/CYBLE_HAL_PVT.c **** /***************************************************************************//**
   2:.\Generated_Source\PSoC4/CYBLE_HAL_PVT.c **** * \file CYBLE_HAL_PVT.c
   3:.\Generated_Source\PSoC4/CYBLE_HAL_PVT.c **** * \version 3.10
   4:.\Generated_Source\PSoC4/CYBLE_HAL_PVT.c **** *
   5:.\Generated_Source\PSoC4/CYBLE_HAL_PVT.c **** * \brief
   6:.\Generated_Source\PSoC4/CYBLE_HAL_PVT.c **** *  This file contains the source code for the HAL section of the BLE component
   7:.\Generated_Source\PSoC4/CYBLE_HAL_PVT.c **** *
   8:.\Generated_Source\PSoC4/CYBLE_HAL_PVT.c **** ********************************************************************************
   9:.\Generated_Source\PSoC4/CYBLE_HAL_PVT.c **** * \copyright
  10:.\Generated_Source\PSoC4/CYBLE_HAL_PVT.c **** * Copyright 2014-2016, Cypress Semiconductor Corporation.  All rights reserved.
  11:.\Generated_Source\PSoC4/CYBLE_HAL_PVT.c **** * You may use this file only in accordance with the license, terms, conditions,
  12:.\Generated_Source\PSoC4/CYBLE_HAL_PVT.c **** * disclaimers, and limitations in the end user license agreement accompanying
  13:.\Generated_Source\PSoC4/CYBLE_HAL_PVT.c **** * the software package with which this file was provided.
  14:.\Generated_Source\PSoC4/CYBLE_HAL_PVT.c **** *******************************************************************************/
  15:.\Generated_Source\PSoC4/CYBLE_HAL_PVT.c **** 
  16:.\Generated_Source\PSoC4/CYBLE_HAL_PVT.c **** #include "CYBLE_HAL_PVT.h"
  17:.\Generated_Source\PSoC4/CYBLE_HAL_PVT.c **** 
  18:.\Generated_Source\PSoC4/CYBLE_HAL_PVT.c **** 
  19:.\Generated_Source\PSoC4/CYBLE_HAL_PVT.c **** #if(CYBLE_MODE == CYBLE_HCI)
  20:.\Generated_Source\PSoC4/CYBLE_HAL_PVT.c **** 
  21:.\Generated_Source\PSoC4/CYBLE_HAL_PVT.c **** 
  22:.\Generated_Source\PSoC4/CYBLE_HAL_PVT.c **** /*******************************************************************************
  23:.\Generated_Source\PSoC4/CYBLE_HAL_PVT.c **** * Function Name: CyBLE_Uart_Start
  24:.\Generated_Source\PSoC4/CYBLE_HAL_PVT.c **** ****************************************************************************//**
  25:.\Generated_Source\PSoC4/CYBLE_HAL_PVT.c **** *
  26:.\Generated_Source\PSoC4/CYBLE_HAL_PVT.c **** *  Enables the platform UART Tx and RX interrupts and then enables the UART
  27:.\Generated_Source\PSoC4/CYBLE_HAL_PVT.c **** *  component.
  28:.\Generated_Source\PSoC4/CYBLE_HAL_PVT.c **** *
  29:.\Generated_Source\PSoC4/CYBLE_HAL_PVT.c **** * \return
  30:.\Generated_Source\PSoC4/CYBLE_HAL_PVT.c **** *  None
  31:.\Generated_Source\PSoC4/CYBLE_HAL_PVT.c **** *
  32:.\Generated_Source\PSoC4/CYBLE_HAL_PVT.c **** *******************************************************************************/
ARM GAS  C:\Users\mohammed\AppData\Local\Temp\cctb0af1.s 			page 2


  33:.\Generated_Source\PSoC4/CYBLE_HAL_PVT.c **** void CyBLE_Uart_Start (void)
  34:.\Generated_Source\PSoC4/CYBLE_HAL_PVT.c **** {
  35:.\Generated_Source\PSoC4/CYBLE_HAL_PVT.c ****     /* Setup ISR */
  36:.\Generated_Source\PSoC4/CYBLE_HAL_PVT.c ****     CYBLE_uart_isr_StartEx(&CyBLE_Uart_Interrupt);
  37:.\Generated_Source\PSoC4/CYBLE_HAL_PVT.c **** 
  38:.\Generated_Source\PSoC4/CYBLE_HAL_PVT.c ****     CYBLE_HAL_Uart_Start();
  39:.\Generated_Source\PSoC4/CYBLE_HAL_PVT.c **** }
  40:.\Generated_Source\PSoC4/CYBLE_HAL_PVT.c **** 
  41:.\Generated_Source\PSoC4/CYBLE_HAL_PVT.c **** 
  42:.\Generated_Source\PSoC4/CYBLE_HAL_PVT.c **** /*******************************************************************************
  43:.\Generated_Source\PSoC4/CYBLE_HAL_PVT.c **** * Function Name: CyBLE_Uart_Stop
  44:.\Generated_Source\PSoC4/CYBLE_HAL_PVT.c **** ****************************************************************************//**
  45:.\Generated_Source\PSoC4/CYBLE_HAL_PVT.c **** *
  46:.\Generated_Source\PSoC4/CYBLE_HAL_PVT.c **** *  Disables the UART, clears all pending interrupts and disables the UART Tx
  47:.\Generated_Source\PSoC4/CYBLE_HAL_PVT.c **** *  and RX interrupts. This will also empty out the FIFOs.
  48:.\Generated_Source\PSoC4/CYBLE_HAL_PVT.c **** *
  49:.\Generated_Source\PSoC4/CYBLE_HAL_PVT.c **** * \return
  50:.\Generated_Source\PSoC4/CYBLE_HAL_PVT.c **** *  None
  51:.\Generated_Source\PSoC4/CYBLE_HAL_PVT.c **** *
  52:.\Generated_Source\PSoC4/CYBLE_HAL_PVT.c **** *******************************************************************************/
  53:.\Generated_Source\PSoC4/CYBLE_HAL_PVT.c **** void CyBLE_Uart_Stop (void)
  54:.\Generated_Source\PSoC4/CYBLE_HAL_PVT.c **** {
  55:.\Generated_Source\PSoC4/CYBLE_HAL_PVT.c ****     /* Stop interrupt and UART */
  56:.\Generated_Source\PSoC4/CYBLE_HAL_PVT.c ****     CYBLE_uart_isr_Stop();
  57:.\Generated_Source\PSoC4/CYBLE_HAL_PVT.c **** 
  58:.\Generated_Source\PSoC4/CYBLE_HAL_PVT.c ****     CYBLE_HAL_Uart_Stop();
  59:.\Generated_Source\PSoC4/CYBLE_HAL_PVT.c **** }
  60:.\Generated_Source\PSoC4/CYBLE_HAL_PVT.c **** 
  61:.\Generated_Source\PSoC4/CYBLE_HAL_PVT.c **** 
  62:.\Generated_Source\PSoC4/CYBLE_HAL_PVT.c **** /*******************************************************************************
  63:.\Generated_Source\PSoC4/CYBLE_HAL_PVT.c **** * Function Name: CyBLE_Uart_Transmit
  64:.\Generated_Source\PSoC4/CYBLE_HAL_PVT.c **** ****************************************************************************//**
  65:.\Generated_Source\PSoC4/CYBLE_HAL_PVT.c **** *
  66:.\Generated_Source\PSoC4/CYBLE_HAL_PVT.c **** *  Sends the data to Uart Tx FIFO. The API handles data length up to the 
  67:.\Generated_Source\PSoC4/CYBLE_HAL_PVT.c **** *  supported Tx FIFO length of the uart hardware module.
  68:.\Generated_Source\PSoC4/CYBLE_HAL_PVT.c **** *
  69:.\Generated_Source\PSoC4/CYBLE_HAL_PVT.c **** *  \param data: Pointer to the data to send through the UART
  70:.\Generated_Source\PSoC4/CYBLE_HAL_PVT.c **** *  \param length: the length of data to transmit in bytes
  71:.\Generated_Source\PSoC4/CYBLE_HAL_PVT.c **** *
  72:.\Generated_Source\PSoC4/CYBLE_HAL_PVT.c **** * \return
  73:.\Generated_Source\PSoC4/CYBLE_HAL_PVT.c **** *  None
  74:.\Generated_Source\PSoC4/CYBLE_HAL_PVT.c **** *
  75:.\Generated_Source\PSoC4/CYBLE_HAL_PVT.c **** *******************************************************************************/
  76:.\Generated_Source\PSoC4/CYBLE_HAL_PVT.c **** void CyBLE_Uart_Transmit (const uint8 *dataBuf, uint8 length)
  77:.\Generated_Source\PSoC4/CYBLE_HAL_PVT.c **** {
  78:.\Generated_Source\PSoC4/CYBLE_HAL_PVT.c ****     CYBLE_HAL_Uart_SpiUartPutArray(dataBuf, (uint32)length);
  79:.\Generated_Source\PSoC4/CYBLE_HAL_PVT.c **** }
  80:.\Generated_Source\PSoC4/CYBLE_HAL_PVT.c **** 
  81:.\Generated_Source\PSoC4/CYBLE_HAL_PVT.c **** #endif /* (CYBLE_MODE == CYBLE_HCI) */
  82:.\Generated_Source\PSoC4/CYBLE_HAL_PVT.c **** 
  83:.\Generated_Source\PSoC4/CYBLE_HAL_PVT.c **** 
  84:.\Generated_Source\PSoC4/CYBLE_HAL_PVT.c **** /*******************************************************************************
  85:.\Generated_Source\PSoC4/CYBLE_HAL_PVT.c **** * Function Name: CyBLE_Nvram_Write
  86:.\Generated_Source\PSoC4/CYBLE_HAL_PVT.c **** ****************************************************************************//**
  87:.\Generated_Source\PSoC4/CYBLE_HAL_PVT.c **** *
  88:.\Generated_Source\PSoC4/CYBLE_HAL_PVT.c **** *  This API writes the data to the NVRAM store. It will check the appropriate
  89:.\Generated_Source\PSoC4/CYBLE_HAL_PVT.c **** *  alignment of a start address and also perform an address range check based
ARM GAS  C:\Users\mohammed\AppData\Local\Temp\cctb0af1.s 			page 3


  90:.\Generated_Source\PSoC4/CYBLE_HAL_PVT.c **** *  on the length before performing the write operation.
  91:.\Generated_Source\PSoC4/CYBLE_HAL_PVT.c **** *  This function performs memory compare and writes only row where there are new
  92:.\Generated_Source\PSoC4/CYBLE_HAL_PVT.c **** *  data to write.
  93:.\Generated_Source\PSoC4/CYBLE_HAL_PVT.c **** *
  94:.\Generated_Source\PSoC4/CYBLE_HAL_PVT.c **** *  \param buffer:   Pointer to the buffer containing the data to be stored.
  95:.\Generated_Source\PSoC4/CYBLE_HAL_PVT.c **** *  \param varFlash: Pointer to the array or variable in the flash.
  96:.\Generated_Source\PSoC4/CYBLE_HAL_PVT.c **** *  \param length:    The length of the data in bytes.
  97:.\Generated_Source\PSoC4/CYBLE_HAL_PVT.c **** *
  98:.\Generated_Source\PSoC4/CYBLE_HAL_PVT.c **** * \return
  99:.\Generated_Source\PSoC4/CYBLE_HAL_PVT.c **** *  CYRET_SUCCESS    a successful write
 100:.\Generated_Source\PSoC4/CYBLE_HAL_PVT.c **** *  CYRET_BAD_PARAM  A request to write outside the flash boundary.
 101:.\Generated_Source\PSoC4/CYBLE_HAL_PVT.c **** *  CYRET_UNKNOWN    Other errors in writing the flash
 102:.\Generated_Source\PSoC4/CYBLE_HAL_PVT.c **** *
 103:.\Generated_Source\PSoC4/CYBLE_HAL_PVT.c **** * \sideeffect
 104:.\Generated_Source\PSoC4/CYBLE_HAL_PVT.c **** *  For BLE devices with 128K of Flash memory this API will automatically 
 105:.\Generated_Source\PSoC4/CYBLE_HAL_PVT.c **** *  modify the clock settings for the device.
 106:.\Generated_Source\PSoC4/CYBLE_HAL_PVT.c **** *  Writing to flash requires changes to be done to the IMO (set to 48 MHz)
 107:.\Generated_Source\PSoC4/CYBLE_HAL_PVT.c **** *  and HFCLK (source set to IMO) settings. The configuration is restored before
 108:.\Generated_Source\PSoC4/CYBLE_HAL_PVT.c **** *  returning. This will impact the operation of most of the hardware in the
 109:.\Generated_Source\PSoC4/CYBLE_HAL_PVT.c **** *  device.
 110:.\Generated_Source\PSoC4/CYBLE_HAL_PVT.c **** *
 111:.\Generated_Source\PSoC4/CYBLE_HAL_PVT.c **** *******************************************************************************/
 112:.\Generated_Source\PSoC4/CYBLE_HAL_PVT.c **** cystatus CyBLE_Nvram_Write (const uint8 buffer[], const uint8 varFlash[], uint16 length)
 113:.\Generated_Source\PSoC4/CYBLE_HAL_PVT.c **** {
  26              		.loc 1 113 0
  27              		.cfi_startproc
  28 0000 80B5     		push	{r7, lr}
  29              		.cfi_def_cfa_offset 8
  30              		.cfi_offset 7, -8
  31              		.cfi_offset 14, -4
  32 0002 ACB0     		sub	sp, sp, #176
  33              		.cfi_def_cfa_offset 184
  34 0004 00AF     		add	r7, sp, #0
  35              		.cfi_def_cfa_register 7
  36 0006 F860     		str	r0, [r7, #12]
  37 0008 B960     		str	r1, [r7, #8]
  38 000a BB1D     		add	r3, r7, #6
  39 000c 1A80     		strh	r2, [r3]
 114:.\Generated_Source\PSoC4/CYBLE_HAL_PVT.c ****     uint8 writeBuffer[CY_FLASH_SIZEOF_ROW];
 115:.\Generated_Source\PSoC4/CYBLE_HAL_PVT.c ****     uint32 rowId;
 116:.\Generated_Source\PSoC4/CYBLE_HAL_PVT.c ****     uint32 dstIndex;
 117:.\Generated_Source\PSoC4/CYBLE_HAL_PVT.c ****     uint32 srcIndex = 0u;
  40              		.loc 1 117 0
  41 000e 0023     		mov	r3, #0
  42 0010 A422     		mov	r2, #164
  43 0012 BA18     		add	r2, r7, r2
  44 0014 1360     		str	r3, [r2]
 118:.\Generated_Source\PSoC4/CYBLE_HAL_PVT.c ****     cystatus rc = CYRET_SUCCESS;
  45              		.loc 1 118 0
  46 0016 0023     		mov	r3, #0
  47 0018 A022     		mov	r2, #160
  48 001a BA18     		add	r2, r7, r2
  49 001c 1360     		str	r3, [r2]
 119:.\Generated_Source\PSoC4/CYBLE_HAL_PVT.c ****     uint32 eeOffset;
 120:.\Generated_Source\PSoC4/CYBLE_HAL_PVT.c ****     uint32 byteOffset;
 121:.\Generated_Source\PSoC4/CYBLE_HAL_PVT.c ****     uint32 rowsNotEqual;
 122:.\Generated_Source\PSoC4/CYBLE_HAL_PVT.c **** 
ARM GAS  C:\Users\mohammed\AppData\Local\Temp\cctb0af1.s 			page 4


 123:.\Generated_Source\PSoC4/CYBLE_HAL_PVT.c ****     eeOffset = (uint32)varFlash;
  50              		.loc 1 123 0
  51 001e BB68     		ldr	r3, [r7, #8]
  52 0020 9422     		mov	r2, #148
  53 0022 BA18     		add	r2, r7, r2
  54 0024 1360     		str	r3, [r2]
 124:.\Generated_Source\PSoC4/CYBLE_HAL_PVT.c **** 
 125:.\Generated_Source\PSoC4/CYBLE_HAL_PVT.c ****     /* Make sure, that varFlash[] points to Flash */
 126:.\Generated_Source\PSoC4/CYBLE_HAL_PVT.c ****     if ((eeOffset + length) < CYBLE_HAL_FLASH_END_ADDR)
  55              		.loc 1 126 0
  56 0026 BB1D     		add	r3, r7, #6
  57 0028 1A88     		ldrh	r2, [r3]
  58 002a 9423     		mov	r3, #148
  59 002c FB18     		add	r3, r7, r3
  60 002e 1B68     		ldr	r3, [r3]
  61 0030 D318     		add	r3, r2, r3
  62 0032 594A     		ldr	r2, .L14
  63 0034 9342     		cmp	r3, r2
  64 0036 00D9     		bls	.LCB36
  65 0038 94E0     		b	.L2	@long jump
  66              	.LCB36:
 127:.\Generated_Source\PSoC4/CYBLE_HAL_PVT.c ****     {
 128:.\Generated_Source\PSoC4/CYBLE_HAL_PVT.c ****         rowId = eeOffset / CY_FLASH_SIZEOF_ROW;
  67              		.loc 1 128 0
  68 003a 9423     		mov	r3, #148
  69 003c FB18     		add	r3, r7, r3
  70 003e 1B68     		ldr	r3, [r3]
  71 0040 DB09     		lsr	r3, r3, #7
  72 0042 AC22     		mov	r2, #172
  73 0044 BA18     		add	r2, r7, r2
  74 0046 1360     		str	r3, [r2]
 129:.\Generated_Source\PSoC4/CYBLE_HAL_PVT.c ****         byteOffset = CY_FLASH_SIZEOF_ROW * rowId;
  75              		.loc 1 129 0
  76 0048 AC23     		mov	r3, #172
  77 004a FB18     		add	r3, r7, r3
  78 004c 1B68     		ldr	r3, [r3]
  79 004e DB01     		lsl	r3, r3, #7
  80 0050 9C22     		mov	r2, #156
  81 0052 BA18     		add	r2, r7, r2
  82 0054 1360     		str	r3, [r2]
 130:.\Generated_Source\PSoC4/CYBLE_HAL_PVT.c **** 
 131:.\Generated_Source\PSoC4/CYBLE_HAL_PVT.c ****         while ((srcIndex < length) && (CYRET_SUCCESS == rc))
  83              		.loc 1 131 0
  84 0056 77E0     		b	.L3
  85              	.L11:
 132:.\Generated_Source\PSoC4/CYBLE_HAL_PVT.c ****         {
 133:.\Generated_Source\PSoC4/CYBLE_HAL_PVT.c ****             rowsNotEqual = 0u;
  86              		.loc 1 133 0
  87 0058 0023     		mov	r3, #0
  88 005a 9822     		mov	r2, #152
  89 005c BA18     		add	r2, r7, r2
  90 005e 1360     		str	r3, [r2]
 134:.\Generated_Source\PSoC4/CYBLE_HAL_PVT.c ****             /* Copy data to the write buffer either from the source buffer or from the flash */
 135:.\Generated_Source\PSoC4/CYBLE_HAL_PVT.c ****             for (dstIndex = 0u; dstIndex < CY_FLASH_SIZEOF_ROW; dstIndex++)
  91              		.loc 1 135 0
  92 0060 0023     		mov	r3, #0
  93 0062 A822     		mov	r2, #168
ARM GAS  C:\Users\mohammed\AppData\Local\Temp\cctb0af1.s 			page 5


  94 0064 BA18     		add	r2, r7, r2
  95 0066 1360     		str	r3, [r2]
  96 0068 50E0     		b	.L4
  97              	.L8:
 136:.\Generated_Source\PSoC4/CYBLE_HAL_PVT.c ****             {
 137:.\Generated_Source\PSoC4/CYBLE_HAL_PVT.c ****                 if ((byteOffset >= eeOffset) && (srcIndex < length))
  98              		.loc 1 137 0
  99 006a 9C23     		mov	r3, #156
 100 006c FB18     		add	r3, r7, r3
 101 006e 1A68     		ldr	r2, [r3]
 102 0070 9423     		mov	r3, #148
 103 0072 FB18     		add	r3, r7, r3
 104 0074 1B68     		ldr	r3, [r3]
 105 0076 9A42     		cmp	r2, r3
 106 0078 2DD3     		bcc	.L5
 107              		.loc 1 137 0 is_stmt 0 discriminator 1
 108 007a BB1D     		add	r3, r7, #6
 109 007c 1A88     		ldrh	r2, [r3]
 110 007e A423     		mov	r3, #164
 111 0080 FB18     		add	r3, r7, r3
 112 0082 1B68     		ldr	r3, [r3]
 113 0084 9A42     		cmp	r2, r3
 114 0086 26D9     		bls	.L5
 138:.\Generated_Source\PSoC4/CYBLE_HAL_PVT.c ****                 {
 139:.\Generated_Source\PSoC4/CYBLE_HAL_PVT.c ****                     writeBuffer[dstIndex] = buffer[srcIndex];
 115              		.loc 1 139 0 is_stmt 1
 116 0088 FA68     		ldr	r2, [r7, #12]
 117 008a A423     		mov	r3, #164
 118 008c FB18     		add	r3, r7, r3
 119 008e 1B68     		ldr	r3, [r3]
 120 0090 D318     		add	r3, r2, r3
 121 0092 1978     		ldrb	r1, [r3]
 122 0094 1423     		mov	r3, #20
 123 0096 FA18     		add	r2, r7, r3
 124 0098 A823     		mov	r3, #168
 125 009a FB18     		add	r3, r7, r3
 126 009c 1B68     		ldr	r3, [r3]
 127 009e D318     		add	r3, r2, r3
 128 00a0 0A1C     		add	r2, r1, #0
 129 00a2 1A70     		strb	r2, [r3]
 140:.\Generated_Source\PSoC4/CYBLE_HAL_PVT.c ****                     /* Detect that row programming is required */
 141:.\Generated_Source\PSoC4/CYBLE_HAL_PVT.c ****                     if(CY_GET_XTND_REG8(CYDEV_FLASH_BASE + byteOffset) != buffer[srcIndex])
 130              		.loc 1 141 0
 131 00a4 9C23     		mov	r3, #156
 132 00a6 FB18     		add	r3, r7, r3
 133 00a8 1B68     		ldr	r3, [r3]
 134 00aa 1B78     		ldrb	r3, [r3]
 135 00ac DAB2     		uxtb	r2, r3
 136 00ae F968     		ldr	r1, [r7, #12]
 137 00b0 A423     		mov	r3, #164
 138 00b2 FB18     		add	r3, r7, r3
 139 00b4 1B68     		ldr	r3, [r3]
 140 00b6 CB18     		add	r3, r1, r3
 141 00b8 1B78     		ldrb	r3, [r3]
 142 00ba 9A42     		cmp	r2, r3
 143 00bc 03D0     		beq	.L6
 142:.\Generated_Source\PSoC4/CYBLE_HAL_PVT.c ****                     {
ARM GAS  C:\Users\mohammed\AppData\Local\Temp\cctb0af1.s 			page 6


 143:.\Generated_Source\PSoC4/CYBLE_HAL_PVT.c ****                         rowsNotEqual = 1u;  
 144              		.loc 1 143 0
 145 00be 0123     		mov	r3, #1
 146 00c0 9822     		mov	r2, #152
 147 00c2 BA18     		add	r2, r7, r2
 148 00c4 1360     		str	r3, [r2]
 149              	.L6:
 144:.\Generated_Source\PSoC4/CYBLE_HAL_PVT.c ****                     }
 145:.\Generated_Source\PSoC4/CYBLE_HAL_PVT.c ****                     srcIndex++;
 150              		.loc 1 145 0
 151 00c6 A423     		mov	r3, #164
 152 00c8 FB18     		add	r3, r7, r3
 153 00ca 1B68     		ldr	r3, [r3]
 154 00cc 0133     		add	r3, r3, #1
 155 00ce A422     		mov	r2, #164
 156 00d0 BA18     		add	r2, r7, r2
 157 00d2 1360     		str	r3, [r2]
 158 00d4 0CE0     		b	.L7
 159              	.L5:
 146:.\Generated_Source\PSoC4/CYBLE_HAL_PVT.c ****                 }
 147:.\Generated_Source\PSoC4/CYBLE_HAL_PVT.c ****                 else
 148:.\Generated_Source\PSoC4/CYBLE_HAL_PVT.c ****                 {
 149:.\Generated_Source\PSoC4/CYBLE_HAL_PVT.c ****                     writeBuffer[dstIndex] = CY_GET_XTND_REG8(CYDEV_FLASH_BASE + byteOffset);
 160              		.loc 1 149 0
 161 00d6 9C23     		mov	r3, #156
 162 00d8 FB18     		add	r3, r7, r3
 163 00da 1B68     		ldr	r3, [r3]
 164 00dc 1B78     		ldrb	r3, [r3]
 165 00de D9B2     		uxtb	r1, r3
 166 00e0 1423     		mov	r3, #20
 167 00e2 FA18     		add	r2, r7, r3
 168 00e4 A823     		mov	r3, #168
 169 00e6 FB18     		add	r3, r7, r3
 170 00e8 1B68     		ldr	r3, [r3]
 171 00ea D318     		add	r3, r2, r3
 172 00ec 0A1C     		add	r2, r1, #0
 173 00ee 1A70     		strb	r2, [r3]
 174              	.L7:
 150:.\Generated_Source\PSoC4/CYBLE_HAL_PVT.c ****                 }
 151:.\Generated_Source\PSoC4/CYBLE_HAL_PVT.c ****                 byteOffset++;
 175              		.loc 1 151 0 discriminator 2
 176 00f0 9C23     		mov	r3, #156
 177 00f2 FB18     		add	r3, r7, r3
 178 00f4 1B68     		ldr	r3, [r3]
 179 00f6 0133     		add	r3, r3, #1
 180 00f8 9C22     		mov	r2, #156
 181 00fa BA18     		add	r2, r7, r2
 182 00fc 1360     		str	r3, [r2]
 135:.\Generated_Source\PSoC4/CYBLE_HAL_PVT.c ****             {
 183              		.loc 1 135 0 discriminator 2
 184 00fe A823     		mov	r3, #168
 185 0100 FB18     		add	r3, r7, r3
 186 0102 1B68     		ldr	r3, [r3]
 187 0104 0133     		add	r3, r3, #1
 188 0106 A822     		mov	r2, #168
 189 0108 BA18     		add	r2, r7, r2
 190 010a 1360     		str	r3, [r2]
ARM GAS  C:\Users\mohammed\AppData\Local\Temp\cctb0af1.s 			page 7


 191              	.L4:
 135:.\Generated_Source\PSoC4/CYBLE_HAL_PVT.c ****             {
 192              		.loc 1 135 0 is_stmt 0 discriminator 1
 193 010c A823     		mov	r3, #168
 194 010e FB18     		add	r3, r7, r3
 195 0110 1B68     		ldr	r3, [r3]
 196 0112 7F2B     		cmp	r3, #127
 197 0114 A9D9     		bls	.L8
 152:.\Generated_Source\PSoC4/CYBLE_HAL_PVT.c ****             }
 153:.\Generated_Source\PSoC4/CYBLE_HAL_PVT.c **** 
 154:.\Generated_Source\PSoC4/CYBLE_HAL_PVT.c ****             if(rowsNotEqual != 0u)
 198              		.loc 1 154 0 is_stmt 1
 199 0116 9823     		mov	r3, #152
 200 0118 FB18     		add	r3, r7, r3
 201 011a 1B68     		ldr	r3, [r3]
 202 011c 002B     		cmp	r3, #0
 203 011e 0CD0     		beq	.L9
 155:.\Generated_Source\PSoC4/CYBLE_HAL_PVT.c ****             {
 156:.\Generated_Source\PSoC4/CYBLE_HAL_PVT.c ****                 /* Write flash row */
 157:.\Generated_Source\PSoC4/CYBLE_HAL_PVT.c ****                 rc = CySysFlashWriteRow(rowId, writeBuffer);
 204              		.loc 1 157 0
 205 0120 AC23     		mov	r3, #172
 206 0122 FB18     		add	r3, r7, r3
 207 0124 1A68     		ldr	r2, [r3]
 208 0126 1423     		mov	r3, #20
 209 0128 FB18     		add	r3, r7, r3
 210 012a 101C     		mov	r0, r2
 211 012c 191C     		mov	r1, r3
 212 012e FFF7FEFF 		bl	CySysFlashWriteRow
 213 0132 031C     		mov	r3, r0
 214 0134 A022     		mov	r2, #160
 215 0136 BA18     		add	r2, r7, r2
 216 0138 1360     		str	r3, [r2]
 217              	.L9:
 158:.\Generated_Source\PSoC4/CYBLE_HAL_PVT.c ****             }
 159:.\Generated_Source\PSoC4/CYBLE_HAL_PVT.c **** 
 160:.\Generated_Source\PSoC4/CYBLE_HAL_PVT.c ****             /* Go to the next row */
 161:.\Generated_Source\PSoC4/CYBLE_HAL_PVT.c ****             rowId++;
 218              		.loc 1 161 0
 219 013a AC23     		mov	r3, #172
 220 013c FB18     		add	r3, r7, r3
 221 013e 1B68     		ldr	r3, [r3]
 222 0140 0133     		add	r3, r3, #1
 223 0142 AC22     		mov	r2, #172
 224 0144 BA18     		add	r2, r7, r2
 225 0146 1360     		str	r3, [r2]
 226              	.L3:
 131:.\Generated_Source\PSoC4/CYBLE_HAL_PVT.c ****         {
 227              		.loc 1 131 0
 228 0148 BB1D     		add	r3, r7, #6
 229 014a 1A88     		ldrh	r2, [r3]
 230 014c A423     		mov	r3, #164
 231 014e FB18     		add	r3, r7, r3
 232 0150 1B68     		ldr	r3, [r3]
 233 0152 9A42     		cmp	r2, r3
 234 0154 0AD9     		bls	.L10
 131:.\Generated_Source\PSoC4/CYBLE_HAL_PVT.c ****         {
ARM GAS  C:\Users\mohammed\AppData\Local\Temp\cctb0af1.s 			page 8


 235              		.loc 1 131 0 is_stmt 0 discriminator 1
 236 0156 A023     		mov	r3, #160
 237 0158 FB18     		add	r3, r7, r3
 238 015a 1B68     		ldr	r3, [r3]
 239 015c 002B     		cmp	r3, #0
 240 015e 00D1     		bne	.LCB201
 241 0160 7AE7     		b	.L11	@long jump
 242              	.LCB201:
 243 0162 03E0     		b	.L10
 244              	.L2:
 162:.\Generated_Source\PSoC4/CYBLE_HAL_PVT.c ****         }
 163:.\Generated_Source\PSoC4/CYBLE_HAL_PVT.c ****     }
 164:.\Generated_Source\PSoC4/CYBLE_HAL_PVT.c ****     else
 165:.\Generated_Source\PSoC4/CYBLE_HAL_PVT.c ****     {
 166:.\Generated_Source\PSoC4/CYBLE_HAL_PVT.c ****         rc = CYRET_BAD_PARAM;
 245              		.loc 1 166 0 is_stmt 1
 246 0164 0123     		mov	r3, #1
 247 0166 A022     		mov	r2, #160
 248 0168 BA18     		add	r2, r7, r2
 249 016a 1360     		str	r3, [r2]
 250              	.L10:
 167:.\Generated_Source\PSoC4/CYBLE_HAL_PVT.c ****     }
 168:.\Generated_Source\PSoC4/CYBLE_HAL_PVT.c **** 
 169:.\Generated_Source\PSoC4/CYBLE_HAL_PVT.c ****     /* Mask return codes from flash, if they are not supported */
 170:.\Generated_Source\PSoC4/CYBLE_HAL_PVT.c ****     if ((CYRET_SUCCESS != rc) && (CYRET_BAD_PARAM != rc))
 251              		.loc 1 170 0
 252 016c A023     		mov	r3, #160
 253 016e FB18     		add	r3, r7, r3
 254 0170 1B68     		ldr	r3, [r3]
 255 0172 002B     		cmp	r3, #0
 256 0174 09D0     		beq	.L12
 257              		.loc 1 170 0 is_stmt 0 discriminator 1
 258 0176 A023     		mov	r3, #160
 259 0178 FB18     		add	r3, r7, r3
 260 017a 1B68     		ldr	r3, [r3]
 261 017c 012B     		cmp	r3, #1
 262 017e 04D0     		beq	.L12
 171:.\Generated_Source\PSoC4/CYBLE_HAL_PVT.c ****     {
 172:.\Generated_Source\PSoC4/CYBLE_HAL_PVT.c ****         rc = CYRET_UNKNOWN;
 263              		.loc 1 172 0 is_stmt 1
 264 0180 0123     		mov	r3, #1
 265 0182 5B42     		neg	r3, r3
 266 0184 A022     		mov	r2, #160
 267 0186 BA18     		add	r2, r7, r2
 268 0188 1360     		str	r3, [r2]
 269              	.L12:
 173:.\Generated_Source\PSoC4/CYBLE_HAL_PVT.c ****     }
 174:.\Generated_Source\PSoC4/CYBLE_HAL_PVT.c ****     
 175:.\Generated_Source\PSoC4/CYBLE_HAL_PVT.c ****     return (rc);
 270              		.loc 1 175 0
 271 018a A023     		mov	r3, #160
 272 018c FB18     		add	r3, r7, r3
 273 018e 1B68     		ldr	r3, [r3]
 176:.\Generated_Source\PSoC4/CYBLE_HAL_PVT.c **** }
 274              		.loc 1 176 0
 275 0190 181C     		mov	r0, r3
 276 0192 BD46     		mov	sp, r7
ARM GAS  C:\Users\mohammed\AppData\Local\Temp\cctb0af1.s 			page 9


 277 0194 2CB0     		add	sp, sp, #176
 278              		@ sp needed
 279 0196 80BD     		pop	{r7, pc}
 280              	.L15:
 281              		.align	2
 282              	.L14:
 283 0198 FFFF0100 		.word	131071
 284              		.cfi_endproc
 285              	.LFE2:
 286              		.size	CyBLE_Nvram_Write, .-CyBLE_Nvram_Write
 287              		.section	.text.CyBLE_Nvram_Erase,"ax",%progbits
 288              		.align	2
 289              		.global	CyBLE_Nvram_Erase
 290              		.code	16
 291              		.thumb_func
 292              		.type	CyBLE_Nvram_Erase, %function
 293              	CyBLE_Nvram_Erase:
 294              	.LFB3:
 177:.\Generated_Source\PSoC4/CYBLE_HAL_PVT.c **** 
 178:.\Generated_Source\PSoC4/CYBLE_HAL_PVT.c **** /*******************************************************************************
 179:.\Generated_Source\PSoC4/CYBLE_HAL_PVT.c **** * Function Name: CyBLE_Nvram_Erase
 180:.\Generated_Source\PSoC4/CYBLE_HAL_PVT.c **** ****************************************************************************//**
 181:.\Generated_Source\PSoC4/CYBLE_HAL_PVT.c **** *
 182:.\Generated_Source\PSoC4/CYBLE_HAL_PVT.c **** *  This API erases the data from the NVRAM store. This API will perform an 
 183:.\Generated_Source\PSoC4/CYBLE_HAL_PVT.c **** *  address range check based on the length before performing erase operation.
 184:.\Generated_Source\PSoC4/CYBLE_HAL_PVT.c **** *
 185:.\Generated_Source\PSoC4/CYBLE_HAL_PVT.c **** *  \param varFlash: the pointer to the array or variable in the flash.
 186:.\Generated_Source\PSoC4/CYBLE_HAL_PVT.c **** *  \param length:    the length of the data in bytes.
 187:.\Generated_Source\PSoC4/CYBLE_HAL_PVT.c **** *
 188:.\Generated_Source\PSoC4/CYBLE_HAL_PVT.c **** * \return
 189:.\Generated_Source\PSoC4/CYBLE_HAL_PVT.c **** *  CYRET_SUCCESS    a successful write
 190:.\Generated_Source\PSoC4/CYBLE_HAL_PVT.c **** *  CYRET_BAD_PARAM  A request to write outside the flash boundary.
 191:.\Generated_Source\PSoC4/CYBLE_HAL_PVT.c **** *  CYRET_UNKNOWN    Other errors in writing the flash
 192:.\Generated_Source\PSoC4/CYBLE_HAL_PVT.c **** *
 193:.\Generated_Source\PSoC4/CYBLE_HAL_PVT.c **** *******************************************************************************/
 194:.\Generated_Source\PSoC4/CYBLE_HAL_PVT.c **** cystatus CyBLE_Nvram_Erase (const uint8 *varFlash, uint16 length)
 195:.\Generated_Source\PSoC4/CYBLE_HAL_PVT.c **** {
 295              		.loc 1 195 0
 296              		.cfi_startproc
 297 0000 80B5     		push	{r7, lr}
 298              		.cfi_def_cfa_offset 8
 299              		.cfi_offset 7, -8
 300              		.cfi_offset 14, -4
 301 0002 A6B0     		sub	sp, sp, #152
 302              		.cfi_def_cfa_offset 160
 303 0004 00AF     		add	r7, sp, #0
 304              		.cfi_def_cfa_register 7
 305 0006 7860     		str	r0, [r7, #4]
 306 0008 0A1C     		mov	r2, r1
 307 000a BB1C     		add	r3, r7, #2
 308 000c 1A80     		strh	r2, [r3]
 196:.\Generated_Source\PSoC4/CYBLE_HAL_PVT.c ****     const uint8 *tempFlash;
 197:.\Generated_Source\PSoC4/CYBLE_HAL_PVT.c ****     uint8 flashBuffer[CY_FLASH_SIZEOF_ROW] = {0u};
 309              		.loc 1 197 0
 310 000e 0C23     		mov	r3, #12
 311 0010 FB18     		add	r3, r7, r3
 312 0012 1A1C     		mov	r2, r3
ARM GAS  C:\Users\mohammed\AppData\Local\Temp\cctb0af1.s 			page 10


 313 0014 8023     		mov	r3, #128
 314 0016 101C     		mov	r0, r2
 315 0018 0021     		mov	r1, #0
 316 001a 1A1C     		mov	r2, r3
 317 001c FFF7FEFF 		bl	memset
 198:.\Generated_Source\PSoC4/CYBLE_HAL_PVT.c ****     uint16 lengthFlash;
 199:.\Generated_Source\PSoC4/CYBLE_HAL_PVT.c ****     uint16 lengthRemaining;
 200:.\Generated_Source\PSoC4/CYBLE_HAL_PVT.c ****     cystatus rc = CYRET_UNKNOWN;
 318              		.loc 1 200 0
 319 0020 0123     		mov	r3, #1
 320 0022 5B42     		neg	r3, r3
 321 0024 8C22     		mov	r2, #140
 322 0026 BA18     		add	r2, r7, r2
 323 0028 1360     		str	r3, [r2]
 201:.\Generated_Source\PSoC4/CYBLE_HAL_PVT.c **** 
 202:.\Generated_Source\PSoC4/CYBLE_HAL_PVT.c ****     tempFlash = varFlash;
 324              		.loc 1 202 0
 325 002a 7B68     		ldr	r3, [r7, #4]
 326 002c 9422     		mov	r2, #148
 327 002e BA18     		add	r2, r7, r2
 328 0030 1360     		str	r3, [r2]
 203:.\Generated_Source\PSoC4/CYBLE_HAL_PVT.c ****     lengthRemaining = length;
 329              		.loc 1 203 0
 330 0032 9023     		mov	r3, #144
 331 0034 FB18     		add	r3, r7, r3
 332 0036 BA1C     		add	r2, r7, #2
 333 0038 1288     		ldrh	r2, [r2]
 334 003a 1A80     		strh	r2, [r3]
 204:.\Generated_Source\PSoC4/CYBLE_HAL_PVT.c **** 
 205:.\Generated_Source\PSoC4/CYBLE_HAL_PVT.c ****     while(lengthRemaining > 0u)
 335              		.loc 1 205 0
 336 003c 37E0     		b	.L17
 337              	.L22:
 206:.\Generated_Source\PSoC4/CYBLE_HAL_PVT.c ****     {
 207:.\Generated_Source\PSoC4/CYBLE_HAL_PVT.c ****         if(lengthRemaining < CY_FLASH_SIZEOF_ROW)
 338              		.loc 1 207 0
 339 003e 9023     		mov	r3, #144
 340 0040 FB18     		add	r3, r7, r3
 341 0042 1B88     		ldrh	r3, [r3]
 342 0044 7F2B     		cmp	r3, #127
 343 0046 06D8     		bhi	.L18
 208:.\Generated_Source\PSoC4/CYBLE_HAL_PVT.c ****         {
 209:.\Generated_Source\PSoC4/CYBLE_HAL_PVT.c ****             lengthFlash = lengthRemaining;
 344              		.loc 1 209 0
 345 0048 9223     		mov	r3, #146
 346 004a FB18     		add	r3, r7, r3
 347 004c 9022     		mov	r2, #144
 348 004e BA18     		add	r2, r7, r2
 349 0050 1288     		ldrh	r2, [r2]
 350 0052 1A80     		strh	r2, [r3]
 351 0054 03E0     		b	.L19
 352              	.L18:
 210:.\Generated_Source\PSoC4/CYBLE_HAL_PVT.c ****         }
 211:.\Generated_Source\PSoC4/CYBLE_HAL_PVT.c ****         else
 212:.\Generated_Source\PSoC4/CYBLE_HAL_PVT.c ****         {
 213:.\Generated_Source\PSoC4/CYBLE_HAL_PVT.c ****             lengthFlash = CY_FLASH_SIZEOF_ROW;
 353              		.loc 1 213 0
ARM GAS  C:\Users\mohammed\AppData\Local\Temp\cctb0af1.s 			page 11


 354 0056 9223     		mov	r3, #146
 355 0058 FB18     		add	r3, r7, r3
 356 005a 8022     		mov	r2, #128
 357 005c 1A80     		strh	r2, [r3]
 358              	.L19:
 214:.\Generated_Source\PSoC4/CYBLE_HAL_PVT.c ****         }
 215:.\Generated_Source\PSoC4/CYBLE_HAL_PVT.c ****         rc = CyBLE_Nvram_Write(flashBuffer, tempFlash, lengthFlash);
 359              		.loc 1 215 0
 360 005e 0C23     		mov	r3, #12
 361 0060 F918     		add	r1, r7, r3
 362 0062 9423     		mov	r3, #148
 363 0064 FB18     		add	r3, r7, r3
 364 0066 1A68     		ldr	r2, [r3]
 365 0068 9223     		mov	r3, #146
 366 006a FB18     		add	r3, r7, r3
 367 006c 1B88     		ldrh	r3, [r3]
 368 006e 081C     		mov	r0, r1
 369 0070 111C     		mov	r1, r2
 370 0072 1A1C     		mov	r2, r3
 371 0074 FFF7FEFF 		bl	CyBLE_Nvram_Write
 372 0078 031C     		mov	r3, r0
 373 007a 8C22     		mov	r2, #140
 374 007c BA18     		add	r2, r7, r2
 375 007e 1360     		str	r3, [r2]
 216:.\Generated_Source\PSoC4/CYBLE_HAL_PVT.c ****         if(rc != CYRET_SUCCESS)
 376              		.loc 1 216 0
 377 0080 8C23     		mov	r3, #140
 378 0082 FB18     		add	r3, r7, r3
 379 0084 1B68     		ldr	r3, [r3]
 380 0086 002B     		cmp	r3, #0
 381 0088 00D0     		beq	.L20
 217:.\Generated_Source\PSoC4/CYBLE_HAL_PVT.c ****         {
 218:.\Generated_Source\PSoC4/CYBLE_HAL_PVT.c ****             break;
 382              		.loc 1 218 0
 383 008a 15E0     		b	.L21
 384              	.L20:
 219:.\Generated_Source\PSoC4/CYBLE_HAL_PVT.c ****         }
 220:.\Generated_Source\PSoC4/CYBLE_HAL_PVT.c ****         tempFlash += CY_FLASH_SIZEOF_ROW;
 385              		.loc 1 220 0
 386 008c 9423     		mov	r3, #148
 387 008e FB18     		add	r3, r7, r3
 388 0090 1B68     		ldr	r3, [r3]
 389 0092 8033     		add	r3, r3, #128
 390 0094 9422     		mov	r2, #148
 391 0096 BA18     		add	r2, r7, r2
 392 0098 1360     		str	r3, [r2]
 221:.\Generated_Source\PSoC4/CYBLE_HAL_PVT.c ****         lengthRemaining -= lengthFlash;
 393              		.loc 1 221 0
 394 009a 9023     		mov	r3, #144
 395 009c FB18     		add	r3, r7, r3
 396 009e 9022     		mov	r2, #144
 397 00a0 B918     		add	r1, r7, r2
 398 00a2 9222     		mov	r2, #146
 399 00a4 BA18     		add	r2, r7, r2
 400 00a6 0988     		ldrh	r1, [r1]
 401 00a8 1288     		ldrh	r2, [r2]
 402 00aa 8A1A     		sub	r2, r1, r2
ARM GAS  C:\Users\mohammed\AppData\Local\Temp\cctb0af1.s 			page 12


 403 00ac 1A80     		strh	r2, [r3]
 404              	.L17:
 205:.\Generated_Source\PSoC4/CYBLE_HAL_PVT.c ****     {
 405              		.loc 1 205 0
 406 00ae 9023     		mov	r3, #144
 407 00b0 FB18     		add	r3, r7, r3
 408 00b2 1B88     		ldrh	r3, [r3]
 409 00b4 002B     		cmp	r3, #0
 410 00b6 C2D1     		bne	.L22
 411              	.L21:
 222:.\Generated_Source\PSoC4/CYBLE_HAL_PVT.c ****     }
 223:.\Generated_Source\PSoC4/CYBLE_HAL_PVT.c **** 
 224:.\Generated_Source\PSoC4/CYBLE_HAL_PVT.c ****     return rc;
 412              		.loc 1 224 0
 413 00b8 8C23     		mov	r3, #140
 414 00ba FB18     		add	r3, r7, r3
 415 00bc 1B68     		ldr	r3, [r3]
 225:.\Generated_Source\PSoC4/CYBLE_HAL_PVT.c **** }
 416              		.loc 1 225 0
 417 00be 181C     		mov	r0, r3
 418 00c0 BD46     		mov	sp, r7
 419 00c2 26B0     		add	sp, sp, #152
 420              		@ sp needed
 421 00c4 80BD     		pop	{r7, pc}
 422              		.cfi_endproc
 423              	.LFE3:
 424              		.size	CyBLE_Nvram_Erase, .-CyBLE_Nvram_Erase
 425 00c6 C046     		.section	.text.CyBLE_Bless_LlRegRead,"ax",%progbits
 426              		.align	2
 427              		.global	CyBLE_Bless_LlRegRead
 428              		.code	16
 429              		.thumb_func
 430              		.type	CyBLE_Bless_LlRegRead, %function
 431              	CyBLE_Bless_LlRegRead:
 432              	.LFB4:
 226:.\Generated_Source\PSoC4/CYBLE_HAL_PVT.c **** 
 227:.\Generated_Source\PSoC4/CYBLE_HAL_PVT.c **** 
 228:.\Generated_Source\PSoC4/CYBLE_HAL_PVT.c **** /*******************************************************************************
 229:.\Generated_Source\PSoC4/CYBLE_HAL_PVT.c **** * Function Name: CyBLE_Bless_LlRegRead
 230:.\Generated_Source\PSoC4/CYBLE_HAL_PVT.c **** ****************************************************************************//**
 231:.\Generated_Source\PSoC4/CYBLE_HAL_PVT.c **** *
 232:.\Generated_Source\PSoC4/CYBLE_HAL_PVT.c **** *  This API reads the content of the BLESS Link Layer register from the stack.
 233:.\Generated_Source\PSoC4/CYBLE_HAL_PVT.c **** *
 234:.\Generated_Source\PSoC4/CYBLE_HAL_PVT.c **** *  \param blessAddr: the pointer to the BLESS link layer address.
 235:.\Generated_Source\PSoC4/CYBLE_HAL_PVT.c **** *  \param regValue: the pointer to the buffer space to copy the read value.
 236:.\Generated_Source\PSoC4/CYBLE_HAL_PVT.c **** *
 237:.\Generated_Source\PSoC4/CYBLE_HAL_PVT.c **** * \return
 238:.\Generated_Source\PSoC4/CYBLE_HAL_PVT.c **** *  None
 239:.\Generated_Source\PSoC4/CYBLE_HAL_PVT.c **** *
 240:.\Generated_Source\PSoC4/CYBLE_HAL_PVT.c **** *******************************************************************************/
 241:.\Generated_Source\PSoC4/CYBLE_HAL_PVT.c **** void CyBLE_Bless_LlRegRead (const reg32 *blessAddr, uint16 *regValue)
 242:.\Generated_Source\PSoC4/CYBLE_HAL_PVT.c **** {
 433              		.loc 1 242 0
 434              		.cfi_startproc
 435 0000 80B5     		push	{r7, lr}
 436              		.cfi_def_cfa_offset 8
 437              		.cfi_offset 7, -8
ARM GAS  C:\Users\mohammed\AppData\Local\Temp\cctb0af1.s 			page 13


 438              		.cfi_offset 14, -4
 439 0002 82B0     		sub	sp, sp, #8
 440              		.cfi_def_cfa_offset 16
 441 0004 00AF     		add	r7, sp, #0
 442              		.cfi_def_cfa_register 7
 443 0006 7860     		str	r0, [r7, #4]
 444 0008 3960     		str	r1, [r7]
 243:.\Generated_Source\PSoC4/CYBLE_HAL_PVT.c ****     *regValue = (uint16)CY_GET_REG32(blessAddr);
 445              		.loc 1 243 0
 446 000a 7B68     		ldr	r3, [r7, #4]
 447 000c 1B68     		ldr	r3, [r3]
 448 000e 9AB2     		uxth	r2, r3
 449 0010 3B68     		ldr	r3, [r7]
 450 0012 1A80     		strh	r2, [r3]
 244:.\Generated_Source\PSoC4/CYBLE_HAL_PVT.c **** }
 451              		.loc 1 244 0
 452 0014 BD46     		mov	sp, r7
 453 0016 02B0     		add	sp, sp, #8
 454              		@ sp needed
 455 0018 80BD     		pop	{r7, pc}
 456              		.cfi_endproc
 457              	.LFE4:
 458              		.size	CyBLE_Bless_LlRegRead, .-CyBLE_Bless_LlRegRead
 459 001a C046     		.section	.text.CyBLE_Bless_LlRegWrite,"ax",%progbits
 460              		.align	2
 461              		.global	CyBLE_Bless_LlRegWrite
 462              		.code	16
 463              		.thumb_func
 464              		.type	CyBLE_Bless_LlRegWrite, %function
 465              	CyBLE_Bless_LlRegWrite:
 466              	.LFB5:
 245:.\Generated_Source\PSoC4/CYBLE_HAL_PVT.c **** 
 246:.\Generated_Source\PSoC4/CYBLE_HAL_PVT.c **** 
 247:.\Generated_Source\PSoC4/CYBLE_HAL_PVT.c **** /*******************************************************************************
 248:.\Generated_Source\PSoC4/CYBLE_HAL_PVT.c **** * Function Name: CyBLE_Bless_LlRegWrite
 249:.\Generated_Source\PSoC4/CYBLE_HAL_PVT.c **** ****************************************************************************//**
 250:.\Generated_Source\PSoC4/CYBLE_HAL_PVT.c **** *
 251:.\Generated_Source\PSoC4/CYBLE_HAL_PVT.c **** *  This API writes to the BLESS Link Layer register from the stack.
 252:.\Generated_Source\PSoC4/CYBLE_HAL_PVT.c **** *
 253:.\Generated_Source\PSoC4/CYBLE_HAL_PVT.c **** *  \param blessAddr: the pointer to the BLESS link layer address.
 254:.\Generated_Source\PSoC4/CYBLE_HAL_PVT.c **** *  \param regValue: the pointer to the value to be written to the BLESS LL reg.
 255:.\Generated_Source\PSoC4/CYBLE_HAL_PVT.c **** *
 256:.\Generated_Source\PSoC4/CYBLE_HAL_PVT.c **** * \return
 257:.\Generated_Source\PSoC4/CYBLE_HAL_PVT.c **** *  None
 258:.\Generated_Source\PSoC4/CYBLE_HAL_PVT.c **** *
 259:.\Generated_Source\PSoC4/CYBLE_HAL_PVT.c **** *******************************************************************************/
 260:.\Generated_Source\PSoC4/CYBLE_HAL_PVT.c **** void CyBLE_Bless_LlRegWrite (reg32 *blessAddr, const uint16 regValue)
 261:.\Generated_Source\PSoC4/CYBLE_HAL_PVT.c **** {
 467              		.loc 1 261 0
 468              		.cfi_startproc
 469 0000 80B5     		push	{r7, lr}
 470              		.cfi_def_cfa_offset 8
 471              		.cfi_offset 7, -8
 472              		.cfi_offset 14, -4
 473 0002 82B0     		sub	sp, sp, #8
 474              		.cfi_def_cfa_offset 16
 475 0004 00AF     		add	r7, sp, #0
ARM GAS  C:\Users\mohammed\AppData\Local\Temp\cctb0af1.s 			page 14


 476              		.cfi_def_cfa_register 7
 477 0006 7860     		str	r0, [r7, #4]
 478 0008 0A1C     		mov	r2, r1
 479 000a BB1C     		add	r3, r7, #2
 480 000c 1A80     		strh	r2, [r3]
 262:.\Generated_Source\PSoC4/CYBLE_HAL_PVT.c ****     CY_SET_REG32(blessAddr, regValue);
 481              		.loc 1 262 0
 482 000e BB1C     		add	r3, r7, #2
 483 0010 1A88     		ldrh	r2, [r3]
 484 0012 7B68     		ldr	r3, [r7, #4]
 485 0014 1A60     		str	r2, [r3]
 263:.\Generated_Source\PSoC4/CYBLE_HAL_PVT.c **** }
 486              		.loc 1 263 0
 487 0016 BD46     		mov	sp, r7
 488 0018 02B0     		add	sp, sp, #8
 489              		@ sp needed
 490 001a 80BD     		pop	{r7, pc}
 491              		.cfi_endproc
 492              	.LFE5:
 493              		.size	CyBLE_Bless_LlRegWrite, .-CyBLE_Bless_LlRegWrite
 494              		.section	.text.CyBLE_Bless_RfRegRead,"ax",%progbits
 495              		.align	2
 496              		.global	CyBLE_Bless_RfRegRead
 497              		.code	16
 498              		.thumb_func
 499              		.type	CyBLE_Bless_RfRegRead, %function
 500              	CyBLE_Bless_RfRegRead:
 501              	.LFB6:
 264:.\Generated_Source\PSoC4/CYBLE_HAL_PVT.c **** 
 265:.\Generated_Source\PSoC4/CYBLE_HAL_PVT.c **** 
 266:.\Generated_Source\PSoC4/CYBLE_HAL_PVT.c **** /*******************************************************************************
 267:.\Generated_Source\PSoC4/CYBLE_HAL_PVT.c **** * Function Name: CyBLE_Bless_RfRegRead
 268:.\Generated_Source\PSoC4/CYBLE_HAL_PVT.c **** ****************************************************************************//**
 269:.\Generated_Source\PSoC4/CYBLE_HAL_PVT.c **** *
 270:.\Generated_Source\PSoC4/CYBLE_HAL_PVT.c **** *  This API reads the content of the BLESS RF register from the stack.
 271:.\Generated_Source\PSoC4/CYBLE_HAL_PVT.c **** *
 272:.\Generated_Source\PSoC4/CYBLE_HAL_PVT.c **** *  \param blessAddr: the pointer to BLESS RF register address.
 273:.\Generated_Source\PSoC4/CYBLE_HAL_PVT.c **** *  \param regValue: the pointer to the buffer space to copy the read value.
 274:.\Generated_Source\PSoC4/CYBLE_HAL_PVT.c **** *
 275:.\Generated_Source\PSoC4/CYBLE_HAL_PVT.c **** * \return
 276:.\Generated_Source\PSoC4/CYBLE_HAL_PVT.c **** *  None
 277:.\Generated_Source\PSoC4/CYBLE_HAL_PVT.c **** *
 278:.\Generated_Source\PSoC4/CYBLE_HAL_PVT.c **** *******************************************************************************/
 279:.\Generated_Source\PSoC4/CYBLE_HAL_PVT.c **** void CyBLE_Bless_RfRegRead (const reg32 *blessAddr, uint16 *regValue)
 280:.\Generated_Source\PSoC4/CYBLE_HAL_PVT.c **** {
 502              		.loc 1 280 0
 503              		.cfi_startproc
 504 0000 80B5     		push	{r7, lr}
 505              		.cfi_def_cfa_offset 8
 506              		.cfi_offset 7, -8
 507              		.cfi_offset 14, -4
 508 0002 82B0     		sub	sp, sp, #8
 509              		.cfi_def_cfa_offset 16
 510 0004 00AF     		add	r7, sp, #0
 511              		.cfi_def_cfa_register 7
 512 0006 7860     		str	r0, [r7, #4]
 513 0008 3960     		str	r1, [r7]
ARM GAS  C:\Users\mohammed\AppData\Local\Temp\cctb0af1.s 			page 15


 281:.\Generated_Source\PSoC4/CYBLE_HAL_PVT.c ****     *regValue = (uint16)CY_GET_REG32(blessAddr);
 514              		.loc 1 281 0
 515 000a 7B68     		ldr	r3, [r7, #4]
 516 000c 1B68     		ldr	r3, [r3]
 517 000e 9AB2     		uxth	r2, r3
 518 0010 3B68     		ldr	r3, [r7]
 519 0012 1A80     		strh	r2, [r3]
 282:.\Generated_Source\PSoC4/CYBLE_HAL_PVT.c **** }
 520              		.loc 1 282 0
 521 0014 BD46     		mov	sp, r7
 522 0016 02B0     		add	sp, sp, #8
 523              		@ sp needed
 524 0018 80BD     		pop	{r7, pc}
 525              		.cfi_endproc
 526              	.LFE6:
 527              		.size	CyBLE_Bless_RfRegRead, .-CyBLE_Bless_RfRegRead
 528 001a C046     		.section	.text.CyBLE_Bless_RfRegWrite,"ax",%progbits
 529              		.align	2
 530              		.global	CyBLE_Bless_RfRegWrite
 531              		.code	16
 532              		.thumb_func
 533              		.type	CyBLE_Bless_RfRegWrite, %function
 534              	CyBLE_Bless_RfRegWrite:
 535              	.LFB7:
 283:.\Generated_Source\PSoC4/CYBLE_HAL_PVT.c **** 
 284:.\Generated_Source\PSoC4/CYBLE_HAL_PVT.c **** 
 285:.\Generated_Source\PSoC4/CYBLE_HAL_PVT.c **** /*******************************************************************************
 286:.\Generated_Source\PSoC4/CYBLE_HAL_PVT.c **** * Function Name: CyBLE_Bless_RfRegWrite
 287:.\Generated_Source\PSoC4/CYBLE_HAL_PVT.c **** ****************************************************************************//**
 288:.\Generated_Source\PSoC4/CYBLE_HAL_PVT.c **** *
 289:.\Generated_Source\PSoC4/CYBLE_HAL_PVT.c **** *  This API writes to the BLESS RF register from the stack.
 290:.\Generated_Source\PSoC4/CYBLE_HAL_PVT.c **** *
 291:.\Generated_Source\PSoC4/CYBLE_HAL_PVT.c **** *  \param blessAddr: the pointer to the BLESS RF address.
 292:.\Generated_Source\PSoC4/CYBLE_HAL_PVT.c **** *  \param regValue: the pointer to the value to be written to the BLESS RF reg.
 293:.\Generated_Source\PSoC4/CYBLE_HAL_PVT.c **** *
 294:.\Generated_Source\PSoC4/CYBLE_HAL_PVT.c **** * \return
 295:.\Generated_Source\PSoC4/CYBLE_HAL_PVT.c **** *  None
 296:.\Generated_Source\PSoC4/CYBLE_HAL_PVT.c **** *
 297:.\Generated_Source\PSoC4/CYBLE_HAL_PVT.c **** *******************************************************************************/
 298:.\Generated_Source\PSoC4/CYBLE_HAL_PVT.c **** void CyBLE_Bless_RfRegWrite (reg32 *blessAddr, const uint16 regValue)
 299:.\Generated_Source\PSoC4/CYBLE_HAL_PVT.c **** {
 536              		.loc 1 299 0
 537              		.cfi_startproc
 538 0000 80B5     		push	{r7, lr}
 539              		.cfi_def_cfa_offset 8
 540              		.cfi_offset 7, -8
 541              		.cfi_offset 14, -4
 542 0002 82B0     		sub	sp, sp, #8
 543              		.cfi_def_cfa_offset 16
 544 0004 00AF     		add	r7, sp, #0
 545              		.cfi_def_cfa_register 7
 546 0006 7860     		str	r0, [r7, #4]
 547 0008 0A1C     		mov	r2, r1
 548 000a BB1C     		add	r3, r7, #2
 549 000c 1A80     		strh	r2, [r3]
 300:.\Generated_Source\PSoC4/CYBLE_HAL_PVT.c ****      CY_SET_REG32(blessAddr, regValue);
 550              		.loc 1 300 0
ARM GAS  C:\Users\mohammed\AppData\Local\Temp\cctb0af1.s 			page 16


 551 000e BB1C     		add	r3, r7, #2
 552 0010 1A88     		ldrh	r2, [r3]
 553 0012 7B68     		ldr	r3, [r7, #4]
 554 0014 1A60     		str	r2, [r3]
 301:.\Generated_Source\PSoC4/CYBLE_HAL_PVT.c **** }
 555              		.loc 1 301 0
 556 0016 BD46     		mov	sp, r7
 557 0018 02B0     		add	sp, sp, #8
 558              		@ sp needed
 559 001a 80BD     		pop	{r7, pc}
 560              		.cfi_endproc
 561              	.LFE7:
 562              		.size	CyBLE_Bless_RfRegWrite, .-CyBLE_Bless_RfRegWrite
 563              		.section	.text.CyBLE_BlessDeviceConfig,"ax",%progbits
 564              		.align	2
 565              		.global	CyBLE_BlessDeviceConfig
 566              		.code	16
 567              		.thumb_func
 568              		.type	CyBLE_BlessDeviceConfig, %function
 569              	CyBLE_BlessDeviceConfig:
 570              	.LFB8:
 302:.\Generated_Source\PSoC4/CYBLE_HAL_PVT.c **** 
 303:.\Generated_Source\PSoC4/CYBLE_HAL_PVT.c **** /*******************************************************************************
 304:.\Generated_Source\PSoC4/CYBLE_HAL_PVT.c **** * Function Name: CyBLE_BlessDeviceConfig
 305:.\Generated_Source\PSoC4/CYBLE_HAL_PVT.c **** ****************************************************************************//**
 306:.\Generated_Source\PSoC4/CYBLE_HAL_PVT.c **** *
 307:.\Generated_Source\PSoC4/CYBLE_HAL_PVT.c **** *  This function configures BLESS registers by trimmed values stored in SFLASH.
 308:.\Generated_Source\PSoC4/CYBLE_HAL_PVT.c **** *
 309:.\Generated_Source\PSoC4/CYBLE_HAL_PVT.c **** * \return
 310:.\Generated_Source\PSoC4/CYBLE_HAL_PVT.c **** *  None
 311:.\Generated_Source\PSoC4/CYBLE_HAL_PVT.c **** *
 312:.\Generated_Source\PSoC4/CYBLE_HAL_PVT.c **** *******************************************************************************/
 313:.\Generated_Source\PSoC4/CYBLE_HAL_PVT.c **** void CyBLE_BlessDeviceConfig(void)
 314:.\Generated_Source\PSoC4/CYBLE_HAL_PVT.c **** {
 571              		.loc 1 314 0
 572              		.cfi_startproc
 573 0000 80B5     		push	{r7, lr}
 574              		.cfi_def_cfa_offset 8
 575              		.cfi_offset 7, -8
 576              		.cfi_offset 14, -4
 577 0002 84B0     		sub	sp, sp, #16
 578              		.cfi_def_cfa_offset 24
 579 0004 00AF     		add	r7, sp, #0
 580              		.cfi_def_cfa_register 7
 315:.\Generated_Source\PSoC4/CYBLE_HAL_PVT.c ****     uint32 trimRegValue;
 316:.\Generated_Source\PSoC4/CYBLE_HAL_PVT.c ****     uint32 ldo;
 317:.\Generated_Source\PSoC4/CYBLE_HAL_PVT.c ****     uint32 siliconRev;
 318:.\Generated_Source\PSoC4/CYBLE_HAL_PVT.c ****     uint16 trimRef34Val;
 319:.\Generated_Source\PSoC4/CYBLE_HAL_PVT.c ****     uint16 trimRef38Val;
 320:.\Generated_Source\PSoC4/CYBLE_HAL_PVT.c **** 
 321:.\Generated_Source\PSoC4/CYBLE_HAL_PVT.c ****     trimRegValue = ((uint32)CYBLE_SFLASH_BLESS_BB_BUMP2_HIGH_REG << 8u) | CYBLE_SFLASH_BLESS_BB_BUM
 581              		.loc 1 321 0
 582 0006 494B     		ldr	r3, .L36
 583 0008 1B78     		ldrb	r3, [r3]
 584 000a DBB2     		uxtb	r3, r3
 585 000c 1B02     		lsl	r3, r3, #8
 586 000e 484A     		ldr	r2, .L36+4
ARM GAS  C:\Users\mohammed\AppData\Local\Temp\cctb0af1.s 			page 17


 587 0010 1278     		ldrb	r2, [r2]
 588 0012 D2B2     		uxtb	r2, r2
 589 0014 1343     		orr	r3, r2
 590 0016 FB60     		str	r3, [r7, #12]
 322:.\Generated_Source\PSoC4/CYBLE_HAL_PVT.c ****     ldo = ((uint32)CYBLE_SFLASH_BLESS_LDO_HIGH_REG << 8u) | CYBLE_SFLASH_BLESS_LDO_LOW_REG;
 591              		.loc 1 322 0
 592 0018 464B     		ldr	r3, .L36+8
 593 001a 1B78     		ldrb	r3, [r3]
 594 001c DBB2     		uxtb	r3, r3
 595 001e 1B02     		lsl	r3, r3, #8
 596 0020 454A     		ldr	r2, .L36+12
 597 0022 1278     		ldrb	r2, [r2]
 598 0024 D2B2     		uxtb	r2, r2
 599 0026 1343     		orr	r3, r2
 600 0028 BB60     		str	r3, [r7, #8]
 323:.\Generated_Source\PSoC4/CYBLE_HAL_PVT.c **** 
 324:.\Generated_Source\PSoC4/CYBLE_HAL_PVT.c ****     if ((ldo == CYBLE_SFLASH_BLERD_LDO_REG_VAL1) && (trimRegValue == CYBLE_SFLASH_BLERD_BB_BUMP2_RE
 601              		.loc 1 324 0
 602 002a BB68     		ldr	r3, [r7, #8]
 603 002c 434A     		ldr	r2, .L36+16
 604 002e 9342     		cmp	r3, r2
 605 0030 07D1     		bne	.L29
 606              		.loc 1 324 0 is_stmt 0 discriminator 1
 607 0032 FB68     		ldr	r3, [r7, #12]
 608 0034 072B     		cmp	r3, #7
 609 0036 04D1     		bne	.L29
 325:.\Generated_Source\PSoC4/CYBLE_HAL_PVT.c ****     {
 326:.\Generated_Source\PSoC4/CYBLE_HAL_PVT.c ****         ldo = CYBLE_BLERD_LDO_REG_VAL_FINAL;
 610              		.loc 1 326 0 is_stmt 1
 611 0038 414B     		ldr	r3, .L36+20
 612 003a BB60     		str	r3, [r7, #8]
 327:.\Generated_Source\PSoC4/CYBLE_HAL_PVT.c ****         trimRegValue = CYBLE_BLERD_BB_BUMP2_REG_VAL_FINAL;
 613              		.loc 1 327 0
 614 003c 0423     		mov	r3, #4
 615 003e FB60     		str	r3, [r7, #12]
 616 0040 09E0     		b	.L30
 617              	.L29:
 328:.\Generated_Source\PSoC4/CYBLE_HAL_PVT.c ****     }
 329:.\Generated_Source\PSoC4/CYBLE_HAL_PVT.c ****     else if ((ldo == CYBLE_SFLASH_BLERD_LDO_REG_VAL2) && (trimRegValue == CYBLE_BLERD_BB_BUMP2_REG_
 618              		.loc 1 329 0
 619 0042 BA68     		ldr	r2, [r7, #8]
 620 0044 D423     		mov	r3, #212
 621 0046 1B01     		lsl	r3, r3, #4
 622 0048 9A42     		cmp	r2, r3
 623 004a 04D1     		bne	.L30
 624              		.loc 1 329 0 is_stmt 0 discriminator 1
 625 004c FB68     		ldr	r3, [r7, #12]
 626 004e 042B     		cmp	r3, #4
 627 0050 01D1     		bne	.L30
 330:.\Generated_Source\PSoC4/CYBLE_HAL_PVT.c ****     {
 331:.\Generated_Source\PSoC4/CYBLE_HAL_PVT.c ****         ldo = CYBLE_BLERD_LDO_REG_VAL_FINAL;
 628              		.loc 1 331 0 is_stmt 1
 629 0052 3B4B     		ldr	r3, .L36+20
 630 0054 BB60     		str	r3, [r7, #8]
 631              	.L30:
 332:.\Generated_Source\PSoC4/CYBLE_HAL_PVT.c ****     }
 333:.\Generated_Source\PSoC4/CYBLE_HAL_PVT.c ****     else
ARM GAS  C:\Users\mohammed\AppData\Local\Temp\cctb0af1.s 			page 18


 334:.\Generated_Source\PSoC4/CYBLE_HAL_PVT.c ****     {
 335:.\Generated_Source\PSoC4/CYBLE_HAL_PVT.c ****     }
 336:.\Generated_Source\PSoC4/CYBLE_HAL_PVT.c **** 
 337:.\Generated_Source\PSoC4/CYBLE_HAL_PVT.c ****     CYBLE_BLE_BLERD_LDO_REG = ldo;
 632              		.loc 1 337 0
 633 0056 3B4B     		ldr	r3, .L36+24
 634 0058 BA68     		ldr	r2, [r7, #8]
 635 005a 1A60     		str	r2, [r3]
 338:.\Generated_Source\PSoC4/CYBLE_HAL_PVT.c ****     CYBLE_BLE_BLERD_BB_BUMP2_REG = trimRegValue;
 636              		.loc 1 338 0
 637 005c 3A4B     		ldr	r3, .L36+28
 638 005e FA68     		ldr	r2, [r7, #12]
 639 0060 1A60     		str	r2, [r3]
 339:.\Generated_Source\PSoC4/CYBLE_HAL_PVT.c **** 
 340:.\Generated_Source\PSoC4/CYBLE_HAL_PVT.c ****     /* Edit only XTAL fast charge bit */
 341:.\Generated_Source\PSoC4/CYBLE_HAL_PVT.c ****     trimRegValue = ((uint32)CYBLE_SFLASH_BLESS_BB_XO_HIGH_REG << 8u) | CYBLE_SFLASH_BLESS_BB_XO_LOW
 640              		.loc 1 341 0
 641 0062 3A4B     		ldr	r3, .L36+32
 642 0064 1B78     		ldrb	r3, [r3]
 643 0066 DBB2     		uxtb	r3, r3
 644 0068 1B02     		lsl	r3, r3, #8
 645 006a 394A     		ldr	r2, .L36+36
 646 006c 1278     		ldrb	r2, [r2]
 647 006e D2B2     		uxtb	r2, r2
 648 0070 1343     		orr	r3, r2
 649 0072 FB60     		str	r3, [r7, #12]
 342:.\Generated_Source\PSoC4/CYBLE_HAL_PVT.c **** 
 343:.\Generated_Source\PSoC4/CYBLE_HAL_PVT.c ****     if ((trimRegValue == CYBLE_SFLASH_BLERD_BB_XO_REG_VAL1) || (trimRegValue == CYBLE_SFLASH_BLERD_
 650              		.loc 1 343 0
 651 0074 FA68     		ldr	r2, [r7, #12]
 652 0076 8023     		mov	r3, #128
 653 0078 9B01     		lsl	r3, r3, #6
 654 007a 9A42     		cmp	r2, r3
 655 007c 02D0     		beq	.L31
 656              		.loc 1 343 0 is_stmt 0 discriminator 1
 657 007e FB68     		ldr	r3, [r7, #12]
 658 0080 002B     		cmp	r3, #0
 659 0082 01D1     		bne	.L32
 660              	.L31:
 344:.\Generated_Source\PSoC4/CYBLE_HAL_PVT.c ****     {
 345:.\Generated_Source\PSoC4/CYBLE_HAL_PVT.c ****         trimRegValue = CYBLE_BLERD_BB_XO_REG_VAL_FINAL;
 661              		.loc 1 345 0 is_stmt 1
 662 0084 334B     		ldr	r3, .L36+40
 663 0086 FB60     		str	r3, [r7, #12]
 664              	.L32:
 346:.\Generated_Source\PSoC4/CYBLE_HAL_PVT.c ****     }
 347:.\Generated_Source\PSoC4/CYBLE_HAL_PVT.c ****     
 348:.\Generated_Source\PSoC4/CYBLE_HAL_PVT.c ****     CYBLE_BLE_BLERD_BB_XO_REG = trimRegValue;
 665              		.loc 1 348 0
 666 0088 334B     		ldr	r3, .L36+44
 667 008a FA68     		ldr	r2, [r7, #12]
 668 008c 1A60     		str	r2, [r3]
 349:.\Generated_Source\PSoC4/CYBLE_HAL_PVT.c ****     
 350:.\Generated_Source\PSoC4/CYBLE_HAL_PVT.c ****     trimRegValue = ((uint32)CYBLE_SFLASH_BLESS_SY_BUMP1_HIGH_REG << 8u) | CYBLE_SFLASH_BLESS_SY_BUM
 669              		.loc 1 350 0
 670 008e 334B     		ldr	r3, .L36+48
 671 0090 1B78     		ldrb	r3, [r3]
ARM GAS  C:\Users\mohammed\AppData\Local\Temp\cctb0af1.s 			page 19


 672 0092 DBB2     		uxtb	r3, r3
 673 0094 1B02     		lsl	r3, r3, #8
 674 0096 324A     		ldr	r2, .L36+52
 675 0098 1278     		ldrb	r2, [r2]
 676 009a D2B2     		uxtb	r2, r2
 677 009c 1343     		orr	r3, r2
 678 009e FB60     		str	r3, [r7, #12]
 351:.\Generated_Source\PSoC4/CYBLE_HAL_PVT.c **** 
 352:.\Generated_Source\PSoC4/CYBLE_HAL_PVT.c ****     if ((trimRegValue == CYBLE_SFLASH_BLERD_SY_BUMP1_REG_VAL1) || 
 679              		.loc 1 352 0
 680 00a0 FB68     		ldr	r3, [r7, #12]
 681 00a2 304A     		ldr	r2, .L36+56
 682 00a4 9342     		cmp	r3, r2
 683 00a6 06D0     		beq	.L33
 684              		.loc 1 352 0 is_stmt 0 discriminator 1
 685 00a8 FB68     		ldr	r3, [r7, #12]
 686 00aa 2F4A     		ldr	r2, .L36+60
 687 00ac 9342     		cmp	r3, r2
 688 00ae 02D0     		beq	.L33
 353:.\Generated_Source\PSoC4/CYBLE_HAL_PVT.c ****         (trimRegValue == CYBLE_SFLASH_BLERD_SY_BUMP1_REG_VAL2) ||  
 689              		.loc 1 353 0 is_stmt 1
 690 00b0 FB68     		ldr	r3, [r7, #12]
 691 00b2 052B     		cmp	r3, #5
 692 00b4 01D1     		bne	.L34
 693              	.L33:
 354:.\Generated_Source\PSoC4/CYBLE_HAL_PVT.c ****         (trimRegValue == CYBLE_SFLASH_BLERD_SY_BUMP1_REG_VAL3))
 355:.\Generated_Source\PSoC4/CYBLE_HAL_PVT.c ****     {
 356:.\Generated_Source\PSoC4/CYBLE_HAL_PVT.c ****         trimRegValue = CYBLE_BLERD_SY_BUMP1_REG_VAL_FINAL;
 694              		.loc 1 356 0
 695 00b6 2D4B     		ldr	r3, .L36+64
 696 00b8 FB60     		str	r3, [r7, #12]
 697              	.L34:
 357:.\Generated_Source\PSoC4/CYBLE_HAL_PVT.c ****     }
 358:.\Generated_Source\PSoC4/CYBLE_HAL_PVT.c ****     CYBLE_BLE_BLERD_SY_BUMP1_REG = trimRegValue;
 698              		.loc 1 358 0
 699 00ba 2D4B     		ldr	r3, .L36+68
 700 00bc FA68     		ldr	r2, [r7, #12]
 701 00be 1A60     		str	r2, [r3]
 359:.\Generated_Source\PSoC4/CYBLE_HAL_PVT.c **** 
 360:.\Generated_Source\PSoC4/CYBLE_HAL_PVT.c ****     /* Following code is for F02FN trimming */
 361:.\Generated_Source\PSoC4/CYBLE_HAL_PVT.c ****     siliconRev = (CYBLE_BLE_SILICON_REV_REG >> 4u);
 702              		.loc 1 361 0
 703 00c0 2C4B     		ldr	r3, .L36+72
 704 00c2 1B68     		ldr	r3, [r3]
 705 00c4 1B09     		lsr	r3, r3, #4
 706 00c6 7B60     		str	r3, [r7, #4]
 362:.\Generated_Source\PSoC4/CYBLE_HAL_PVT.c ****     
 363:.\Generated_Source\PSoC4/CYBLE_HAL_PVT.c ****     if((CYBLE_BLE_FAMILY_ID_REG == CYBLE_PSOC4A_BLE256DMA_FID) && (siliconRev >= 0x02u) &&
 707              		.loc 1 363 0
 708 00c8 2B4B     		ldr	r3, .L36+76
 709 00ca 1B68     		ldr	r3, [r3]
 710 00cc AA2B     		cmp	r3, #170
 711 00ce 29D1     		bne	.L28
 712              		.loc 1 363 0 is_stmt 0 discriminator 1
 713 00d0 7B68     		ldr	r3, [r7, #4]
 714 00d2 012B     		cmp	r3, #1
 715 00d4 26D9     		bls	.L28
ARM GAS  C:\Users\mohammed\AppData\Local\Temp\cctb0af1.s 			page 20


 364:.\Generated_Source\PSoC4/CYBLE_HAL_PVT.c ****         (CYBLE_SFLASH_BLESS_SY_BUMP1_HIGH_REG == 0x0Eu))
 716              		.loc 1 364 0 is_stmt 1 discriminator 2
 717 00d6 214B     		ldr	r3, .L36+48
 718 00d8 1B78     		ldrb	r3, [r3]
 719 00da DBB2     		uxtb	r3, r3
 363:.\Generated_Source\PSoC4/CYBLE_HAL_PVT.c ****         (CYBLE_SFLASH_BLESS_SY_BUMP1_HIGH_REG == 0x0Eu))
 720              		.loc 1 363 0 discriminator 2
 721 00dc 0E2B     		cmp	r3, #14
 722 00de 21D1     		bne	.L28
 365:.\Generated_Source\PSoC4/CYBLE_HAL_PVT.c **** 	{
 366:.\Generated_Source\PSoC4/CYBLE_HAL_PVT.c **** 		trimRef34Val = ((uint16)(((uint16) CYBLE_BLE_BLESS_REG34_TRIM_HIGH_REG) << 8u)) |
 723              		.loc 1 366 0
 724 00e0 264B     		ldr	r3, .L36+80
 725 00e2 1B78     		ldrb	r3, [r3]
 726 00e4 DBB2     		uxtb	r3, r3
 727 00e6 9BB2     		uxth	r3, r3
 728 00e8 1B02     		lsl	r3, r3, #8
 729 00ea 99B2     		uxth	r1, r3
 367:.\Generated_Source\PSoC4/CYBLE_HAL_PVT.c ****                         ((uint16)CYBLE_BLE_BLESS_REG34_TRIM_LOW_REG);
 730              		.loc 1 367 0
 731 00ec 244B     		ldr	r3, .L36+84
 732 00ee 1B78     		ldrb	r3, [r3]
 733 00f0 DBB2     		uxtb	r3, r3
 366:.\Generated_Source\PSoC4/CYBLE_HAL_PVT.c ****                         ((uint16)CYBLE_BLE_BLESS_REG34_TRIM_LOW_REG);
 734              		.loc 1 366 0
 735 00f2 9AB2     		uxth	r2, r3
 736 00f4 BB1C     		add	r3, r7, #2
 737 00f6 0A43     		orr	r2, r1
 738 00f8 1A80     		strh	r2, [r3]
 368:.\Generated_Source\PSoC4/CYBLE_HAL_PVT.c **** 		CYBLE_BLERD_SY_BUMP2_REG = trimRef34Val;
 739              		.loc 1 368 0
 740 00fa 224B     		ldr	r3, .L36+88
 741 00fc BA1C     		add	r2, r7, #2
 742 00fe 1288     		ldrh	r2, [r2]
 743 0100 1A60     		str	r2, [r3]
 369:.\Generated_Source\PSoC4/CYBLE_HAL_PVT.c **** 	
 370:.\Generated_Source\PSoC4/CYBLE_HAL_PVT.c **** 		trimRef38Val = ((uint16)(((uint16)CYBLE_BLE_BLESS_REG38_TRIM_HIGH_REG) << 8u)) |
 744              		.loc 1 370 0
 745 0102 214B     		ldr	r3, .L36+92
 746 0104 1B78     		ldrb	r3, [r3]
 747 0106 DBB2     		uxtb	r3, r3
 748 0108 9BB2     		uxth	r3, r3
 749 010a 1B02     		lsl	r3, r3, #8
 750 010c 99B2     		uxth	r1, r3
 371:.\Generated_Source\PSoC4/CYBLE_HAL_PVT.c ****             ((uint16) CYBLE_BLE_BLESS_REG38_TRIM_LOW_REG);
 751              		.loc 1 371 0
 752 010e 1F4B     		ldr	r3, .L36+96
 753 0110 1B78     		ldrb	r3, [r3]
 754 0112 DBB2     		uxtb	r3, r3
 370:.\Generated_Source\PSoC4/CYBLE_HAL_PVT.c ****             ((uint16) CYBLE_BLE_BLESS_REG38_TRIM_LOW_REG);
 755              		.loc 1 370 0
 756 0114 9AB2     		uxth	r2, r3
 757 0116 3B1C     		mov	r3, r7
 758 0118 0A43     		orr	r2, r1
 759 011a 1A80     		strh	r2, [r3]
 372:.\Generated_Source\PSoC4/CYBLE_HAL_PVT.c **** 		CYBLE_BLERD_RX_BUMP2_REG = trimRef38Val;
 760              		.loc 1 372 0
ARM GAS  C:\Users\mohammed\AppData\Local\Temp\cctb0af1.s 			page 21


 761 011c 1C4B     		ldr	r3, .L36+100
 762 011e 3A1C     		mov	r2, r7
 763 0120 1288     		ldrh	r2, [r2]
 764 0122 1A60     		str	r2, [r3]
 765              	.L28:
 373:.\Generated_Source\PSoC4/CYBLE_HAL_PVT.c **** 	}
 374:.\Generated_Source\PSoC4/CYBLE_HAL_PVT.c **** }
 766              		.loc 1 374 0
 767 0124 BD46     		mov	sp, r7
 768 0126 04B0     		add	sp, sp, #16
 769              		@ sp needed
 770 0128 80BD     		pop	{r7, pc}
 771              	.L37:
 772 012a C046     		.align	2
 773              	.L36:
 774 012c D9F0FF0F 		.word	268431577
 775 0130 D8F0FF0F 		.word	268431576
 776 0134 DFF0FF0F 		.word	268431583
 777 0138 DEF0FF0F 		.word	268431582
 778 013c 580B0000 		.word	2904
 779 0140 580D0000 		.word	3416
 780 0144 6C002E40 		.word	1076756588
 781 0148 74002E40 		.word	1076756596
 782 014c DBF0FF0F 		.word	268431579
 783 0150 DAF0FF0F 		.word	268431578
 784 0154 02200000 		.word	8194
 785 0158 78002E40 		.word	1076756600
 786 015c DDF0FF0F 		.word	268431581
 787 0160 DCF0FF0F 		.word	268431580
 788 0164 0F0F0000 		.word	3855
 789 0168 05050000 		.word	1285
 790 016c 050F0000 		.word	3845
 791 0170 80002E40 		.word	1076756608
 792 0174 EC0F00F0 		.word	-268431380
 793 0178 E00F00F0 		.word	-268431392
 794 017c 6DF2FF0F 		.word	268431981
 795 0180 6CF2FF0F 		.word	268431980
 796 0184 84002E40 		.word	1076756612
 797 0188 6FF2FF0F 		.word	268431983
 798 018c 6EF2FF0F 		.word	268431982
 799 0190 94002E40 		.word	1076756628
 800              		.cfi_endproc
 801              	.LFE8:
 802              		.size	CyBLE_BlessDeviceConfig, .-CyBLE_BlessDeviceConfig
 803              		.section	.text.CyBleHal_DelayUs,"ax",%progbits
 804              		.align	2
 805              		.global	CyBleHal_DelayUs
 806              		.code	16
 807              		.thumb_func
 808              		.type	CyBleHal_DelayUs, %function
 809              	CyBleHal_DelayUs:
 810              	.LFB9:
 375:.\Generated_Source\PSoC4/CYBLE_HAL_PVT.c **** 
 376:.\Generated_Source\PSoC4/CYBLE_HAL_PVT.c **** /* Interface to CyDelayUs function */
 377:.\Generated_Source\PSoC4/CYBLE_HAL_PVT.c **** void CyBleHal_DelayUs(uint16 delayVal)
 378:.\Generated_Source\PSoC4/CYBLE_HAL_PVT.c **** {
 811              		.loc 1 378 0
ARM GAS  C:\Users\mohammed\AppData\Local\Temp\cctb0af1.s 			page 22


 812              		.cfi_startproc
 813 0000 80B5     		push	{r7, lr}
 814              		.cfi_def_cfa_offset 8
 815              		.cfi_offset 7, -8
 816              		.cfi_offset 14, -4
 817 0002 82B0     		sub	sp, sp, #8
 818              		.cfi_def_cfa_offset 16
 819 0004 00AF     		add	r7, sp, #0
 820              		.cfi_def_cfa_register 7
 821 0006 021C     		mov	r2, r0
 822 0008 BB1D     		add	r3, r7, #6
 823 000a 1A80     		strh	r2, [r3]
 379:.\Generated_Source\PSoC4/CYBLE_HAL_PVT.c ****     CyDelayUs(delayVal);
 824              		.loc 1 379 0
 825 000c BB1D     		add	r3, r7, #6
 826 000e 1B88     		ldrh	r3, [r3]
 827 0010 181C     		mov	r0, r3
 828 0012 FFF7FEFF 		bl	CyDelayUs
 380:.\Generated_Source\PSoC4/CYBLE_HAL_PVT.c **** }
 829              		.loc 1 380 0
 830 0016 BD46     		mov	sp, r7
 831 0018 02B0     		add	sp, sp, #8
 832              		@ sp needed
 833 001a 80BD     		pop	{r7, pc}
 834              		.cfi_endproc
 835              	.LFE9:
 836              		.size	CyBleHal_DelayUs, .-CyBleHal_DelayUs
 837              		.section	.text.CyBleHal_DelayMs,"ax",%progbits
 838              		.align	2
 839              		.global	CyBleHal_DelayMs
 840              		.code	16
 841              		.thumb_func
 842              		.type	CyBleHal_DelayMs, %function
 843              	CyBleHal_DelayMs:
 844              	.LFB10:
 381:.\Generated_Source\PSoC4/CYBLE_HAL_PVT.c **** 
 382:.\Generated_Source\PSoC4/CYBLE_HAL_PVT.c **** /* Interface to CyDelay function */
 383:.\Generated_Source\PSoC4/CYBLE_HAL_PVT.c **** void CyBleHal_DelayMs(uint32 delayVal)
 384:.\Generated_Source\PSoC4/CYBLE_HAL_PVT.c **** {
 845              		.loc 1 384 0
 846              		.cfi_startproc
 847 0000 80B5     		push	{r7, lr}
 848              		.cfi_def_cfa_offset 8
 849              		.cfi_offset 7, -8
 850              		.cfi_offset 14, -4
 851 0002 82B0     		sub	sp, sp, #8
 852              		.cfi_def_cfa_offset 16
 853 0004 00AF     		add	r7, sp, #0
 854              		.cfi_def_cfa_register 7
 855 0006 7860     		str	r0, [r7, #4]
 385:.\Generated_Source\PSoC4/CYBLE_HAL_PVT.c ****     CyDelay(delayVal);
 856              		.loc 1 385 0
 857 0008 7B68     		ldr	r3, [r7, #4]
 858 000a 181C     		mov	r0, r3
 859 000c FFF7FEFF 		bl	CyDelay
 386:.\Generated_Source\PSoC4/CYBLE_HAL_PVT.c **** }
 860              		.loc 1 386 0
ARM GAS  C:\Users\mohammed\AppData\Local\Temp\cctb0af1.s 			page 23


 861 0010 BD46     		mov	sp, r7
 862 0012 02B0     		add	sp, sp, #8
 863              		@ sp needed
 864 0014 80BD     		pop	{r7, pc}
 865              		.cfi_endproc
 866              	.LFE10:
 867              		.size	CyBleHal_DelayMs, .-CyBleHal_DelayMs
 868 0016 C046     		.section	.text.CyBleHal_EnableGlobalInterrupts,"ax",%progbits
 869              		.align	2
 870              		.global	CyBleHal_EnableGlobalInterrupts
 871              		.code	16
 872              		.thumb_func
 873              		.type	CyBleHal_EnableGlobalInterrupts, %function
 874              	CyBleHal_EnableGlobalInterrupts:
 875              	.LFB11:
 387:.\Generated_Source\PSoC4/CYBLE_HAL_PVT.c **** 
 388:.\Generated_Source\PSoC4/CYBLE_HAL_PVT.c **** /* Interface to CYBLE_bless_isr_Enable function */
 389:.\Generated_Source\PSoC4/CYBLE_HAL_PVT.c **** void CyBleHal_EnableGlobalInterrupts(void)
 390:.\Generated_Source\PSoC4/CYBLE_HAL_PVT.c **** {
 876              		.loc 1 390 0
 877              		.cfi_startproc
 878 0000 80B5     		push	{r7, lr}
 879              		.cfi_def_cfa_offset 8
 880              		.cfi_offset 7, -8
 881              		.cfi_offset 14, -4
 882 0002 00AF     		add	r7, sp, #0
 883              		.cfi_def_cfa_register 7
 391:.\Generated_Source\PSoC4/CYBLE_HAL_PVT.c ****     CYBLE_bless_isr_Enable();
 884              		.loc 1 391 0
 885 0004 FFF7FEFF 		bl	CYBLE_bless_isr_Enable
 392:.\Generated_Source\PSoC4/CYBLE_HAL_PVT.c **** }
 886              		.loc 1 392 0
 887 0008 BD46     		mov	sp, r7
 888              		@ sp needed
 889 000a 80BD     		pop	{r7, pc}
 890              		.cfi_endproc
 891              	.LFE11:
 892              		.size	CyBleHal_EnableGlobalInterrupts, .-CyBleHal_EnableGlobalInterrupts
 893              		.section	.text.CyBleHal_DisableGlobalInterrupts,"ax",%progbits
 894              		.align	2
 895              		.global	CyBleHal_DisableGlobalInterrupts
 896              		.code	16
 897              		.thumb_func
 898              		.type	CyBleHal_DisableGlobalInterrupts, %function
 899              	CyBleHal_DisableGlobalInterrupts:
 900              	.LFB12:
 393:.\Generated_Source\PSoC4/CYBLE_HAL_PVT.c **** 
 394:.\Generated_Source\PSoC4/CYBLE_HAL_PVT.c **** /* Interface to CYBLE_bless_isr_Disable function */
 395:.\Generated_Source\PSoC4/CYBLE_HAL_PVT.c **** void CyBleHal_DisableGlobalInterrupts(void)
 396:.\Generated_Source\PSoC4/CYBLE_HAL_PVT.c **** {
 901              		.loc 1 396 0
 902              		.cfi_startproc
 903 0000 80B5     		push	{r7, lr}
 904              		.cfi_def_cfa_offset 8
 905              		.cfi_offset 7, -8
 906              		.cfi_offset 14, -4
 907 0002 00AF     		add	r7, sp, #0
ARM GAS  C:\Users\mohammed\AppData\Local\Temp\cctb0af1.s 			page 24


 908              		.cfi_def_cfa_register 7
 397:.\Generated_Source\PSoC4/CYBLE_HAL_PVT.c ****     CYBLE_bless_isr_Disable();
 909              		.loc 1 397 0
 910 0004 FFF7FEFF 		bl	CYBLE_bless_isr_Disable
 398:.\Generated_Source\PSoC4/CYBLE_HAL_PVT.c **** }
 911              		.loc 1 398 0
 912 0008 BD46     		mov	sp, r7
 913              		@ sp needed
 914 000a 80BD     		pop	{r7, pc}
 915              		.cfi_endproc
 916              	.LFE12:
 917              		.size	CyBleHal_DisableGlobalInterrupts, .-CyBleHal_DisableGlobalInterrupts
 918              		.section	.text.CyBle_HalInit,"ax",%progbits
 919              		.align	2
 920              		.global	CyBle_HalInit
 921              		.code	16
 922              		.thumb_func
 923              		.type	CyBle_HalInit, %function
 924              	CyBle_HalInit:
 925              	.LFB13:
 399:.\Generated_Source\PSoC4/CYBLE_HAL_PVT.c **** 
 400:.\Generated_Source\PSoC4/CYBLE_HAL_PVT.c **** /*******************************************************************************
 401:.\Generated_Source\PSoC4/CYBLE_HAL_PVT.c **** * Function Name: CyBle_HalInit
 402:.\Generated_Source\PSoC4/CYBLE_HAL_PVT.c **** ****************************************************************************//**
 403:.\Generated_Source\PSoC4/CYBLE_HAL_PVT.c **** *
 404:.\Generated_Source\PSoC4/CYBLE_HAL_PVT.c **** *  Initializes the BLESS interrupt.
 405:.\Generated_Source\PSoC4/CYBLE_HAL_PVT.c **** *
 406:.\Generated_Source\PSoC4/CYBLE_HAL_PVT.c **** * \return
 407:.\Generated_Source\PSoC4/CYBLE_HAL_PVT.c **** *  None
 408:.\Generated_Source\PSoC4/CYBLE_HAL_PVT.c **** *
 409:.\Generated_Source\PSoC4/CYBLE_HAL_PVT.c **** *******************************************************************************/
 410:.\Generated_Source\PSoC4/CYBLE_HAL_PVT.c **** void CyBle_HalInit(void)
 411:.\Generated_Source\PSoC4/CYBLE_HAL_PVT.c **** {
 926              		.loc 1 411 0
 927              		.cfi_startproc
 928 0000 80B5     		push	{r7, lr}
 929              		.cfi_def_cfa_offset 8
 930              		.cfi_offset 7, -8
 931              		.cfi_offset 14, -4
 932 0002 00AF     		add	r7, sp, #0
 933              		.cfi_def_cfa_register 7
 412:.\Generated_Source\PSoC4/CYBLE_HAL_PVT.c ****     /* For all we know the interrupt is active. */
 413:.\Generated_Source\PSoC4/CYBLE_HAL_PVT.c ****     CYBLE_bless_isr_Disable();
 934              		.loc 1 413 0
 935 0004 FFF7FEFF 		bl	CYBLE_bless_isr_Disable
 414:.\Generated_Source\PSoC4/CYBLE_HAL_PVT.c **** 
 415:.\Generated_Source\PSoC4/CYBLE_HAL_PVT.c ****     /* Set the ISR to point to the BLE_bless_isr Interrupt. */
 416:.\Generated_Source\PSoC4/CYBLE_HAL_PVT.c ****     CYBLE_bless_isr_SetVector(&CyBLE_Bless_Interrupt);
 936              		.loc 1 416 0
 937 0008 044B     		ldr	r3, .L43
 938 000a 181C     		mov	r0, r3
 939 000c FFF7FEFF 		bl	CYBLE_bless_isr_SetVector
 417:.\Generated_Source\PSoC4/CYBLE_HAL_PVT.c **** 
 418:.\Generated_Source\PSoC4/CYBLE_HAL_PVT.c ****     /* Set the priority. */
 419:.\Generated_Source\PSoC4/CYBLE_HAL_PVT.c ****     CYBLE_bless_isr_SetPriority((uint8)CYBLE_bless_isr_INTC_PRIOR_NUMBER);
 940              		.loc 1 419 0
 941 0010 0320     		mov	r0, #3
ARM GAS  C:\Users\mohammed\AppData\Local\Temp\cctb0af1.s 			page 25


 942 0012 FFF7FEFF 		bl	CYBLE_bless_isr_SetPriority
 420:.\Generated_Source\PSoC4/CYBLE_HAL_PVT.c **** }
 943              		.loc 1 420 0
 944 0016 BD46     		mov	sp, r7
 945              		@ sp needed
 946 0018 80BD     		pop	{r7, pc}
 947              	.L44:
 948 001a C046     		.align	2
 949              	.L43:
 950 001c 00000000 		.word	CyBLE_Bless_Interrupt
 951              		.cfi_endproc
 952              	.LFE13:
 953              		.size	CyBle_HalInit, .-CyBle_HalInit
 954              		.section	.text.CYBLE_BlessStart,"ax",%progbits
 955              		.align	2
 956              		.global	CYBLE_BlessStart
 957              		.code	16
 958              		.thumb_func
 959              		.type	CYBLE_BlessStart, %function
 960              	CYBLE_BlessStart:
 961              	.LFB14:
 421:.\Generated_Source\PSoC4/CYBLE_HAL_PVT.c **** 
 422:.\Generated_Source\PSoC4/CYBLE_HAL_PVT.c **** 
 423:.\Generated_Source\PSoC4/CYBLE_HAL_PVT.c **** /*******************************************************************************
 424:.\Generated_Source\PSoC4/CYBLE_HAL_PVT.c **** * Function Name: CYBLE_BlessStart
 425:.\Generated_Source\PSoC4/CYBLE_HAL_PVT.c **** ****************************************************************************//**
 426:.\Generated_Source\PSoC4/CYBLE_HAL_PVT.c **** *
 427:.\Generated_Source\PSoC4/CYBLE_HAL_PVT.c **** *  Start Interrupt Controller API.
 428:.\Generated_Source\PSoC4/CYBLE_HAL_PVT.c **** *
 429:.\Generated_Source\PSoC4/CYBLE_HAL_PVT.c **** * \return
 430:.\Generated_Source\PSoC4/CYBLE_HAL_PVT.c **** *  None
 431:.\Generated_Source\PSoC4/CYBLE_HAL_PVT.c **** *
 432:.\Generated_Source\PSoC4/CYBLE_HAL_PVT.c **** *******************************************************************************/
 433:.\Generated_Source\PSoC4/CYBLE_HAL_PVT.c **** void CYBLE_BlessStart(void)
 434:.\Generated_Source\PSoC4/CYBLE_HAL_PVT.c **** {
 962              		.loc 1 434 0
 963              		.cfi_startproc
 964 0000 80B5     		push	{r7, lr}
 965              		.cfi_def_cfa_offset 8
 966              		.cfi_offset 7, -8
 967              		.cfi_offset 14, -4
 968 0002 00AF     		add	r7, sp, #0
 969              		.cfi_def_cfa_register 7
 435:.\Generated_Source\PSoC4/CYBLE_HAL_PVT.c ****     CYBLE_bless_isr_StartEx(&CyBLE_Bless_Interrupt);
 970              		.loc 1 435 0
 971 0004 024B     		ldr	r3, .L46
 972 0006 181C     		mov	r0, r3
 973 0008 FFF7FEFF 		bl	CYBLE_bless_isr_StartEx
 436:.\Generated_Source\PSoC4/CYBLE_HAL_PVT.c **** }
 974              		.loc 1 436 0
 975 000c BD46     		mov	sp, r7
 976              		@ sp needed
 977 000e 80BD     		pop	{r7, pc}
 978              	.L47:
 979              		.align	2
 980              	.L46:
 981 0010 00000000 		.word	CyBLE_Bless_Interrupt
ARM GAS  C:\Users\mohammed\AppData\Local\Temp\cctb0af1.s 			page 26


 982              		.cfi_endproc
 983              	.LFE14:
 984              		.size	CYBLE_BlessStart, .-CYBLE_BlessStart
 985              		.section	.text.CyBLE_GetIpBlockVersion,"ax",%progbits
 986              		.align	2
 987              		.global	CyBLE_GetIpBlockVersion
 988              		.code	16
 989              		.thumb_func
 990              		.type	CyBLE_GetIpBlockVersion, %function
 991              	CyBLE_GetIpBlockVersion:
 992              	.LFB15:
 437:.\Generated_Source\PSoC4/CYBLE_HAL_PVT.c **** 
 438:.\Generated_Source\PSoC4/CYBLE_HAL_PVT.c **** 
 439:.\Generated_Source\PSoC4/CYBLE_HAL_PVT.c **** /*******************************************************************************
 440:.\Generated_Source\PSoC4/CYBLE_HAL_PVT.c **** * Function Name: CyBLE_GetIpBlockVersion
 441:.\Generated_Source\PSoC4/CYBLE_HAL_PVT.c **** ****************************************************************************//**
 442:.\Generated_Source\PSoC4/CYBLE_HAL_PVT.c **** *
 443:.\Generated_Source\PSoC4/CYBLE_HAL_PVT.c **** * This API returns the version of m0s8bless ip block.
 444:.\Generated_Source\PSoC4/CYBLE_HAL_PVT.c **** *
 445:.\Generated_Source\PSoC4/CYBLE_HAL_PVT.c **** * \return
 446:.\Generated_Source\PSoC4/CYBLE_HAL_PVT.c **** * uint32 bits:
 447:.\Generated_Source\PSoC4/CYBLE_HAL_PVT.c **** * 7:0 - ip version ( 1 - BLE_ver1, 2 - BLE_ver2, 3 - BLE_ver3 )
 448:.\Generated_Source\PSoC4/CYBLE_HAL_PVT.c **** * 15:8 - flash size ( 0 - 128k, 1 - 256k )
 449:.\Generated_Source\PSoC4/CYBLE_HAL_PVT.c **** * 16 - PSVP device
 450:.\Generated_Source\PSoC4/CYBLE_HAL_PVT.c **** * 31:17 - reserved for future usage
 451:.\Generated_Source\PSoC4/CYBLE_HAL_PVT.c **** *
 452:.\Generated_Source\PSoC4/CYBLE_HAL_PVT.c **** *******************************************************************************/
 453:.\Generated_Source\PSoC4/CYBLE_HAL_PVT.c **** uint32 CyBLE_GetIpBlockVersion(void)
 454:.\Generated_Source\PSoC4/CYBLE_HAL_PVT.c **** {
 993              		.loc 1 454 0
 994              		.cfi_startproc
 995 0000 80B5     		push	{r7, lr}
 996              		.cfi_def_cfa_offset 8
 997              		.cfi_offset 7, -8
 998              		.cfi_offset 14, -4
 999 0002 00AF     		add	r7, sp, #0
 1000              		.cfi_def_cfa_register 7
 455:.\Generated_Source\PSoC4/CYBLE_HAL_PVT.c ****     return(((uint32)CYBLE_M0S8BLESS_VERSION) | ((uint32)((uint32)CYBLE_FLASH_SIZE) << 8u) |
 1001              		.loc 1 455 0
 1002 0004 0223     		mov	r3, #2
 1003 0006 FF33     		add	r3, r3, #255
 456:.\Generated_Source\PSoC4/CYBLE_HAL_PVT.c ****         ((uint32)(((uint32)CYBLE_PSVP_DEVICE)) << 16u));
 457:.\Generated_Source\PSoC4/CYBLE_HAL_PVT.c **** }
 1004              		.loc 1 457 0
 1005 0008 181C     		mov	r0, r3
 1006 000a BD46     		mov	sp, r7
 1007              		@ sp needed
 1008 000c 80BD     		pop	{r7, pc}
 1009              		.cfi_endproc
 1010              	.LFE15:
 1011              		.size	CyBLE_GetIpBlockVersion, .-CyBLE_GetIpBlockVersion
 1012 000e C046     		.section	.text.CyBle_Hal_pairing_local_public_key_handler,"ax",%progbits
 1013              		.align	2
 1014              		.global	CyBle_Hal_pairing_local_public_key_handler
 1015              		.code	16
 1016              		.thumb_func
 1017              		.type	CyBle_Hal_pairing_local_public_key_handler, %function
ARM GAS  C:\Users\mohammed\AppData\Local\Temp\cctb0af1.s 			page 27


 1018              	CyBle_Hal_pairing_local_public_key_handler:
 1019              	.LFB16:
 458:.\Generated_Source\PSoC4/CYBLE_HAL_PVT.c **** 
 459:.\Generated_Source\PSoC4/CYBLE_HAL_PVT.c **** /* Mapping functions for stack size optimization */
 460:.\Generated_Source\PSoC4/CYBLE_HAL_PVT.c **** #if(CYBLE_MODE_PROFILE)
 461:.\Generated_Source\PSoC4/CYBLE_HAL_PVT.c ****     
 462:.\Generated_Source\PSoC4/CYBLE_HAL_PVT.c **** #if(CYBLE_SECURE_CONN_FEATURE_ENABLED)
 463:.\Generated_Source\PSoC4/CYBLE_HAL_PVT.c ****     
 464:.\Generated_Source\PSoC4/CYBLE_HAL_PVT.c ****     CYBLE_API_RESULT_T CyBle_Hal_pairing_local_public_key_handler(void *param)
 465:.\Generated_Source\PSoC4/CYBLE_HAL_PVT.c ****     {
 466:.\Generated_Source\PSoC4/CYBLE_HAL_PVT.c ****         return (CyBle_Hal_mapping_pairing_local_public_key_handler(param));
 467:.\Generated_Source\PSoC4/CYBLE_HAL_PVT.c ****     }
 468:.\Generated_Source\PSoC4/CYBLE_HAL_PVT.c ****      
 469:.\Generated_Source\PSoC4/CYBLE_HAL_PVT.c ****     CYBLE_API_RESULT_T CyBle_Hal_pairing_remote_key_handler(void *param)
 470:.\Generated_Source\PSoC4/CYBLE_HAL_PVT.c ****     {
 471:.\Generated_Source\PSoC4/CYBLE_HAL_PVT.c ****         return (CyBle_Hal_mapping_pairing_remote_key_handler(param));
 472:.\Generated_Source\PSoC4/CYBLE_HAL_PVT.c ****     }
 473:.\Generated_Source\PSoC4/CYBLE_HAL_PVT.c ****      
 474:.\Generated_Source\PSoC4/CYBLE_HAL_PVT.c ****     CYBLE_API_RESULT_T CyBle_Hal_pairing_dhkey_handler(void *param)
 475:.\Generated_Source\PSoC4/CYBLE_HAL_PVT.c ****     {
 476:.\Generated_Source\PSoC4/CYBLE_HAL_PVT.c ****         return (CyBle_Hal_mapping_pairing_dhkey_handler(param));
 477:.\Generated_Source\PSoC4/CYBLE_HAL_PVT.c ****     }
 478:.\Generated_Source\PSoC4/CYBLE_HAL_PVT.c **** 
 479:.\Generated_Source\PSoC4/CYBLE_HAL_PVT.c ****     CYBLE_API_RESULT_T CyBle_Hal_pairing_dhkey_check_handler(void *param)
 480:.\Generated_Source\PSoC4/CYBLE_HAL_PVT.c ****     {
 481:.\Generated_Source\PSoC4/CYBLE_HAL_PVT.c ****         return (CyBle_Hal_mapping_pairing_dhkey_check_handler(param));
 482:.\Generated_Source\PSoC4/CYBLE_HAL_PVT.c ****     }
 483:.\Generated_Source\PSoC4/CYBLE_HAL_PVT.c **** 
 484:.\Generated_Source\PSoC4/CYBLE_HAL_PVT.c ****     CYBLE_API_RESULT_T CyBle_Hal_pairing_keypress_notification_handler(void *param)
 485:.\Generated_Source\PSoC4/CYBLE_HAL_PVT.c ****     {
 486:.\Generated_Source\PSoC4/CYBLE_HAL_PVT.c ****         return (CyBle_Hal_mapping_pairing_keypress_notification_handler(param));
 487:.\Generated_Source\PSoC4/CYBLE_HAL_PVT.c ****     }
 488:.\Generated_Source\PSoC4/CYBLE_HAL_PVT.c **** 
 489:.\Generated_Source\PSoC4/CYBLE_HAL_PVT.c ****     CYBLE_API_RESULT_T CyBle_Hal_pairing_rand_handler(void *param)
 490:.\Generated_Source\PSoC4/CYBLE_HAL_PVT.c ****     {
 491:.\Generated_Source\PSoC4/CYBLE_HAL_PVT.c ****         return (CyBle_Hal_mapping_pairing_rand_handler(param));
 492:.\Generated_Source\PSoC4/CYBLE_HAL_PVT.c ****     }
 493:.\Generated_Source\PSoC4/CYBLE_HAL_PVT.c **** 
 494:.\Generated_Source\PSoC4/CYBLE_HAL_PVT.c ****     CYBLE_API_RESULT_T CyBle_Hal_pairing_confirm_handler(void *param)
 495:.\Generated_Source\PSoC4/CYBLE_HAL_PVT.c ****     {
 496:.\Generated_Source\PSoC4/CYBLE_HAL_PVT.c ****         return (CyBle_Hal_mapping_pairing_confirm_handler(param));
 497:.\Generated_Source\PSoC4/CYBLE_HAL_PVT.c ****     }
 498:.\Generated_Source\PSoC4/CYBLE_HAL_PVT.c **** 
 499:.\Generated_Source\PSoC4/CYBLE_HAL_PVT.c ****     CYBLE_API_RESULT_T CyBle_Hal_pairing_lr_confirming_handler(void *param)
 500:.\Generated_Source\PSoC4/CYBLE_HAL_PVT.c ****     {
 501:.\Generated_Source\PSoC4/CYBLE_HAL_PVT.c ****         return (CyBle_Hal_mapping_pairing_lr_confirming_handler(param));
 502:.\Generated_Source\PSoC4/CYBLE_HAL_PVT.c ****     }
 503:.\Generated_Source\PSoC4/CYBLE_HAL_PVT.c ****     
 504:.\Generated_Source\PSoC4/CYBLE_HAL_PVT.c ****     CYBLE_API_RESULT_T CyBle_Hal_pairing_sc_tbx_dhkey_generate_complete(void* param)
 505:.\Generated_Source\PSoC4/CYBLE_HAL_PVT.c ****     {
 506:.\Generated_Source\PSoC4/CYBLE_HAL_PVT.c ****         CyBle_Hal_mapping_tbx_dhkey_generate_complete(param);
 507:.\Generated_Source\PSoC4/CYBLE_HAL_PVT.c ****         return (CYBLE_ERROR_OK);
 508:.\Generated_Source\PSoC4/CYBLE_HAL_PVT.c ****     }
 509:.\Generated_Source\PSoC4/CYBLE_HAL_PVT.c **** 
 510:.\Generated_Source\PSoC4/CYBLE_HAL_PVT.c ****     CYBLE_API_RESULT_T CyBle_Hal_pairing_sc_tbx_local_pubkey_generate_complete(void)
 511:.\Generated_Source\PSoC4/CYBLE_HAL_PVT.c ****     {
 512:.\Generated_Source\PSoC4/CYBLE_HAL_PVT.c ****         CyBle_Hal_mapping_tbx_local_pubkey_generate_complete();
ARM GAS  C:\Users\mohammed\AppData\Local\Temp\cctb0af1.s 			page 28


 513:.\Generated_Source\PSoC4/CYBLE_HAL_PVT.c ****         return (CYBLE_ERROR_OK);
 514:.\Generated_Source\PSoC4/CYBLE_HAL_PVT.c ****     }
 515:.\Generated_Source\PSoC4/CYBLE_HAL_PVT.c **** 
 516:.\Generated_Source\PSoC4/CYBLE_HAL_PVT.c ****     CYBLE_API_RESULT_T CyBle_Hal_pairing_sc_tbx_generate_local_P256_public_key(uint8 param)
 517:.\Generated_Source\PSoC4/CYBLE_HAL_PVT.c ****     {
 518:.\Generated_Source\PSoC4/CYBLE_HAL_PVT.c ****         return (CyBle_Hal_mapping_tbx_generate_local_P256_public_key(param));
 519:.\Generated_Source\PSoC4/CYBLE_HAL_PVT.c ****     }
 520:.\Generated_Source\PSoC4/CYBLE_HAL_PVT.c **** 
 521:.\Generated_Source\PSoC4/CYBLE_HAL_PVT.c ****     CYBLE_API_RESULT_T CyBle_Hal_pairing_sc_tbx_generate_DHkey(void  * param1, void  * param2)
 522:.\Generated_Source\PSoC4/CYBLE_HAL_PVT.c ****     {
 523:.\Generated_Source\PSoC4/CYBLE_HAL_PVT.c ****         return (CyBle_Hal_mapping_tbx_generate_DHkey(param1, param2));
 524:.\Generated_Source\PSoC4/CYBLE_HAL_PVT.c ****     }
 525:.\Generated_Source\PSoC4/CYBLE_HAL_PVT.c **** 
 526:.\Generated_Source\PSoC4/CYBLE_HAL_PVT.c ****     void CyBle_Hal_smp_sc_cmac_complete(void)
 527:.\Generated_Source\PSoC4/CYBLE_HAL_PVT.c ****     {
 528:.\Generated_Source\PSoC4/CYBLE_HAL_PVT.c ****        CyBle_Hal_Mapping_smp_sc_cmac_complete();
 529:.\Generated_Source\PSoC4/CYBLE_HAL_PVT.c ****     }
 530:.\Generated_Source\PSoC4/CYBLE_HAL_PVT.c **** 
 531:.\Generated_Source\PSoC4/CYBLE_HAL_PVT.c ****     CYBLE_API_RESULT_T CyBle_Hal_se_smp_sc_user_passkey_handler(void *param1, void *param2)
 532:.\Generated_Source\PSoC4/CYBLE_HAL_PVT.c ****     {
 533:.\Generated_Source\PSoC4/CYBLE_HAL_PVT.c ****         return (CyBle_Hal_mapping_se_smp_sc_user_passkey_handler(param1, param2));
 534:.\Generated_Source\PSoC4/CYBLE_HAL_PVT.c ****     }
 535:.\Generated_Source\PSoC4/CYBLE_HAL_PVT.c **** 
 536:.\Generated_Source\PSoC4/CYBLE_HAL_PVT.c ****     void CyBle_Hal_EccPointMult(void)
 537:.\Generated_Source\PSoC4/CYBLE_HAL_PVT.c ****     {
 538:.\Generated_Source\PSoC4/CYBLE_HAL_PVT.c ****         CyBle_Hal_Mapping_EccPointMult();
 539:.\Generated_Source\PSoC4/CYBLE_HAL_PVT.c ****     }
 540:.\Generated_Source\PSoC4/CYBLE_HAL_PVT.c ****     
 541:.\Generated_Source\PSoC4/CYBLE_HAL_PVT.c **** #else     /* If feature is not required, return error. */
 542:.\Generated_Source\PSoC4/CYBLE_HAL_PVT.c ****     
 543:.\Generated_Source\PSoC4/CYBLE_HAL_PVT.c ****     CYBLE_API_RESULT_T CyBle_Hal_pairing_local_public_key_handler(void *param CYBLE_UNUSED_ATTR)
 544:.\Generated_Source\PSoC4/CYBLE_HAL_PVT.c ****     {
 1020              		.loc 1 544 0
 1021              		.cfi_startproc
 1022 0000 80B5     		push	{r7, lr}
 1023              		.cfi_def_cfa_offset 8
 1024              		.cfi_offset 7, -8
 1025              		.cfi_offset 14, -4
 1026 0002 82B0     		sub	sp, sp, #8
 1027              		.cfi_def_cfa_offset 16
 1028 0004 00AF     		add	r7, sp, #0
 1029              		.cfi_def_cfa_register 7
 1030 0006 7860     		str	r0, [r7, #4]
 545:.\Generated_Source\PSoC4/CYBLE_HAL_PVT.c ****         return (CYBLE_ERROR_UNSUPPORTED_FEATURE_OR_PARAMETER_VALUE);
 1031              		.loc 1 545 0
 1032 0008 2B23     		mov	r3, #43
 546:.\Generated_Source\PSoC4/CYBLE_HAL_PVT.c ****     }
 1033              		.loc 1 546 0
 1034 000a 181C     		mov	r0, r3
 1035 000c BD46     		mov	sp, r7
 1036 000e 02B0     		add	sp, sp, #8
 1037              		@ sp needed
 1038 0010 80BD     		pop	{r7, pc}
 1039              		.cfi_endproc
 1040              	.LFE16:
 1041              		.size	CyBle_Hal_pairing_local_public_key_handler, .-CyBle_Hal_pairing_local_public_key_handler
 1042 0012 C046     		.section	.text.CyBle_Hal_pairing_remote_key_handler,"ax",%progbits
ARM GAS  C:\Users\mohammed\AppData\Local\Temp\cctb0af1.s 			page 29


 1043              		.align	2
 1044              		.global	CyBle_Hal_pairing_remote_key_handler
 1045              		.code	16
 1046              		.thumb_func
 1047              		.type	CyBle_Hal_pairing_remote_key_handler, %function
 1048              	CyBle_Hal_pairing_remote_key_handler:
 1049              	.LFB17:
 547:.\Generated_Source\PSoC4/CYBLE_HAL_PVT.c ****      
 548:.\Generated_Source\PSoC4/CYBLE_HAL_PVT.c ****     CYBLE_API_RESULT_T CyBle_Hal_pairing_remote_key_handler(void *param CYBLE_UNUSED_ATTR)
 549:.\Generated_Source\PSoC4/CYBLE_HAL_PVT.c ****     {
 1050              		.loc 1 549 0
 1051              		.cfi_startproc
 1052 0000 80B5     		push	{r7, lr}
 1053              		.cfi_def_cfa_offset 8
 1054              		.cfi_offset 7, -8
 1055              		.cfi_offset 14, -4
 1056 0002 82B0     		sub	sp, sp, #8
 1057              		.cfi_def_cfa_offset 16
 1058 0004 00AF     		add	r7, sp, #0
 1059              		.cfi_def_cfa_register 7
 1060 0006 7860     		str	r0, [r7, #4]
 550:.\Generated_Source\PSoC4/CYBLE_HAL_PVT.c ****         return (CYBLE_ERROR_UNSUPPORTED_FEATURE_OR_PARAMETER_VALUE);
 1061              		.loc 1 550 0
 1062 0008 2B23     		mov	r3, #43
 551:.\Generated_Source\PSoC4/CYBLE_HAL_PVT.c ****     }
 1063              		.loc 1 551 0
 1064 000a 181C     		mov	r0, r3
 1065 000c BD46     		mov	sp, r7
 1066 000e 02B0     		add	sp, sp, #8
 1067              		@ sp needed
 1068 0010 80BD     		pop	{r7, pc}
 1069              		.cfi_endproc
 1070              	.LFE17:
 1071              		.size	CyBle_Hal_pairing_remote_key_handler, .-CyBle_Hal_pairing_remote_key_handler
 1072 0012 C046     		.section	.text.CyBle_Hal_pairing_dhkey_handler,"ax",%progbits
 1073              		.align	2
 1074              		.global	CyBle_Hal_pairing_dhkey_handler
 1075              		.code	16
 1076              		.thumb_func
 1077              		.type	CyBle_Hal_pairing_dhkey_handler, %function
 1078              	CyBle_Hal_pairing_dhkey_handler:
 1079              	.LFB18:
 552:.\Generated_Source\PSoC4/CYBLE_HAL_PVT.c ****      
 553:.\Generated_Source\PSoC4/CYBLE_HAL_PVT.c ****     CYBLE_API_RESULT_T CyBle_Hal_pairing_dhkey_handler(void *param CYBLE_UNUSED_ATTR)
 554:.\Generated_Source\PSoC4/CYBLE_HAL_PVT.c ****     {
 1080              		.loc 1 554 0
 1081              		.cfi_startproc
 1082 0000 80B5     		push	{r7, lr}
 1083              		.cfi_def_cfa_offset 8
 1084              		.cfi_offset 7, -8
 1085              		.cfi_offset 14, -4
 1086 0002 82B0     		sub	sp, sp, #8
 1087              		.cfi_def_cfa_offset 16
 1088 0004 00AF     		add	r7, sp, #0
 1089              		.cfi_def_cfa_register 7
 1090 0006 7860     		str	r0, [r7, #4]
 555:.\Generated_Source\PSoC4/CYBLE_HAL_PVT.c ****         return (CYBLE_ERROR_UNSUPPORTED_FEATURE_OR_PARAMETER_VALUE);
ARM GAS  C:\Users\mohammed\AppData\Local\Temp\cctb0af1.s 			page 30


 1091              		.loc 1 555 0
 1092 0008 2B23     		mov	r3, #43
 556:.\Generated_Source\PSoC4/CYBLE_HAL_PVT.c ****     }
 1093              		.loc 1 556 0
 1094 000a 181C     		mov	r0, r3
 1095 000c BD46     		mov	sp, r7
 1096 000e 02B0     		add	sp, sp, #8
 1097              		@ sp needed
 1098 0010 80BD     		pop	{r7, pc}
 1099              		.cfi_endproc
 1100              	.LFE18:
 1101              		.size	CyBle_Hal_pairing_dhkey_handler, .-CyBle_Hal_pairing_dhkey_handler
 1102 0012 C046     		.section	.text.CyBle_Hal_pairing_dhkey_check_handler,"ax",%progbits
 1103              		.align	2
 1104              		.global	CyBle_Hal_pairing_dhkey_check_handler
 1105              		.code	16
 1106              		.thumb_func
 1107              		.type	CyBle_Hal_pairing_dhkey_check_handler, %function
 1108              	CyBle_Hal_pairing_dhkey_check_handler:
 1109              	.LFB19:
 557:.\Generated_Source\PSoC4/CYBLE_HAL_PVT.c **** 
 558:.\Generated_Source\PSoC4/CYBLE_HAL_PVT.c ****     CYBLE_API_RESULT_T CyBle_Hal_pairing_dhkey_check_handler(void *param CYBLE_UNUSED_ATTR)
 559:.\Generated_Source\PSoC4/CYBLE_HAL_PVT.c ****     {
 1110              		.loc 1 559 0
 1111              		.cfi_startproc
 1112 0000 80B5     		push	{r7, lr}
 1113              		.cfi_def_cfa_offset 8
 1114              		.cfi_offset 7, -8
 1115              		.cfi_offset 14, -4
 1116 0002 82B0     		sub	sp, sp, #8
 1117              		.cfi_def_cfa_offset 16
 1118 0004 00AF     		add	r7, sp, #0
 1119              		.cfi_def_cfa_register 7
 1120 0006 7860     		str	r0, [r7, #4]
 560:.\Generated_Source\PSoC4/CYBLE_HAL_PVT.c ****         return (CYBLE_ERROR_UNSUPPORTED_FEATURE_OR_PARAMETER_VALUE);
 1121              		.loc 1 560 0
 1122 0008 2B23     		mov	r3, #43
 561:.\Generated_Source\PSoC4/CYBLE_HAL_PVT.c ****     }
 1123              		.loc 1 561 0
 1124 000a 181C     		mov	r0, r3
 1125 000c BD46     		mov	sp, r7
 1126 000e 02B0     		add	sp, sp, #8
 1127              		@ sp needed
 1128 0010 80BD     		pop	{r7, pc}
 1129              		.cfi_endproc
 1130              	.LFE19:
 1131              		.size	CyBle_Hal_pairing_dhkey_check_handler, .-CyBle_Hal_pairing_dhkey_check_handler
 1132 0012 C046     		.section	.text.CyBle_Hal_pairing_keypress_notification_handler,"ax",%progbits
 1133              		.align	2
 1134              		.global	CyBle_Hal_pairing_keypress_notification_handler
 1135              		.code	16
 1136              		.thumb_func
 1137              		.type	CyBle_Hal_pairing_keypress_notification_handler, %function
 1138              	CyBle_Hal_pairing_keypress_notification_handler:
 1139              	.LFB20:
 562:.\Generated_Source\PSoC4/CYBLE_HAL_PVT.c **** 
 563:.\Generated_Source\PSoC4/CYBLE_HAL_PVT.c ****     CYBLE_API_RESULT_T CyBle_Hal_pairing_keypress_notification_handler(void *param CYBLE_UNUSED_ATT
ARM GAS  C:\Users\mohammed\AppData\Local\Temp\cctb0af1.s 			page 31


 564:.\Generated_Source\PSoC4/CYBLE_HAL_PVT.c ****     {
 1140              		.loc 1 564 0
 1141              		.cfi_startproc
 1142 0000 80B5     		push	{r7, lr}
 1143              		.cfi_def_cfa_offset 8
 1144              		.cfi_offset 7, -8
 1145              		.cfi_offset 14, -4
 1146 0002 82B0     		sub	sp, sp, #8
 1147              		.cfi_def_cfa_offset 16
 1148 0004 00AF     		add	r7, sp, #0
 1149              		.cfi_def_cfa_register 7
 1150 0006 7860     		str	r0, [r7, #4]
 565:.\Generated_Source\PSoC4/CYBLE_HAL_PVT.c ****         return (CYBLE_ERROR_UNSUPPORTED_FEATURE_OR_PARAMETER_VALUE);
 1151              		.loc 1 565 0
 1152 0008 2B23     		mov	r3, #43
 566:.\Generated_Source\PSoC4/CYBLE_HAL_PVT.c ****     }
 1153              		.loc 1 566 0
 1154 000a 181C     		mov	r0, r3
 1155 000c BD46     		mov	sp, r7
 1156 000e 02B0     		add	sp, sp, #8
 1157              		@ sp needed
 1158 0010 80BD     		pop	{r7, pc}
 1159              		.cfi_endproc
 1160              	.LFE20:
 1161              		.size	CyBle_Hal_pairing_keypress_notification_handler, .-CyBle_Hal_pairing_keypress_notification_h
 1162 0012 C046     		.section	.text.CyBle_Hal_pairing_rand_handler,"ax",%progbits
 1163              		.align	2
 1164              		.global	CyBle_Hal_pairing_rand_handler
 1165              		.code	16
 1166              		.thumb_func
 1167              		.type	CyBle_Hal_pairing_rand_handler, %function
 1168              	CyBle_Hal_pairing_rand_handler:
 1169              	.LFB21:
 567:.\Generated_Source\PSoC4/CYBLE_HAL_PVT.c **** 
 568:.\Generated_Source\PSoC4/CYBLE_HAL_PVT.c ****     CYBLE_API_RESULT_T CyBle_Hal_pairing_rand_handler(void *param CYBLE_UNUSED_ATTR)
 569:.\Generated_Source\PSoC4/CYBLE_HAL_PVT.c ****     {
 1170              		.loc 1 569 0
 1171              		.cfi_startproc
 1172 0000 80B5     		push	{r7, lr}
 1173              		.cfi_def_cfa_offset 8
 1174              		.cfi_offset 7, -8
 1175              		.cfi_offset 14, -4
 1176 0002 82B0     		sub	sp, sp, #8
 1177              		.cfi_def_cfa_offset 16
 1178 0004 00AF     		add	r7, sp, #0
 1179              		.cfi_def_cfa_register 7
 1180 0006 7860     		str	r0, [r7, #4]
 570:.\Generated_Source\PSoC4/CYBLE_HAL_PVT.c ****         return (CYBLE_ERROR_UNSUPPORTED_FEATURE_OR_PARAMETER_VALUE);
 1181              		.loc 1 570 0
 1182 0008 2B23     		mov	r3, #43
 571:.\Generated_Source\PSoC4/CYBLE_HAL_PVT.c ****     }
 1183              		.loc 1 571 0
 1184 000a 181C     		mov	r0, r3
 1185 000c BD46     		mov	sp, r7
 1186 000e 02B0     		add	sp, sp, #8
 1187              		@ sp needed
 1188 0010 80BD     		pop	{r7, pc}
ARM GAS  C:\Users\mohammed\AppData\Local\Temp\cctb0af1.s 			page 32


 1189              		.cfi_endproc
 1190              	.LFE21:
 1191              		.size	CyBle_Hal_pairing_rand_handler, .-CyBle_Hal_pairing_rand_handler
 1192 0012 C046     		.section	.text.CyBle_Hal_pairing_confirm_handler,"ax",%progbits
 1193              		.align	2
 1194              		.global	CyBle_Hal_pairing_confirm_handler
 1195              		.code	16
 1196              		.thumb_func
 1197              		.type	CyBle_Hal_pairing_confirm_handler, %function
 1198              	CyBle_Hal_pairing_confirm_handler:
 1199              	.LFB22:
 572:.\Generated_Source\PSoC4/CYBLE_HAL_PVT.c ****     
 573:.\Generated_Source\PSoC4/CYBLE_HAL_PVT.c ****     CYBLE_API_RESULT_T CyBle_Hal_pairing_confirm_handler(void *param CYBLE_UNUSED_ATTR)
 574:.\Generated_Source\PSoC4/CYBLE_HAL_PVT.c ****     {
 1200              		.loc 1 574 0
 1201              		.cfi_startproc
 1202 0000 80B5     		push	{r7, lr}
 1203              		.cfi_def_cfa_offset 8
 1204              		.cfi_offset 7, -8
 1205              		.cfi_offset 14, -4
 1206 0002 82B0     		sub	sp, sp, #8
 1207              		.cfi_def_cfa_offset 16
 1208 0004 00AF     		add	r7, sp, #0
 1209              		.cfi_def_cfa_register 7
 1210 0006 7860     		str	r0, [r7, #4]
 575:.\Generated_Source\PSoC4/CYBLE_HAL_PVT.c ****         return (CYBLE_ERROR_UNSUPPORTED_FEATURE_OR_PARAMETER_VALUE);
 1211              		.loc 1 575 0
 1212 0008 2B23     		mov	r3, #43
 576:.\Generated_Source\PSoC4/CYBLE_HAL_PVT.c ****     }
 1213              		.loc 1 576 0
 1214 000a 181C     		mov	r0, r3
 1215 000c BD46     		mov	sp, r7
 1216 000e 02B0     		add	sp, sp, #8
 1217              		@ sp needed
 1218 0010 80BD     		pop	{r7, pc}
 1219              		.cfi_endproc
 1220              	.LFE22:
 1221              		.size	CyBle_Hal_pairing_confirm_handler, .-CyBle_Hal_pairing_confirm_handler
 1222 0012 C046     		.section	.text.CyBle_Hal_pairing_lr_confirming_handler,"ax",%progbits
 1223              		.align	2
 1224              		.global	CyBle_Hal_pairing_lr_confirming_handler
 1225              		.code	16
 1226              		.thumb_func
 1227              		.type	CyBle_Hal_pairing_lr_confirming_handler, %function
 1228              	CyBle_Hal_pairing_lr_confirming_handler:
 1229              	.LFB23:
 577:.\Generated_Source\PSoC4/CYBLE_HAL_PVT.c **** 
 578:.\Generated_Source\PSoC4/CYBLE_HAL_PVT.c ****     CYBLE_API_RESULT_T CyBle_Hal_pairing_lr_confirming_handler(void *param CYBLE_UNUSED_ATTR)
 579:.\Generated_Source\PSoC4/CYBLE_HAL_PVT.c ****     {
 1230              		.loc 1 579 0
 1231              		.cfi_startproc
 1232 0000 80B5     		push	{r7, lr}
 1233              		.cfi_def_cfa_offset 8
 1234              		.cfi_offset 7, -8
 1235              		.cfi_offset 14, -4
 1236 0002 82B0     		sub	sp, sp, #8
 1237              		.cfi_def_cfa_offset 16
ARM GAS  C:\Users\mohammed\AppData\Local\Temp\cctb0af1.s 			page 33


 1238 0004 00AF     		add	r7, sp, #0
 1239              		.cfi_def_cfa_register 7
 1240 0006 7860     		str	r0, [r7, #4]
 580:.\Generated_Source\PSoC4/CYBLE_HAL_PVT.c ****         return (CYBLE_ERROR_UNSUPPORTED_FEATURE_OR_PARAMETER_VALUE);
 1241              		.loc 1 580 0
 1242 0008 2B23     		mov	r3, #43
 581:.\Generated_Source\PSoC4/CYBLE_HAL_PVT.c ****     }
 1243              		.loc 1 581 0
 1244 000a 181C     		mov	r0, r3
 1245 000c BD46     		mov	sp, r7
 1246 000e 02B0     		add	sp, sp, #8
 1247              		@ sp needed
 1248 0010 80BD     		pop	{r7, pc}
 1249              		.cfi_endproc
 1250              	.LFE23:
 1251              		.size	CyBle_Hal_pairing_lr_confirming_handler, .-CyBle_Hal_pairing_lr_confirming_handler
 1252 0012 C046     		.section	.text.CyBle_Hal_pairing_sc_tbx_dhkey_generate_complete,"ax",%progbits
 1253              		.align	2
 1254              		.global	CyBle_Hal_pairing_sc_tbx_dhkey_generate_complete
 1255              		.code	16
 1256              		.thumb_func
 1257              		.type	CyBle_Hal_pairing_sc_tbx_dhkey_generate_complete, %function
 1258              	CyBle_Hal_pairing_sc_tbx_dhkey_generate_complete:
 1259              	.LFB24:
 582:.\Generated_Source\PSoC4/CYBLE_HAL_PVT.c ****     
 583:.\Generated_Source\PSoC4/CYBLE_HAL_PVT.c ****     CYBLE_API_RESULT_T CyBle_Hal_pairing_sc_tbx_dhkey_generate_complete(void* param CYBLE_UNUSED_AT
 584:.\Generated_Source\PSoC4/CYBLE_HAL_PVT.c ****     {
 1260              		.loc 1 584 0
 1261              		.cfi_startproc
 1262 0000 80B5     		push	{r7, lr}
 1263              		.cfi_def_cfa_offset 8
 1264              		.cfi_offset 7, -8
 1265              		.cfi_offset 14, -4
 1266 0002 82B0     		sub	sp, sp, #8
 1267              		.cfi_def_cfa_offset 16
 1268 0004 00AF     		add	r7, sp, #0
 1269              		.cfi_def_cfa_register 7
 1270 0006 7860     		str	r0, [r7, #4]
 585:.\Generated_Source\PSoC4/CYBLE_HAL_PVT.c ****         return (CYBLE_ERROR_UNSUPPORTED_FEATURE_OR_PARAMETER_VALUE);
 1271              		.loc 1 585 0
 1272 0008 2B23     		mov	r3, #43
 586:.\Generated_Source\PSoC4/CYBLE_HAL_PVT.c ****     }
 1273              		.loc 1 586 0
 1274 000a 181C     		mov	r0, r3
 1275 000c BD46     		mov	sp, r7
 1276 000e 02B0     		add	sp, sp, #8
 1277              		@ sp needed
 1278 0010 80BD     		pop	{r7, pc}
 1279              		.cfi_endproc
 1280              	.LFE24:
 1281              		.size	CyBle_Hal_pairing_sc_tbx_dhkey_generate_complete, .-CyBle_Hal_pairing_sc_tbx_dhkey_generate_
 1282 0012 C046     		.section	.text.CyBle_Hal_pairing_sc_tbx_local_pubkey_generate_complete,"ax",%progbits
 1283              		.align	2
 1284              		.global	CyBle_Hal_pairing_sc_tbx_local_pubkey_generate_complete
 1285              		.code	16
 1286              		.thumb_func
 1287              		.type	CyBle_Hal_pairing_sc_tbx_local_pubkey_generate_complete, %function
ARM GAS  C:\Users\mohammed\AppData\Local\Temp\cctb0af1.s 			page 34


 1288              	CyBle_Hal_pairing_sc_tbx_local_pubkey_generate_complete:
 1289              	.LFB25:
 587:.\Generated_Source\PSoC4/CYBLE_HAL_PVT.c **** 
 588:.\Generated_Source\PSoC4/CYBLE_HAL_PVT.c ****     CYBLE_API_RESULT_T CyBle_Hal_pairing_sc_tbx_local_pubkey_generate_complete(void)
 589:.\Generated_Source\PSoC4/CYBLE_HAL_PVT.c ****     {
 1290              		.loc 1 589 0
 1291              		.cfi_startproc
 1292 0000 80B5     		push	{r7, lr}
 1293              		.cfi_def_cfa_offset 8
 1294              		.cfi_offset 7, -8
 1295              		.cfi_offset 14, -4
 1296 0002 00AF     		add	r7, sp, #0
 1297              		.cfi_def_cfa_register 7
 590:.\Generated_Source\PSoC4/CYBLE_HAL_PVT.c ****         return (CYBLE_ERROR_UNSUPPORTED_FEATURE_OR_PARAMETER_VALUE);
 1298              		.loc 1 590 0
 1299 0004 2B23     		mov	r3, #43
 591:.\Generated_Source\PSoC4/CYBLE_HAL_PVT.c ****     }
 1300              		.loc 1 591 0
 1301 0006 181C     		mov	r0, r3
 1302 0008 BD46     		mov	sp, r7
 1303              		@ sp needed
 1304 000a 80BD     		pop	{r7, pc}
 1305              		.cfi_endproc
 1306              	.LFE25:
 1307              		.size	CyBle_Hal_pairing_sc_tbx_local_pubkey_generate_complete, .-CyBle_Hal_pairing_sc_tbx_local_pu
 1308              		.section	.text.CyBle_Hal_pairing_sc_tbx_generate_local_P256_public_key,"ax",%progbits
 1309              		.align	2
 1310              		.global	CyBle_Hal_pairing_sc_tbx_generate_local_P256_public_key
 1311              		.code	16
 1312              		.thumb_func
 1313              		.type	CyBle_Hal_pairing_sc_tbx_generate_local_P256_public_key, %function
 1314              	CyBle_Hal_pairing_sc_tbx_generate_local_P256_public_key:
 1315              	.LFB26:
 592:.\Generated_Source\PSoC4/CYBLE_HAL_PVT.c **** 
 593:.\Generated_Source\PSoC4/CYBLE_HAL_PVT.c ****     CYBLE_API_RESULT_T CyBle_Hal_pairing_sc_tbx_generate_local_P256_public_key(uint8 param CYBLE_UN
 594:.\Generated_Source\PSoC4/CYBLE_HAL_PVT.c ****     {
 1316              		.loc 1 594 0
 1317              		.cfi_startproc
 1318 0000 80B5     		push	{r7, lr}
 1319              		.cfi_def_cfa_offset 8
 1320              		.cfi_offset 7, -8
 1321              		.cfi_offset 14, -4
 1322 0002 82B0     		sub	sp, sp, #8
 1323              		.cfi_def_cfa_offset 16
 1324 0004 00AF     		add	r7, sp, #0
 1325              		.cfi_def_cfa_register 7
 1326 0006 021C     		mov	r2, r0
 1327 0008 FB1D     		add	r3, r7, #7
 1328 000a 1A70     		strb	r2, [r3]
 595:.\Generated_Source\PSoC4/CYBLE_HAL_PVT.c ****         return (CYBLE_ERROR_UNSUPPORTED_FEATURE_OR_PARAMETER_VALUE);
 1329              		.loc 1 595 0
 1330 000c 2B23     		mov	r3, #43
 596:.\Generated_Source\PSoC4/CYBLE_HAL_PVT.c ****     }
 1331              		.loc 1 596 0
 1332 000e 181C     		mov	r0, r3
 1333 0010 BD46     		mov	sp, r7
 1334 0012 02B0     		add	sp, sp, #8
ARM GAS  C:\Users\mohammed\AppData\Local\Temp\cctb0af1.s 			page 35


 1335              		@ sp needed
 1336 0014 80BD     		pop	{r7, pc}
 1337              		.cfi_endproc
 1338              	.LFE26:
 1339              		.size	CyBle_Hal_pairing_sc_tbx_generate_local_P256_public_key, .-CyBle_Hal_pairing_sc_tbx_generate
 1340 0016 C046     		.section	.text.CyBle_Hal_pairing_sc_tbx_generate_DHkey,"ax",%progbits
 1341              		.align	2
 1342              		.global	CyBle_Hal_pairing_sc_tbx_generate_DHkey
 1343              		.code	16
 1344              		.thumb_func
 1345              		.type	CyBle_Hal_pairing_sc_tbx_generate_DHkey, %function
 1346              	CyBle_Hal_pairing_sc_tbx_generate_DHkey:
 1347              	.LFB27:
 597:.\Generated_Source\PSoC4/CYBLE_HAL_PVT.c **** 
 598:.\Generated_Source\PSoC4/CYBLE_HAL_PVT.c ****     CYBLE_API_RESULT_T CyBle_Hal_pairing_sc_tbx_generate_DHkey(void  * param1 CYBLE_UNUSED_ATTR,
 599:.\Generated_Source\PSoC4/CYBLE_HAL_PVT.c ****                                                                void  * param2 CYBLE_UNUSED_ATTR)
 600:.\Generated_Source\PSoC4/CYBLE_HAL_PVT.c ****     {
 1348              		.loc 1 600 0
 1349              		.cfi_startproc
 1350 0000 80B5     		push	{r7, lr}
 1351              		.cfi_def_cfa_offset 8
 1352              		.cfi_offset 7, -8
 1353              		.cfi_offset 14, -4
 1354 0002 82B0     		sub	sp, sp, #8
 1355              		.cfi_def_cfa_offset 16
 1356 0004 00AF     		add	r7, sp, #0
 1357              		.cfi_def_cfa_register 7
 1358 0006 7860     		str	r0, [r7, #4]
 1359 0008 3960     		str	r1, [r7]
 601:.\Generated_Source\PSoC4/CYBLE_HAL_PVT.c ****         return (CYBLE_ERROR_UNSUPPORTED_FEATURE_OR_PARAMETER_VALUE);
 1360              		.loc 1 601 0
 1361 000a 2B23     		mov	r3, #43
 602:.\Generated_Source\PSoC4/CYBLE_HAL_PVT.c ****     }
 1362              		.loc 1 602 0
 1363 000c 181C     		mov	r0, r3
 1364 000e BD46     		mov	sp, r7
 1365 0010 02B0     		add	sp, sp, #8
 1366              		@ sp needed
 1367 0012 80BD     		pop	{r7, pc}
 1368              		.cfi_endproc
 1369              	.LFE27:
 1370              		.size	CyBle_Hal_pairing_sc_tbx_generate_DHkey, .-CyBle_Hal_pairing_sc_tbx_generate_DHkey
 1371              		.section	.text.CyBle_Hal_smp_sc_cmac_complete,"ax",%progbits
 1372              		.align	2
 1373              		.global	CyBle_Hal_smp_sc_cmac_complete
 1374              		.code	16
 1375              		.thumb_func
 1376              		.type	CyBle_Hal_smp_sc_cmac_complete, %function
 1377              	CyBle_Hal_smp_sc_cmac_complete:
 1378              	.LFB28:
 603:.\Generated_Source\PSoC4/CYBLE_HAL_PVT.c **** 
 604:.\Generated_Source\PSoC4/CYBLE_HAL_PVT.c ****     void CyBle_Hal_smp_sc_cmac_complete(void)
 605:.\Generated_Source\PSoC4/CYBLE_HAL_PVT.c ****     {
 1379              		.loc 1 605 0
 1380              		.cfi_startproc
 1381 0000 80B5     		push	{r7, lr}
 1382              		.cfi_def_cfa_offset 8
ARM GAS  C:\Users\mohammed\AppData\Local\Temp\cctb0af1.s 			page 36


 1383              		.cfi_offset 7, -8
 1384              		.cfi_offset 14, -4
 1385 0002 00AF     		add	r7, sp, #0
 1386              		.cfi_def_cfa_register 7
 606:.\Generated_Source\PSoC4/CYBLE_HAL_PVT.c ****     }
 1387              		.loc 1 606 0
 1388 0004 BD46     		mov	sp, r7
 1389              		@ sp needed
 1390 0006 80BD     		pop	{r7, pc}
 1391              		.cfi_endproc
 1392              	.LFE28:
 1393              		.size	CyBle_Hal_smp_sc_cmac_complete, .-CyBle_Hal_smp_sc_cmac_complete
 1394              		.section	.text.CyBle_Hal_se_smp_sc_user_passkey_handler,"ax",%progbits
 1395              		.align	2
 1396              		.global	CyBle_Hal_se_smp_sc_user_passkey_handler
 1397              		.code	16
 1398              		.thumb_func
 1399              		.type	CyBle_Hal_se_smp_sc_user_passkey_handler, %function
 1400              	CyBle_Hal_se_smp_sc_user_passkey_handler:
 1401              	.LFB29:
 607:.\Generated_Source\PSoC4/CYBLE_HAL_PVT.c **** 
 608:.\Generated_Source\PSoC4/CYBLE_HAL_PVT.c ****     CYBLE_API_RESULT_T CyBle_Hal_se_smp_sc_user_passkey_handler(void  * param1 CYBLE_UNUSED_ATTR,
 609:.\Generated_Source\PSoC4/CYBLE_HAL_PVT.c ****                                                                 void  * param2 CYBLE_UNUSED_ATTR)
 610:.\Generated_Source\PSoC4/CYBLE_HAL_PVT.c ****     {
 1402              		.loc 1 610 0
 1403              		.cfi_startproc
 1404 0000 80B5     		push	{r7, lr}
 1405              		.cfi_def_cfa_offset 8
 1406              		.cfi_offset 7, -8
 1407              		.cfi_offset 14, -4
 1408 0002 82B0     		sub	sp, sp, #8
 1409              		.cfi_def_cfa_offset 16
 1410 0004 00AF     		add	r7, sp, #0
 1411              		.cfi_def_cfa_register 7
 1412 0006 7860     		str	r0, [r7, #4]
 1413 0008 3960     		str	r1, [r7]
 611:.\Generated_Source\PSoC4/CYBLE_HAL_PVT.c ****         return (CYBLE_ERROR_UNSUPPORTED_FEATURE_OR_PARAMETER_VALUE);
 1414              		.loc 1 611 0
 1415 000a 2B23     		mov	r3, #43
 612:.\Generated_Source\PSoC4/CYBLE_HAL_PVT.c ****     }
 1416              		.loc 1 612 0
 1417 000c 181C     		mov	r0, r3
 1418 000e BD46     		mov	sp, r7
 1419 0010 02B0     		add	sp, sp, #8
 1420              		@ sp needed
 1421 0012 80BD     		pop	{r7, pc}
 1422              		.cfi_endproc
 1423              	.LFE29:
 1424              		.size	CyBle_Hal_se_smp_sc_user_passkey_handler, .-CyBle_Hal_se_smp_sc_user_passkey_handler
 1425              		.section	.text.CyBle_Hal_EccPointMult,"ax",%progbits
 1426              		.align	2
 1427              		.global	CyBle_Hal_EccPointMult
 1428              		.code	16
 1429              		.thumb_func
 1430              		.type	CyBle_Hal_EccPointMult, %function
 1431              	CyBle_Hal_EccPointMult:
 1432              	.LFB30:
ARM GAS  C:\Users\mohammed\AppData\Local\Temp\cctb0af1.s 			page 37


 613:.\Generated_Source\PSoC4/CYBLE_HAL_PVT.c **** 
 614:.\Generated_Source\PSoC4/CYBLE_HAL_PVT.c ****     void CyBle_Hal_EccPointMult(void)
 615:.\Generated_Source\PSoC4/CYBLE_HAL_PVT.c ****     {
 1433              		.loc 1 615 0
 1434              		.cfi_startproc
 1435 0000 80B5     		push	{r7, lr}
 1436              		.cfi_def_cfa_offset 8
 1437              		.cfi_offset 7, -8
 1438              		.cfi_offset 14, -4
 1439 0002 00AF     		add	r7, sp, #0
 1440              		.cfi_def_cfa_register 7
 616:.\Generated_Source\PSoC4/CYBLE_HAL_PVT.c ****     }
 1441              		.loc 1 616 0
 1442 0004 BD46     		mov	sp, r7
 1443              		@ sp needed
 1444 0006 80BD     		pop	{r7, pc}
 1445              		.cfi_endproc
 1446              	.LFE30:
 1447              		.size	CyBle_Hal_EccPointMult, .-CyBle_Hal_EccPointMult
 1448              		.section	.text.BLE_CMP_FTR_API_lec_hci_handle_read_local_P256_public_key_command,"ax",%progbits
 1449              		.align	2
 1450              		.global	BLE_CMP_FTR_API_lec_hci_handle_read_local_P256_public_key_command
 1451              		.code	16
 1452              		.thumb_func
 1453              		.type	BLE_CMP_FTR_API_lec_hci_handle_read_local_P256_public_key_command, %function
 1454              	BLE_CMP_FTR_API_lec_hci_handle_read_local_P256_public_key_command:
 1455              	.LFB31:
 617:.\Generated_Source\PSoC4/CYBLE_HAL_PVT.c ****     
 618:.\Generated_Source\PSoC4/CYBLE_HAL_PVT.c **** #endif /* (CYBLE_SECURE_CONN_FEATURE_ENABLED) */
 619:.\Generated_Source\PSoC4/CYBLE_HAL_PVT.c **** 
 620:.\Generated_Source\PSoC4/CYBLE_HAL_PVT.c **** #endif /* CYBLE_MODE_PROFILE */
 621:.\Generated_Source\PSoC4/CYBLE_HAL_PVT.c **** 
 622:.\Generated_Source\PSoC4/CYBLE_HAL_PVT.c **** #if(CYBLE_SECURE_CONN_FEATURE_ENABLED)
 623:.\Generated_Source\PSoC4/CYBLE_HAL_PVT.c ****     
 624:.\Generated_Source\PSoC4/CYBLE_HAL_PVT.c ****     uint16 BLE_CMP_FTR_API_lec_hci_handle_read_local_P256_public_key_command(void *param)
 625:.\Generated_Source\PSoC4/CYBLE_HAL_PVT.c ****     {
 626:.\Generated_Source\PSoC4/CYBLE_HAL_PVT.c ****         return (BLE_STK_FTR_API_lec_hci_handle_read_local_P256_public_key_command(param));
 627:.\Generated_Source\PSoC4/CYBLE_HAL_PVT.c ****     }
 628:.\Generated_Source\PSoC4/CYBLE_HAL_PVT.c ****     
 629:.\Generated_Source\PSoC4/CYBLE_HAL_PVT.c ****     uint16 BLE_CMP_FTR_API_lec_hci_handle_generate_DHkey_command(void *param)
 630:.\Generated_Source\PSoC4/CYBLE_HAL_PVT.c ****     {
 631:.\Generated_Source\PSoC4/CYBLE_HAL_PVT.c ****         return (BLE_STK_FTR_API_lec_hci_handle_generate_DHkey_command(param));
 632:.\Generated_Source\PSoC4/CYBLE_HAL_PVT.c ****     }
 633:.\Generated_Source\PSoC4/CYBLE_HAL_PVT.c **** 
 634:.\Generated_Source\PSoC4/CYBLE_HAL_PVT.c **** #else     /* If feature is not required, return error. */
 635:.\Generated_Source\PSoC4/CYBLE_HAL_PVT.c ****     
 636:.\Generated_Source\PSoC4/CYBLE_HAL_PVT.c ****     uint16 BLE_CMP_FTR_API_lec_hci_handle_read_local_P256_public_key_command(void *param CYBLE_UNUS
 637:.\Generated_Source\PSoC4/CYBLE_HAL_PVT.c ****     {
 1456              		.loc 1 637 0
 1457              		.cfi_startproc
 1458 0000 80B5     		push	{r7, lr}
 1459              		.cfi_def_cfa_offset 8
 1460              		.cfi_offset 7, -8
 1461              		.cfi_offset 14, -4
 1462 0002 82B0     		sub	sp, sp, #8
 1463              		.cfi_def_cfa_offset 16
 1464 0004 00AF     		add	r7, sp, #0
ARM GAS  C:\Users\mohammed\AppData\Local\Temp\cctb0af1.s 			page 38


 1465              		.cfi_def_cfa_register 7
 1466 0006 7860     		str	r0, [r7, #4]
 638:.\Generated_Source\PSoC4/CYBLE_HAL_PVT.c ****         return (CYBLE_UNKNOWN_HCI_COMMAND_ERROR);
 1467              		.loc 1 638 0
 1468 0008 0123     		mov	r3, #1
 639:.\Generated_Source\PSoC4/CYBLE_HAL_PVT.c ****     }
 1469              		.loc 1 639 0
 1470 000a 181C     		mov	r0, r3
 1471 000c BD46     		mov	sp, r7
 1472 000e 02B0     		add	sp, sp, #8
 1473              		@ sp needed
 1474 0010 80BD     		pop	{r7, pc}
 1475              		.cfi_endproc
 1476              	.LFE31:
 1477              		.size	BLE_CMP_FTR_API_lec_hci_handle_read_local_P256_public_key_command, .-BLE_CMP_FTR_API_lec_hci
 1478 0012 C046     		.section	.text.BLE_CMP_FTR_API_lec_hci_handle_generate_DHkey_command,"ax",%progbits
 1479              		.align	2
 1480              		.global	BLE_CMP_FTR_API_lec_hci_handle_generate_DHkey_command
 1481              		.code	16
 1482              		.thumb_func
 1483              		.type	BLE_CMP_FTR_API_lec_hci_handle_generate_DHkey_command, %function
 1484              	BLE_CMP_FTR_API_lec_hci_handle_generate_DHkey_command:
 1485              	.LFB32:
 640:.\Generated_Source\PSoC4/CYBLE_HAL_PVT.c ****     
 641:.\Generated_Source\PSoC4/CYBLE_HAL_PVT.c ****     uint16 BLE_CMP_FTR_API_lec_hci_handle_generate_DHkey_command(void *param CYBLE_UNUSED_ATTR)
 642:.\Generated_Source\PSoC4/CYBLE_HAL_PVT.c ****     {
 1486              		.loc 1 642 0
 1487              		.cfi_startproc
 1488 0000 80B5     		push	{r7, lr}
 1489              		.cfi_def_cfa_offset 8
 1490              		.cfi_offset 7, -8
 1491              		.cfi_offset 14, -4
 1492 0002 82B0     		sub	sp, sp, #8
 1493              		.cfi_def_cfa_offset 16
 1494 0004 00AF     		add	r7, sp, #0
 1495              		.cfi_def_cfa_register 7
 1496 0006 7860     		str	r0, [r7, #4]
 643:.\Generated_Source\PSoC4/CYBLE_HAL_PVT.c ****         return (CYBLE_UNKNOWN_HCI_COMMAND_ERROR);
 1497              		.loc 1 643 0
 1498 0008 0123     		mov	r3, #1
 644:.\Generated_Source\PSoC4/CYBLE_HAL_PVT.c ****     }
 1499              		.loc 1 644 0
 1500 000a 181C     		mov	r0, r3
 1501 000c BD46     		mov	sp, r7
 1502 000e 02B0     		add	sp, sp, #8
 1503              		@ sp needed
 1504 0010 80BD     		pop	{r7, pc}
 1505              		.cfi_endproc
 1506              	.LFE32:
 1507              		.size	BLE_CMP_FTR_API_lec_hci_handle_generate_DHkey_command, .-BLE_CMP_FTR_API_lec_hci_handle_gene
 1508 0012 C046     		.text
 1509              	.Letext0:
 1510              		.file 2 ".\\Generated_Source\\PSoC4\\cytypes.h"
 1511              		.file 3 ".\\Generated_Source\\PSoC4\\CYBLE_Stack.h"
 1512              		.section	.debug_info,"",%progbits
 1513              	.Ldebug_info0:
 1514 0000 9D070000 		.4byte	0x79d
ARM GAS  C:\Users\mohammed\AppData\Local\Temp\cctb0af1.s 			page 39


 1515 0004 0400     		.2byte	0x4
 1516 0006 00000000 		.4byte	.Ldebug_abbrev0
 1517 000a 04       		.byte	0x4
 1518 000b 01       		.uleb128 0x1
 1519 000c 5A060000 		.4byte	.LASF107
 1520 0010 01       		.byte	0x1
 1521 0011 67030000 		.4byte	.LASF108
 1522 0015 A3050000 		.4byte	.LASF109
 1523 0019 00000000 		.4byte	.Ldebug_ranges0+0
 1524 001d 00000000 		.4byte	0
 1525 0021 00000000 		.4byte	.Ldebug_line0
 1526 0025 02       		.uleb128 0x2
 1527 0026 01       		.byte	0x1
 1528 0027 06       		.byte	0x6
 1529 0028 D2040000 		.4byte	.LASF0
 1530 002c 02       		.uleb128 0x2
 1531 002d 01       		.byte	0x1
 1532 002e 08       		.byte	0x8
 1533 002f 78040000 		.4byte	.LASF1
 1534 0033 02       		.uleb128 0x2
 1535 0034 02       		.byte	0x2
 1536 0035 05       		.byte	0x5
 1537 0036 23010000 		.4byte	.LASF2
 1538 003a 02       		.uleb128 0x2
 1539 003b 02       		.byte	0x2
 1540 003c 07       		.byte	0x7
 1541 003d 16060000 		.4byte	.LASF3
 1542 0041 02       		.uleb128 0x2
 1543 0042 04       		.byte	0x4
 1544 0043 05       		.byte	0x5
 1545 0044 D4030000 		.4byte	.LASF4
 1546 0048 02       		.uleb128 0x2
 1547 0049 04       		.byte	0x4
 1548 004a 07       		.byte	0x7
 1549 004b DD070000 		.4byte	.LASF5
 1550 004f 02       		.uleb128 0x2
 1551 0050 08       		.byte	0x8
 1552 0051 05       		.byte	0x5
 1553 0052 90030000 		.4byte	.LASF6
 1554 0056 02       		.uleb128 0x2
 1555 0057 08       		.byte	0x8
 1556 0058 07       		.byte	0x7
 1557 0059 DE040000 		.4byte	.LASF7
 1558 005d 03       		.uleb128 0x3
 1559 005e 04       		.byte	0x4
 1560 005f 05       		.byte	0x5
 1561 0060 696E7400 		.ascii	"int\000"
 1562 0064 02       		.uleb128 0x2
 1563 0065 04       		.byte	0x4
 1564 0066 07       		.byte	0x7
 1565 0067 32050000 		.4byte	.LASF8
 1566 006b 04       		.uleb128 0x4
 1567 006c 4E070000 		.4byte	.LASF9
 1568 0070 02       		.byte	0x2
 1569 0071 3801     		.2byte	0x138
 1570 0073 2C000000 		.4byte	0x2c
 1571 0077 04       		.uleb128 0x4
ARM GAS  C:\Users\mohammed\AppData\Local\Temp\cctb0af1.s 			page 40


 1572 0078 C3070000 		.4byte	.LASF10
 1573 007c 02       		.byte	0x2
 1574 007d 3901     		.2byte	0x139
 1575 007f 3A000000 		.4byte	0x3a
 1576 0083 04       		.uleb128 0x4
 1577 0084 D1070000 		.4byte	.LASF11
 1578 0088 02       		.byte	0x2
 1579 0089 3A01     		.2byte	0x13a
 1580 008b 48000000 		.4byte	0x48
 1581 008f 02       		.uleb128 0x2
 1582 0090 04       		.byte	0x4
 1583 0091 04       		.byte	0x4
 1584 0092 87000000 		.4byte	.LASF12
 1585 0096 02       		.uleb128 0x2
 1586 0097 08       		.byte	0x8
 1587 0098 04       		.byte	0x4
 1588 0099 D4090000 		.4byte	.LASF13
 1589 009d 02       		.uleb128 0x2
 1590 009e 01       		.byte	0x1
 1591 009f 08       		.byte	0x8
 1592 00a0 3F060000 		.4byte	.LASF14
 1593 00a4 04       		.uleb128 0x4
 1594 00a5 51060000 		.4byte	.LASF15
 1595 00a9 02       		.byte	0x2
 1596 00aa DA01     		.2byte	0x1da
 1597 00ac 48000000 		.4byte	0x48
 1598 00b0 04       		.uleb128 0x4
 1599 00b1 D8070000 		.4byte	.LASF16
 1600 00b5 02       		.byte	0x2
 1601 00b6 E201     		.2byte	0x1e2
 1602 00b8 BC000000 		.4byte	0xbc
 1603 00bc 05       		.uleb128 0x5
 1604 00bd 6B000000 		.4byte	0x6b
 1605 00c1 04       		.uleb128 0x4
 1606 00c2 ED050000 		.4byte	.LASF17
 1607 00c6 02       		.byte	0x2
 1608 00c7 E401     		.2byte	0x1e4
 1609 00c9 CD000000 		.4byte	0xcd
 1610 00cd 05       		.uleb128 0x5
 1611 00ce 83000000 		.4byte	0x83
 1612 00d2 02       		.uleb128 0x2
 1613 00d3 04       		.byte	0x4
 1614 00d4 07       		.byte	0x7
 1615 00d5 2D010000 		.4byte	.LASF18
 1616 00d9 06       		.uleb128 0x6
 1617 00da 04       		.byte	0x4
 1618 00db 07       		.uleb128 0x7
 1619 00dc 02       		.byte	0x2
 1620 00dd 03       		.byte	0x3
 1621 00de FF02     		.2byte	0x2ff
 1622 00e0 AB010000 		.4byte	0x1ab
 1623 00e4 08       		.uleb128 0x8
 1624 00e5 3F010000 		.4byte	.LASF19
 1625 00e9 00       		.sleb128 0
 1626 00ea 08       		.uleb128 0x8
 1627 00eb CB010000 		.4byte	.LASF20
 1628 00ef 01       		.sleb128 1
ARM GAS  C:\Users\mohammed\AppData\Local\Temp\cctb0af1.s 			page 41


 1629 00f0 08       		.uleb128 0x8
 1630 00f1 35020000 		.4byte	.LASF21
 1631 00f5 02       		.sleb128 2
 1632 00f6 08       		.uleb128 0x8
 1633 00f7 54070000 		.4byte	.LASF22
 1634 00fb 03       		.sleb128 3
 1635 00fc 08       		.uleb128 0x8
 1636 00fd 44030000 		.4byte	.LASF23
 1637 0101 04       		.sleb128 4
 1638 0102 08       		.uleb128 0x8
 1639 0103 E9010000 		.4byte	.LASF24
 1640 0107 05       		.sleb128 5
 1641 0108 08       		.uleb128 0x8
 1642 0109 F4020000 		.4byte	.LASF25
 1643 010d 06       		.sleb128 6
 1644 010e 08       		.uleb128 0x8
 1645 010f 5B040000 		.4byte	.LASF26
 1646 0113 07       		.sleb128 7
 1647 0114 08       		.uleb128 0x8
 1648 0115 08040000 		.4byte	.LASF27
 1649 0119 08       		.sleb128 8
 1650 011a 08       		.uleb128 0x8
 1651 011b 1D050000 		.4byte	.LASF28
 1652 011f 09       		.sleb128 9
 1653 0120 08       		.uleb128 0x8
 1654 0121 97000000 		.4byte	.LASF29
 1655 0125 0A       		.sleb128 10
 1656 0126 08       		.uleb128 0x8
 1657 0127 9E030000 		.4byte	.LASF30
 1658 012b 0B       		.sleb128 11
 1659 012c 08       		.uleb128 0x8
 1660 012d 06050000 		.4byte	.LASF31
 1661 0131 0C       		.sleb128 12
 1662 0132 08       		.uleb128 0x8
 1663 0133 3F050000 		.4byte	.LASF32
 1664 0137 0D       		.sleb128 13
 1665 0138 08       		.uleb128 0x8
 1666 0139 35000000 		.4byte	.LASF33
 1667 013d 0E       		.sleb128 14
 1668 013e 08       		.uleb128 0x8
 1669 013f 09000000 		.4byte	.LASF34
 1670 0143 0F       		.sleb128 15
 1671 0144 08       		.uleb128 0x8
 1672 0145 5C0A0000 		.4byte	.LASF35
 1673 0149 10       		.sleb128 16
 1674 014a 08       		.uleb128 0x8
 1675 014b C7000000 		.4byte	.LASF36
 1676 014f 11       		.sleb128 17
 1677 0150 08       		.uleb128 0x8
 1678 0151 59080000 		.4byte	.LASF37
 1679 0155 12       		.sleb128 18
 1680 0156 08       		.uleb128 0x8
 1681 0157 15080000 		.4byte	.LASF38
 1682 015b 13       		.sleb128 19
 1683 015c 08       		.uleb128 0x8
 1684 015d 71090000 		.4byte	.LASF39
 1685 0161 27       		.sleb128 39
ARM GAS  C:\Users\mohammed\AppData\Local\Temp\cctb0af1.s 			page 42


 1686 0162 08       		.uleb128 0x8
 1687 0163 4E010000 		.4byte	.LASF40
 1688 0167 28       		.sleb128 40
 1689 0168 08       		.uleb128 0x8
 1690 0169 AF010000 		.4byte	.LASF41
 1691 016d 29       		.sleb128 41
 1692 016e 08       		.uleb128 0x8
 1693 016f 73010000 		.4byte	.LASF42
 1694 0173 2A       		.sleb128 42
 1695 0174 08       		.uleb128 0x8
 1696 0175 79070000 		.4byte	.LASF43
 1697 0179 2B       		.sleb128 43
 1698 017a 08       		.uleb128 0x8
 1699 017b 86040000 		.4byte	.LASF44
 1700 017f 2C       		.sleb128 44
 1701 0180 08       		.uleb128 0x8
 1702 0181 E8060000 		.4byte	.LASF45
 1703 0185 FE01     		.sleb128 254
 1704 0187 08       		.uleb128 0x8
 1705 0188 B6090000 		.4byte	.LASF46
 1706 018c FF01     		.sleb128 255
 1707 018e 08       		.uleb128 0x8
 1708 018f 38090000 		.4byte	.LASF47
 1709 0193 8002     		.sleb128 256
 1710 0195 08       		.uleb128 0x8
 1711 0196 8A0A0000 		.4byte	.LASF48
 1712 019a 8102     		.sleb128 257
 1713 019c 08       		.uleb128 0x8
 1714 019d F3050000 		.4byte	.LASF49
 1715 01a1 8202     		.sleb128 258
 1716 01a3 08       		.uleb128 0x8
 1717 01a4 04070000 		.4byte	.LASF50
 1718 01a8 8302     		.sleb128 259
 1719 01aa 00       		.byte	0
 1720 01ab 04       		.uleb128 0x4
 1721 01ac 70020000 		.4byte	.LASF51
 1722 01b0 03       		.byte	0x3
 1723 01b1 6B03     		.2byte	0x36b
 1724 01b3 DB000000 		.4byte	0xdb
 1725 01b7 09       		.uleb128 0x9
 1726 01b8 04       		.byte	0x4
 1727 01b9 77000000 		.4byte	0x77
 1728 01bd 0A       		.uleb128 0xa
 1729 01be 42040000 		.4byte	.LASF62
 1730 01c2 01       		.byte	0x1
 1731 01c3 70       		.byte	0x70
 1732 01c4 A4000000 		.4byte	0xa4
 1733 01c8 00000000 		.4byte	.LFB2
 1734 01cc 9C010000 		.4byte	.LFE2-.LFB2
 1735 01d0 01       		.uleb128 0x1
 1736 01d1 9C       		.byte	0x9c
 1737 01d2 74020000 		.4byte	0x274
 1738 01d6 0B       		.uleb128 0xb
 1739 01d7 CA070000 		.4byte	.LASF52
 1740 01db 01       		.byte	0x1
 1741 01dc 70       		.byte	0x70
 1742 01dd 74020000 		.4byte	0x274
ARM GAS  C:\Users\mohammed\AppData\Local\Temp\cctb0af1.s 			page 43


 1743 01e1 03       		.uleb128 0x3
 1744 01e2 91       		.byte	0x91
 1745 01e3 D47E     		.sleb128 -172
 1746 01e5 0B       		.uleb128 0xb
 1747 01e6 00000000 		.4byte	.LASF53
 1748 01ea 01       		.byte	0x1
 1749 01eb 70       		.byte	0x70
 1750 01ec 74020000 		.4byte	0x274
 1751 01f0 03       		.uleb128 0x3
 1752 01f1 91       		.byte	0x91
 1753 01f2 D07E     		.sleb128 -176
 1754 01f4 0B       		.uleb128 0xb
 1755 01f5 54040000 		.4byte	.LASF54
 1756 01f9 01       		.byte	0x1
 1757 01fa 70       		.byte	0x70
 1758 01fb 77000000 		.4byte	0x77
 1759 01ff 03       		.uleb128 0x3
 1760 0200 91       		.byte	0x91
 1761 0201 CE7E     		.sleb128 -178
 1762 0203 0C       		.uleb128 0xc
 1763 0204 9E040000 		.4byte	.LASF55
 1764 0208 01       		.byte	0x1
 1765 0209 72       		.byte	0x72
 1766 020a 7F020000 		.4byte	0x27f
 1767 020e 03       		.uleb128 0x3
 1768 020f 91       		.byte	0x91
 1769 0210 DC7E     		.sleb128 -164
 1770 0212 0C       		.uleb128 0xc
 1771 0213 26040000 		.4byte	.LASF56
 1772 0217 01       		.byte	0x1
 1773 0218 73       		.byte	0x73
 1774 0219 83000000 		.4byte	0x83
 1775 021d 02       		.uleb128 0x2
 1776 021e 91       		.byte	0x91
 1777 021f 74       		.sleb128 -12
 1778 0220 0C       		.uleb128 0xc
 1779 0221 36010000 		.4byte	.LASF57
 1780 0225 01       		.byte	0x1
 1781 0226 74       		.byte	0x74
 1782 0227 83000000 		.4byte	0x83
 1783 022b 02       		.uleb128 0x2
 1784 022c 91       		.byte	0x91
 1785 022d 70       		.sleb128 -16
 1786 022e 0C       		.uleb128 0xc
 1787 022f BE030000 		.4byte	.LASF58
 1788 0233 01       		.byte	0x1
 1789 0234 75       		.byte	0x75
 1790 0235 83000000 		.4byte	0x83
 1791 0239 02       		.uleb128 0x2
 1792 023a 91       		.byte	0x91
 1793 023b 6C       		.sleb128 -20
 1794 023c 0D       		.uleb128 0xd
 1795 023d 726300   		.ascii	"rc\000"
 1796 0240 01       		.byte	0x1
 1797 0241 76       		.byte	0x76
 1798 0242 A4000000 		.4byte	0xa4
 1799 0246 02       		.uleb128 0x2
ARM GAS  C:\Users\mohammed\AppData\Local\Temp\cctb0af1.s 			page 44


 1800 0247 91       		.byte	0x91
 1801 0248 68       		.sleb128 -24
 1802 0249 0C       		.uleb128 0xc
 1803 024a A30A0000 		.4byte	.LASF59
 1804 024e 01       		.byte	0x1
 1805 024f 77       		.byte	0x77
 1806 0250 83000000 		.4byte	0x83
 1807 0254 02       		.uleb128 0x2
 1808 0255 91       		.byte	0x91
 1809 0256 5C       		.sleb128 -36
 1810 0257 0C       		.uleb128 0xc
 1811 0258 AB090000 		.4byte	.LASF60
 1812 025c 01       		.byte	0x1
 1813 025d 78       		.byte	0x78
 1814 025e 83000000 		.4byte	0x83
 1815 0262 02       		.uleb128 0x2
 1816 0263 91       		.byte	0x91
 1817 0264 64       		.sleb128 -28
 1818 0265 0C       		.uleb128 0xc
 1819 0266 EA030000 		.4byte	.LASF61
 1820 026a 01       		.byte	0x1
 1821 026b 79       		.byte	0x79
 1822 026c 83000000 		.4byte	0x83
 1823 0270 02       		.uleb128 0x2
 1824 0271 91       		.byte	0x91
 1825 0272 60       		.sleb128 -32
 1826 0273 00       		.byte	0
 1827 0274 09       		.uleb128 0x9
 1828 0275 04       		.byte	0x4
 1829 0276 7A020000 		.4byte	0x27a
 1830 027a 0E       		.uleb128 0xe
 1831 027b 6B000000 		.4byte	0x6b
 1832 027f 0F       		.uleb128 0xf
 1833 0280 6B000000 		.4byte	0x6b
 1834 0284 8F020000 		.4byte	0x28f
 1835 0288 10       		.uleb128 0x10
 1836 0289 D2000000 		.4byte	0xd2
 1837 028d 7F       		.byte	0x7f
 1838 028e 00       		.byte	0
 1839 028f 0A       		.uleb128 0xa
 1840 0290 47080000 		.4byte	.LASF63
 1841 0294 01       		.byte	0x1
 1842 0295 C2       		.byte	0xc2
 1843 0296 A4000000 		.4byte	0xa4
 1844 029a 00000000 		.4byte	.LFB3
 1845 029e C6000000 		.4byte	.LFE3-.LFB3
 1846 02a2 01       		.uleb128 0x1
 1847 02a3 9C       		.byte	0x9c
 1848 02a4 0D030000 		.4byte	0x30d
 1849 02a8 0B       		.uleb128 0xb
 1850 02a9 00000000 		.4byte	.LASF53
 1851 02ad 01       		.byte	0x1
 1852 02ae C2       		.byte	0xc2
 1853 02af 74020000 		.4byte	0x274
 1854 02b3 03       		.uleb128 0x3
 1855 02b4 91       		.byte	0x91
 1856 02b5 E47E     		.sleb128 -156
ARM GAS  C:\Users\mohammed\AppData\Local\Temp\cctb0af1.s 			page 45


 1857 02b7 0B       		.uleb128 0xb
 1858 02b8 54040000 		.4byte	.LASF54
 1859 02bc 01       		.byte	0x1
 1860 02bd C2       		.byte	0xc2
 1861 02be 77000000 		.4byte	0x77
 1862 02c2 03       		.uleb128 0x3
 1863 02c3 91       		.byte	0x91
 1864 02c4 E27E     		.sleb128 -158
 1865 02c6 0C       		.uleb128 0xc
 1866 02c7 3D080000 		.4byte	.LASF64
 1867 02cb 01       		.byte	0x1
 1868 02cc C4       		.byte	0xc4
 1869 02cd 74020000 		.4byte	0x274
 1870 02d1 02       		.uleb128 0x2
 1871 02d2 91       		.byte	0x91
 1872 02d3 74       		.sleb128 -12
 1873 02d4 0C       		.uleb128 0xc
 1874 02d5 29020000 		.4byte	.LASF65
 1875 02d9 01       		.byte	0x1
 1876 02da C5       		.byte	0xc5
 1877 02db 7F020000 		.4byte	0x27f
 1878 02df 03       		.uleb128 0x3
 1879 02e0 91       		.byte	0x91
 1880 02e1 EC7E     		.sleb128 -148
 1881 02e3 0C       		.uleb128 0xc
 1882 02e4 64020000 		.4byte	.LASF66
 1883 02e8 01       		.byte	0x1
 1884 02e9 C6       		.byte	0xc6
 1885 02ea 77000000 		.4byte	0x77
 1886 02ee 02       		.uleb128 0x2
 1887 02ef 91       		.byte	0x91
 1888 02f0 72       		.sleb128 -14
 1889 02f1 0C       		.uleb128 0xc
 1890 02f2 2F060000 		.4byte	.LASF67
 1891 02f6 01       		.byte	0x1
 1892 02f7 C7       		.byte	0xc7
 1893 02f8 77000000 		.4byte	0x77
 1894 02fc 02       		.uleb128 0x2
 1895 02fd 91       		.byte	0x91
 1896 02fe 70       		.sleb128 -16
 1897 02ff 0D       		.uleb128 0xd
 1898 0300 726300   		.ascii	"rc\000"
 1899 0303 01       		.byte	0x1
 1900 0304 C8       		.byte	0xc8
 1901 0305 A4000000 		.4byte	0xa4
 1902 0309 02       		.uleb128 0x2
 1903 030a 91       		.byte	0x91
 1904 030b 6C       		.sleb128 -20
 1905 030c 00       		.byte	0
 1906 030d 11       		.uleb128 0x11
 1907 030e 2C040000 		.4byte	.LASF70
 1908 0312 01       		.byte	0x1
 1909 0313 F1       		.byte	0xf1
 1910 0314 00000000 		.4byte	.LFB4
 1911 0318 1A000000 		.4byte	.LFE4-.LFB4
 1912 031c 01       		.uleb128 0x1
 1913 031d 9C       		.byte	0x9c
ARM GAS  C:\Users\mohammed\AppData\Local\Temp\cctb0af1.s 			page 46


 1914 031e 3F030000 		.4byte	0x33f
 1915 0322 0B       		.uleb128 0xb
 1916 0323 8D000000 		.4byte	.LASF68
 1917 0327 01       		.byte	0x1
 1918 0328 F1       		.byte	0xf1
 1919 0329 3F030000 		.4byte	0x33f
 1920 032d 02       		.uleb128 0x2
 1921 032e 91       		.byte	0x91
 1922 032f 74       		.sleb128 -12
 1923 0330 0B       		.uleb128 0xb
 1924 0331 83020000 		.4byte	.LASF69
 1925 0335 01       		.byte	0x1
 1926 0336 F1       		.byte	0xf1
 1927 0337 B7010000 		.4byte	0x1b7
 1928 033b 02       		.uleb128 0x2
 1929 033c 91       		.byte	0x91
 1930 033d 70       		.sleb128 -16
 1931 033e 00       		.byte	0
 1932 033f 09       		.uleb128 0x9
 1933 0340 04       		.byte	0x4
 1934 0341 45030000 		.4byte	0x345
 1935 0345 0E       		.uleb128 0xe
 1936 0346 C1000000 		.4byte	0xc1
 1937 034a 12       		.uleb128 0x12
 1938 034b 1D0A0000 		.4byte	.LASF71
 1939 034f 01       		.byte	0x1
 1940 0350 0401     		.2byte	0x104
 1941 0352 00000000 		.4byte	.LFB5
 1942 0356 1C000000 		.4byte	.LFE5-.LFB5
 1943 035a 01       		.uleb128 0x1
 1944 035b 9C       		.byte	0x9c
 1945 035c 7F030000 		.4byte	0x37f
 1946 0360 13       		.uleb128 0x13
 1947 0361 8D000000 		.4byte	.LASF68
 1948 0365 01       		.byte	0x1
 1949 0366 0401     		.2byte	0x104
 1950 0368 7F030000 		.4byte	0x37f
 1951 036c 02       		.uleb128 0x2
 1952 036d 91       		.byte	0x91
 1953 036e 74       		.sleb128 -12
 1954 036f 13       		.uleb128 0x13
 1955 0370 83020000 		.4byte	.LASF69
 1956 0374 01       		.byte	0x1
 1957 0375 0401     		.2byte	0x104
 1958 0377 85030000 		.4byte	0x385
 1959 037b 02       		.uleb128 0x2
 1960 037c 91       		.byte	0x91
 1961 037d 72       		.sleb128 -14
 1962 037e 00       		.byte	0
 1963 037f 09       		.uleb128 0x9
 1964 0380 04       		.byte	0x4
 1965 0381 C1000000 		.4byte	0xc1
 1966 0385 0E       		.uleb128 0xe
 1967 0386 77000000 		.4byte	0x77
 1968 038a 12       		.uleb128 0x12
 1969 038b B1000000 		.4byte	.LASF72
 1970 038f 01       		.byte	0x1
ARM GAS  C:\Users\mohammed\AppData\Local\Temp\cctb0af1.s 			page 47


 1971 0390 1701     		.2byte	0x117
 1972 0392 00000000 		.4byte	.LFB6
 1973 0396 1A000000 		.4byte	.LFE6-.LFB6
 1974 039a 01       		.uleb128 0x1
 1975 039b 9C       		.byte	0x9c
 1976 039c BF030000 		.4byte	0x3bf
 1977 03a0 13       		.uleb128 0x13
 1978 03a1 8D000000 		.4byte	.LASF68
 1979 03a5 01       		.byte	0x1
 1980 03a6 1701     		.2byte	0x117
 1981 03a8 3F030000 		.4byte	0x33f
 1982 03ac 02       		.uleb128 0x2
 1983 03ad 91       		.byte	0x91
 1984 03ae 74       		.sleb128 -12
 1985 03af 13       		.uleb128 0x13
 1986 03b0 83020000 		.4byte	.LASF69
 1987 03b4 01       		.byte	0x1
 1988 03b5 1701     		.2byte	0x117
 1989 03b7 B7010000 		.4byte	0x1b7
 1990 03bb 02       		.uleb128 0x2
 1991 03bc 91       		.byte	0x91
 1992 03bd 70       		.sleb128 -16
 1993 03be 00       		.byte	0
 1994 03bf 12       		.uleb128 0x12
 1995 03c0 85050000 		.4byte	.LASF73
 1996 03c4 01       		.byte	0x1
 1997 03c5 2A01     		.2byte	0x12a
 1998 03c7 00000000 		.4byte	.LFB7
 1999 03cb 1C000000 		.4byte	.LFE7-.LFB7
 2000 03cf 01       		.uleb128 0x1
 2001 03d0 9C       		.byte	0x9c
 2002 03d1 F4030000 		.4byte	0x3f4
 2003 03d5 13       		.uleb128 0x13
 2004 03d6 8D000000 		.4byte	.LASF68
 2005 03da 01       		.byte	0x1
 2006 03db 2A01     		.2byte	0x12a
 2007 03dd 7F030000 		.4byte	0x37f
 2008 03e1 02       		.uleb128 0x2
 2009 03e2 91       		.byte	0x91
 2010 03e3 74       		.sleb128 -12
 2011 03e4 13       		.uleb128 0x13
 2012 03e5 83020000 		.4byte	.LASF69
 2013 03e9 01       		.byte	0x1
 2014 03ea 2A01     		.2byte	0x12a
 2015 03ec 85030000 		.4byte	0x385
 2016 03f0 02       		.uleb128 0x2
 2017 03f1 91       		.byte	0x91
 2018 03f2 72       		.sleb128 -14
 2019 03f3 00       		.byte	0
 2020 03f4 12       		.uleb128 0x12
 2021 03f5 93090000 		.4byte	.LASF74
 2022 03f9 01       		.byte	0x1
 2023 03fa 3901     		.2byte	0x139
 2024 03fc 00000000 		.4byte	.LFB8
 2025 0400 94010000 		.4byte	.LFE8-.LFB8
 2026 0404 01       		.uleb128 0x1
 2027 0405 9C       		.byte	0x9c
ARM GAS  C:\Users\mohammed\AppData\Local\Temp\cctb0af1.s 			page 48


 2028 0406 56040000 		.4byte	0x456
 2029 040a 14       		.uleb128 0x14
 2030 040b 44060000 		.4byte	.LASF75
 2031 040f 01       		.byte	0x1
 2032 0410 3B01     		.2byte	0x13b
 2033 0412 83000000 		.4byte	0x83
 2034 0416 02       		.uleb128 0x2
 2035 0417 91       		.byte	0x91
 2036 0418 74       		.sleb128 -12
 2037 0419 15       		.uleb128 0x15
 2038 041a 6C646F00 		.ascii	"ldo\000"
 2039 041e 01       		.byte	0x1
 2040 041f 3C01     		.2byte	0x13c
 2041 0421 83000000 		.4byte	0x83
 2042 0425 02       		.uleb128 0x2
 2043 0426 91       		.byte	0x91
 2044 0427 70       		.sleb128 -16
 2045 0428 14       		.uleb128 0x14
 2046 0429 1E070000 		.4byte	.LASF76
 2047 042d 01       		.byte	0x1
 2048 042e 3D01     		.2byte	0x13d
 2049 0430 83000000 		.4byte	0x83
 2050 0434 02       		.uleb128 0x2
 2051 0435 91       		.byte	0x91
 2052 0436 6C       		.sleb128 -20
 2053 0437 14       		.uleb128 0x14
 2054 0438 C7030000 		.4byte	.LASF77
 2055 043c 01       		.byte	0x1
 2056 043d 3E01     		.2byte	0x13e
 2057 043f 77000000 		.4byte	0x77
 2058 0443 02       		.uleb128 0x2
 2059 0444 91       		.byte	0x91
 2060 0445 6A       		.sleb128 -22
 2061 0446 14       		.uleb128 0x14
 2062 0447 DD030000 		.4byte	.LASF78
 2063 044b 01       		.byte	0x1
 2064 044c 3F01     		.2byte	0x13f
 2065 044e 77000000 		.4byte	0x77
 2066 0452 02       		.uleb128 0x2
 2067 0453 91       		.byte	0x91
 2068 0454 68       		.sleb128 -24
 2069 0455 00       		.byte	0
 2070 0456 16       		.uleb128 0x16
 2071 0457 F5040000 		.4byte	.LASF79
 2072 045b 01       		.byte	0x1
 2073 045c 7901     		.2byte	0x179
 2074 045e 00000000 		.4byte	.LFB9
 2075 0462 1C000000 		.4byte	.LFE9-.LFB9
 2076 0466 01       		.uleb128 0x1
 2077 0467 9C       		.byte	0x9c
 2078 0468 7C040000 		.4byte	0x47c
 2079 046c 13       		.uleb128 0x13
 2080 046d 17090000 		.4byte	.LASF80
 2081 0471 01       		.byte	0x1
 2082 0472 7901     		.2byte	0x179
 2083 0474 77000000 		.4byte	0x77
 2084 0478 02       		.uleb128 0x2
ARM GAS  C:\Users\mohammed\AppData\Local\Temp\cctb0af1.s 			page 49


 2085 0479 91       		.byte	0x91
 2086 047a 76       		.sleb128 -10
 2087 047b 00       		.byte	0
 2088 047c 16       		.uleb128 0x16
 2089 047d F7030000 		.4byte	.LASF81
 2090 0481 01       		.byte	0x1
 2091 0482 7F01     		.2byte	0x17f
 2092 0484 00000000 		.4byte	.LFB10
 2093 0488 16000000 		.4byte	.LFE10-.LFB10
 2094 048c 01       		.uleb128 0x1
 2095 048d 9C       		.byte	0x9c
 2096 048e A2040000 		.4byte	0x4a2
 2097 0492 13       		.uleb128 0x13
 2098 0493 17090000 		.4byte	.LASF80
 2099 0497 01       		.byte	0x1
 2100 0498 7F01     		.2byte	0x17f
 2101 049a 83000000 		.4byte	0x83
 2102 049e 02       		.uleb128 0x2
 2103 049f 91       		.byte	0x91
 2104 04a0 74       		.sleb128 -12
 2105 04a1 00       		.byte	0
 2106 04a2 17       		.uleb128 0x17
 2107 04a3 51090000 		.4byte	.LASF82
 2108 04a7 01       		.byte	0x1
 2109 04a8 8501     		.2byte	0x185
 2110 04aa 00000000 		.4byte	.LFB11
 2111 04ae 0C000000 		.4byte	.LFE11-.LFB11
 2112 04b2 01       		.uleb128 0x1
 2113 04b3 9C       		.byte	0x9c
 2114 04b4 17       		.uleb128 0x17
 2115 04b5 64050000 		.4byte	.LASF83
 2116 04b9 01       		.byte	0x1
 2117 04ba 8B01     		.2byte	0x18b
 2118 04bc 00000000 		.4byte	.LFB12
 2119 04c0 0C000000 		.4byte	.LFE12-.LFB12
 2120 04c4 01       		.uleb128 0x1
 2121 04c5 9C       		.byte	0x9c
 2122 04c6 17       		.uleb128 0x17
 2123 04c7 C6090000 		.4byte	.LASF84
 2124 04cb 01       		.byte	0x1
 2125 04cc 9A01     		.2byte	0x19a
 2126 04ce 00000000 		.4byte	.LFB13
 2127 04d2 20000000 		.4byte	.LFE13-.LFB13
 2128 04d6 01       		.uleb128 0x1
 2129 04d7 9C       		.byte	0x9c
 2130 04d8 17       		.uleb128 0x17
 2131 04d9 53020000 		.4byte	.LASF85
 2132 04dd 01       		.byte	0x1
 2133 04de B101     		.2byte	0x1b1
 2134 04e0 00000000 		.4byte	.LFB14
 2135 04e4 14000000 		.4byte	.LFE14-.LFB14
 2136 04e8 01       		.uleb128 0x1
 2137 04e9 9C       		.byte	0x9c
 2138 04ea 18       		.uleb128 0x18
 2139 04eb 20090000 		.4byte	.LASF96
 2140 04ef 01       		.byte	0x1
 2141 04f0 C501     		.2byte	0x1c5
ARM GAS  C:\Users\mohammed\AppData\Local\Temp\cctb0af1.s 			page 50


 2142 04f2 83000000 		.4byte	0x83
 2143 04f6 00000000 		.4byte	.LFB15
 2144 04fa 0E000000 		.4byte	.LFE15-.LFB15
 2145 04fe 01       		.uleb128 0x1
 2146 04ff 9C       		.byte	0x9c
 2147 0500 19       		.uleb128 0x19
 2148 0501 BB080000 		.4byte	.LASF86
 2149 0505 01       		.byte	0x1
 2150 0506 1F02     		.2byte	0x21f
 2151 0508 AB010000 		.4byte	0x1ab
 2152 050c 00000000 		.4byte	.LFB16
 2153 0510 12000000 		.4byte	.LFE16-.LFB16
 2154 0514 01       		.uleb128 0x1
 2155 0515 9C       		.byte	0x9c
 2156 0516 2A050000 		.4byte	0x52a
 2157 051a 13       		.uleb128 0x13
 2158 051b 29060000 		.4byte	.LASF87
 2159 051f 01       		.byte	0x1
 2160 0520 1F02     		.2byte	0x21f
 2161 0522 D9000000 		.4byte	0xd9
 2162 0526 02       		.uleb128 0x2
 2163 0527 91       		.byte	0x91
 2164 0528 74       		.sleb128 -12
 2165 0529 00       		.byte	0
 2166 052a 19       		.uleb128 0x19
 2167 052b 29070000 		.4byte	.LASF88
 2168 052f 01       		.byte	0x1
 2169 0530 2402     		.2byte	0x224
 2170 0532 AB010000 		.4byte	0x1ab
 2171 0536 00000000 		.4byte	.LFB17
 2172 053a 12000000 		.4byte	.LFE17-.LFB17
 2173 053e 01       		.uleb128 0x1
 2174 053f 9C       		.byte	0x9c
 2175 0540 54050000 		.4byte	0x554
 2176 0544 13       		.uleb128 0x13
 2177 0545 29060000 		.4byte	.LASF87
 2178 0549 01       		.byte	0x1
 2179 054a 2402     		.2byte	0x224
 2180 054c D9000000 		.4byte	0xd9
 2181 0550 02       		.uleb128 0x2
 2182 0551 91       		.byte	0x91
 2183 0552 74       		.sleb128 -12
 2184 0553 00       		.byte	0
 2185 0554 19       		.uleb128 0x19
 2186 0555 9B080000 		.4byte	.LASF89
 2187 0559 01       		.byte	0x1
 2188 055a 2902     		.2byte	0x229
 2189 055c AB010000 		.4byte	0x1ab
 2190 0560 00000000 		.4byte	.LFB18
 2191 0564 12000000 		.4byte	.LFE18-.LFB18
 2192 0568 01       		.uleb128 0x1
 2193 0569 9C       		.byte	0x9c
 2194 056a 7E050000 		.4byte	0x57e
 2195 056e 13       		.uleb128 0x13
 2196 056f 29060000 		.4byte	.LASF87
 2197 0573 01       		.byte	0x1
 2198 0574 2902     		.2byte	0x229
ARM GAS  C:\Users\mohammed\AppData\Local\Temp\cctb0af1.s 			page 51


 2199 0576 D9000000 		.4byte	0xd9
 2200 057a 02       		.uleb128 0x2
 2201 057b 91       		.byte	0x91
 2202 057c 74       		.sleb128 -12
 2203 057d 00       		.byte	0
 2204 057e 19       		.uleb128 0x19
 2205 057f EF070000 		.4byte	.LASF90
 2206 0583 01       		.byte	0x1
 2207 0584 2E02     		.2byte	0x22e
 2208 0586 AB010000 		.4byte	0x1ab
 2209 058a 00000000 		.4byte	.LFB19
 2210 058e 12000000 		.4byte	.LFE19-.LFB19
 2211 0592 01       		.uleb128 0x1
 2212 0593 9C       		.byte	0x9c
 2213 0594 A8050000 		.4byte	0x5a8
 2214 0598 13       		.uleb128 0x13
 2215 0599 29060000 		.4byte	.LASF87
 2216 059d 01       		.byte	0x1
 2217 059e 2E02     		.2byte	0x22e
 2218 05a0 D9000000 		.4byte	0xd9
 2219 05a4 02       		.uleb128 0x2
 2220 05a5 91       		.byte	0x91
 2221 05a6 74       		.sleb128 -12
 2222 05a7 00       		.byte	0
 2223 05a8 19       		.uleb128 0x19
 2224 05a9 8C020000 		.4byte	.LASF91
 2225 05ad 01       		.byte	0x1
 2226 05ae 3302     		.2byte	0x233
 2227 05b0 AB010000 		.4byte	0x1ab
 2228 05b4 00000000 		.4byte	.LFB20
 2229 05b8 12000000 		.4byte	.LFE20-.LFB20
 2230 05bc 01       		.uleb128 0x1
 2231 05bd 9C       		.byte	0x9c
 2232 05be D2050000 		.4byte	0x5d2
 2233 05c2 13       		.uleb128 0x13
 2234 05c3 29060000 		.4byte	.LASF87
 2235 05c7 01       		.byte	0x1
 2236 05c8 3302     		.2byte	0x233
 2237 05ca D9000000 		.4byte	0xd9
 2238 05ce 02       		.uleb128 0x2
 2239 05cf 91       		.byte	0x91
 2240 05d0 74       		.sleb128 -12
 2241 05d1 00       		.byte	0
 2242 05d2 19       		.uleb128 0x19
 2243 05d3 7C080000 		.4byte	.LASF92
 2244 05d7 01       		.byte	0x1
 2245 05d8 3802     		.2byte	0x238
 2246 05da AB010000 		.4byte	0x1ab
 2247 05de 00000000 		.4byte	.LFB21
 2248 05e2 12000000 		.4byte	.LFE21-.LFB21
 2249 05e6 01       		.uleb128 0x1
 2250 05e7 9C       		.byte	0x9c
 2251 05e8 FC050000 		.4byte	0x5fc
 2252 05ec 13       		.uleb128 0x13
 2253 05ed 29060000 		.4byte	.LASF87
 2254 05f1 01       		.byte	0x1
 2255 05f2 3802     		.2byte	0x238
ARM GAS  C:\Users\mohammed\AppData\Local\Temp\cctb0af1.s 			page 52


 2256 05f4 D9000000 		.4byte	0xd9
 2257 05f8 02       		.uleb128 0x2
 2258 05f9 91       		.byte	0x91
 2259 05fa 74       		.sleb128 -12
 2260 05fb 00       		.byte	0
 2261 05fc 19       		.uleb128 0x19
 2262 05fd 07020000 		.4byte	.LASF93
 2263 0601 01       		.byte	0x1
 2264 0602 3D02     		.2byte	0x23d
 2265 0604 AB010000 		.4byte	0x1ab
 2266 0608 00000000 		.4byte	.LFB22
 2267 060c 12000000 		.4byte	.LFE22-.LFB22
 2268 0610 01       		.uleb128 0x1
 2269 0611 9C       		.byte	0x9c
 2270 0612 26060000 		.4byte	0x626
 2271 0616 13       		.uleb128 0x13
 2272 0617 29060000 		.4byte	.LASF87
 2273 061b 01       		.byte	0x1
 2274 061c 3D02     		.2byte	0x23d
 2275 061e D9000000 		.4byte	0xd9
 2276 0622 02       		.uleb128 0x2
 2277 0623 91       		.byte	0x91
 2278 0624 74       		.sleb128 -12
 2279 0625 00       		.byte	0
 2280 0626 19       		.uleb128 0x19
 2281 0627 AA040000 		.4byte	.LASF94
 2282 062b 01       		.byte	0x1
 2283 062c 4202     		.2byte	0x242
 2284 062e AB010000 		.4byte	0x1ab
 2285 0632 00000000 		.4byte	.LFB23
 2286 0636 12000000 		.4byte	.LFE23-.LFB23
 2287 063a 01       		.uleb128 0x1
 2288 063b 9C       		.byte	0x9c
 2289 063c 50060000 		.4byte	0x650
 2290 0640 13       		.uleb128 0x13
 2291 0641 29060000 		.4byte	.LASF87
 2292 0645 01       		.byte	0x1
 2293 0646 4202     		.2byte	0x242
 2294 0648 D9000000 		.4byte	0xd9
 2295 064c 02       		.uleb128 0x2
 2296 064d 91       		.byte	0x91
 2297 064e 74       		.sleb128 -12
 2298 064f 00       		.byte	0
 2299 0650 19       		.uleb128 0x19
 2300 0651 E6080000 		.4byte	.LASF95
 2301 0655 01       		.byte	0x1
 2302 0656 4702     		.2byte	0x247
 2303 0658 AB010000 		.4byte	0x1ab
 2304 065c 00000000 		.4byte	.LFB24
 2305 0660 12000000 		.4byte	.LFE24-.LFB24
 2306 0664 01       		.uleb128 0x1
 2307 0665 9C       		.byte	0x9c
 2308 0666 7A060000 		.4byte	0x67a
 2309 066a 13       		.uleb128 0x13
 2310 066b 29060000 		.4byte	.LASF87
 2311 066f 01       		.byte	0x1
 2312 0670 4702     		.2byte	0x247
ARM GAS  C:\Users\mohammed\AppData\Local\Temp\cctb0af1.s 			page 53


 2313 0672 D9000000 		.4byte	0xd9
 2314 0676 02       		.uleb128 0x2
 2315 0677 91       		.byte	0x91
 2316 0678 74       		.sleb128 -12
 2317 0679 00       		.byte	0
 2318 067a 18       		.uleb128 0x18
 2319 067b BC020000 		.4byte	.LASF97
 2320 067f 01       		.byte	0x1
 2321 0680 4C02     		.2byte	0x24c
 2322 0682 AB010000 		.4byte	0x1ab
 2323 0686 00000000 		.4byte	.LFB25
 2324 068a 0C000000 		.4byte	.LFE25-.LFB25
 2325 068e 01       		.uleb128 0x1
 2326 068f 9C       		.byte	0x9c
 2327 0690 19       		.uleb128 0x19
 2328 0691 EB000000 		.4byte	.LASF98
 2329 0695 01       		.byte	0x1
 2330 0696 5102     		.2byte	0x251
 2331 0698 AB010000 		.4byte	0x1ab
 2332 069c 00000000 		.4byte	.LFB26
 2333 06a0 16000000 		.4byte	.LFE26-.LFB26
 2334 06a4 01       		.uleb128 0x1
 2335 06a5 9C       		.byte	0x9c
 2336 06a6 BA060000 		.4byte	0x6ba
 2337 06aa 13       		.uleb128 0x13
 2338 06ab 29060000 		.4byte	.LASF87
 2339 06af 01       		.byte	0x1
 2340 06b0 5102     		.2byte	0x251
 2341 06b2 6B000000 		.4byte	0x6b
 2342 06b6 02       		.uleb128 0x2
 2343 06b7 91       		.byte	0x91
 2344 06b8 77       		.sleb128 -9
 2345 06b9 00       		.byte	0
 2346 06ba 19       		.uleb128 0x19
 2347 06bb 340A0000 		.4byte	.LASF99
 2348 06bf 01       		.byte	0x1
 2349 06c0 5602     		.2byte	0x256
 2350 06c2 AB010000 		.4byte	0x1ab
 2351 06c6 00000000 		.4byte	.LFB27
 2352 06ca 14000000 		.4byte	.LFE27-.LFB27
 2353 06ce 01       		.uleb128 0x1
 2354 06cf 9C       		.byte	0x9c
 2355 06d0 F3060000 		.4byte	0x6f3
 2356 06d4 13       		.uleb128 0x13
 2357 06d5 9C050000 		.4byte	.LASF100
 2358 06d9 01       		.byte	0x1
 2359 06da 5602     		.2byte	0x256
 2360 06dc D9000000 		.4byte	0xd9
 2361 06e0 02       		.uleb128 0x2
 2362 06e1 91       		.byte	0x91
 2363 06e2 74       		.sleb128 -12
 2364 06e3 13       		.uleb128 0x13
 2365 06e4 2E000000 		.4byte	.LASF101
 2366 06e8 01       		.byte	0x1
 2367 06e9 5702     		.2byte	0x257
 2368 06eb D9000000 		.4byte	0xd9
 2369 06ef 02       		.uleb128 0x2
ARM GAS  C:\Users\mohammed\AppData\Local\Temp\cctb0af1.s 			page 54


 2370 06f0 91       		.byte	0x91
 2371 06f1 70       		.sleb128 -16
 2372 06f2 00       		.byte	0
 2373 06f3 1A       		.uleb128 0x1a
 2374 06f4 90010000 		.4byte	.LASF102
 2375 06f8 01       		.byte	0x1
 2376 06f9 5C02     		.2byte	0x25c
 2377 06fb 00000000 		.4byte	.LFB28
 2378 06ff 08000000 		.4byte	.LFE28-.LFB28
 2379 0703 01       		.uleb128 0x1
 2380 0704 9C       		.byte	0x9c
 2381 0705 19       		.uleb128 0x19
 2382 0706 5E000000 		.4byte	.LASF103
 2383 070a 01       		.byte	0x1
 2384 070b 6002     		.2byte	0x260
 2385 070d AB010000 		.4byte	0x1ab
 2386 0711 00000000 		.4byte	.LFB29
 2387 0715 14000000 		.4byte	.LFE29-.LFB29
 2388 0719 01       		.uleb128 0x1
 2389 071a 9C       		.byte	0x9c
 2390 071b 3E070000 		.4byte	0x73e
 2391 071f 13       		.uleb128 0x13
 2392 0720 9C050000 		.4byte	.LASF100
 2393 0724 01       		.byte	0x1
 2394 0725 6002     		.2byte	0x260
 2395 0727 D9000000 		.4byte	0xd9
 2396 072b 02       		.uleb128 0x2
 2397 072c 91       		.byte	0x91
 2398 072d 74       		.sleb128 -12
 2399 072e 13       		.uleb128 0x13
 2400 072f 2E000000 		.4byte	.LASF101
 2401 0733 01       		.byte	0x1
 2402 0734 6102     		.2byte	0x261
 2403 0736 D9000000 		.4byte	0xd9
 2404 073a 02       		.uleb128 0x2
 2405 073b 91       		.byte	0x91
 2406 073c 70       		.sleb128 -16
 2407 073d 00       		.byte	0
 2408 073e 1A       		.uleb128 0x1a
 2409 073f AC070000 		.4byte	.LASF104
 2410 0743 01       		.byte	0x1
 2411 0744 6602     		.2byte	0x266
 2412 0746 00000000 		.4byte	.LFB30
 2413 074a 08000000 		.4byte	.LFE30-.LFB30
 2414 074e 01       		.uleb128 0x1
 2415 074f 9C       		.byte	0x9c
 2416 0750 19       		.uleb128 0x19
 2417 0751 DB090000 		.4byte	.LASF105
 2418 0755 01       		.byte	0x1
 2419 0756 7C02     		.2byte	0x27c
 2420 0758 77000000 		.4byte	0x77
 2421 075c 00000000 		.4byte	.LFB31
 2422 0760 12000000 		.4byte	.LFE31-.LFB31
 2423 0764 01       		.uleb128 0x1
 2424 0765 9C       		.byte	0x9c
 2425 0766 7A070000 		.4byte	0x77a
 2426 076a 13       		.uleb128 0x13
ARM GAS  C:\Users\mohammed\AppData\Local\Temp\cctb0af1.s 			page 55


 2427 076b 29060000 		.4byte	.LASF87
 2428 076f 01       		.byte	0x1
 2429 0770 7C02     		.2byte	0x27c
 2430 0772 D9000000 		.4byte	0xd9
 2431 0776 02       		.uleb128 0x2
 2432 0777 91       		.byte	0x91
 2433 0778 74       		.sleb128 -12
 2434 0779 00       		.byte	0
 2435 077a 1B       		.uleb128 0x1b
 2436 077b 0E030000 		.4byte	.LASF106
 2437 077f 01       		.byte	0x1
 2438 0780 8102     		.2byte	0x281
 2439 0782 77000000 		.4byte	0x77
 2440 0786 00000000 		.4byte	.LFB32
 2441 078a 12000000 		.4byte	.LFE32-.LFB32
 2442 078e 01       		.uleb128 0x1
 2443 078f 9C       		.byte	0x9c
 2444 0790 13       		.uleb128 0x13
 2445 0791 29060000 		.4byte	.LASF87
 2446 0795 01       		.byte	0x1
 2447 0796 8102     		.2byte	0x281
 2448 0798 D9000000 		.4byte	0xd9
 2449 079c 02       		.uleb128 0x2
 2450 079d 91       		.byte	0x91
 2451 079e 74       		.sleb128 -12
 2452 079f 00       		.byte	0
 2453 07a0 00       		.byte	0
 2454              		.section	.debug_abbrev,"",%progbits
 2455              	.Ldebug_abbrev0:
 2456 0000 01       		.uleb128 0x1
 2457 0001 11       		.uleb128 0x11
 2458 0002 01       		.byte	0x1
 2459 0003 25       		.uleb128 0x25
 2460 0004 0E       		.uleb128 0xe
 2461 0005 13       		.uleb128 0x13
 2462 0006 0B       		.uleb128 0xb
 2463 0007 03       		.uleb128 0x3
 2464 0008 0E       		.uleb128 0xe
 2465 0009 1B       		.uleb128 0x1b
 2466 000a 0E       		.uleb128 0xe
 2467 000b 55       		.uleb128 0x55
 2468 000c 17       		.uleb128 0x17
 2469 000d 11       		.uleb128 0x11
 2470 000e 01       		.uleb128 0x1
 2471 000f 10       		.uleb128 0x10
 2472 0010 17       		.uleb128 0x17
 2473 0011 00       		.byte	0
 2474 0012 00       		.byte	0
 2475 0013 02       		.uleb128 0x2
 2476 0014 24       		.uleb128 0x24
 2477 0015 00       		.byte	0
 2478 0016 0B       		.uleb128 0xb
 2479 0017 0B       		.uleb128 0xb
 2480 0018 3E       		.uleb128 0x3e
 2481 0019 0B       		.uleb128 0xb
 2482 001a 03       		.uleb128 0x3
 2483 001b 0E       		.uleb128 0xe
ARM GAS  C:\Users\mohammed\AppData\Local\Temp\cctb0af1.s 			page 56


 2484 001c 00       		.byte	0
 2485 001d 00       		.byte	0
 2486 001e 03       		.uleb128 0x3
 2487 001f 24       		.uleb128 0x24
 2488 0020 00       		.byte	0
 2489 0021 0B       		.uleb128 0xb
 2490 0022 0B       		.uleb128 0xb
 2491 0023 3E       		.uleb128 0x3e
 2492 0024 0B       		.uleb128 0xb
 2493 0025 03       		.uleb128 0x3
 2494 0026 08       		.uleb128 0x8
 2495 0027 00       		.byte	0
 2496 0028 00       		.byte	0
 2497 0029 04       		.uleb128 0x4
 2498 002a 16       		.uleb128 0x16
 2499 002b 00       		.byte	0
 2500 002c 03       		.uleb128 0x3
 2501 002d 0E       		.uleb128 0xe
 2502 002e 3A       		.uleb128 0x3a
 2503 002f 0B       		.uleb128 0xb
 2504 0030 3B       		.uleb128 0x3b
 2505 0031 05       		.uleb128 0x5
 2506 0032 49       		.uleb128 0x49
 2507 0033 13       		.uleb128 0x13
 2508 0034 00       		.byte	0
 2509 0035 00       		.byte	0
 2510 0036 05       		.uleb128 0x5
 2511 0037 35       		.uleb128 0x35
 2512 0038 00       		.byte	0
 2513 0039 49       		.uleb128 0x49
 2514 003a 13       		.uleb128 0x13
 2515 003b 00       		.byte	0
 2516 003c 00       		.byte	0
 2517 003d 06       		.uleb128 0x6
 2518 003e 0F       		.uleb128 0xf
 2519 003f 00       		.byte	0
 2520 0040 0B       		.uleb128 0xb
 2521 0041 0B       		.uleb128 0xb
 2522 0042 00       		.byte	0
 2523 0043 00       		.byte	0
 2524 0044 07       		.uleb128 0x7
 2525 0045 04       		.uleb128 0x4
 2526 0046 01       		.byte	0x1
 2527 0047 0B       		.uleb128 0xb
 2528 0048 0B       		.uleb128 0xb
 2529 0049 3A       		.uleb128 0x3a
 2530 004a 0B       		.uleb128 0xb
 2531 004b 3B       		.uleb128 0x3b
 2532 004c 05       		.uleb128 0x5
 2533 004d 01       		.uleb128 0x1
 2534 004e 13       		.uleb128 0x13
 2535 004f 00       		.byte	0
 2536 0050 00       		.byte	0
 2537 0051 08       		.uleb128 0x8
 2538 0052 28       		.uleb128 0x28
 2539 0053 00       		.byte	0
 2540 0054 03       		.uleb128 0x3
ARM GAS  C:\Users\mohammed\AppData\Local\Temp\cctb0af1.s 			page 57


 2541 0055 0E       		.uleb128 0xe
 2542 0056 1C       		.uleb128 0x1c
 2543 0057 0D       		.uleb128 0xd
 2544 0058 00       		.byte	0
 2545 0059 00       		.byte	0
 2546 005a 09       		.uleb128 0x9
 2547 005b 0F       		.uleb128 0xf
 2548 005c 00       		.byte	0
 2549 005d 0B       		.uleb128 0xb
 2550 005e 0B       		.uleb128 0xb
 2551 005f 49       		.uleb128 0x49
 2552 0060 13       		.uleb128 0x13
 2553 0061 00       		.byte	0
 2554 0062 00       		.byte	0
 2555 0063 0A       		.uleb128 0xa
 2556 0064 2E       		.uleb128 0x2e
 2557 0065 01       		.byte	0x1
 2558 0066 3F       		.uleb128 0x3f
 2559 0067 19       		.uleb128 0x19
 2560 0068 03       		.uleb128 0x3
 2561 0069 0E       		.uleb128 0xe
 2562 006a 3A       		.uleb128 0x3a
 2563 006b 0B       		.uleb128 0xb
 2564 006c 3B       		.uleb128 0x3b
 2565 006d 0B       		.uleb128 0xb
 2566 006e 27       		.uleb128 0x27
 2567 006f 19       		.uleb128 0x19
 2568 0070 49       		.uleb128 0x49
 2569 0071 13       		.uleb128 0x13
 2570 0072 11       		.uleb128 0x11
 2571 0073 01       		.uleb128 0x1
 2572 0074 12       		.uleb128 0x12
 2573 0075 06       		.uleb128 0x6
 2574 0076 40       		.uleb128 0x40
 2575 0077 18       		.uleb128 0x18
 2576 0078 9642     		.uleb128 0x2116
 2577 007a 19       		.uleb128 0x19
 2578 007b 01       		.uleb128 0x1
 2579 007c 13       		.uleb128 0x13
 2580 007d 00       		.byte	0
 2581 007e 00       		.byte	0
 2582 007f 0B       		.uleb128 0xb
 2583 0080 05       		.uleb128 0x5
 2584 0081 00       		.byte	0
 2585 0082 03       		.uleb128 0x3
 2586 0083 0E       		.uleb128 0xe
 2587 0084 3A       		.uleb128 0x3a
 2588 0085 0B       		.uleb128 0xb
 2589 0086 3B       		.uleb128 0x3b
 2590 0087 0B       		.uleb128 0xb
 2591 0088 49       		.uleb128 0x49
 2592 0089 13       		.uleb128 0x13
 2593 008a 02       		.uleb128 0x2
 2594 008b 18       		.uleb128 0x18
 2595 008c 00       		.byte	0
 2596 008d 00       		.byte	0
 2597 008e 0C       		.uleb128 0xc
ARM GAS  C:\Users\mohammed\AppData\Local\Temp\cctb0af1.s 			page 58


 2598 008f 34       		.uleb128 0x34
 2599 0090 00       		.byte	0
 2600 0091 03       		.uleb128 0x3
 2601 0092 0E       		.uleb128 0xe
 2602 0093 3A       		.uleb128 0x3a
 2603 0094 0B       		.uleb128 0xb
 2604 0095 3B       		.uleb128 0x3b
 2605 0096 0B       		.uleb128 0xb
 2606 0097 49       		.uleb128 0x49
 2607 0098 13       		.uleb128 0x13
 2608 0099 02       		.uleb128 0x2
 2609 009a 18       		.uleb128 0x18
 2610 009b 00       		.byte	0
 2611 009c 00       		.byte	0
 2612 009d 0D       		.uleb128 0xd
 2613 009e 34       		.uleb128 0x34
 2614 009f 00       		.byte	0
 2615 00a0 03       		.uleb128 0x3
 2616 00a1 08       		.uleb128 0x8
 2617 00a2 3A       		.uleb128 0x3a
 2618 00a3 0B       		.uleb128 0xb
 2619 00a4 3B       		.uleb128 0x3b
 2620 00a5 0B       		.uleb128 0xb
 2621 00a6 49       		.uleb128 0x49
 2622 00a7 13       		.uleb128 0x13
 2623 00a8 02       		.uleb128 0x2
 2624 00a9 18       		.uleb128 0x18
 2625 00aa 00       		.byte	0
 2626 00ab 00       		.byte	0
 2627 00ac 0E       		.uleb128 0xe
 2628 00ad 26       		.uleb128 0x26
 2629 00ae 00       		.byte	0
 2630 00af 49       		.uleb128 0x49
 2631 00b0 13       		.uleb128 0x13
 2632 00b1 00       		.byte	0
 2633 00b2 00       		.byte	0
 2634 00b3 0F       		.uleb128 0xf
 2635 00b4 01       		.uleb128 0x1
 2636 00b5 01       		.byte	0x1
 2637 00b6 49       		.uleb128 0x49
 2638 00b7 13       		.uleb128 0x13
 2639 00b8 01       		.uleb128 0x1
 2640 00b9 13       		.uleb128 0x13
 2641 00ba 00       		.byte	0
 2642 00bb 00       		.byte	0
 2643 00bc 10       		.uleb128 0x10
 2644 00bd 21       		.uleb128 0x21
 2645 00be 00       		.byte	0
 2646 00bf 49       		.uleb128 0x49
 2647 00c0 13       		.uleb128 0x13
 2648 00c1 2F       		.uleb128 0x2f
 2649 00c2 0B       		.uleb128 0xb
 2650 00c3 00       		.byte	0
 2651 00c4 00       		.byte	0
 2652 00c5 11       		.uleb128 0x11
 2653 00c6 2E       		.uleb128 0x2e
 2654 00c7 01       		.byte	0x1
ARM GAS  C:\Users\mohammed\AppData\Local\Temp\cctb0af1.s 			page 59


 2655 00c8 3F       		.uleb128 0x3f
 2656 00c9 19       		.uleb128 0x19
 2657 00ca 03       		.uleb128 0x3
 2658 00cb 0E       		.uleb128 0xe
 2659 00cc 3A       		.uleb128 0x3a
 2660 00cd 0B       		.uleb128 0xb
 2661 00ce 3B       		.uleb128 0x3b
 2662 00cf 0B       		.uleb128 0xb
 2663 00d0 27       		.uleb128 0x27
 2664 00d1 19       		.uleb128 0x19
 2665 00d2 11       		.uleb128 0x11
 2666 00d3 01       		.uleb128 0x1
 2667 00d4 12       		.uleb128 0x12
 2668 00d5 06       		.uleb128 0x6
 2669 00d6 40       		.uleb128 0x40
 2670 00d7 18       		.uleb128 0x18
 2671 00d8 9742     		.uleb128 0x2117
 2672 00da 19       		.uleb128 0x19
 2673 00db 01       		.uleb128 0x1
 2674 00dc 13       		.uleb128 0x13
 2675 00dd 00       		.byte	0
 2676 00de 00       		.byte	0
 2677 00df 12       		.uleb128 0x12
 2678 00e0 2E       		.uleb128 0x2e
 2679 00e1 01       		.byte	0x1
 2680 00e2 3F       		.uleb128 0x3f
 2681 00e3 19       		.uleb128 0x19
 2682 00e4 03       		.uleb128 0x3
 2683 00e5 0E       		.uleb128 0xe
 2684 00e6 3A       		.uleb128 0x3a
 2685 00e7 0B       		.uleb128 0xb
 2686 00e8 3B       		.uleb128 0x3b
 2687 00e9 05       		.uleb128 0x5
 2688 00ea 27       		.uleb128 0x27
 2689 00eb 19       		.uleb128 0x19
 2690 00ec 11       		.uleb128 0x11
 2691 00ed 01       		.uleb128 0x1
 2692 00ee 12       		.uleb128 0x12
 2693 00ef 06       		.uleb128 0x6
 2694 00f0 40       		.uleb128 0x40
 2695 00f1 18       		.uleb128 0x18
 2696 00f2 9742     		.uleb128 0x2117
 2697 00f4 19       		.uleb128 0x19
 2698 00f5 01       		.uleb128 0x1
 2699 00f6 13       		.uleb128 0x13
 2700 00f7 00       		.byte	0
 2701 00f8 00       		.byte	0
 2702 00f9 13       		.uleb128 0x13
 2703 00fa 05       		.uleb128 0x5
 2704 00fb 00       		.byte	0
 2705 00fc 03       		.uleb128 0x3
 2706 00fd 0E       		.uleb128 0xe
 2707 00fe 3A       		.uleb128 0x3a
 2708 00ff 0B       		.uleb128 0xb
 2709 0100 3B       		.uleb128 0x3b
 2710 0101 05       		.uleb128 0x5
 2711 0102 49       		.uleb128 0x49
ARM GAS  C:\Users\mohammed\AppData\Local\Temp\cctb0af1.s 			page 60


 2712 0103 13       		.uleb128 0x13
 2713 0104 02       		.uleb128 0x2
 2714 0105 18       		.uleb128 0x18
 2715 0106 00       		.byte	0
 2716 0107 00       		.byte	0
 2717 0108 14       		.uleb128 0x14
 2718 0109 34       		.uleb128 0x34
 2719 010a 00       		.byte	0
 2720 010b 03       		.uleb128 0x3
 2721 010c 0E       		.uleb128 0xe
 2722 010d 3A       		.uleb128 0x3a
 2723 010e 0B       		.uleb128 0xb
 2724 010f 3B       		.uleb128 0x3b
 2725 0110 05       		.uleb128 0x5
 2726 0111 49       		.uleb128 0x49
 2727 0112 13       		.uleb128 0x13
 2728 0113 02       		.uleb128 0x2
 2729 0114 18       		.uleb128 0x18
 2730 0115 00       		.byte	0
 2731 0116 00       		.byte	0
 2732 0117 15       		.uleb128 0x15
 2733 0118 34       		.uleb128 0x34
 2734 0119 00       		.byte	0
 2735 011a 03       		.uleb128 0x3
 2736 011b 08       		.uleb128 0x8
 2737 011c 3A       		.uleb128 0x3a
 2738 011d 0B       		.uleb128 0xb
 2739 011e 3B       		.uleb128 0x3b
 2740 011f 05       		.uleb128 0x5
 2741 0120 49       		.uleb128 0x49
 2742 0121 13       		.uleb128 0x13
 2743 0122 02       		.uleb128 0x2
 2744 0123 18       		.uleb128 0x18
 2745 0124 00       		.byte	0
 2746 0125 00       		.byte	0
 2747 0126 16       		.uleb128 0x16
 2748 0127 2E       		.uleb128 0x2e
 2749 0128 01       		.byte	0x1
 2750 0129 3F       		.uleb128 0x3f
 2751 012a 19       		.uleb128 0x19
 2752 012b 03       		.uleb128 0x3
 2753 012c 0E       		.uleb128 0xe
 2754 012d 3A       		.uleb128 0x3a
 2755 012e 0B       		.uleb128 0xb
 2756 012f 3B       		.uleb128 0x3b
 2757 0130 05       		.uleb128 0x5
 2758 0131 27       		.uleb128 0x27
 2759 0132 19       		.uleb128 0x19
 2760 0133 11       		.uleb128 0x11
 2761 0134 01       		.uleb128 0x1
 2762 0135 12       		.uleb128 0x12
 2763 0136 06       		.uleb128 0x6
 2764 0137 40       		.uleb128 0x40
 2765 0138 18       		.uleb128 0x18
 2766 0139 9642     		.uleb128 0x2116
 2767 013b 19       		.uleb128 0x19
 2768 013c 01       		.uleb128 0x1
ARM GAS  C:\Users\mohammed\AppData\Local\Temp\cctb0af1.s 			page 61


 2769 013d 13       		.uleb128 0x13
 2770 013e 00       		.byte	0
 2771 013f 00       		.byte	0
 2772 0140 17       		.uleb128 0x17
 2773 0141 2E       		.uleb128 0x2e
 2774 0142 00       		.byte	0
 2775 0143 3F       		.uleb128 0x3f
 2776 0144 19       		.uleb128 0x19
 2777 0145 03       		.uleb128 0x3
 2778 0146 0E       		.uleb128 0xe
 2779 0147 3A       		.uleb128 0x3a
 2780 0148 0B       		.uleb128 0xb
 2781 0149 3B       		.uleb128 0x3b
 2782 014a 05       		.uleb128 0x5
 2783 014b 27       		.uleb128 0x27
 2784 014c 19       		.uleb128 0x19
 2785 014d 11       		.uleb128 0x11
 2786 014e 01       		.uleb128 0x1
 2787 014f 12       		.uleb128 0x12
 2788 0150 06       		.uleb128 0x6
 2789 0151 40       		.uleb128 0x40
 2790 0152 18       		.uleb128 0x18
 2791 0153 9642     		.uleb128 0x2116
 2792 0155 19       		.uleb128 0x19
 2793 0156 00       		.byte	0
 2794 0157 00       		.byte	0
 2795 0158 18       		.uleb128 0x18
 2796 0159 2E       		.uleb128 0x2e
 2797 015a 00       		.byte	0
 2798 015b 3F       		.uleb128 0x3f
 2799 015c 19       		.uleb128 0x19
 2800 015d 03       		.uleb128 0x3
 2801 015e 0E       		.uleb128 0xe
 2802 015f 3A       		.uleb128 0x3a
 2803 0160 0B       		.uleb128 0xb
 2804 0161 3B       		.uleb128 0x3b
 2805 0162 05       		.uleb128 0x5
 2806 0163 27       		.uleb128 0x27
 2807 0164 19       		.uleb128 0x19
 2808 0165 49       		.uleb128 0x49
 2809 0166 13       		.uleb128 0x13
 2810 0167 11       		.uleb128 0x11
 2811 0168 01       		.uleb128 0x1
 2812 0169 12       		.uleb128 0x12
 2813 016a 06       		.uleb128 0x6
 2814 016b 40       		.uleb128 0x40
 2815 016c 18       		.uleb128 0x18
 2816 016d 9742     		.uleb128 0x2117
 2817 016f 19       		.uleb128 0x19
 2818 0170 00       		.byte	0
 2819 0171 00       		.byte	0
 2820 0172 19       		.uleb128 0x19
 2821 0173 2E       		.uleb128 0x2e
 2822 0174 01       		.byte	0x1
 2823 0175 3F       		.uleb128 0x3f
 2824 0176 19       		.uleb128 0x19
 2825 0177 03       		.uleb128 0x3
ARM GAS  C:\Users\mohammed\AppData\Local\Temp\cctb0af1.s 			page 62


 2826 0178 0E       		.uleb128 0xe
 2827 0179 3A       		.uleb128 0x3a
 2828 017a 0B       		.uleb128 0xb
 2829 017b 3B       		.uleb128 0x3b
 2830 017c 05       		.uleb128 0x5
 2831 017d 27       		.uleb128 0x27
 2832 017e 19       		.uleb128 0x19
 2833 017f 49       		.uleb128 0x49
 2834 0180 13       		.uleb128 0x13
 2835 0181 11       		.uleb128 0x11
 2836 0182 01       		.uleb128 0x1
 2837 0183 12       		.uleb128 0x12
 2838 0184 06       		.uleb128 0x6
 2839 0185 40       		.uleb128 0x40
 2840 0186 18       		.uleb128 0x18
 2841 0187 9742     		.uleb128 0x2117
 2842 0189 19       		.uleb128 0x19
 2843 018a 01       		.uleb128 0x1
 2844 018b 13       		.uleb128 0x13
 2845 018c 00       		.byte	0
 2846 018d 00       		.byte	0
 2847 018e 1A       		.uleb128 0x1a
 2848 018f 2E       		.uleb128 0x2e
 2849 0190 00       		.byte	0
 2850 0191 3F       		.uleb128 0x3f
 2851 0192 19       		.uleb128 0x19
 2852 0193 03       		.uleb128 0x3
 2853 0194 0E       		.uleb128 0xe
 2854 0195 3A       		.uleb128 0x3a
 2855 0196 0B       		.uleb128 0xb
 2856 0197 3B       		.uleb128 0x3b
 2857 0198 05       		.uleb128 0x5
 2858 0199 27       		.uleb128 0x27
 2859 019a 19       		.uleb128 0x19
 2860 019b 11       		.uleb128 0x11
 2861 019c 01       		.uleb128 0x1
 2862 019d 12       		.uleb128 0x12
 2863 019e 06       		.uleb128 0x6
 2864 019f 40       		.uleb128 0x40
 2865 01a0 18       		.uleb128 0x18
 2866 01a1 9742     		.uleb128 0x2117
 2867 01a3 19       		.uleb128 0x19
 2868 01a4 00       		.byte	0
 2869 01a5 00       		.byte	0
 2870 01a6 1B       		.uleb128 0x1b
 2871 01a7 2E       		.uleb128 0x2e
 2872 01a8 01       		.byte	0x1
 2873 01a9 3F       		.uleb128 0x3f
 2874 01aa 19       		.uleb128 0x19
 2875 01ab 03       		.uleb128 0x3
 2876 01ac 0E       		.uleb128 0xe
 2877 01ad 3A       		.uleb128 0x3a
 2878 01ae 0B       		.uleb128 0xb
 2879 01af 3B       		.uleb128 0x3b
 2880 01b0 05       		.uleb128 0x5
 2881 01b1 27       		.uleb128 0x27
 2882 01b2 19       		.uleb128 0x19
ARM GAS  C:\Users\mohammed\AppData\Local\Temp\cctb0af1.s 			page 63


 2883 01b3 49       		.uleb128 0x49
 2884 01b4 13       		.uleb128 0x13
 2885 01b5 11       		.uleb128 0x11
 2886 01b6 01       		.uleb128 0x1
 2887 01b7 12       		.uleb128 0x12
 2888 01b8 06       		.uleb128 0x6
 2889 01b9 40       		.uleb128 0x40
 2890 01ba 18       		.uleb128 0x18
 2891 01bb 9742     		.uleb128 0x2117
 2892 01bd 19       		.uleb128 0x19
 2893 01be 00       		.byte	0
 2894 01bf 00       		.byte	0
 2895 01c0 00       		.byte	0
 2896              		.section	.debug_aranges,"",%progbits
 2897 0000 0C010000 		.4byte	0x10c
 2898 0004 0200     		.2byte	0x2
 2899 0006 00000000 		.4byte	.Ldebug_info0
 2900 000a 04       		.byte	0x4
 2901 000b 00       		.byte	0
 2902 000c 0000     		.2byte	0
 2903 000e 0000     		.2byte	0
 2904 0010 00000000 		.4byte	.LFB2
 2905 0014 9C010000 		.4byte	.LFE2-.LFB2
 2906 0018 00000000 		.4byte	.LFB3
 2907 001c C6000000 		.4byte	.LFE3-.LFB3
 2908 0020 00000000 		.4byte	.LFB4
 2909 0024 1A000000 		.4byte	.LFE4-.LFB4
 2910 0028 00000000 		.4byte	.LFB5
 2911 002c 1C000000 		.4byte	.LFE5-.LFB5
 2912 0030 00000000 		.4byte	.LFB6
 2913 0034 1A000000 		.4byte	.LFE6-.LFB6
 2914 0038 00000000 		.4byte	.LFB7
 2915 003c 1C000000 		.4byte	.LFE7-.LFB7
 2916 0040 00000000 		.4byte	.LFB8
 2917 0044 94010000 		.4byte	.LFE8-.LFB8
 2918 0048 00000000 		.4byte	.LFB9
 2919 004c 1C000000 		.4byte	.LFE9-.LFB9
 2920 0050 00000000 		.4byte	.LFB10
 2921 0054 16000000 		.4byte	.LFE10-.LFB10
 2922 0058 00000000 		.4byte	.LFB11
 2923 005c 0C000000 		.4byte	.LFE11-.LFB11
 2924 0060 00000000 		.4byte	.LFB12
 2925 0064 0C000000 		.4byte	.LFE12-.LFB12
 2926 0068 00000000 		.4byte	.LFB13
 2927 006c 20000000 		.4byte	.LFE13-.LFB13
 2928 0070 00000000 		.4byte	.LFB14
 2929 0074 14000000 		.4byte	.LFE14-.LFB14
 2930 0078 00000000 		.4byte	.LFB15
 2931 007c 0E000000 		.4byte	.LFE15-.LFB15
 2932 0080 00000000 		.4byte	.LFB16
 2933 0084 12000000 		.4byte	.LFE16-.LFB16
 2934 0088 00000000 		.4byte	.LFB17
 2935 008c 12000000 		.4byte	.LFE17-.LFB17
 2936 0090 00000000 		.4byte	.LFB18
 2937 0094 12000000 		.4byte	.LFE18-.LFB18
 2938 0098 00000000 		.4byte	.LFB19
 2939 009c 12000000 		.4byte	.LFE19-.LFB19
ARM GAS  C:\Users\mohammed\AppData\Local\Temp\cctb0af1.s 			page 64


 2940 00a0 00000000 		.4byte	.LFB20
 2941 00a4 12000000 		.4byte	.LFE20-.LFB20
 2942 00a8 00000000 		.4byte	.LFB21
 2943 00ac 12000000 		.4byte	.LFE21-.LFB21
 2944 00b0 00000000 		.4byte	.LFB22
 2945 00b4 12000000 		.4byte	.LFE22-.LFB22
 2946 00b8 00000000 		.4byte	.LFB23
 2947 00bc 12000000 		.4byte	.LFE23-.LFB23
 2948 00c0 00000000 		.4byte	.LFB24
 2949 00c4 12000000 		.4byte	.LFE24-.LFB24
 2950 00c8 00000000 		.4byte	.LFB25
 2951 00cc 0C000000 		.4byte	.LFE25-.LFB25
 2952 00d0 00000000 		.4byte	.LFB26
 2953 00d4 16000000 		.4byte	.LFE26-.LFB26
 2954 00d8 00000000 		.4byte	.LFB27
 2955 00dc 14000000 		.4byte	.LFE27-.LFB27
 2956 00e0 00000000 		.4byte	.LFB28
 2957 00e4 08000000 		.4byte	.LFE28-.LFB28
 2958 00e8 00000000 		.4byte	.LFB29
 2959 00ec 14000000 		.4byte	.LFE29-.LFB29
 2960 00f0 00000000 		.4byte	.LFB30
 2961 00f4 08000000 		.4byte	.LFE30-.LFB30
 2962 00f8 00000000 		.4byte	.LFB31
 2963 00fc 12000000 		.4byte	.LFE31-.LFB31
 2964 0100 00000000 		.4byte	.LFB32
 2965 0104 12000000 		.4byte	.LFE32-.LFB32
 2966 0108 00000000 		.4byte	0
 2967 010c 00000000 		.4byte	0
 2968              		.section	.debug_ranges,"",%progbits
 2969              	.Ldebug_ranges0:
 2970 0000 00000000 		.4byte	.LFB2
 2971 0004 9C010000 		.4byte	.LFE2
 2972 0008 00000000 		.4byte	.LFB3
 2973 000c C6000000 		.4byte	.LFE3
 2974 0010 00000000 		.4byte	.LFB4
 2975 0014 1A000000 		.4byte	.LFE4
 2976 0018 00000000 		.4byte	.LFB5
 2977 001c 1C000000 		.4byte	.LFE5
 2978 0020 00000000 		.4byte	.LFB6
 2979 0024 1A000000 		.4byte	.LFE6
 2980 0028 00000000 		.4byte	.LFB7
 2981 002c 1C000000 		.4byte	.LFE7
 2982 0030 00000000 		.4byte	.LFB8
 2983 0034 94010000 		.4byte	.LFE8
 2984 0038 00000000 		.4byte	.LFB9
 2985 003c 1C000000 		.4byte	.LFE9
 2986 0040 00000000 		.4byte	.LFB10
 2987 0044 16000000 		.4byte	.LFE10
 2988 0048 00000000 		.4byte	.LFB11
 2989 004c 0C000000 		.4byte	.LFE11
 2990 0050 00000000 		.4byte	.LFB12
 2991 0054 0C000000 		.4byte	.LFE12
 2992 0058 00000000 		.4byte	.LFB13
 2993 005c 20000000 		.4byte	.LFE13
 2994 0060 00000000 		.4byte	.LFB14
 2995 0064 14000000 		.4byte	.LFE14
 2996 0068 00000000 		.4byte	.LFB15
ARM GAS  C:\Users\mohammed\AppData\Local\Temp\cctb0af1.s 			page 65


 2997 006c 0E000000 		.4byte	.LFE15
 2998 0070 00000000 		.4byte	.LFB16
 2999 0074 12000000 		.4byte	.LFE16
 3000 0078 00000000 		.4byte	.LFB17
 3001 007c 12000000 		.4byte	.LFE17
 3002 0080 00000000 		.4byte	.LFB18
 3003 0084 12000000 		.4byte	.LFE18
 3004 0088 00000000 		.4byte	.LFB19
 3005 008c 12000000 		.4byte	.LFE19
 3006 0090 00000000 		.4byte	.LFB20
 3007 0094 12000000 		.4byte	.LFE20
 3008 0098 00000000 		.4byte	.LFB21
 3009 009c 12000000 		.4byte	.LFE21
 3010 00a0 00000000 		.4byte	.LFB22
 3011 00a4 12000000 		.4byte	.LFE22
 3012 00a8 00000000 		.4byte	.LFB23
 3013 00ac 12000000 		.4byte	.LFE23
 3014 00b0 00000000 		.4byte	.LFB24
 3015 00b4 12000000 		.4byte	.LFE24
 3016 00b8 00000000 		.4byte	.LFB25
 3017 00bc 0C000000 		.4byte	.LFE25
 3018 00c0 00000000 		.4byte	.LFB26
 3019 00c4 16000000 		.4byte	.LFE26
 3020 00c8 00000000 		.4byte	.LFB27
 3021 00cc 14000000 		.4byte	.LFE27
 3022 00d0 00000000 		.4byte	.LFB28
 3023 00d4 08000000 		.4byte	.LFE28
 3024 00d8 00000000 		.4byte	.LFB29
 3025 00dc 14000000 		.4byte	.LFE29
 3026 00e0 00000000 		.4byte	.LFB30
 3027 00e4 08000000 		.4byte	.LFE30
 3028 00e8 00000000 		.4byte	.LFB31
 3029 00ec 12000000 		.4byte	.LFE31
 3030 00f0 00000000 		.4byte	.LFB32
 3031 00f4 12000000 		.4byte	.LFE32
 3032 00f8 00000000 		.4byte	0
 3033 00fc 00000000 		.4byte	0
 3034              		.section	.debug_line,"",%progbits
 3035              	.Ldebug_line0:
 3036 0000 30030000 		.section	.debug_str,"MS",%progbits,1
 3036      02005D00 
 3036      00000201 
 3036      FB0E0D00 
 3036      01010101 
 3037              	.LASF53:
 3038 0000 76617246 		.ascii	"varFlash\000"
 3038      6C617368 
 3038      00
 3039              	.LASF34:
 3040 0009 4359424C 		.ascii	"CYBLE_ERROR_L2CAP_PSM_NOT_REGISTERED\000"
 3040      455F4552 
 3040      524F525F 
 3040      4C324341 
 3040      505F5053 
 3041              	.LASF101:
 3042 002e 70617261 		.ascii	"param2\000"
 3042      6D3200
ARM GAS  C:\Users\mohammed\AppData\Local\Temp\cctb0af1.s 			page 66


 3043              	.LASF33:
 3044 0035 4359424C 		.ascii	"CYBLE_ERROR_L2CAP_PSM_ALREADY_REGISTERED\000"
 3044      455F4552 
 3044      524F525F 
 3044      4C324341 
 3044      505F5053 
 3045              	.LASF103:
 3046 005e 4379426C 		.ascii	"CyBle_Hal_se_smp_sc_user_passkey_handler\000"
 3046      655F4861 
 3046      6C5F7365 
 3046      5F736D70 
 3046      5F73635F 
 3047              	.LASF12:
 3048 0087 666C6F61 		.ascii	"float\000"
 3048      7400
 3049              	.LASF68:
 3050 008d 626C6573 		.ascii	"blessAddr\000"
 3050      73416464 
 3050      7200
 3051              	.LASF29:
 3052 0097 4359424C 		.ascii	"CYBLE_ERROR_TX_POWER_READ\000"
 3052      455F4552 
 3052      524F525F 
 3052      54585F50 
 3052      4F574552 
 3053              	.LASF72:
 3054 00b1 4379424C 		.ascii	"CyBLE_Bless_RfRegRead\000"
 3054      455F426C 
 3054      6573735F 
 3054      52665265 
 3054      67526561 
 3055              	.LASF36:
 3056 00c7 4359424C 		.ascii	"CYBLE_ERROR_L2CAP_CHANNEL_NOT_FOUND\000"
 3056      455F4552 
 3056      524F525F 
 3056      4C324341 
 3056      505F4348 
 3057              	.LASF98:
 3058 00eb 4379426C 		.ascii	"CyBle_Hal_pairing_sc_tbx_generate_local_P256_public"
 3058      655F4861 
 3058      6C5F7061 
 3058      6972696E 
 3058      675F7363 
 3059 011e 5F6B6579 		.ascii	"_key\000"
 3059      00
 3060              	.LASF2:
 3061 0123 73686F72 		.ascii	"short int\000"
 3061      7420696E 
 3061      7400
 3062              	.LASF18:
 3063 012d 73697A65 		.ascii	"sizetype\000"
 3063      74797065 
 3063      00
 3064              	.LASF57:
 3065 0136 64737449 		.ascii	"dstIndex\000"
 3065      6E646578 
 3065      00
ARM GAS  C:\Users\mohammed\AppData\Local\Temp\cctb0af1.s 			page 67


 3066              	.LASF19:
 3067 013f 4359424C 		.ascii	"CYBLE_ERROR_OK\000"
 3067      455F4552 
 3067      524F525F 
 3067      4F4B00
 3068              	.LASF40:
 3069 014e 4359424C 		.ascii	"CYBLE_ERROR_FLASH_WRITE_NOT_PERMITED\000"
 3069      455F4552 
 3069      524F525F 
 3069      464C4153 
 3069      485F5752 
 3070              	.LASF42:
 3071 0173 4359424C 		.ascii	"CYBLE_ERROR_HARDWARE_FAILURE\000"
 3071      455F4552 
 3071      524F525F 
 3071      48415244 
 3071      57415245 
 3072              	.LASF102:
 3073 0190 4379426C 		.ascii	"CyBle_Hal_smp_sc_cmac_complete\000"
 3073      655F4861 
 3073      6C5F736D 
 3073      705F7363 
 3073      5F636D61 
 3074              	.LASF41:
 3075 01af 4359424C 		.ascii	"CYBLE_ERROR_MIC_AUTH_FAILED\000"
 3075      455F4552 
 3075      524F525F 
 3075      4D49435F 
 3075      41555448 
 3076              	.LASF20:
 3077 01cb 4359424C 		.ascii	"CYBLE_ERROR_INVALID_PARAMETER\000"
 3077      455F4552 
 3077      524F525F 
 3077      494E5641 
 3077      4C49445F 
 3078              	.LASF24:
 3079 01e9 4359424C 		.ascii	"CYBLE_ERROR_OOB_NOT_AVAILABLE\000"
 3079      455F4552 
 3079      524F525F 
 3079      4F4F425F 
 3079      4E4F545F 
 3080              	.LASF93:
 3081 0207 4379426C 		.ascii	"CyBle_Hal_pairing_confirm_handler\000"
 3081      655F4861 
 3081      6C5F7061 
 3081      6972696E 
 3081      675F636F 
 3082              	.LASF65:
 3083 0229 666C6173 		.ascii	"flashBuffer\000"
 3083      68427566 
 3083      66657200 
 3084              	.LASF21:
 3085 0235 4359424C 		.ascii	"CYBLE_ERROR_INVALID_OPERATION\000"
 3085      455F4552 
 3085      524F525F 
 3085      494E5641 
 3085      4C49445F 
ARM GAS  C:\Users\mohammed\AppData\Local\Temp\cctb0af1.s 			page 68


 3086              	.LASF85:
 3087 0253 4359424C 		.ascii	"CYBLE_BlessStart\000"
 3087      455F426C 
 3087      65737353 
 3087      74617274 
 3087      00
 3088              	.LASF66:
 3089 0264 6C656E67 		.ascii	"lengthFlash\000"
 3089      7468466C 
 3089      61736800 
 3090              	.LASF51:
 3091 0270 4359424C 		.ascii	"CYBLE_API_RESULT_T\000"
 3091      455F4150 
 3091      495F5245 
 3091      53554C54 
 3091      5F5400
 3092              	.LASF69:
 3093 0283 72656756 		.ascii	"regValue\000"
 3093      616C7565 
 3093      00
 3094              	.LASF91:
 3095 028c 4379426C 		.ascii	"CyBle_Hal_pairing_keypress_notification_handler\000"
 3095      655F4861 
 3095      6C5F7061 
 3095      6972696E 
 3095      675F6B65 
 3096              	.LASF97:
 3097 02bc 4379426C 		.ascii	"CyBle_Hal_pairing_sc_tbx_local_pubkey_generate_comp"
 3097      655F4861 
 3097      6C5F7061 
 3097      6972696E 
 3097      675F7363 
 3098 02ef 6C657465 		.ascii	"lete\000"
 3098      00
 3099              	.LASF25:
 3100 02f4 4359424C 		.ascii	"CYBLE_ERROR_NO_CONNECTION\000"
 3100      455F4552 
 3100      524F525F 
 3100      4E4F5F43 
 3100      4F4E4E45 
 3101              	.LASF106:
 3102 030e 424C455F 		.ascii	"BLE_CMP_FTR_API_lec_hci_handle_generate_DHkey_comma"
 3102      434D505F 
 3102      4654525F 
 3102      4150495F 
 3102      6C65635F 
 3103 0341 6E6400   		.ascii	"nd\000"
 3104              	.LASF23:
 3105 0344 4359424C 		.ascii	"CYBLE_ERROR_INSUFFICIENT_RESOURCES\000"
 3105      455F4552 
 3105      524F525F 
 3105      494E5355 
 3105      46464943 
 3106              	.LASF108:
 3107 0367 2E5C4765 		.ascii	".\\Generated_Source\\PSoC4\\CYBLE_HAL_PVT.c\000"
 3107      6E657261 
 3107      7465645F 
ARM GAS  C:\Users\mohammed\AppData\Local\Temp\cctb0af1.s 			page 69


 3107      536F7572 
 3107      63655C50 
 3108              	.LASF6:
 3109 0390 6C6F6E67 		.ascii	"long long int\000"
 3109      206C6F6E 
 3109      6720696E 
 3109      7400
 3110              	.LASF30:
 3111 039e 4359424C 		.ascii	"CYBLE_ERROR_BT_ON_NOT_COMPLETED\000"
 3111      455F4552 
 3111      524F525F 
 3111      42545F4F 
 3111      4E5F4E4F 
 3112              	.LASF58:
 3113 03be 73726349 		.ascii	"srcIndex\000"
 3113      6E646578 
 3113      00
 3114              	.LASF77:
 3115 03c7 7472696D 		.ascii	"trimRef34Val\000"
 3115      52656633 
 3115      3456616C 
 3115      00
 3116              	.LASF4:
 3117 03d4 6C6F6E67 		.ascii	"long int\000"
 3117      20696E74 
 3117      00
 3118              	.LASF78:
 3119 03dd 7472696D 		.ascii	"trimRef38Val\000"
 3119      52656633 
 3119      3856616C 
 3119      00
 3120              	.LASF61:
 3121 03ea 726F7773 		.ascii	"rowsNotEqual\000"
 3121      4E6F7445 
 3121      7175616C 
 3121      00
 3122              	.LASF81:
 3123 03f7 4379426C 		.ascii	"CyBleHal_DelayMs\000"
 3123      6548616C 
 3123      5F44656C 
 3123      61794D73 
 3123      00
 3124              	.LASF27:
 3125 0408 4359424C 		.ascii	"CYBLE_ERROR_REPEATED_ATTEMPTS\000"
 3125      455F4552 
 3125      524F525F 
 3125      52455045 
 3125      41544544 
 3126              	.LASF56:
 3127 0426 726F7749 		.ascii	"rowId\000"
 3127      6400
 3128              	.LASF70:
 3129 042c 4379424C 		.ascii	"CyBLE_Bless_LlRegRead\000"
 3129      455F426C 
 3129      6573735F 
 3129      4C6C5265 
 3129      67526561 
ARM GAS  C:\Users\mohammed\AppData\Local\Temp\cctb0af1.s 			page 70


 3130              	.LASF62:
 3131 0442 4379424C 		.ascii	"CyBLE_Nvram_Write\000"
 3131      455F4E76 
 3131      72616D5F 
 3131      57726974 
 3131      6500
 3132              	.LASF54:
 3133 0454 6C656E67 		.ascii	"length\000"
 3133      746800
 3134              	.LASF26:
 3135 045b 4359424C 		.ascii	"CYBLE_ERROR_NO_DEVICE_ENTITY\000"
 3135      455F4552 
 3135      524F525F 
 3135      4E4F5F44 
 3135      45564943 
 3136              	.LASF1:
 3137 0478 756E7369 		.ascii	"unsigned char\000"
 3137      676E6564 
 3137      20636861 
 3137      7200
 3138              	.LASF44:
 3139 0486 4359424C 		.ascii	"CYBLE_ERROR_FLASH_WRITE\000"
 3139      455F4552 
 3139      524F525F 
 3139      464C4153 
 3139      485F5752 
 3140              	.LASF55:
 3141 049e 77726974 		.ascii	"writeBuffer\000"
 3141      65427566 
 3141      66657200 
 3142              	.LASF94:
 3143 04aa 4379426C 		.ascii	"CyBle_Hal_pairing_lr_confirming_handler\000"
 3143      655F4861 
 3143      6C5F7061 
 3143      6972696E 
 3143      675F6C72 
 3144              	.LASF0:
 3145 04d2 7369676E 		.ascii	"signed char\000"
 3145      65642063 
 3145      68617200 
 3146              	.LASF7:
 3147 04de 6C6F6E67 		.ascii	"long long unsigned int\000"
 3147      206C6F6E 
 3147      6720756E 
 3147      7369676E 
 3147      65642069 
 3148              	.LASF79:
 3149 04f5 4379426C 		.ascii	"CyBleHal_DelayUs\000"
 3149      6548616C 
 3149      5F44656C 
 3149      61795573 
 3149      00
 3150              	.LASF31:
 3151 0506 4359424C 		.ascii	"CYBLE_ERROR_SEC_FAILED\000"
 3151      455F4552 
 3151      524F525F 
 3151      5345435F 
ARM GAS  C:\Users\mohammed\AppData\Local\Temp\cctb0af1.s 			page 71


 3151      4641494C 
 3152              	.LASF28:
 3153 051d 4359424C 		.ascii	"CYBLE_ERROR_GAP_ROLE\000"
 3153      455F4552 
 3153      524F525F 
 3153      4741505F 
 3153      524F4C45 
 3154              	.LASF8:
 3155 0532 756E7369 		.ascii	"unsigned int\000"
 3155      676E6564 
 3155      20696E74 
 3155      00
 3156              	.LASF32:
 3157 053f 4359424C 		.ascii	"CYBLE_ERROR_L2CAP_PSM_WRONG_ENCODING\000"
 3157      455F4552 
 3157      524F525F 
 3157      4C324341 
 3157      505F5053 
 3158              	.LASF83:
 3159 0564 4379426C 		.ascii	"CyBleHal_DisableGlobalInterrupts\000"
 3159      6548616C 
 3159      5F446973 
 3159      61626C65 
 3159      476C6F62 
 3160              	.LASF73:
 3161 0585 4379424C 		.ascii	"CyBLE_Bless_RfRegWrite\000"
 3161      455F426C 
 3161      6573735F 
 3161      52665265 
 3161      67577269 
 3162              	.LASF100:
 3163 059c 70617261 		.ascii	"param1\000"
 3163      6D3100
 3164              	.LASF109:
 3165 05a3 443A5C49 		.ascii	"D:\\IoT\\ProximityEvents\\Cypress PSoC\\BLE_Proximi"
 3165      6F545C50 
 3165      726F7869 
 3165      6D697479 
 3165      4576656E 
 3166 05d2 74793032 		.ascii	"ty02\\BLE_Proximity01.cydsn\000"
 3166      5C424C45 
 3166      5F50726F 
 3166      78696D69 
 3166      74793031 
 3167              	.LASF17:
 3168 05ed 72656733 		.ascii	"reg32\000"
 3168      3200
 3169              	.LASF49:
 3170 05f3 4359424C 		.ascii	"CYBLE_ERROR_CHAR_IS_NOT_DISCOVERED\000"
 3170      455F4552 
 3170      524F525F 
 3170      43484152 
 3170      5F49535F 
 3171              	.LASF3:
 3172 0616 73686F72 		.ascii	"short unsigned int\000"
 3172      7420756E 
 3172      7369676E 
ARM GAS  C:\Users\mohammed\AppData\Local\Temp\cctb0af1.s 			page 72


 3172      65642069 
 3172      6E7400
 3173              	.LASF87:
 3174 0629 70617261 		.ascii	"param\000"
 3174      6D00
 3175              	.LASF67:
 3176 062f 6C656E67 		.ascii	"lengthRemaining\000"
 3176      74685265 
 3176      6D61696E 
 3176      696E6700 
 3177              	.LASF14:
 3178 063f 63686172 		.ascii	"char\000"
 3178      00
 3179              	.LASF75:
 3180 0644 7472696D 		.ascii	"trimRegValue\000"
 3180      52656756 
 3180      616C7565 
 3180      00
 3181              	.LASF15:
 3182 0651 63797374 		.ascii	"cystatus\000"
 3182      61747573 
 3182      00
 3183              	.LASF107:
 3184 065a 474E5520 		.ascii	"GNU C 4.9.3 20150303 (release) [ARM/embedded-4_9-br"
 3184      4320342E 
 3184      392E3320 
 3184      32303135 
 3184      30333033 
 3185 068d 616E6368 		.ascii	"anch revision 221220] -mcpu=cortex-m0 -mthumb -g -O"
 3185      20726576 
 3185      6973696F 
 3185      6E203232 
 3185      31323230 
 3186 06c0 30202D66 		.ascii	"0 -ffunction-sections -ffat-lto-objects\000"
 3186      66756E63 
 3186      74696F6E 
 3186      2D736563 
 3186      74696F6E 
 3187              	.LASF45:
 3188 06e8 4359424C 		.ascii	"CYBLE_ERROR_CONTROLLER_BUSY\000"
 3188      455F4552 
 3188      524F525F 
 3188      434F4E54 
 3188      524F4C4C 
 3189              	.LASF50:
 3190 0704 4359424C 		.ascii	"CYBLE_ERROR_INVALID_STATE\000"
 3190      455F4552 
 3190      524F525F 
 3190      494E5641 
 3190      4C49445F 
 3191              	.LASF76:
 3192 071e 73696C69 		.ascii	"siliconRev\000"
 3192      636F6E52 
 3192      657600
 3193              	.LASF88:
 3194 0729 4379426C 		.ascii	"CyBle_Hal_pairing_remote_key_handler\000"
 3194      655F4861 
ARM GAS  C:\Users\mohammed\AppData\Local\Temp\cctb0af1.s 			page 73


 3194      6C5F7061 
 3194      6972696E 
 3194      675F7265 
 3195              	.LASF9:
 3196 074e 75696E74 		.ascii	"uint8\000"
 3196      3800
 3197              	.LASF22:
 3198 0754 4359424C 		.ascii	"CYBLE_ERROR_MEMORY_ALLOCATION_FAILED\000"
 3198      455F4552 
 3198      524F525F 
 3198      4D454D4F 
 3198      52595F41 
 3199              	.LASF43:
 3200 0779 4359424C 		.ascii	"CYBLE_ERROR_UNSUPPORTED_FEATURE_OR_PARAMETER_VALUE\000"
 3200      455F4552 
 3200      524F525F 
 3200      554E5355 
 3200      50504F52 
 3201              	.LASF104:
 3202 07ac 4379426C 		.ascii	"CyBle_Hal_EccPointMult\000"
 3202      655F4861 
 3202      6C5F4563 
 3202      63506F69 
 3202      6E744D75 
 3203              	.LASF10:
 3204 07c3 75696E74 		.ascii	"uint16\000"
 3204      313600
 3205              	.LASF52:
 3206 07ca 62756666 		.ascii	"buffer\000"
 3206      657200
 3207              	.LASF11:
 3208 07d1 75696E74 		.ascii	"uint32\000"
 3208      333200
 3209              	.LASF16:
 3210 07d8 72656738 		.ascii	"reg8\000"
 3210      00
 3211              	.LASF5:
 3212 07dd 6C6F6E67 		.ascii	"long unsigned int\000"
 3212      20756E73 
 3212      69676E65 
 3212      6420696E 
 3212      7400
 3213              	.LASF90:
 3214 07ef 4379426C 		.ascii	"CyBle_Hal_pairing_dhkey_check_handler\000"
 3214      655F4861 
 3214      6C5F7061 
 3214      6972696E 
 3214      675F6468 
 3215              	.LASF38:
 3216 0815 4359424C 		.ascii	"CYBLE_ERROR_GATT_DB_INVALID_ATTR_HANDLE\000"
 3216      455F4552 
 3216      524F525F 
 3216      47415454 
 3216      5F44425F 
 3217              	.LASF64:
 3218 083d 74656D70 		.ascii	"tempFlash\000"
 3218      466C6173 
ARM GAS  C:\Users\mohammed\AppData\Local\Temp\cctb0af1.s 			page 74


 3218      6800
 3219              	.LASF63:
 3220 0847 4379424C 		.ascii	"CyBLE_Nvram_Erase\000"
 3220      455F4E76 
 3220      72616D5F 
 3220      45726173 
 3220      6500
 3221              	.LASF37:
 3222 0859 4359424C 		.ascii	"CYBLE_ERROR_L2CAP_PSM_NOT_IN_RANGE\000"
 3222      455F4552 
 3222      524F525F 
 3222      4C324341 
 3222      505F5053 
 3223              	.LASF92:
 3224 087c 4379426C 		.ascii	"CyBle_Hal_pairing_rand_handler\000"
 3224      655F4861 
 3224      6C5F7061 
 3224      6972696E 
 3224      675F7261 
 3225              	.LASF89:
 3226 089b 4379426C 		.ascii	"CyBle_Hal_pairing_dhkey_handler\000"
 3226      655F4861 
 3226      6C5F7061 
 3226      6972696E 
 3226      675F6468 
 3227              	.LASF86:
 3228 08bb 4379426C 		.ascii	"CyBle_Hal_pairing_local_public_key_handler\000"
 3228      655F4861 
 3228      6C5F7061 
 3228      6972696E 
 3228      675F6C6F 
 3229              	.LASF95:
 3230 08e6 4379426C 		.ascii	"CyBle_Hal_pairing_sc_tbx_dhkey_generate_complete\000"
 3230      655F4861 
 3230      6C5F7061 
 3230      6972696E 
 3230      675F7363 
 3231              	.LASF80:
 3232 0917 64656C61 		.ascii	"delayVal\000"
 3232      7956616C 
 3232      00
 3233              	.LASF96:
 3234 0920 4379424C 		.ascii	"CyBLE_GetIpBlockVersion\000"
 3234      455F4765 
 3234      74497042 
 3234      6C6F636B 
 3234      56657273 
 3235              	.LASF47:
 3236 0938 4359424C 		.ascii	"CYBLE_ERROR_NTF_DISABLED\000"
 3236      455F4552 
 3236      524F525F 
 3236      4E54465F 
 3236      44495341 
 3237              	.LASF82:
 3238 0951 4379426C 		.ascii	"CyBleHal_EnableGlobalInterrupts\000"
 3238      6548616C 
 3238      5F456E61 
ARM GAS  C:\Users\mohammed\AppData\Local\Temp\cctb0af1.s 			page 75


 3238      626C6547 
 3238      6C6F6261 
 3239              	.LASF39:
 3240 0971 4359424C 		.ascii	"CYBLE_ERROR_DEVICE_ALREADY_EXISTS\000"
 3240      455F4552 
 3240      524F525F 
 3240      44455649 
 3240      43455F41 
 3241              	.LASF74:
 3242 0993 4379424C 		.ascii	"CyBLE_BlessDeviceConfig\000"
 3242      455F426C 
 3242      65737344 
 3242      65766963 
 3242      65436F6E 
 3243              	.LASF60:
 3244 09ab 62797465 		.ascii	"byteOffset\000"
 3244      4F666673 
 3244      657400
 3245              	.LASF46:
 3246 09b6 4359424C 		.ascii	"CYBLE_ERROR_MAX\000"
 3246      455F4552 
 3246      524F525F 
 3246      4D415800 
 3247              	.LASF84:
 3248 09c6 4379426C 		.ascii	"CyBle_HalInit\000"
 3248      655F4861 
 3248      6C496E69 
 3248      7400
 3249              	.LASF13:
 3250 09d4 646F7562 		.ascii	"double\000"
 3250      6C6500
 3251              	.LASF105:
 3252 09db 424C455F 		.ascii	"BLE_CMP_FTR_API_lec_hci_handle_read_local_P256_publ"
 3252      434D505F 
 3252      4654525F 
 3252      4150495F 
 3252      6C65635F 
 3253 0a0e 69635F6B 		.ascii	"ic_key_command\000"
 3253      65795F63 
 3253      6F6D6D61 
 3253      6E6400
 3254              	.LASF71:
 3255 0a1d 4379424C 		.ascii	"CyBLE_Bless_LlRegWrite\000"
 3255      455F426C 
 3255      6573735F 
 3255      4C6C5265 
 3255      67577269 
 3256              	.LASF99:
 3257 0a34 4379426C 		.ascii	"CyBle_Hal_pairing_sc_tbx_generate_DHkey\000"
 3257      655F4861 
 3257      6C5F7061 
 3257      6972696E 
 3257      675F7363 
 3258              	.LASF35:
 3259 0a5c 4359424C 		.ascii	"CYBLE_ERROR_L2CAP_CONNECTION_ENTITY_NOT_FOUND\000"
 3259      455F4552 
 3259      524F525F 
ARM GAS  C:\Users\mohammed\AppData\Local\Temp\cctb0af1.s 			page 76


 3259      4C324341 
 3259      505F434F 
 3260              	.LASF48:
 3261 0a8a 4359424C 		.ascii	"CYBLE_ERROR_IND_DISABLED\000"
 3261      455F4552 
 3261      524F525F 
 3261      494E445F 
 3261      44495341 
 3262              	.LASF59:
 3263 0aa3 65654F66 		.ascii	"eeOffset\000"
 3263      66736574 
 3263      00
 3264              		.ident	"GCC: (GNU Tools for ARM Embedded Processors) 4.9.3 20150303 (release) [ARM/embedded-4_9-br
