ARM GAS  C:\Users\mohammed\AppData\Local\Temp\ccYLrbij.s 			page 1


   1              		.cpu cortex-m0
   2              		.fpu softvfp
   3              		.eabi_attribute 20, 1
   4              		.eabi_attribute 21, 1
   5              		.eabi_attribute 23, 3
   6              		.eabi_attribute 24, 1
   7              		.eabi_attribute 25, 1
   8              		.eabi_attribute 26, 1
   9              		.eabi_attribute 30, 6
  10              		.eabi_attribute 34, 0
  11              		.eabi_attribute 18, 4
  12              		.code	16
  13              		.file	"CYBLE_lls.c"
  14              		.text
  15              	.Ltext0:
  16              		.cfi_sections	.debug_frame
  17              		.bss
  18              		.align	2
  19              	CyBle_LlsApplCallback:
  20 0000 00000000 		.space	4
  21              		.global	cyBle_llss
  22              		.section	.rodata
  23              		.align	2
  24              		.type	cyBle_llss, %object
  25              		.size	cyBle_llss, 4
  26              	cyBle_llss:
  27 0000 0C00     		.short	12
  28 0002 0E00     		.short	14
  29              		.section	.text.CyBle_LlsInit,"ax",%progbits
  30              		.align	2
  31              		.global	CyBle_LlsInit
  32              		.code	16
  33              		.thumb_func
  34              		.type	CyBle_LlsInit, %function
  35              	CyBle_LlsInit:
  36              	.LFB2:
  37              		.file 1 ".\\Generated_Source\\PSoC4\\CYBLE_lls.c"
   1:.\Generated_Source\PSoC4/CYBLE_lls.c **** /***************************************************************************//**
   2:.\Generated_Source\PSoC4/CYBLE_lls.c **** * \file CYBLE_lls.c
   3:.\Generated_Source\PSoC4/CYBLE_lls.c **** * \version 3.10
   4:.\Generated_Source\PSoC4/CYBLE_lls.c **** * 
   5:.\Generated_Source\PSoC4/CYBLE_lls.c **** * \brief
   6:.\Generated_Source\PSoC4/CYBLE_lls.c **** *  This file contains the source code for the Link Loss Service of the BLE
   7:.\Generated_Source\PSoC4/CYBLE_lls.c **** *  Component.
   8:.\Generated_Source\PSoC4/CYBLE_lls.c **** * 
   9:.\Generated_Source\PSoC4/CYBLE_lls.c **** ********************************************************************************
  10:.\Generated_Source\PSoC4/CYBLE_lls.c **** * \copyright
  11:.\Generated_Source\PSoC4/CYBLE_lls.c **** * Copyright 2014-2016, Cypress Semiconductor Corporation.  All rights reserved.
  12:.\Generated_Source\PSoC4/CYBLE_lls.c **** * You may use this file only in accordance with the license, terms, conditions,
  13:.\Generated_Source\PSoC4/CYBLE_lls.c **** * disclaimers, and limitations in the end user license agreement accompanying
  14:.\Generated_Source\PSoC4/CYBLE_lls.c **** * the software package with which this file was provided.
  15:.\Generated_Source\PSoC4/CYBLE_lls.c **** *******************************************************************************/
  16:.\Generated_Source\PSoC4/CYBLE_lls.c **** 
  17:.\Generated_Source\PSoC4/CYBLE_lls.c **** #include "CYBLE_eventHandler.h"
  18:.\Generated_Source\PSoC4/CYBLE_lls.c **** 
  19:.\Generated_Source\PSoC4/CYBLE_lls.c **** 
  20:.\Generated_Source\PSoC4/CYBLE_lls.c **** static CYBLE_CALLBACK_T CyBle_LlsApplCallback = NULL;
ARM GAS  C:\Users\mohammed\AppData\Local\Temp\ccYLrbij.s 			page 2


  21:.\Generated_Source\PSoC4/CYBLE_lls.c **** 
  22:.\Generated_Source\PSoC4/CYBLE_lls.c **** #ifdef CYBLE_LLS_SERVER
  23:.\Generated_Source\PSoC4/CYBLE_lls.c ****     
  24:.\Generated_Source\PSoC4/CYBLE_lls.c **** const CYBLE_LLSS_T cyBle_llss =
  25:.\Generated_Source\PSoC4/CYBLE_lls.c **** {
  26:.\Generated_Source\PSoC4/CYBLE_lls.c ****     0x000Cu,    /* Handle of the LLS service */
  27:.\Generated_Source\PSoC4/CYBLE_lls.c ****     0x000Eu,    /* Handle of the Alert Level characteristic */
  28:.\Generated_Source\PSoC4/CYBLE_lls.c **** };
  29:.\Generated_Source\PSoC4/CYBLE_lls.c **** 
  30:.\Generated_Source\PSoC4/CYBLE_lls.c **** #endif /* (CYBLE_LLS_SERVER) */
  31:.\Generated_Source\PSoC4/CYBLE_lls.c **** 
  32:.\Generated_Source\PSoC4/CYBLE_lls.c **** #ifdef CYBLE_LLS_CLIENT
  33:.\Generated_Source\PSoC4/CYBLE_lls.c ****     
  34:.\Generated_Source\PSoC4/CYBLE_lls.c **** CYBLE_LLSC_T cyBle_llsc;
  35:.\Generated_Source\PSoC4/CYBLE_lls.c **** 
  36:.\Generated_Source\PSoC4/CYBLE_lls.c **** /* Internal storage for last request handle to check response */
  37:.\Generated_Source\PSoC4/CYBLE_lls.c **** static CYBLE_GATT_DB_ATTR_HANDLE_T cyBle_llscReqHandle;
  38:.\Generated_Source\PSoC4/CYBLE_lls.c **** 
  39:.\Generated_Source\PSoC4/CYBLE_lls.c **** #endif /* (CYBLE_LLS_CLIENT) */
  40:.\Generated_Source\PSoC4/CYBLE_lls.c **** 
  41:.\Generated_Source\PSoC4/CYBLE_lls.c **** /****************************************************************************** 
  42:.\Generated_Source\PSoC4/CYBLE_lls.c **** * Function Name: CyBle_LlsInit
  43:.\Generated_Source\PSoC4/CYBLE_lls.c **** ***************************************************************************//**
  44:.\Generated_Source\PSoC4/CYBLE_lls.c **** * 
  45:.\Generated_Source\PSoC4/CYBLE_lls.c **** *  This function initializes the Link Loss Service.
  46:.\Generated_Source\PSoC4/CYBLE_lls.c **** * 
  47:.\Generated_Source\PSoC4/CYBLE_lls.c **** * \return
  48:.\Generated_Source\PSoC4/CYBLE_lls.c **** *  None
  49:.\Generated_Source\PSoC4/CYBLE_lls.c **** * 
  50:.\Generated_Source\PSoC4/CYBLE_lls.c **** ******************************************************************************/
  51:.\Generated_Source\PSoC4/CYBLE_lls.c **** void CyBle_LlsInit(void)
  52:.\Generated_Source\PSoC4/CYBLE_lls.c **** {
  38              		.loc 1 52 0
  39              		.cfi_startproc
  40 0000 80B5     		push	{r7, lr}
  41              		.cfi_def_cfa_offset 8
  42              		.cfi_offset 7, -8
  43              		.cfi_offset 14, -4
  44 0002 00AF     		add	r7, sp, #0
  45              		.cfi_def_cfa_register 7
  53:.\Generated_Source\PSoC4/CYBLE_lls.c **** 
  54:.\Generated_Source\PSoC4/CYBLE_lls.c **** #ifdef CYBLE_LLS_CLIENT
  55:.\Generated_Source\PSoC4/CYBLE_lls.c **** 
  56:.\Generated_Source\PSoC4/CYBLE_lls.c ****     if(cyBle_serverInfo[CYBLE_SRVI_LLS].range.startHandle == CYBLE_GATT_INVALID_ATTR_HANDLE_VALUE)
  57:.\Generated_Source\PSoC4/CYBLE_lls.c ****     {
  58:.\Generated_Source\PSoC4/CYBLE_lls.c ****         cyBle_llsc.alertLevelChar.valueHandle = CYBLE_GATT_INVALID_ATTR_HANDLE_VALUE;
  59:.\Generated_Source\PSoC4/CYBLE_lls.c ****     }
  60:.\Generated_Source\PSoC4/CYBLE_lls.c ****     cyBle_llscReqHandle = CYBLE_GATT_INVALID_ATTR_HANDLE_VALUE;
  61:.\Generated_Source\PSoC4/CYBLE_lls.c ****     
  62:.\Generated_Source\PSoC4/CYBLE_lls.c **** #endif /* (CYBLE_LLS_CLIENT) */
  63:.\Generated_Source\PSoC4/CYBLE_lls.c **** }
  46              		.loc 1 63 0
  47 0004 BD46     		mov	sp, r7
  48              		@ sp needed
  49 0006 80BD     		pop	{r7, pc}
  50              		.cfi_endproc
  51              	.LFE2:
ARM GAS  C:\Users\mohammed\AppData\Local\Temp\ccYLrbij.s 			page 3


  52              		.size	CyBle_LlsInit, .-CyBle_LlsInit
  53              		.section	.text.CyBle_LlsRegisterAttrCallback,"ax",%progbits
  54              		.align	2
  55              		.global	CyBle_LlsRegisterAttrCallback
  56              		.code	16
  57              		.thumb_func
  58              		.type	CyBle_LlsRegisterAttrCallback, %function
  59              	CyBle_LlsRegisterAttrCallback:
  60              	.LFB3:
  64:.\Generated_Source\PSoC4/CYBLE_lls.c **** 
  65:.\Generated_Source\PSoC4/CYBLE_lls.c **** 
  66:.\Generated_Source\PSoC4/CYBLE_lls.c **** /****************************************************************************** 
  67:.\Generated_Source\PSoC4/CYBLE_lls.c **** * Function Name: CyBle_LlsRegisterAttrCallback
  68:.\Generated_Source\PSoC4/CYBLE_lls.c **** ***************************************************************************//**
  69:.\Generated_Source\PSoC4/CYBLE_lls.c **** * 
  70:.\Generated_Source\PSoC4/CYBLE_lls.c **** *  Registers a callback function for service specific attribute operations.
  71:.\Generated_Source\PSoC4/CYBLE_lls.c **** *  Service specific write requests from peer device will not be handled with
  72:.\Generated_Source\PSoC4/CYBLE_lls.c **** *  unregistered callback function.
  73:.\Generated_Source\PSoC4/CYBLE_lls.c **** * 
  74:.\Generated_Source\PSoC4/CYBLE_lls.c **** *  \param callbackFunc: An application layer event callback function to receive 
  75:.\Generated_Source\PSoC4/CYBLE_lls.c **** *                    events from the BLE Component. The definition of 
  76:.\Generated_Source\PSoC4/CYBLE_lls.c **** *                    CYBLE_CALLBACK_T for Link Loss Service is: \n
  77:.\Generated_Source\PSoC4/CYBLE_lls.c **** *                    typedef void (* CYBLE_CALLBACK_T) (uint32 eventCode, 
  78:.\Generated_Source\PSoC4/CYBLE_lls.c **** *                                                       void *eventParam)
  79:.\Generated_Source\PSoC4/CYBLE_lls.c **** *                    * eventCode indicates the event that triggered this 
  80:.\Generated_Source\PSoC4/CYBLE_lls.c **** *                      callback (e.g. CYBLE_EVT_LLSS_NOTIFICATION_ENABLED).
  81:.\Generated_Source\PSoC4/CYBLE_lls.c **** *                    * eventParam contains the parameters corresponding to the 
  82:.\Generated_Source\PSoC4/CYBLE_lls.c **** *                      current event. (e.g. pointer to CYBLE_LLS_CHAR_VALUE_T
  83:.\Generated_Source\PSoC4/CYBLE_lls.c **** *                      structure that contains details of the characteristic 
  84:.\Generated_Source\PSoC4/CYBLE_lls.c **** *                      for which notification enabled event was triggered).
  85:.\Generated_Source\PSoC4/CYBLE_lls.c **** *
  86:.\Generated_Source\PSoC4/CYBLE_lls.c **** * \return
  87:.\Generated_Source\PSoC4/CYBLE_lls.c **** *  None
  88:.\Generated_Source\PSoC4/CYBLE_lls.c **** *
  89:.\Generated_Source\PSoC4/CYBLE_lls.c **** * \events
  90:.\Generated_Source\PSoC4/CYBLE_lls.c **** *  None
  91:.\Generated_Source\PSoC4/CYBLE_lls.c **** *
  92:.\Generated_Source\PSoC4/CYBLE_lls.c **** * \sideeffect
  93:.\Generated_Source\PSoC4/CYBLE_lls.c **** *  The *eventParams in the callback function should not be used by the 
  94:.\Generated_Source\PSoC4/CYBLE_lls.c **** *  application once the callback function execution is finished. Otherwise this
  95:.\Generated_Source\PSoC4/CYBLE_lls.c **** *  data may become corrupted.
  96:.\Generated_Source\PSoC4/CYBLE_lls.c **** * 
  97:.\Generated_Source\PSoC4/CYBLE_lls.c **** ******************************************************************************/
  98:.\Generated_Source\PSoC4/CYBLE_lls.c **** void CyBle_LlsRegisterAttrCallback(CYBLE_CALLBACK_T callbackFunc)
  99:.\Generated_Source\PSoC4/CYBLE_lls.c **** {
  61              		.loc 1 99 0
  62              		.cfi_startproc
  63 0000 80B5     		push	{r7, lr}
  64              		.cfi_def_cfa_offset 8
  65              		.cfi_offset 7, -8
  66              		.cfi_offset 14, -4
  67 0002 82B0     		sub	sp, sp, #8
  68              		.cfi_def_cfa_offset 16
  69 0004 00AF     		add	r7, sp, #0
  70              		.cfi_def_cfa_register 7
  71 0006 7860     		str	r0, [r7, #4]
 100:.\Generated_Source\PSoC4/CYBLE_lls.c ****     CyBle_LlsApplCallback = callbackFunc;
ARM GAS  C:\Users\mohammed\AppData\Local\Temp\ccYLrbij.s 			page 4


  72              		.loc 1 100 0
  73 0008 024B     		ldr	r3, .L3
  74 000a 7A68     		ldr	r2, [r7, #4]
  75 000c 1A60     		str	r2, [r3]
 101:.\Generated_Source\PSoC4/CYBLE_lls.c **** }
  76              		.loc 1 101 0
  77 000e BD46     		mov	sp, r7
  78 0010 02B0     		add	sp, sp, #8
  79              		@ sp needed
  80 0012 80BD     		pop	{r7, pc}
  81              	.L4:
  82              		.align	2
  83              	.L3:
  84 0014 00000000 		.word	CyBle_LlsApplCallback
  85              		.cfi_endproc
  86              	.LFE3:
  87              		.size	CyBle_LlsRegisterAttrCallback, .-CyBle_LlsRegisterAttrCallback
  88              		.section	.text.CyBle_LlssConnectEventHandler,"ax",%progbits
  89              		.align	2
  90              		.global	CyBle_LlssConnectEventHandler
  91              		.code	16
  92              		.thumb_func
  93              		.type	CyBle_LlssConnectEventHandler, %function
  94              	CyBle_LlssConnectEventHandler:
  95              	.LFB4:
 102:.\Generated_Source\PSoC4/CYBLE_lls.c **** 
 103:.\Generated_Source\PSoC4/CYBLE_lls.c **** 
 104:.\Generated_Source\PSoC4/CYBLE_lls.c **** #ifdef CYBLE_LLS_SERVER
 105:.\Generated_Source\PSoC4/CYBLE_lls.c **** 
 106:.\Generated_Source\PSoC4/CYBLE_lls.c **** /****************************************************************************** 
 107:.\Generated_Source\PSoC4/CYBLE_lls.c **** * Function Name: CyBle_LlssConnectEventHandler
 108:.\Generated_Source\PSoC4/CYBLE_lls.c **** ***************************************************************************//**
 109:.\Generated_Source\PSoC4/CYBLE_lls.c **** * 
 110:.\Generated_Source\PSoC4/CYBLE_lls.c **** *  Handles the Connection Indication event for Link Loss Service. 
 111:.\Generated_Source\PSoC4/CYBLE_lls.c **** * 
 112:.\Generated_Source\PSoC4/CYBLE_lls.c **** * \return
 113:.\Generated_Source\PSoC4/CYBLE_lls.c **** *  None
 114:.\Generated_Source\PSoC4/CYBLE_lls.c **** * 
 115:.\Generated_Source\PSoC4/CYBLE_lls.c **** ******************************************************************************/
 116:.\Generated_Source\PSoC4/CYBLE_lls.c **** void CyBle_LlssConnectEventHandler(void)
 117:.\Generated_Source\PSoC4/CYBLE_lls.c **** {
  96              		.loc 1 117 0
  97              		.cfi_startproc
  98 0000 80B5     		push	{r7, lr}
  99              		.cfi_def_cfa_offset 8
 100              		.cfi_offset 7, -8
 101              		.cfi_offset 14, -4
 102 0002 84B0     		sub	sp, sp, #16
 103              		.cfi_def_cfa_offset 24
 104 0004 00AF     		add	r7, sp, #0
 105              		.cfi_def_cfa_register 7
 118:.\Generated_Source\PSoC4/CYBLE_lls.c ****     uint8 tmpAlertLevel = CYBLE_NO_ALERT;
 106              		.loc 1 118 0
 107 0006 0F23     		mov	r3, #15
 108 0008 FB18     		add	r3, r7, r3
 109 000a 0022     		mov	r2, #0
 110 000c 1A70     		strb	r2, [r3]
ARM GAS  C:\Users\mohammed\AppData\Local\Temp\ccYLrbij.s 			page 5


 119:.\Generated_Source\PSoC4/CYBLE_lls.c ****     CYBLE_GATT_HANDLE_VALUE_PAIR_T llsHandleValuePair;
 120:.\Generated_Source\PSoC4/CYBLE_lls.c ****     
 121:.\Generated_Source\PSoC4/CYBLE_lls.c ****     llsHandleValuePair.attrHandle = cyBle_llss.alertLevelCharHandle;
 111              		.loc 1 121 0
 112 000e 0E22     		mov	r2, #14
 113 0010 3B1C     		mov	r3, r7
 114 0012 1A81     		strh	r2, [r3, #8]
 122:.\Generated_Source\PSoC4/CYBLE_lls.c ****     llsHandleValuePair.value.len = CYBLE_LLS_ALERT_LEVEL_SIZE;
 115              		.loc 1 122 0
 116 0014 3B1C     		mov	r3, r7
 117 0016 0122     		mov	r2, #1
 118 0018 9A80     		strh	r2, [r3, #4]
 123:.\Generated_Source\PSoC4/CYBLE_lls.c ****     llsHandleValuePair.value.val = &tmpAlertLevel;
 119              		.loc 1 123 0
 120 001a 3B1C     		mov	r3, r7
 121 001c 0F22     		mov	r2, #15
 122 001e BA18     		add	r2, r7, r2
 123 0020 1A60     		str	r2, [r3]
 124:.\Generated_Source\PSoC4/CYBLE_lls.c ****     
 125:.\Generated_Source\PSoC4/CYBLE_lls.c ****     /* Input parameters validation passed, so save Alert Level */
 126:.\Generated_Source\PSoC4/CYBLE_lls.c ****     (void) CyBle_GattsWriteAttributeValue(&llsHandleValuePair, 0u, NULL, CYBLE_GATT_DB_LOCALLY_INIT
 124              		.loc 1 126 0
 125 0022 3B1C     		mov	r3, r7
 126 0024 181C     		mov	r0, r3
 127 0026 0021     		mov	r1, #0
 128 0028 0022     		mov	r2, #0
 129 002a 0023     		mov	r3, #0
 130 002c FFF7FEFF 		bl	CyBle_GattsWriteAttributeValue
 127:.\Generated_Source\PSoC4/CYBLE_lls.c **** }
 131              		.loc 1 127 0
 132 0030 BD46     		mov	sp, r7
 133 0032 04B0     		add	sp, sp, #16
 134              		@ sp needed
 135 0034 80BD     		pop	{r7, pc}
 136              		.cfi_endproc
 137              	.LFE4:
 138              		.size	CyBle_LlssConnectEventHandler, .-CyBle_LlssConnectEventHandler
 139 0036 C046     		.section	.text.CyBle_LlssWriteEventHandler,"ax",%progbits
 140              		.align	2
 141              		.global	CyBle_LlssWriteEventHandler
 142              		.code	16
 143              		.thumb_func
 144              		.type	CyBle_LlssWriteEventHandler, %function
 145              	CyBle_LlssWriteEventHandler:
 146              	.LFB5:
 128:.\Generated_Source\PSoC4/CYBLE_lls.c **** 
 129:.\Generated_Source\PSoC4/CYBLE_lls.c **** 
 130:.\Generated_Source\PSoC4/CYBLE_lls.c **** /****************************************************************************** 
 131:.\Generated_Source\PSoC4/CYBLE_lls.c **** * Function Name: CyBle_LlssWriteEventHandler
 132:.\Generated_Source\PSoC4/CYBLE_lls.c **** ***************************************************************************//**
 133:.\Generated_Source\PSoC4/CYBLE_lls.c **** * 
 134:.\Generated_Source\PSoC4/CYBLE_lls.c **** *  Handles the Write Request Event for the Link Loss service.
 135:.\Generated_Source\PSoC4/CYBLE_lls.c **** * 
 136:.\Generated_Source\PSoC4/CYBLE_lls.c **** *  \param CYBLE_GATTS_WRITE_REQ_PARAM_T * eventParam:  the pointer to the data structure
 137:.\Generated_Source\PSoC4/CYBLE_lls.c **** *                                               specified by the event.
 138:.\Generated_Source\PSoC4/CYBLE_lls.c **** * 
 139:.\Generated_Source\PSoC4/CYBLE_lls.c **** * \return
ARM GAS  C:\Users\mohammed\AppData\Local\Temp\ccYLrbij.s 			page 6


 140:.\Generated_Source\PSoC4/CYBLE_lls.c **** *  CYBLE_GATT_ERR_CODE_T: API result returns one of the following status values:
 141:.\Generated_Source\PSoC4/CYBLE_lls.c **** *   * CYBLE_GATT_ERR_NONE - The Alert Level Characteristic was written successfully
 142:.\Generated_Source\PSoC4/CYBLE_lls.c **** *   * CYBLE_GATT_ERR_UNLIKELY_ERROR - An Internal Stack error occurred
 143:.\Generated_Source\PSoC4/CYBLE_lls.c **** *   * CYBLE_GATT_ERR_INVALID_ATTRIBUTE_LEN - The Data length for the Alert Level
 144:.\Generated_Source\PSoC4/CYBLE_lls.c **** *                                             Characteristic handle is invalid
 145:.\Generated_Source\PSoC4/CYBLE_lls.c **** *   * CYBLE_GATT_ERR_INVALID_HANDLE - Alert Level Characteristic handle is invalid
 146:.\Generated_Source\PSoC4/CYBLE_lls.c **** *   * CYBLE_GATT_ERR_OUT_OF_RANGE - Value is out of allowed range
 147:.\Generated_Source\PSoC4/CYBLE_lls.c **** * 
 148:.\Generated_Source\PSoC4/CYBLE_lls.c **** ******************************************************************************/
 149:.\Generated_Source\PSoC4/CYBLE_lls.c **** CYBLE_GATT_ERR_CODE_T CyBle_LlssWriteEventHandler(CYBLE_GATTS_WRITE_REQ_PARAM_T *eventParam)
 150:.\Generated_Source\PSoC4/CYBLE_lls.c **** {
 147              		.loc 1 150 0
 148              		.cfi_startproc
 149 0000 90B5     		push	{r4, r7, lr}
 150              		.cfi_def_cfa_offset 12
 151              		.cfi_offset 4, -12
 152              		.cfi_offset 7, -8
 153              		.cfi_offset 14, -4
 154 0002 87B0     		sub	sp, sp, #28
 155              		.cfi_def_cfa_offset 40
 156 0004 00AF     		add	r7, sp, #0
 157              		.cfi_def_cfa_register 7
 158 0006 7860     		str	r0, [r7, #4]
 151:.\Generated_Source\PSoC4/CYBLE_lls.c ****     CYBLE_LLS_CHAR_VALUE_T wrReqParam;
 152:.\Generated_Source\PSoC4/CYBLE_lls.c ****     CYBLE_GATT_ERR_CODE_T gattErr = CYBLE_GATT_ERR_NONE;
 159              		.loc 1 152 0
 160 0008 1723     		mov	r3, #23
 161 000a FB18     		add	r3, r7, r3
 162 000c 0022     		mov	r2, #0
 163 000e 1A70     		strb	r2, [r3]
 153:.\Generated_Source\PSoC4/CYBLE_lls.c **** 
 154:.\Generated_Source\PSoC4/CYBLE_lls.c ****     if(NULL != CyBle_LlsApplCallback)
 164              		.loc 1 154 0
 165 0010 2A4B     		ldr	r3, .L14
 166 0012 1B68     		ldr	r3, [r3]
 167 0014 002B     		cmp	r3, #0
 168 0016 49D0     		beq	.L7
 155:.\Generated_Source\PSoC4/CYBLE_lls.c ****     {
 156:.\Generated_Source\PSoC4/CYBLE_lls.c ****         if(cyBle_llss.alertLevelCharHandle == eventParam->handleValPair.attrHandle)
 169              		.loc 1 156 0
 170 0018 0E22     		mov	r2, #14
 171 001a 7B68     		ldr	r3, [r7, #4]
 172 001c 9B89     		ldrh	r3, [r3, #12]
 173 001e 9A42     		cmp	r2, r3
 174 0020 44D1     		bne	.L7
 157:.\Generated_Source\PSoC4/CYBLE_lls.c ****         {
 158:.\Generated_Source\PSoC4/CYBLE_lls.c ****             /* Check if attribute handle is handle of Alert Level characteristic of 
 159:.\Generated_Source\PSoC4/CYBLE_lls.c ****                Link Loss service. */
 160:.\Generated_Source\PSoC4/CYBLE_lls.c ****             if ((CYBLE_HIGH_ALERT >= eventParam->handleValPair.value.val[0u]))
 175              		.loc 1 160 0
 176 0022 7B68     		ldr	r3, [r7, #4]
 177 0024 5B68     		ldr	r3, [r3, #4]
 178 0026 1B78     		ldrb	r3, [r3]
 179 0028 022B     		cmp	r3, #2
 180 002a 33D8     		bhi	.L8
 161:.\Generated_Source\PSoC4/CYBLE_lls.c ****             {
 162:.\Generated_Source\PSoC4/CYBLE_lls.c ****                 if(CYBLE_LLS_ALERT_LEVEL_SIZE == eventParam->handleValPair.value.len)
ARM GAS  C:\Users\mohammed\AppData\Local\Temp\ccYLrbij.s 			page 7


 181              		.loc 1 162 0
 182 002c 7B68     		ldr	r3, [r7, #4]
 183 002e 1B89     		ldrh	r3, [r3, #8]
 184 0030 012B     		cmp	r3, #1
 185 0032 2AD1     		bne	.L9
 163:.\Generated_Source\PSoC4/CYBLE_lls.c ****                 {
 164:.\Generated_Source\PSoC4/CYBLE_lls.c ****                     /* Input parameters validation passed, so save Alert Level */
 165:.\Generated_Source\PSoC4/CYBLE_lls.c ****                     gattErr = CyBle_GattsWriteAttributeValue(&eventParam->handleValPair, 0u, 
 186              		.loc 1 165 0
 187 0034 7B68     		ldr	r3, [r7, #4]
 188 0036 1A1D     		add	r2, r3, #4
 189 0038 7B68     		ldr	r3, [r7, #4]
 190 003a 1721     		mov	r1, #23
 191 003c 7C18     		add	r4, r7, r1
 192 003e 101C     		mov	r0, r2
 193 0040 0021     		mov	r1, #0
 194 0042 1A1C     		mov	r2, r3
 195 0044 4023     		mov	r3, #64
 196 0046 FFF7FEFF 		bl	CyBle_GattsWriteAttributeValue
 197 004a 031C     		mov	r3, r0
 198 004c 2370     		strb	r3, [r4]
 166:.\Generated_Source\PSoC4/CYBLE_lls.c ****                                 &eventParam->connHandle, CYBLE_GATT_DB_PEER_INITIATED);
 167:.\Generated_Source\PSoC4/CYBLE_lls.c ****                     
 168:.\Generated_Source\PSoC4/CYBLE_lls.c ****                     /* Send callback to user if no error occurred while writing Alert Level */
 169:.\Generated_Source\PSoC4/CYBLE_lls.c ****                     if(CYBLE_GATT_ERR_NONE == gattErr)
 199              		.loc 1 169 0
 200 004e 1723     		mov	r3, #23
 201 0050 FB18     		add	r3, r7, r3
 202 0052 1B78     		ldrb	r3, [r3]
 203 0054 002B     		cmp	r3, #0
 204 0056 21D1     		bne	.L12
 170:.\Generated_Source\PSoC4/CYBLE_lls.c ****                     {
 171:.\Generated_Source\PSoC4/CYBLE_lls.c ****                         wrReqParam.connHandle = eventParam->connHandle;
 205              		.loc 1 171 0
 206 0058 0C23     		mov	r3, #12
 207 005a FB18     		add	r3, r7, r3
 208 005c 7A68     		ldr	r2, [r7, #4]
 209 005e 1288     		ldrh	r2, [r2]
 210 0060 1A80     		strh	r2, [r3]
 172:.\Generated_Source\PSoC4/CYBLE_lls.c ****                         wrReqParam.charIndex = CYBLE_LLS_ALERT_LEVEL;
 211              		.loc 1 172 0
 212 0062 0C23     		mov	r3, #12
 213 0064 FB18     		add	r3, r7, r3
 214 0066 0022     		mov	r2, #0
 215 0068 9A70     		strb	r2, [r3, #2]
 173:.\Generated_Source\PSoC4/CYBLE_lls.c ****                         wrReqParam.value = &eventParam->handleValPair.value;
 216              		.loc 1 173 0
 217 006a 7B68     		ldr	r3, [r7, #4]
 218 006c 1A1D     		add	r2, r3, #4
 219 006e 0C23     		mov	r3, #12
 220 0070 FB18     		add	r3, r7, r3
 221 0072 5A60     		str	r2, [r3, #4]
 174:.\Generated_Source\PSoC4/CYBLE_lls.c ****                         
 175:.\Generated_Source\PSoC4/CYBLE_lls.c ****                         CyBle_LlsApplCallback((uint32) CYBLE_EVT_LLSS_WRITE_CHAR_REQ, (void *) &wrR
 222              		.loc 1 175 0
 223 0074 114B     		ldr	r3, .L14
 224 0076 1B68     		ldr	r3, [r3]
ARM GAS  C:\Users\mohammed\AppData\Local\Temp\ccYLrbij.s 			page 8


 225 0078 BC22     		mov	r2, #188
 226 007a FF32     		add	r2, r2, #255
 227 007c 111C     		mov	r1, r2
 228 007e 0C22     		mov	r2, #12
 229 0080 BA18     		add	r2, r7, r2
 230 0082 081C     		mov	r0, r1
 231 0084 111C     		mov	r1, r2
 232 0086 9847     		blx	r3
 233 0088 08E0     		b	.L12
 234              	.L9:
 176:.\Generated_Source\PSoC4/CYBLE_lls.c ****                     }
 177:.\Generated_Source\PSoC4/CYBLE_lls.c ****                 }
 178:.\Generated_Source\PSoC4/CYBLE_lls.c ****                 else
 179:.\Generated_Source\PSoC4/CYBLE_lls.c ****                 {
 180:.\Generated_Source\PSoC4/CYBLE_lls.c ****                     gattErr = CYBLE_GATT_ERR_INVALID_ATTRIBUTE_LEN;
 235              		.loc 1 180 0
 236 008a 1723     		mov	r3, #23
 237 008c FB18     		add	r3, r7, r3
 238 008e 0D22     		mov	r2, #13
 239 0090 1A70     		strb	r2, [r3]
 240 0092 03E0     		b	.L12
 241              	.L8:
 181:.\Generated_Source\PSoC4/CYBLE_lls.c ****                 }
 182:.\Generated_Source\PSoC4/CYBLE_lls.c ****             }
 183:.\Generated_Source\PSoC4/CYBLE_lls.c ****             else
 184:.\Generated_Source\PSoC4/CYBLE_lls.c ****             {
 185:.\Generated_Source\PSoC4/CYBLE_lls.c ****                 gattErr = CYBLE_GATT_ERR_OUT_OF_RANGE;
 242              		.loc 1 185 0
 243 0094 1723     		mov	r3, #23
 244 0096 FB18     		add	r3, r7, r3
 245 0098 FF22     		mov	r2, #255
 246 009a 1A70     		strb	r2, [r3]
 247              	.L12:
 186:.\Generated_Source\PSoC4/CYBLE_lls.c ****             }
 187:.\Generated_Source\PSoC4/CYBLE_lls.c ****             
 188:.\Generated_Source\PSoC4/CYBLE_lls.c ****             /* Indicate that request was handled */
 189:.\Generated_Source\PSoC4/CYBLE_lls.c ****             cyBle_eventHandlerFlag &= (uint8)~CYBLE_CALLBACK;
 248              		.loc 1 189 0
 249 009c 084B     		ldr	r3, .L14+4
 250 009e 1B78     		ldrb	r3, [r3]
 251 00a0 DBB2     		uxtb	r3, r3
 252 00a2 0122     		mov	r2, #1
 253 00a4 9343     		bic	r3, r2
 254 00a6 DAB2     		uxtb	r2, r3
 255 00a8 054B     		ldr	r3, .L14+4
 256 00aa 1A70     		strb	r2, [r3]
 257              	.L7:
 190:.\Generated_Source\PSoC4/CYBLE_lls.c ****         }
 191:.\Generated_Source\PSoC4/CYBLE_lls.c ****     }
 192:.\Generated_Source\PSoC4/CYBLE_lls.c ****         
 193:.\Generated_Source\PSoC4/CYBLE_lls.c ****     return(gattErr);
 258              		.loc 1 193 0
 259 00ac 1723     		mov	r3, #23
 260 00ae FB18     		add	r3, r7, r3
 261 00b0 1B78     		ldrb	r3, [r3]
 194:.\Generated_Source\PSoC4/CYBLE_lls.c **** }
 262              		.loc 1 194 0
ARM GAS  C:\Users\mohammed\AppData\Local\Temp\ccYLrbij.s 			page 9


 263 00b2 181C     		mov	r0, r3
 264 00b4 BD46     		mov	sp, r7
 265 00b6 07B0     		add	sp, sp, #28
 266              		@ sp needed
 267 00b8 90BD     		pop	{r4, r7, pc}
 268              	.L15:
 269 00ba C046     		.align	2
 270              	.L14:
 271 00bc 00000000 		.word	CyBle_LlsApplCallback
 272 00c0 00000000 		.word	cyBle_eventHandlerFlag
 273              		.cfi_endproc
 274              	.LFE5:
 275              		.size	CyBle_LlssWriteEventHandler, .-CyBle_LlssWriteEventHandler
 276              		.section	.text.CyBle_LlssGetCharacteristicValue,"ax",%progbits
 277              		.align	2
 278              		.global	CyBle_LlssGetCharacteristicValue
 279              		.code	16
 280              		.thumb_func
 281              		.type	CyBle_LlssGetCharacteristicValue, %function
 282              	CyBle_LlssGetCharacteristicValue:
 283              	.LFB6:
 195:.\Generated_Source\PSoC4/CYBLE_lls.c **** 
 196:.\Generated_Source\PSoC4/CYBLE_lls.c **** 
 197:.\Generated_Source\PSoC4/CYBLE_lls.c **** /****************************************************************************** 
 198:.\Generated_Source\PSoC4/CYBLE_lls.c **** * Function Name: CyBle_LlssGetCharacteristicValue
 199:.\Generated_Source\PSoC4/CYBLE_lls.c **** ***************************************************************************//**
 200:.\Generated_Source\PSoC4/CYBLE_lls.c **** * 
 201:.\Generated_Source\PSoC4/CYBLE_lls.c **** *  Gets an Alert Level characteristic value of the service, which is identified
 202:.\Generated_Source\PSoC4/CYBLE_lls.c **** *  by charIndex.
 203:.\Generated_Source\PSoC4/CYBLE_lls.c **** * 
 204:.\Generated_Source\PSoC4/CYBLE_lls.c **** *  \param charIndex: The index of an Alert Level characteristic.
 205:.\Generated_Source\PSoC4/CYBLE_lls.c **** *  \param attrSize: The size of the Alert Level characteristic value attribute.
 206:.\Generated_Source\PSoC4/CYBLE_lls.c **** *  \param attrValue: The pointer to the location where an Alert Level characteristic
 207:.\Generated_Source\PSoC4/CYBLE_lls.c **** *               value data should be stored.
 208:.\Generated_Source\PSoC4/CYBLE_lls.c **** * 
 209:.\Generated_Source\PSoC4/CYBLE_lls.c **** * \return
 210:.\Generated_Source\PSoC4/CYBLE_lls.c **** *  Return value is of type CYBLE_API_RESULT_T.
 211:.\Generated_Source\PSoC4/CYBLE_lls.c **** *   * CYBLE_ERROR_OK - The characteristic value was read successfully
 212:.\Generated_Source\PSoC4/CYBLE_lls.c **** *   * CYBLE_ERROR_INVALID_PARAMETER - Validation of the input parameters failed
 213:.\Generated_Source\PSoC4/CYBLE_lls.c **** *
 214:.\Generated_Source\PSoC4/CYBLE_lls.c **** * \events
 215:.\Generated_Source\PSoC4/CYBLE_lls.c **** *  None
 216:.\Generated_Source\PSoC4/CYBLE_lls.c **** *
 217:.\Generated_Source\PSoC4/CYBLE_lls.c **** ******************************************************************************/
 218:.\Generated_Source\PSoC4/CYBLE_lls.c **** CYBLE_API_RESULT_T CyBle_LlssGetCharacteristicValue(CYBLE_LLS_CHAR_INDEX_T charIndex, uint8 attrSiz
 219:.\Generated_Source\PSoC4/CYBLE_lls.c **** {
 284              		.loc 1 219 0
 285              		.cfi_startproc
 286 0000 80B5     		push	{r7, lr}
 287              		.cfi_def_cfa_offset 8
 288              		.cfi_offset 7, -8
 289              		.cfi_offset 14, -4
 290 0002 86B0     		sub	sp, sp, #24
 291              		.cfi_def_cfa_offset 32
 292 0004 00AF     		add	r7, sp, #0
 293              		.cfi_def_cfa_register 7
 294 0006 3A60     		str	r2, [r7]
ARM GAS  C:\Users\mohammed\AppData\Local\Temp\ccYLrbij.s 			page 10


 295 0008 FB1D     		add	r3, r7, #7
 296 000a 021C     		add	r2, r0, #0
 297 000c 1A70     		strb	r2, [r3]
 298 000e BB1D     		add	r3, r7, #6
 299 0010 0A1C     		add	r2, r1, #0
 300 0012 1A70     		strb	r2, [r3]
 220:.\Generated_Source\PSoC4/CYBLE_lls.c ****     CYBLE_GATT_HANDLE_VALUE_PAIR_T llsHandleValuePair;
 221:.\Generated_Source\PSoC4/CYBLE_lls.c ****     CYBLE_API_RESULT_T apiResult = CYBLE_ERROR_INVALID_PARAMETER;
 301              		.loc 1 221 0
 302 0014 1623     		mov	r3, #22
 303 0016 FB18     		add	r3, r7, r3
 304 0018 0122     		mov	r2, #1
 305 001a 1A80     		strh	r2, [r3]
 222:.\Generated_Source\PSoC4/CYBLE_lls.c **** 
 223:.\Generated_Source\PSoC4/CYBLE_lls.c ****     if((NULL != attrValue) && (CYBLE_LLS_ALERT_LEVEL == charIndex) && (CYBLE_LLS_ALERT_LEVEL_SIZE =
 306              		.loc 1 223 0
 307 001c 3B68     		ldr	r3, [r7]
 308 001e 002B     		cmp	r3, #0
 309 0020 22D0     		beq	.L17
 310              		.loc 1 223 0 is_stmt 0 discriminator 1
 311 0022 FB1D     		add	r3, r7, #7
 312 0024 1B78     		ldrb	r3, [r3]
 313 0026 002B     		cmp	r3, #0
 314 0028 1ED1     		bne	.L17
 315              		.loc 1 223 0 discriminator 2
 316 002a BB1D     		add	r3, r7, #6
 317 002c 1B78     		ldrb	r3, [r3]
 318 002e 012B     		cmp	r3, #1
 319 0030 1AD1     		bne	.L17
 224:.\Generated_Source\PSoC4/CYBLE_lls.c ****     {
 225:.\Generated_Source\PSoC4/CYBLE_lls.c ****         llsHandleValuePair.attrHandle = cyBle_llss.alertLevelCharHandle;
 320              		.loc 1 225 0 is_stmt 1
 321 0032 0E22     		mov	r2, #14
 322 0034 0823     		mov	r3, #8
 323 0036 FB18     		add	r3, r7, r3
 324 0038 1A81     		strh	r2, [r3, #8]
 226:.\Generated_Source\PSoC4/CYBLE_lls.c ****         llsHandleValuePair.value.len = attrSize;
 325              		.loc 1 226 0
 326 003a BB1D     		add	r3, r7, #6
 327 003c 1B78     		ldrb	r3, [r3]
 328 003e 9AB2     		uxth	r2, r3
 329 0040 0823     		mov	r3, #8
 330 0042 FB18     		add	r3, r7, r3
 331 0044 9A80     		strh	r2, [r3, #4]
 227:.\Generated_Source\PSoC4/CYBLE_lls.c ****         llsHandleValuePair.value.val = attrValue;
 332              		.loc 1 227 0
 333 0046 0823     		mov	r3, #8
 334 0048 FB18     		add	r3, r7, r3
 335 004a 3A68     		ldr	r2, [r7]
 336 004c 1A60     		str	r2, [r3]
 228:.\Generated_Source\PSoC4/CYBLE_lls.c ****         
 229:.\Generated_Source\PSoC4/CYBLE_lls.c ****         /* Get Alert Level characteristic value from GATT database */
 230:.\Generated_Source\PSoC4/CYBLE_lls.c ****         if(CYBLE_GATT_ERR_NONE == 
 231:.\Generated_Source\PSoC4/CYBLE_lls.c ****             CyBle_GattsReadAttributeValue(&llsHandleValuePair, NULL, CYBLE_GATT_DB_LOCALLY_INITIATE
 337              		.loc 1 231 0
 338 004e 0823     		mov	r3, #8
 339 0050 FB18     		add	r3, r7, r3
ARM GAS  C:\Users\mohammed\AppData\Local\Temp\ccYLrbij.s 			page 11


 340 0052 181C     		mov	r0, r3
 341 0054 0021     		mov	r1, #0
 342 0056 0022     		mov	r2, #0
 343 0058 FFF7FEFF 		bl	CyBle_GattsReadAttributeValue
 344 005c 031E     		sub	r3, r0, #0
 230:.\Generated_Source\PSoC4/CYBLE_lls.c ****             CyBle_GattsReadAttributeValue(&llsHandleValuePair, NULL, CYBLE_GATT_DB_LOCALLY_INITIATE
 345              		.loc 1 230 0
 346 005e 03D1     		bne	.L17
 232:.\Generated_Source\PSoC4/CYBLE_lls.c ****         {
 233:.\Generated_Source\PSoC4/CYBLE_lls.c ****             /* Indicate success */
 234:.\Generated_Source\PSoC4/CYBLE_lls.c ****             apiResult = CYBLE_ERROR_OK;
 347              		.loc 1 234 0
 348 0060 1623     		mov	r3, #22
 349 0062 FB18     		add	r3, r7, r3
 350 0064 0022     		mov	r2, #0
 351 0066 1A80     		strh	r2, [r3]
 352              	.L17:
 235:.\Generated_Source\PSoC4/CYBLE_lls.c ****         }
 236:.\Generated_Source\PSoC4/CYBLE_lls.c ****     }
 237:.\Generated_Source\PSoC4/CYBLE_lls.c ****     
 238:.\Generated_Source\PSoC4/CYBLE_lls.c ****     /* Return status */
 239:.\Generated_Source\PSoC4/CYBLE_lls.c ****     return(apiResult);
 353              		.loc 1 239 0
 354 0068 1623     		mov	r3, #22
 355 006a FB18     		add	r3, r7, r3
 356 006c 1B88     		ldrh	r3, [r3]
 240:.\Generated_Source\PSoC4/CYBLE_lls.c **** }
 357              		.loc 1 240 0
 358 006e 181C     		mov	r0, r3
 359 0070 BD46     		mov	sp, r7
 360 0072 06B0     		add	sp, sp, #24
 361              		@ sp needed
 362 0074 80BD     		pop	{r7, pc}
 363              		.cfi_endproc
 364              	.LFE6:
 365              		.size	CyBle_LlssGetCharacteristicValue, .-CyBle_LlssGetCharacteristicValue
 366 0076 C046     		.text
 367              	.Letext0:
 368              		.file 2 ".\\Generated_Source\\PSoC4\\cytypes.h"
 369              		.file 3 ".\\Generated_Source\\PSoC4\\CYBLE_Stack.h"
 370              		.file 4 ".\\Generated_Source\\PSoC4\\CYBLE_StackGatt.h"
 371              		.file 5 ".\\Generated_Source\\PSoC4\\CYBLE_StackGattServer.h"
 372              		.file 6 ".\\Generated_Source\\PSoC4\\CYBLE.h"
 373              		.file 7 ".\\Generated_Source\\PSoC4\\CYBLE_lls.h"
 374              		.file 8 ".\\Generated_Source\\PSoC4\\CYBLE_uds.h"
 375              		.file 9 ".\\Generated_Source\\PSoC4\\CYBLE_eventHandler.h"