ARM GAS  C:\Users\mohammed\AppData\Local\Temp\cc15dDEh.s 			page 1


   1              		.cpu cortex-m0
   2              		.fpu softvfp
   3              		.eabi_attribute 20, 1
   4              		.eabi_attribute 21, 1
   5              		.eabi_attribute 23, 3
   6              		.eabi_attribute 24, 1
   7              		.eabi_attribute 25, 1
   8              		.eabi_attribute 26, 1
   9              		.eabi_attribute 30, 6
  10              		.eabi_attribute 34, 0
  11              		.eabi_attribute 18, 4
  12              		.code	16
  13              		.file	"CYBLE_gatt.c"
  14              		.text
  15              	.Ltext0:
  16              		.cfi_sections	.debug_frame
  17              		.comm	cyBle_state,1,1
  18              		.global	cyBle_gatts
  19              		.section	.rodata
  20              		.align	2
  21              		.type	cyBle_gatts, %object
  22              		.size	cyBle_gatts, 6
  23              	cyBle_gatts:
  24 0000 0800     		.short	8
  25 0002 0A00     		.short	10
  26 0004 0B00     		.short	11
  27              		.data
  28              		.align	2
  29              		.type	cyBle_attValues, %object
  30              		.size	cyBle_attValues, 80
  31              	cyBle_attValues:
  32 0000 50       		.byte	80
  33 0001 72       		.byte	114
  34 0002 6F       		.byte	111
  35 0003 78       		.byte	120
  36 0004 69       		.byte	105
  37 0005 6D       		.byte	109
  38 0006 69       		.byte	105
  39 0007 74       		.byte	116
  40 0008 79       		.byte	121
  41 0009 20       		.byte	32
  42 000a 52       		.byte	82
  43 000b 65       		.byte	101
  44 000c 70       		.byte	112
  45 000d 6F       		.byte	111
  46 000e 72       		.byte	114
  47 000f 74       		.byte	116
  48 0010 65       		.byte	101
  49 0011 72       		.byte	114
  50 0012 00       		.byte	0
  51 0013 02       		.byte	2
  52 0014 28       		.byte	40
  53 0015 00       		.byte	0
  54 0016 38       		.byte	56
  55 0017 00       		.byte	0
  56 0018 00       		.byte	0
  57 0019 00       		.byte	0
ARM GAS  C:\Users\mohammed\AppData\Local\Temp\cc15dDEh.s 			page 2


  58 001a E8       		.byte	-24
  59 001b 03       		.byte	3
  60 001c 00       		.byte	0
  61 001d 00       		.byte	0
  62 001e 00       		.byte	0
  63 001f 00       		.byte	0
  64 0020 00       		.byte	0
  65 0021 00       		.byte	0
  66 0022 00       		.byte	0
  67 0023 00       		.byte	0
  68 0024 00       		.byte	0
  69 0025 00       		.byte	0
  70 0026 00       		.byte	0
  71 0027 00       		.byte	0
  72 0028 00       		.byte	0
  73 0029 00       		.byte	0
  74 002a 00       		.byte	0
  75 002b 00       		.byte	0
  76 002c 00       		.byte	0
  77 002d 00       		.byte	0
  78 002e 00       		.byte	0
  79 002f 00       		.byte	0
  80 0030 00       		.byte	0
  81 0031 00       		.byte	0
  82 0032 00       		.byte	0
  83 0033 00       		.byte	0
  84 0034 00       		.byte	0
  85 0035 00       		.byte	0
  86 0036 00       		.byte	0
  87 0037 00       		.byte	0
  88 0038 00       		.byte	0
  89 0039 00       		.byte	0
  90 003a 00       		.byte	0
  91 003b 00       		.byte	0
  92 003c 00       		.byte	0
  93 003d 00       		.byte	0
  94 003e 00       		.byte	0
  95 003f 00       		.byte	0
  96 0040 00       		.byte	0
  97 0041 00       		.byte	0
  98 0042 00       		.byte	0
  99 0043 00       		.byte	0
 100 0044 00       		.byte	0
 101 0045 00       		.byte	0
 102 0046 00       		.byte	0
 103 0047 00       		.byte	0
 104 0048 00       		.byte	0
 105 0049 00       		.byte	0
 106 004a 00       		.byte	0
 107 004b 00       		.byte	0
 108 004c 00       		.byte	0
 109 004d FF       		.byte	-1
 110 004e 01       		.byte	1
 111 004f 00       		.byte	0
 112              		.comm	cyBle_attValuesCCCD,10,4
 113              		.global	cyBle_attValuesLen
 114              		.align	2
ARM GAS  C:\Users\mohammed\AppData\Local\Temp\cc15dDEh.s 			page 3


 115              		.type	cyBle_attValuesLen, %object
 116              		.size	cyBle_attValuesLen, 344
 117              	cyBle_attValuesLen:
 118 0050 1200     		.short	18
 119 0052 0000     		.space	2
 120 0054 00000000 		.word	cyBle_attValues
 121 0058 0200     		.short	2
 122 005a 0000     		.space	2
 123 005c 12000000 		.word	cyBle_attValues+18
 124 0060 0800     		.short	8
 125 0062 0000     		.space	2
 126 0064 14000000 		.word	cyBle_attValues+20
 127 0068 0400     		.short	4
 128 006a 0000     		.space	2
 129 006c 1C000000 		.word	cyBle_attValues+28
 130 0070 0200     		.short	2
 131 0072 0000     		.space	2
 132 0074 00000000 		.word	cyBle_attValuesCCCD
 133 0078 0100     		.short	1
 134 007a 0000     		.space	2
 135 007c 20000000 		.word	cyBle_attValues+32
 136 0080 0100     		.short	1
 137 0082 0000     		.space	2
 138 0084 21000000 		.word	cyBle_attValues+33
 139 0088 0200     		.short	2
 140 008a 0000     		.space	2
 141 008c 02000000 		.word	cyBle_attValuesCCCD+2
 142 0090 0100     		.short	1
 143 0092 0000     		.space	2
 144 0094 22000000 		.word	cyBle_attValues+34
 145 0098 0200     		.short	2
 146 009a 0000     		.space	2
 147 009c 04000000 		.word	cyBle_attValuesCCCD+4
 148 00a0 0000     		.short	0
 149 00a2 0000     		.space	2
 150 00a4 23000000 		.word	cyBle_attValues+35
 151 00a8 0000     		.short	0
 152 00aa 0000     		.space	2
 153 00ac 23000000 		.word	cyBle_attValues+35
 154 00b0 0000     		.short	0
 155 00b2 0000     		.space	2
 156 00b4 23000000 		.word	cyBle_attValues+35
 157 00b8 0100     		.short	1
 158 00ba 0000     		.space	2
 159 00bc 23000000 		.word	cyBle_attValues+35
 160 00c0 0400     		.short	4
 161 00c2 0000     		.space	2
 162 00c4 24000000 		.word	cyBle_attValues+36
 163 00c8 0100     		.short	1
 164 00ca 0000     		.space	2
 165 00cc 28000000 		.word	cyBle_attValues+40
 166 00d0 0200     		.short	2
 167 00d2 0000     		.space	2
 168 00d4 29000000 		.word	cyBle_attValues+41
 169 00d8 0200     		.short	2
 170 00da 0000     		.space	2
 171 00dc 2B000000 		.word	cyBle_attValues+43
ARM GAS  C:\Users\mohammed\AppData\Local\Temp\cc15dDEh.s 			page 4


 172 00e0 0100     		.short	1
 173 00e2 0000     		.space	2
 174 00e4 2D000000 		.word	cyBle_attValues+45
 175 00e8 0100     		.short	1
 176 00ea 0000     		.space	2
 177 00ec 2E000000 		.word	cyBle_attValues+46
 178 00f0 0100     		.short	1
 179 00f2 0000     		.space	2
 180 00f4 2F000000 		.word	cyBle_attValues+47
 181 00f8 0100     		.short	1
 182 00fa 0000     		.space	2
 183 00fc 30000000 		.word	cyBle_attValues+48
 184 0100 0100     		.short	1
 185 0102 0000     		.space	2
 186 0104 31000000 		.word	cyBle_attValues+49
 187 0108 0100     		.short	1
 188 010a 0000     		.space	2
 189 010c 32000000 		.word	cyBle_attValues+50
 190 0110 0100     		.short	1
 191 0112 0000     		.space	2
 192 0114 33000000 		.word	cyBle_attValues+51
 193 0118 0400     		.short	4
 194 011a 0000     		.space	2
 195 011c 34000000 		.word	cyBle_attValues+52
 196 0120 0200     		.short	2
 197 0122 0000     		.space	2
 198 0124 38000000 		.word	cyBle_attValues+56
 199 0128 0200     		.short	2
 200 012a 0000     		.space	2
 201 012c 3A000000 		.word	cyBle_attValues+58
 202 0130 0100     		.short	1
 203 0132 0000     		.space	2
 204 0134 3C000000 		.word	cyBle_attValues+60
 205 0138 0100     		.short	1
 206 013a 0000     		.space	2
 207 013c 3D000000 		.word	cyBle_attValues+61
 208 0140 0100     		.short	1
 209 0142 0000     		.space	2
 210 0144 3E000000 		.word	cyBle_attValues+62
 211 0148 0100     		.short	1
 212 014a 0000     		.space	2
 213 014c 3F000000 		.word	cyBle_attValues+63
 214 0150 0100     		.short	1
 215 0152 0000     		.space	2
 216 0154 40000000 		.word	cyBle_attValues+64
 217 0158 0100     		.short	1
 218 015a 0000     		.space	2
 219 015c 41000000 		.word	cyBle_attValues+65
 220 0160 0400     		.short	4
 221 0162 0000     		.space	2
 222 0164 42000000 		.word	cyBle_attValues+66
 223 0168 0200     		.short	2
 224 016a 0000     		.space	2
 225 016c 46000000 		.word	cyBle_attValues+70
 226 0170 0100     		.short	1
 227 0172 0000     		.space	2
 228 0174 48000000 		.word	cyBle_attValues+72
ARM GAS  C:\Users\mohammed\AppData\Local\Temp\cc15dDEh.s 			page 5


 229 0178 0400     		.short	4
 230 017a 0000     		.space	2
 231 017c 49000000 		.word	cyBle_attValues+73
 232 0180 0200     		.short	2
 233 0182 0000     		.space	2
 234 0184 06000000 		.word	cyBle_attValuesCCCD+6
 235 0188 0100     		.short	1
 236 018a 0000     		.space	2
 237 018c 4D000000 		.word	cyBle_attValues+77
 238 0190 0200     		.short	2
 239 0192 0000     		.space	2
 240 0194 4E000000 		.word	cyBle_attValues+78
 241 0198 0200     		.short	2
 242 019a 0000     		.space	2
 243 019c 08000000 		.word	cyBle_attValuesCCCD+8
 244 01a0 0000     		.short	0
 245 01a2 0000     		.space	2
 246 01a4 50000000 		.word	cyBle_attValues+80
 247              		.global	cyBle_gattDB
 248              		.section	.rodata
 249 0006 0000     		.align	2
 250              		.type	cyBle_gattDB, %object
 251              		.size	cyBle_gattDB, 1740
 252              	cyBle_gattDB:
 253 0008 0100     		.short	1
 254 000a 0028     		.short	10240
 255 000c 01000000 		.word	1
 256 0010 0700     		.short	7
 257 0012 0000     		.space	2
 258 0014 0018     		.short	6144
 259 0016 0000     		.space	2
 260 0018 00000000 		.word	0
 261 001c 0200     		.short	2
 262 001e 0328     		.short	10243
 263 0020 01020000 		.word	513
 264 0024 0300     		.short	3
 265 0026 0000     		.space	2
 266 0028 002A     		.short	10752
 267 002a 0000     		.space	2
 268 002c 00000000 		.word	0
 269 0030 0300     		.short	3
 270 0032 002A     		.short	10752
 271 0034 01020000 		.word	513
 272 0038 0300     		.short	3
 273 003a 0000     		.space	2
 274 003c 1200     		.short	18
 275 003e 0000     		.space	2
 276 0040 00000000 		.word	cyBle_attValuesLen
 277 0044 0400     		.short	4
 278 0046 0328     		.short	10243
 279 0048 01020000 		.word	513
 280 004c 0500     		.short	5
 281 004e 0000     		.space	2
 282 0050 012A     		.short	10753
 283 0052 0000     		.space	2
 284 0054 00000000 		.word	0
 285 0058 0500     		.short	5
ARM GAS  C:\Users\mohammed\AppData\Local\Temp\cc15dDEh.s 			page 6


 286 005a 012A     		.short	10753
 287 005c 01020000 		.word	513
 288 0060 0500     		.short	5
 289 0062 0000     		.space	2
 290 0064 0200     		.short	2
 291 0066 0000     		.space	2
 292 0068 08000000 		.word	cyBle_attValuesLen+8
 293 006c 0600     		.short	6
 294 006e 0328     		.short	10243
 295 0070 01020000 		.word	513
 296 0074 0700     		.short	7
 297 0076 0000     		.space	2
 298 0078 042A     		.short	10756
 299 007a 0000     		.space	2
 300 007c 00000000 		.word	0
 301 0080 0700     		.short	7
 302 0082 042A     		.short	10756
 303 0084 01020000 		.word	513
 304 0088 0700     		.short	7
 305 008a 0000     		.space	2
 306 008c 0800     		.short	8
 307 008e 0000     		.space	2
 308 0090 10000000 		.word	cyBle_attValuesLen+16
 309 0094 0800     		.short	8
 310 0096 0028     		.short	10240
 311 0098 01000000 		.word	1
 312 009c 0B00     		.short	11
 313 009e 0000     		.space	2
 314 00a0 0118     		.short	6145
 315 00a2 0000     		.space	2
 316 00a4 00000000 		.word	0
 317 00a8 0900     		.short	9
 318 00aa 0328     		.short	10243
 319 00ac 01200000 		.word	8193
 320 00b0 0B00     		.short	11
 321 00b2 0000     		.space	2
 322 00b4 052A     		.short	10757
 323 00b6 0000     		.space	2
 324 00b8 00000000 		.word	0
 325 00bc 0A00     		.short	10
 326 00be 052A     		.short	10757
 327 00c0 00200000 		.word	8192
 328 00c4 0B00     		.short	11
 329 00c6 0000     		.space	2
 330 00c8 0400     		.short	4
 331 00ca 0000     		.space	2
 332 00cc 18000000 		.word	cyBle_attValuesLen+24
 333 00d0 0B00     		.short	11
 334 00d2 0229     		.short	10498
 335 00d4 040A0000 		.word	2564
 336 00d8 0B00     		.short	11
 337 00da 0000     		.space	2
 338 00dc 0200     		.short	2
 339 00de 0000     		.space	2
 340 00e0 20000000 		.word	cyBle_attValuesLen+32
 341 00e4 0C00     		.short	12
 342 00e6 0028     		.short	10240
ARM GAS  C:\Users\mohammed\AppData\Local\Temp\cc15dDEh.s 			page 7


 343 00e8 01000000 		.word	1
 344 00ec 0E00     		.short	14
 345 00ee 0000     		.space	2
 346 00f0 0318     		.short	6147
 347 00f2 0000     		.space	2
 348 00f4 00000000 		.word	0
 349 00f8 0D00     		.short	13
 350 00fa 0328     		.short	10243
 351 00fc 010A0000 		.word	2561
 352 0100 0E00     		.short	14
 353 0102 0000     		.space	2
 354 0104 062A     		.short	10758
 355 0106 0000     		.space	2
 356 0108 00000000 		.word	0
 357 010c 0E00     		.short	14
 358 010e 062A     		.short	10758
 359 0110 040A0000 		.word	2564
 360 0114 0E00     		.short	14
 361 0116 0000     		.space	2
 362 0118 0100     		.short	1
 363 011a 0000     		.space	2
 364 011c 28000000 		.word	cyBle_attValuesLen+40
 365 0120 0F00     		.short	15
 366 0122 0028     		.short	10240
 367 0124 01000000 		.word	1
 368 0128 1200     		.short	18
 369 012a 0000     		.space	2
 370 012c 0418     		.short	6148
 371 012e 0000     		.space	2
 372 0130 00000000 		.word	0
 373 0134 1000     		.short	16
 374 0136 0328     		.short	10243
 375 0138 01120000 		.word	4609
 376 013c 1200     		.short	18
 377 013e 0000     		.space	2
 378 0140 072A     		.short	10759
 379 0142 0000     		.space	2
 380 0144 00000000 		.word	0
 381 0148 1100     		.short	17
 382 014a 072A     		.short	10759
 383 014c 01120000 		.word	4609
 384 0150 1200     		.short	18
 385 0152 0000     		.space	2
 386 0154 0100     		.short	1
 387 0156 0000     		.space	2
 388 0158 30000000 		.word	cyBle_attValuesLen+48
 389 015c 1200     		.short	18
 390 015e 0229     		.short	10498
 391 0160 040A0000 		.word	2564
 392 0164 1200     		.short	18
 393 0166 0000     		.space	2
 394 0168 0200     		.short	2
 395 016a 0000     		.space	2
 396 016c 38000000 		.word	cyBle_attValuesLen+56
 397 0170 1300     		.short	19
 398 0172 0028     		.short	10240
 399 0174 01000000 		.word	1
ARM GAS  C:\Users\mohammed\AppData\Local\Temp\cc15dDEh.s 			page 8


 400 0178 1600     		.short	22
 401 017a 0000     		.space	2
 402 017c 0000     		.short	0
 403 017e 0000     		.space	2
 404 0180 00000000 		.word	0
 405 0184 1400     		.short	20
 406 0186 0328     		.short	10243
 407 0188 010A0000 		.word	2561
 408 018c 1600     		.short	22
 409 018e 0000     		.space	2
 410 0190 0000     		.short	0
 411 0192 0000     		.space	2
 412 0194 00000000 		.word	0
 413 0198 1500     		.short	21
 414 019a 0000     		.short	0
 415 019c 040A0100 		.word	68100
 416 01a0 1600     		.short	22
 417 01a2 0000     		.space	2
 418 01a4 0100     		.short	1
 419 01a6 0000     		.space	2
 420 01a8 40000000 		.word	cyBle_attValuesLen+64
 421 01ac 1600     		.short	22
 422 01ae 0229     		.short	10498
 423 01b0 040A0100 		.word	68100
 424 01b4 1600     		.short	22
 425 01b6 0000     		.space	2
 426 01b8 0200     		.short	2
 427 01ba 0000     		.space	2
 428 01bc 48000000 		.word	cyBle_attValuesLen+72
 429 01c0 1700     		.short	23
 430 01c2 0028     		.short	10240
 431 01c4 01000000 		.word	1
 432 01c8 5700     		.short	87
 433 01ca 0000     		.space	2
 434 01cc 1C18     		.short	6172
 435 01ce 0000     		.space	2
 436 01d0 00000000 		.word	0
 437 01d4 1800     		.short	24
 438 01d6 0328     		.short	10243
 439 01d8 010A0000 		.word	2561
 440 01dc 1900     		.short	25
 441 01de 0000     		.space	2
 442 01e0 8A2A     		.short	10890
 443 01e2 0000     		.space	2
 444 01e4 00000000 		.word	0
 445 01e8 1900     		.short	25
 446 01ea 8A2A     		.short	10890
 447 01ec 040A0100 		.word	68100
 448 01f0 1900     		.short	25
 449 01f2 0000     		.space	2
 450 01f4 0000     		.short	0
 451 01f6 0000     		.space	2
 452 01f8 50000000 		.word	cyBle_attValuesLen+80
 453 01fc 1A00     		.short	26
 454 01fe 0328     		.short	10243
 455 0200 010A0000 		.word	2561
 456 0204 1B00     		.short	27
ARM GAS  C:\Users\mohammed\AppData\Local\Temp\cc15dDEh.s 			page 9


 457 0206 0000     		.space	2
 458 0208 902A     		.short	10896
 459 020a 0000     		.space	2
 460 020c 00000000 		.word	0
 461 0210 1B00     		.short	27
 462 0212 902A     		.short	10896
 463 0214 040A0100 		.word	68100
 464 0218 1B00     		.short	27
 465 021a 0000     		.space	2
 466 021c 0000     		.short	0
 467 021e 0000     		.space	2
 468 0220 58000000 		.word	cyBle_attValuesLen+88
 469 0224 1C00     		.short	28
 470 0226 0328     		.short	10243
 471 0228 010A0000 		.word	2561
 472 022c 1D00     		.short	29
 473 022e 0000     		.space	2
 474 0230 872A     		.short	10887
 475 0232 0000     		.space	2
 476 0234 00000000 		.word	0
 477 0238 1D00     		.short	29
 478 023a 872A     		.short	10887
 479 023c 040A0100 		.word	68100
 480 0240 1D00     		.short	29
 481 0242 0000     		.space	2
 482 0244 0000     		.short	0
 483 0246 0000     		.space	2
 484 0248 60000000 		.word	cyBle_attValuesLen+96
 485 024c 1E00     		.short	30
 486 024e 0328     		.short	10243
 487 0250 010A0000 		.word	2561
 488 0254 1F00     		.short	31
 489 0256 0000     		.space	2
 490 0258 802A     		.short	10880
 491 025a 0000     		.space	2
 492 025c 00000000 		.word	0
 493 0260 1F00     		.short	31
 494 0262 802A     		.short	10880
 495 0264 040A0100 		.word	68100
 496 0268 1F00     		.short	31
 497 026a 0000     		.space	2
 498 026c 0100     		.short	1
 499 026e 0000     		.space	2
 500 0270 68000000 		.word	cyBle_attValuesLen+104
 501 0274 2000     		.short	32
 502 0276 0328     		.short	10243
 503 0278 010A0000 		.word	2561
 504 027c 2100     		.short	33
 505 027e 0000     		.space	2
 506 0280 852A     		.short	10885
 507 0282 0000     		.space	2
 508 0284 00000000 		.word	0
 509 0288 2100     		.short	33
 510 028a 852A     		.short	10885
 511 028c 040A0100 		.word	68100
 512 0290 2100     		.short	33
 513 0292 0000     		.space	2
ARM GAS  C:\Users\mohammed\AppData\Local\Temp\cc15dDEh.s 			page 10


 514 0294 0400     		.short	4
 515 0296 0000     		.space	2
 516 0298 70000000 		.word	cyBle_attValuesLen+112
 517 029c 2200     		.short	34
 518 029e 0328     		.short	10243
 519 02a0 010A0000 		.word	2561
 520 02a4 2300     		.short	35
 521 02a6 0000     		.space	2
 522 02a8 8C2A     		.short	10892
 523 02aa 0000     		.space	2
 524 02ac 00000000 		.word	0
 525 02b0 2300     		.short	35
 526 02b2 8C2A     		.short	10892
 527 02b4 040A0100 		.word	68100
 528 02b8 2300     		.short	35
 529 02ba 0000     		.space	2
 530 02bc 0100     		.short	1
 531 02be 0000     		.space	2
 532 02c0 78000000 		.word	cyBle_attValuesLen+120
 533 02c4 2400     		.short	36
 534 02c6 0328     		.short	10243
 535 02c8 010A0000 		.word	2561
 536 02cc 2500     		.short	37
 537 02ce 0000     		.space	2
 538 02d0 982A     		.short	10904
 539 02d2 0000     		.space	2
 540 02d4 00000000 		.word	0
 541 02d8 2500     		.short	37
 542 02da 982A     		.short	10904
 543 02dc 040A0100 		.word	68100
 544 02e0 2500     		.short	37
 545 02e2 0000     		.space	2
 546 02e4 0200     		.short	2
 547 02e6 0000     		.space	2
 548 02e8 80000000 		.word	cyBle_attValuesLen+128
 549 02ec 2600     		.short	38
 550 02ee 0328     		.short	10243
 551 02f0 010A0000 		.word	2561
 552 02f4 2700     		.short	39
 553 02f6 0000     		.space	2
 554 02f8 8E2A     		.short	10894
 555 02fa 0000     		.space	2
 556 02fc 00000000 		.word	0
 557 0300 2700     		.short	39
 558 0302 8E2A     		.short	10894
 559 0304 040A0100 		.word	68100
 560 0308 2700     		.short	39
 561 030a 0000     		.space	2
 562 030c 0200     		.short	2
 563 030e 0000     		.space	2
 564 0310 88000000 		.word	cyBle_attValuesLen+136
 565 0314 2800     		.short	40
 566 0316 0328     		.short	10243
 567 0318 010A0000 		.word	2561
 568 031c 2900     		.short	41
 569 031e 0000     		.space	2
 570 0320 962A     		.short	10902
ARM GAS  C:\Users\mohammed\AppData\Local\Temp\cc15dDEh.s 			page 11


 571 0322 0000     		.space	2
 572 0324 00000000 		.word	0
 573 0328 2900     		.short	41
 574 032a 962A     		.short	10902
 575 032c 040A0100 		.word	68100
 576 0330 2900     		.short	41
 577 0332 0000     		.space	2
 578 0334 0100     		.short	1
 579 0336 0000     		.space	2
 580 0338 90000000 		.word	cyBle_attValuesLen+144
 581 033c 2A00     		.short	42
 582 033e 0328     		.short	10243
 583 0340 010A0000 		.word	2561
 584 0344 2B00     		.short	43
 585 0346 0000     		.space	2
 586 0348 8D2A     		.short	10893
 587 034a 0000     		.space	2
 588 034c 00000000 		.word	0
 589 0350 2B00     		.short	43
 590 0352 8D2A     		.short	10893
 591 0354 040A0100 		.word	68100
 592 0358 2B00     		.short	43
 593 035a 0000     		.space	2
 594 035c 0100     		.short	1
 595 035e 0000     		.space	2
 596 0360 98000000 		.word	cyBle_attValuesLen+152
 597 0364 2C00     		.short	44
 598 0366 0328     		.short	10243
 599 0368 010A0000 		.word	2561
 600 036c 2D00     		.short	45
 601 036e 0000     		.space	2
 602 0370 922A     		.short	10898
 603 0372 0000     		.space	2
 604 0374 00000000 		.word	0
 605 0378 2D00     		.short	45
 606 037a 922A     		.short	10898
 607 037c 040A0100 		.word	68100
 608 0380 2D00     		.short	45
 609 0382 0000     		.space	2
 610 0384 0100     		.short	1
 611 0386 0000     		.space	2
 612 0388 A0000000 		.word	cyBle_attValuesLen+160
 613 038c 2E00     		.short	46
 614 038e 0328     		.short	10243
 615 0390 010A0000 		.word	2561
 616 0394 2F00     		.short	47
 617 0396 0000     		.space	2
 618 0398 912A     		.short	10897
 619 039a 0000     		.space	2
 620 039c 00000000 		.word	0
 621 03a0 2F00     		.short	47
 622 03a2 912A     		.short	10897
 623 03a4 040A0100 		.word	68100
 624 03a8 2F00     		.short	47
 625 03aa 0000     		.space	2
 626 03ac 0100     		.short	1
 627 03ae 0000     		.space	2
ARM GAS  C:\Users\mohammed\AppData\Local\Temp\cc15dDEh.s 			page 12


 628 03b0 A8000000 		.word	cyBle_attValuesLen+168
 629 03b4 3000     		.short	48
 630 03b6 0328     		.short	10243
 631 03b8 010A0000 		.word	2561
 632 03bc 3100     		.short	49
 633 03be 0000     		.space	2
 634 03c0 7F2A     		.short	10879
 635 03c2 0000     		.space	2
 636 03c4 00000000 		.word	0
 637 03c8 3100     		.short	49
 638 03ca 7F2A     		.short	10879
 639 03cc 040A0100 		.word	68100
 640 03d0 3100     		.short	49
 641 03d2 0000     		.space	2
 642 03d4 0100     		.short	1
 643 03d6 0000     		.space	2
 644 03d8 B0000000 		.word	cyBle_attValuesLen+176
 645 03dc 3200     		.short	50
 646 03de 0328     		.short	10243
 647 03e0 010A0000 		.word	2561
 648 03e4 3300     		.short	51
 649 03e6 0000     		.space	2
 650 03e8 832A     		.short	10883
 651 03ea 0000     		.space	2
 652 03ec 00000000 		.word	0
 653 03f0 3300     		.short	51
 654 03f2 832A     		.short	10883
 655 03f4 040A0100 		.word	68100
 656 03f8 3300     		.short	51
 657 03fa 0000     		.space	2
 658 03fc 0100     		.short	1
 659 03fe 0000     		.space	2
 660 0400 B8000000 		.word	cyBle_attValuesLen+184
 661 0404 3400     		.short	52
 662 0406 0328     		.short	10243
 663 0408 010A0000 		.word	2561
 664 040c 3500     		.short	53
 665 040e 0000     		.space	2
 666 0410 932A     		.short	10899
 667 0412 0000     		.space	2
 668 0414 00000000 		.word	0
 669 0418 3500     		.short	53
 670 041a 932A     		.short	10899
 671 041c 040A0100 		.word	68100
 672 0420 3500     		.short	53
 673 0422 0000     		.space	2
 674 0424 0100     		.short	1
 675 0426 0000     		.space	2
 676 0428 C0000000 		.word	cyBle_attValuesLen+192
 677 042c 3600     		.short	54
 678 042e 0328     		.short	10243
 679 0430 010A0000 		.word	2561
 680 0434 3700     		.short	55
 681 0436 0000     		.space	2
 682 0438 862A     		.short	10886
 683 043a 0000     		.space	2
 684 043c 00000000 		.word	0
ARM GAS  C:\Users\mohammed\AppData\Local\Temp\cc15dDEh.s 			page 13


 685 0440 3700     		.short	55
 686 0442 862A     		.short	10886
 687 0444 040A0100 		.word	68100
 688 0448 3700     		.short	55
 689 044a 0000     		.space	2
 690 044c 0400     		.short	4
 691 044e 0000     		.space	2
 692 0450 C8000000 		.word	cyBle_attValuesLen+200
 693 0454 3800     		.short	56
 694 0456 0328     		.short	10243
 695 0458 010A0000 		.word	2561
 696 045c 3900     		.short	57
 697 045e 0000     		.space	2
 698 0460 972A     		.short	10903
 699 0462 0000     		.space	2
 700 0464 00000000 		.word	0
 701 0468 3900     		.short	57
 702 046a 972A     		.short	10903
 703 046c 040A0100 		.word	68100
 704 0470 3900     		.short	57
 705 0472 0000     		.space	2
 706 0474 0200     		.short	2
 707 0476 0000     		.space	2
 708 0478 D0000000 		.word	cyBle_attValuesLen+208
 709 047c 3A00     		.short	58
 710 047e 0328     		.short	10243
 711 0480 010A0000 		.word	2561
 712 0484 3B00     		.short	59
 713 0486 0000     		.space	2
 714 0488 8F2A     		.short	10895
 715 048a 0000     		.space	2
 716 048c 00000000 		.word	0
 717 0490 3B00     		.short	59
 718 0492 8F2A     		.short	10895
 719 0494 040A0100 		.word	68100
 720 0498 3B00     		.short	59
 721 049a 0000     		.space	2
 722 049c 0200     		.short	2
 723 049e 0000     		.space	2
 724 04a0 D8000000 		.word	cyBle_attValuesLen+216
 725 04a4 3C00     		.short	60
 726 04a6 0328     		.short	10243
 727 04a8 010A0000 		.word	2561
 728 04ac 3D00     		.short	61
 729 04ae 0000     		.space	2
 730 04b0 882A     		.short	10888
 731 04b2 0000     		.space	2
 732 04b4 00000000 		.word	0
 733 04b8 3D00     		.short	61
 734 04ba 882A     		.short	10888
 735 04bc 040A0100 		.word	68100
 736 04c0 3D00     		.short	61
 737 04c2 0000     		.space	2
 738 04c4 0100     		.short	1
 739 04c6 0000     		.space	2
 740 04c8 E0000000 		.word	cyBle_attValuesLen+224
 741 04cc 3E00     		.short	62
ARM GAS  C:\Users\mohammed\AppData\Local\Temp\cc15dDEh.s 			page 14


 742 04ce 0328     		.short	10243
 743 04d0 010A0000 		.word	2561
 744 04d4 3F00     		.short	63
 745 04d6 0000     		.space	2
 746 04d8 892A     		.short	10889
 747 04da 0000     		.space	2
 748 04dc 00000000 		.word	0
 749 04e0 3F00     		.short	63
 750 04e2 892A     		.short	10889
 751 04e4 040A0100 		.word	68100
 752 04e8 3F00     		.short	63
 753 04ea 0000     		.space	2
 754 04ec 0100     		.short	1
 755 04ee 0000     		.space	2
 756 04f0 E8000000 		.word	cyBle_attValuesLen+232
 757 04f4 4000     		.short	64
 758 04f6 0328     		.short	10243
 759 04f8 010A0000 		.word	2561
 760 04fc 4100     		.short	65
 761 04fe 0000     		.space	2
 762 0500 7E2A     		.short	10878
 763 0502 0000     		.space	2
 764 0504 00000000 		.word	0
 765 0508 4100     		.short	65
 766 050a 7E2A     		.short	10878
 767 050c 040A0100 		.word	68100
 768 0510 4100     		.short	65
 769 0512 0000     		.space	2
 770 0514 0100     		.short	1
 771 0516 0000     		.space	2
 772 0518 F0000000 		.word	cyBle_attValuesLen+240
 773 051c 4200     		.short	66
 774 051e 0328     		.short	10243
 775 0520 010A0000 		.word	2561
 776 0524 4300     		.short	67
 777 0526 0000     		.space	2
 778 0528 842A     		.short	10884
 779 052a 0000     		.space	2
 780 052c 00000000 		.word	0
 781 0530 4300     		.short	67
 782 0532 842A     		.short	10884
 783 0534 040A0100 		.word	68100
 784 0538 4300     		.short	67
 785 053a 0000     		.space	2
 786 053c 0100     		.short	1
 787 053e 0000     		.space	2
 788 0540 F8000000 		.word	cyBle_attValuesLen+248
 789 0544 4400     		.short	68
 790 0546 0328     		.short	10243
 791 0548 010A0000 		.word	2561
 792 054c 4500     		.short	69
 793 054e 0000     		.space	2
 794 0550 812A     		.short	10881
 795 0552 0000     		.space	2
 796 0554 00000000 		.word	0
 797 0558 4500     		.short	69
 798 055a 812A     		.short	10881
ARM GAS  C:\Users\mohammed\AppData\Local\Temp\cc15dDEh.s 			page 15


 799 055c 040A0100 		.word	68100
 800 0560 4500     		.short	69
 801 0562 0000     		.space	2
 802 0564 0100     		.short	1
 803 0566 0000     		.space	2
 804 0568 00010000 		.word	cyBle_attValuesLen+256
 805 056c 4600     		.short	70
 806 056e 0328     		.short	10243
 807 0570 010A0000 		.word	2561
 808 0574 4700     		.short	71
 809 0576 0000     		.space	2
 810 0578 822A     		.short	10882
 811 057a 0000     		.space	2
 812 057c 00000000 		.word	0
 813 0580 4700     		.short	71
 814 0582 822A     		.short	10882
 815 0584 040A0100 		.word	68100
 816 0588 4700     		.short	71
 817 058a 0000     		.space	2
 818 058c 0100     		.short	1
 819 058e 0000     		.space	2
 820 0590 08010000 		.word	cyBle_attValuesLen+264
 821 0594 4800     		.short	72
 822 0596 0328     		.short	10243
 823 0598 010A0000 		.word	2561
 824 059c 4900     		.short	73
 825 059e 0000     		.space	2
 826 05a0 8B2A     		.short	10891
 827 05a2 0000     		.space	2
 828 05a4 00000000 		.word	0
 829 05a8 4900     		.short	73
 830 05aa 8B2A     		.short	10891
 831 05ac 040A0100 		.word	68100
 832 05b0 4900     		.short	73
 833 05b2 0000     		.space	2
 834 05b4 0400     		.short	4
 835 05b6 0000     		.space	2
 836 05b8 10010000 		.word	cyBle_attValuesLen+272
 837 05bc 4A00     		.short	74
 838 05be 0328     		.short	10243
 839 05c0 010A0000 		.word	2561
 840 05c4 4B00     		.short	75
 841 05c6 0000     		.space	2
 842 05c8 942A     		.short	10900
 843 05ca 0000     		.space	2
 844 05cc 00000000 		.word	0
 845 05d0 4B00     		.short	75
 846 05d2 942A     		.short	10900
 847 05d4 040A0100 		.word	68100
 848 05d8 4B00     		.short	75
 849 05da 0000     		.space	2
 850 05dc 0200     		.short	2
 851 05de 0000     		.space	2
 852 05e0 18010000 		.word	cyBle_attValuesLen+280
 853 05e4 4C00     		.short	76
 854 05e6 0328     		.short	10243
 855 05e8 010A0000 		.word	2561
ARM GAS  C:\Users\mohammed\AppData\Local\Temp\cc15dDEh.s 			page 16


 856 05ec 4D00     		.short	77
 857 05ee 0000     		.space	2
 858 05f0 952A     		.short	10901
 859 05f2 0000     		.space	2
 860 05f4 00000000 		.word	0
 861 05f8 4D00     		.short	77
 862 05fa 952A     		.short	10901
 863 05fc 040A0100 		.word	68100
 864 0600 4D00     		.short	77
 865 0602 0000     		.space	2
 866 0604 0100     		.short	1
 867 0606 0000     		.space	2
 868 0608 20010000 		.word	cyBle_attValuesLen+288
 869 060c 4E00     		.short	78
 870 060e 0328     		.short	10243
 871 0610 010A0000 		.word	2561
 872 0614 5000     		.short	80
 873 0616 0000     		.space	2
 874 0618 992A     		.short	10905
 875 061a 0000     		.space	2
 876 061c 00000000 		.word	0
 877 0620 4F00     		.short	79
 878 0622 992A     		.short	10905
 879 0624 040A0000 		.word	2564
 880 0628 5000     		.short	80
 881 062a 0000     		.space	2
 882 062c 0400     		.short	4
 883 062e 0000     		.space	2
 884 0630 28010000 		.word	cyBle_attValuesLen+296
 885 0634 5000     		.short	80
 886 0636 0229     		.short	10498
 887 0638 040A0000 		.word	2564
 888 063c 5000     		.short	80
 889 063e 0000     		.space	2
 890 0640 0200     		.short	2
 891 0642 0000     		.space	2
 892 0644 30010000 		.word	cyBle_attValuesLen+304
 893 0648 5100     		.short	81
 894 064a 0328     		.short	10243
 895 064c 01020000 		.word	513
 896 0650 5200     		.short	82
 897 0652 0000     		.space	2
 898 0654 9A2A     		.short	10906
 899 0656 0000     		.space	2
 900 0658 00000000 		.word	0
 901 065c 5200     		.short	82
 902 065e 9A2A     		.short	10906
 903 0660 01020000 		.word	513
 904 0664 5200     		.short	82
 905 0666 0000     		.space	2
 906 0668 0100     		.short	1
 907 066a 0000     		.space	2
 908 066c 38010000 		.word	cyBle_attValuesLen+312
 909 0670 5300     		.short	83
 910 0672 0328     		.short	10243
 911 0674 01280000 		.word	10241
 912 0678 5500     		.short	85
ARM GAS  C:\Users\mohammed\AppData\Local\Temp\cc15dDEh.s 			page 17


 913 067a 0000     		.space	2
 914 067c 9F2A     		.short	10911
 915 067e 0000     		.space	2
 916 0680 00000000 		.word	0
 917 0684 5400     		.short	84
 918 0686 9F2A     		.short	10911
 919 0688 02280000 		.word	10242
 920 068c 5500     		.short	85
 921 068e 0000     		.space	2
 922 0690 0200     		.short	2
 923 0692 0000     		.space	2
 924 0694 40010000 		.word	cyBle_attValuesLen+320
 925 0698 5500     		.short	85
 926 069a 0229     		.short	10498
 927 069c 040A0000 		.word	2564
 928 06a0 5500     		.short	85
 929 06a2 0000     		.space	2
 930 06a4 0200     		.short	2
 931 06a6 0000     		.space	2
 932 06a8 48010000 		.word	cyBle_attValuesLen+328
 933 06ac 5600     		.short	86
 934 06ae 0328     		.short	10243
 935 06b0 010A0000 		.word	2561
 936 06b4 5700     		.short	87
 937 06b6 0000     		.space	2
 938 06b8 A22A     		.short	10914
 939 06ba 0000     		.space	2
 940 06bc 00000000 		.word	0
 941 06c0 5700     		.short	87
 942 06c2 A22A     		.short	10914
 943 06c4 040A0100 		.word	68100
 944 06c8 5700     		.short	87
 945 06ca 0000     		.space	2
 946 06cc 0000     		.short	0
 947 06ce 0000     		.space	2
 948 06d0 50010000 		.word	cyBle_attValuesLen+336
 949              		.section	.text.CyBle_GattsReInitGattDb,"ax",%progbits
 950              		.align	2
 951              		.global	CyBle_GattsReInitGattDb
 952              		.code	16
 953              		.thumb_func
 954              		.type	CyBle_GattsReInitGattDb, %function
 955              	CyBle_GattsReInitGattDb:
 956              	.LFB2:
 957              		.file 1 ".\\Generated_Source\\PSoC4\\CYBLE_gatt.c"
   1:.\Generated_Source\PSoC4/CYBLE_gatt.c **** /***************************************************************************//**
   2:.\Generated_Source\PSoC4/CYBLE_gatt.c **** * \file CYBLE_gatt.c
   3:.\Generated_Source\PSoC4/CYBLE_gatt.c **** * \version 3.10
   4:.\Generated_Source\PSoC4/CYBLE_gatt.c **** * 
   5:.\Generated_Source\PSoC4/CYBLE_gatt.c **** * \brief
   6:.\Generated_Source\PSoC4/CYBLE_gatt.c **** *  This file contains the source code for the GATT API of the BLE Component.
   7:.\Generated_Source\PSoC4/CYBLE_gatt.c **** * 
   8:.\Generated_Source\PSoC4/CYBLE_gatt.c **** ********************************************************************************
   9:.\Generated_Source\PSoC4/CYBLE_gatt.c **** * \copyright
  10:.\Generated_Source\PSoC4/CYBLE_gatt.c **** * Copyright 2014-2016, Cypress Semiconductor Corporation.  All rights reserved.
  11:.\Generated_Source\PSoC4/CYBLE_gatt.c **** * You may use this file only in accordance with the license, terms, conditions,
  12:.\Generated_Source\PSoC4/CYBLE_gatt.c **** * disclaimers, and limitations in the end user license agreement accompanying
ARM GAS  C:\Users\mohammed\AppData\Local\Temp\cc15dDEh.s 			page 18


  13:.\Generated_Source\PSoC4/CYBLE_gatt.c **** * the software package with which this file was provided.
  14:.\Generated_Source\PSoC4/CYBLE_gatt.c **** *******************************************************************************/
  15:.\Generated_Source\PSoC4/CYBLE_gatt.c **** 
  16:.\Generated_Source\PSoC4/CYBLE_gatt.c **** 
  17:.\Generated_Source\PSoC4/CYBLE_gatt.c **** #include "CYBLE_eventHandler.h"
  18:.\Generated_Source\PSoC4/CYBLE_gatt.c **** 
  19:.\Generated_Source\PSoC4/CYBLE_gatt.c **** 
  20:.\Generated_Source\PSoC4/CYBLE_gatt.c **** /***************************************
  21:.\Generated_Source\PSoC4/CYBLE_gatt.c **** * Global variables
  22:.\Generated_Source\PSoC4/CYBLE_gatt.c **** ***************************************/
  23:.\Generated_Source\PSoC4/CYBLE_gatt.c **** 
  24:.\Generated_Source\PSoC4/CYBLE_gatt.c **** CYBLE_STATE_T cyBle_state;
  25:.\Generated_Source\PSoC4/CYBLE_gatt.c **** 
  26:.\Generated_Source\PSoC4/CYBLE_gatt.c **** #if ((CYBLE_MODE_PROFILE) && (CYBLE_BONDING_REQUIREMENT == CYBLE_BONDING_YES))
  27:.\Generated_Source\PSoC4/CYBLE_gatt.c ****     
  28:.\Generated_Source\PSoC4/CYBLE_gatt.c **** #if(CYBLE_MODE_PROFILE)
  29:.\Generated_Source\PSoC4/CYBLE_gatt.c ****     #if defined(__ARMCC_VERSION)
  30:.\Generated_Source\PSoC4/CYBLE_gatt.c ****         CY_ALIGN(CYDEV_FLS_ROW_SIZE) const CY_BLE_FLASH_STORAGE cyBle_flashStorage CY_SECTION(".cy_
  31:.\Generated_Source\PSoC4/CYBLE_gatt.c ****     #elif defined (__GNUC__)
  32:.\Generated_Source\PSoC4/CYBLE_gatt.c ****         const CY_BLE_FLASH_STORAGE cyBle_flashStorage CY_SECTION(".cy_checksum_exclude")
  33:.\Generated_Source\PSoC4/CYBLE_gatt.c ****             CY_ALIGN(CYDEV_FLS_ROW_SIZE) =
  34:.\Generated_Source\PSoC4/CYBLE_gatt.c ****     #elif defined (__ICCARM__)
  35:.\Generated_Source\PSoC4/CYBLE_gatt.c ****         #pragma data_alignment=CY_FLASH_SIZEOF_ROW
  36:.\Generated_Source\PSoC4/CYBLE_gatt.c ****         #pragma location=".cy_checksum_exclude"
  37:.\Generated_Source\PSoC4/CYBLE_gatt.c ****         const CY_BLE_FLASH_STORAGE cyBle_flashStorage =
  38:.\Generated_Source\PSoC4/CYBLE_gatt.c ****     #endif  /* (__ARMCC_VERSION) */
  39:.\Generated_Source\PSoC4/CYBLE_gatt.c ****     {
  40:.\Generated_Source\PSoC4/CYBLE_gatt.c ****         { 0x00u, 0x00u, 0x00u, 0x00u, 0x00u, 0x00u, 0x00u, 0x00u, 0x00u, 0x00u, 0x00u, 0x00u, 0x00u
  41:.\Generated_Source\PSoC4/CYBLE_gatt.c ****         0x00u, 0x00u, 0x00u, 0x00u, 0x00u, 0x00u, 0x00u, 0x00u, 0x00u, 0x00u, 0x00u, 0x00u, 0x00u, 
  42:.\Generated_Source\PSoC4/CYBLE_gatt.c ****         0x00u, 0x00u, 0x00u, 0x00u, 0x00u, 0x00u, 0x00u, 0x00u, 0x00u, 0x00u, 0x00u, 0x00u, 0x00u, 
  43:.\Generated_Source\PSoC4/CYBLE_gatt.c ****         0x00u, 0x00u, 0x00u, 0x00u, 0x00u, 0x00u, 0x00u, 0x00u, 0x00u, 0x00u, 0x00u, 0x00u, 0x00u, 
  44:.\Generated_Source\PSoC4/CYBLE_gatt.c ****         0x00u, 0x00u, 0x00u, 0x00u, 0x00u, 0x00u, 0x00u, 0x00u, 0x00u, 0x00u, 0x00u, 0x00u, 0x00u, 
  45:.\Generated_Source\PSoC4/CYBLE_gatt.c ****         0x00u, 0x00u, 0x00u, 0x00u, 0x00u, 0x00u, 0x00u, 0x00u, 0x00u, 0x00u, 0x00u, 0x00u, 0x00u, 
  46:.\Generated_Source\PSoC4/CYBLE_gatt.c ****         0x00u, 0x00u, 0x00u, 0x00u, 0x00u, 0x00u, 0x00u, 0x00u, 0x00u, 0x00u, 0x00u, 0x00u, 0x00u, 
  47:.\Generated_Source\PSoC4/CYBLE_gatt.c ****         0x00u, 0x00u, 0x00u, 0x00u, 0x00u, 0x00u, 0x00u, 0x00u, 0x00u, 0x00u, 0x00u, 0x00u, 0x00u, 
  48:.\Generated_Source\PSoC4/CYBLE_gatt.c ****         0x00u, 0x00u, 0x00u, 0x00u, 0x00u, 0x00u, 0x00u, 0x00u, 0x00u, 0x00u, 0x00u, 0x00u, 0x00u, 
  49:.\Generated_Source\PSoC4/CYBLE_gatt.c ****         0x00u, 0x00u, 0x00u, 0x00u, 0x00u, 0x00u, 0x00u, 0x00u, 0x00u, 0x00u, 0x00u, 0x00u, 0x00u, 
  50:.\Generated_Source\PSoC4/CYBLE_gatt.c ****         0x00u, 0x00u, 0x00u, 0x00u, 0x00u, 0x00u, 0x00u, 0x00u, 0x00u, 0x00u, 0x00u, 0x00u, 0x00u, 
  51:.\Generated_Source\PSoC4/CYBLE_gatt.c ****         0x00u, 0x00u, 0x00u, 0x00u, 0x00u, 0x00u, 0x00u, 0x00u, 0x00u, 0x00u, 0x00u, 0x00u, 0x00u, 
  52:.\Generated_Source\PSoC4/CYBLE_gatt.c ****         0x00u, 0x00u, 0x00u, 0x00u, 0x00u, 0x00u, 0x00u, 0x00u, 0x00u, 0x00u, 0x00u, 0x00u, 0x00u, 
  53:.\Generated_Source\PSoC4/CYBLE_gatt.c ****         0x00u, 0x00u, 0x00u, 0x00u, 0x00u, 0x00u, 0x00u, 0x00u, 0x00u, 0x00u, 0x00u, 0x00u, 0x00u, 
  54:.\Generated_Source\PSoC4/CYBLE_gatt.c ****         0x00u, 0x00u, 0x00u, 0x00u, 0x00u, 0x00u, 0x00u, 0x00u, 0x00u, 0x00u, 0x00u, 0x00u, 0x00u, 
  55:.\Generated_Source\PSoC4/CYBLE_gatt.c ****         0x00u, 0x00u, 0x00u, 0x00u, 0x00u, 0x00u, 0x00u, 0x00u, 0x00u, 0x00u, 0x00u, 0x00u, 0x00u, 
  56:.\Generated_Source\PSoC4/CYBLE_gatt.c ****         0x00u, 0x00u, 0x00u, 0x00u, 0x00u, 0x00u, 0x00u, 0x00u, 0x00u, 0x00u, 0x00u, 0x00u, 0x00u, 
  57:.\Generated_Source\PSoC4/CYBLE_gatt.c ****         0x00u, 0x00u, 0x00u, 0x00u, 0x00u, 0x00u, 0x00u, 0x00u, 0x00u, 0x00u, 0x00u, 0x00u, 0x00u, 
  58:.\Generated_Source\PSoC4/CYBLE_gatt.c ****         0x00u, 0x00u, 0x00u, 0x00u, 0x00u, 0x00u, 0x00u, 0x00u, 0x00u, 0x00u, 0x00u, 0x00u, 0x00u, 
  59:.\Generated_Source\PSoC4/CYBLE_gatt.c ****         0x00u, 0x00u, 0x00u, 0x00u, 0x00u, 0x00u, 0x00u, 0x00u, 0x00u, 0x00u, 0x00u, 0x00u, 0x00u, 
  60:.\Generated_Source\PSoC4/CYBLE_gatt.c ****         0x00u, 0x00u, 0x00u, 0x00u, 0x00u, 0x00u, 0x00u, 0x00u, 0x00u, 0x00u, 0x00u, 0x00u, 0x00u, 
  61:.\Generated_Source\PSoC4/CYBLE_gatt.c ****         0x00u, 0x00u, 0x00u, 0x00u, 0x00u, 0x00u, 0x00u, 0x00u, 0x00u, 0x00u, 0x00u, 0x00u, 0x00u, 
  62:.\Generated_Source\PSoC4/CYBLE_gatt.c ****         0x00u, 0x00u, 0x00u, 0x00u, 0x00u, 0x00u, 0x00u, 0x00u, 0x00u, 0x00u, 0x00u, 0x00u, 0x00u, 
  63:.\Generated_Source\PSoC4/CYBLE_gatt.c ****         0x00u, 0x00u, 0x00u, 0x00u, 0x00u, 0x00u, 0x00u, 0x00u, 0x00u, 0x00u, 0x00u, 0x00u, 0x00u, 
  64:.\Generated_Source\PSoC4/CYBLE_gatt.c ****         0x00u, 0x00u, 0x00u, 0x00u, 0x00u, 0x00u, 0x00u, 0x00u, 0x00u, 0x00u, 0x00u, 0x00u, 0x00u, 
  65:.\Generated_Source\PSoC4/CYBLE_gatt.c ****         0x00u, 0x00u, 0x00u, 0x00u, 0x00u, 0x00u, 0x00u, 0x00u, 0x00u, 0x00u, 0x00u, 0x00u, 0x00u, 
  66:.\Generated_Source\PSoC4/CYBLE_gatt.c ****         0x00u, 0x00u, 0x00u, 0x00u, 0x00u, 0x00u, 0x00u, 0x00u, 0x00u, 0x00u, 0x00u, 0x00u, 0x00u, 
  67:.\Generated_Source\PSoC4/CYBLE_gatt.c ****         0x00u, 0x00u, 0x00u, 0x00u, 0x00u, 0x00u, 0x00u, 0x00u, 0x00u, 0x00u, 0x00u, 0x00u, 0x00u, 
  68:.\Generated_Source\PSoC4/CYBLE_gatt.c ****         0x00u, 0x00u, 0x00u, 0x00u, 0x00u, 0x00u, 0x00u, 0x00u, 0x00u, 0x00u, 0x00u, 0x00u, 0x00u, 
  69:.\Generated_Source\PSoC4/CYBLE_gatt.c ****         0x00u, 0x00u, 0x00u, 0x00u, 0x00u, 0x00u, 0x00u, 0x00u, 0x00u, 0x00u, 0x00u, 0x00u, 0x00u, 
ARM GAS  C:\Users\mohammed\AppData\Local\Temp\cc15dDEh.s 			page 19


  70:.\Generated_Source\PSoC4/CYBLE_gatt.c ****         0x00u, 0x00u, 0x00u, 0x00u, 0x00u, 0x00u, 0x00u, 0x00u, 0x00u, 0x00u, 0x00u, 0x00u, 0x00u, 
  71:.\Generated_Source\PSoC4/CYBLE_gatt.c ****         0x00u, 0x00u, 0x00u, 0x00u, 0x00u, 0x00u, 0x00u, 0x00u, 0x00u, 0x00u, 0x00u, 0x00u, 0x00u, 
  72:.\Generated_Source\PSoC4/CYBLE_gatt.c ****         0x00u, 0x00u, 0x00u, 0x00u, 0x00u, 0x00u, 0x00u, 0x00u, 0x00u, 0x00u, 0x00u, 0x00u, 0x00u, 
  73:.\Generated_Source\PSoC4/CYBLE_gatt.c ****         0x00u, 0x00u, 0x00u, 0x00u, 0x00u, 0x00u, 0x00u, 0x00u, 0x00u, 0x00u, 0x00u, 0x00u, 0x00u, 
  74:.\Generated_Source\PSoC4/CYBLE_gatt.c ****         0x00u, 0x00u, 0x00u, 0x00u, 0x00u, 0x00u, 0x00u, 0x00u, 0x00u, 0x00u, 0x00u, 0x00u, 0x00u, 
  75:.\Generated_Source\PSoC4/CYBLE_gatt.c ****         0x00u, 0x00u, 0x00u, 0x00u, 0x00u, 0x00u, 0x00u, 0x00u, 0x00u, 0x00u, 0x00u, 0x00u, 0x00u, 
  76:.\Generated_Source\PSoC4/CYBLE_gatt.c ****         0x00u, 0x00u, 0x00u, 0x00u, 0x00u, 0x00u, 0x00u, 0x00u, 0x00u, 0x00u, 0x00u, 0x00u, 0x00u, 
  77:.\Generated_Source\PSoC4/CYBLE_gatt.c ****         0x00u, 0x00u, 0x00u, 0x00u, 0x00u, 0x00u, 0x00u, 0x00u, 0x00u, 0x00u, 0x00u, 0x00u, 0x00u, 
  78:.\Generated_Source\PSoC4/CYBLE_gatt.c ****         0x00u, 0x00u, 0x00u, 0x00u, 0x00u, 0x00u, 0x00u, 0x00u, 0x00u, 0x00u, 0x00u, 0x00u, 0x00u, 
  79:.\Generated_Source\PSoC4/CYBLE_gatt.c ****         0x00u, 0x00u, 0x00u, 0x00u, 0x00u, 0x00u, 0x00u, 0x00u, 0x00u, 0x00u }, 
  80:.\Generated_Source\PSoC4/CYBLE_gatt.c ****         {{
  81:.\Generated_Source\PSoC4/CYBLE_gatt.c ****             0x00u, 0x00u, 
  82:.\Generated_Source\PSoC4/CYBLE_gatt.c ****             0x00u, 0x00u, 
  83:.\Generated_Source\PSoC4/CYBLE_gatt.c ****             0x00u, 0x00u, 
  84:.\Generated_Source\PSoC4/CYBLE_gatt.c ****             0x00u, 0x00u, 
  85:.\Generated_Source\PSoC4/CYBLE_gatt.c ****             0x00u, 0x00u, 
  86:.\Generated_Source\PSoC4/CYBLE_gatt.c ****         },
  87:.\Generated_Source\PSoC4/CYBLE_gatt.c ****         {
  88:.\Generated_Source\PSoC4/CYBLE_gatt.c ****             0x00u, 0x00u, 
  89:.\Generated_Source\PSoC4/CYBLE_gatt.c ****             0x00u, 0x00u, 
  90:.\Generated_Source\PSoC4/CYBLE_gatt.c ****             0x00u, 0x00u, 
  91:.\Generated_Source\PSoC4/CYBLE_gatt.c ****             0x00u, 0x00u, 
  92:.\Generated_Source\PSoC4/CYBLE_gatt.c ****             0x00u, 0x00u, 
  93:.\Generated_Source\PSoC4/CYBLE_gatt.c ****         },
  94:.\Generated_Source\PSoC4/CYBLE_gatt.c ****         {
  95:.\Generated_Source\PSoC4/CYBLE_gatt.c ****             0x00u, 0x00u, 
  96:.\Generated_Source\PSoC4/CYBLE_gatt.c ****             0x00u, 0x00u, 
  97:.\Generated_Source\PSoC4/CYBLE_gatt.c ****             0x00u, 0x00u, 
  98:.\Generated_Source\PSoC4/CYBLE_gatt.c ****             0x00u, 0x00u, 
  99:.\Generated_Source\PSoC4/CYBLE_gatt.c ****             0x00u, 0x00u, 
 100:.\Generated_Source\PSoC4/CYBLE_gatt.c ****         },
 101:.\Generated_Source\PSoC4/CYBLE_gatt.c ****         {
 102:.\Generated_Source\PSoC4/CYBLE_gatt.c ****             0x00u, 0x00u, 
 103:.\Generated_Source\PSoC4/CYBLE_gatt.c ****             0x00u, 0x00u, 
 104:.\Generated_Source\PSoC4/CYBLE_gatt.c ****             0x00u, 0x00u, 
 105:.\Generated_Source\PSoC4/CYBLE_gatt.c ****             0x00u, 0x00u, 
 106:.\Generated_Source\PSoC4/CYBLE_gatt.c ****             0x00u, 0x00u, 
 107:.\Generated_Source\PSoC4/CYBLE_gatt.c ****         },
 108:.\Generated_Source\PSoC4/CYBLE_gatt.c ****         {
 109:.\Generated_Source\PSoC4/CYBLE_gatt.c ****             0x00u, 0x00u, 
 110:.\Generated_Source\PSoC4/CYBLE_gatt.c ****             0x00u, 0x00u, 
 111:.\Generated_Source\PSoC4/CYBLE_gatt.c ****             0x00u, 0x00u, 
 112:.\Generated_Source\PSoC4/CYBLE_gatt.c ****             0x00u, 0x00u, 
 113:.\Generated_Source\PSoC4/CYBLE_gatt.c ****             0x00u, 0x00u, 
 114:.\Generated_Source\PSoC4/CYBLE_gatt.c ****         }}, 
 115:.\Generated_Source\PSoC4/CYBLE_gatt.c ****         0x0Au, /* CYBLE_GATT_DB_CCCD_COUNT */ 
 116:.\Generated_Source\PSoC4/CYBLE_gatt.c ****         0x05u, /* CYBLE_GAP_MAX_BONDED_DEVICE */ 
 117:.\Generated_Source\PSoC4/CYBLE_gatt.c ****     };
 118:.\Generated_Source\PSoC4/CYBLE_gatt.c **** #endif /* (CYBLE_MODE_PROFILE) */
 119:.\Generated_Source\PSoC4/CYBLE_gatt.c **** 
 120:.\Generated_Source\PSoC4/CYBLE_gatt.c **** #endif  /* (CYBLE_MODE_PROFILE) && (CYBLE_BONDING_REQUIREMENT == CYBLE_BONDING_YES) */
 121:.\Generated_Source\PSoC4/CYBLE_gatt.c **** 
 122:.\Generated_Source\PSoC4/CYBLE_gatt.c **** #if(CYBLE_GATT_ROLE_SERVER)
 123:.\Generated_Source\PSoC4/CYBLE_gatt.c ****     
 124:.\Generated_Source\PSoC4/CYBLE_gatt.c ****     const CYBLE_GATTS_T cyBle_gatts =
 125:.\Generated_Source\PSoC4/CYBLE_gatt.c **** {
 126:.\Generated_Source\PSoC4/CYBLE_gatt.c ****     0x0008u,    /* Handle of the GATT service */
ARM GAS  C:\Users\mohammed\AppData\Local\Temp\cc15dDEh.s 			page 20


 127:.\Generated_Source\PSoC4/CYBLE_gatt.c ****     0x000Au,    /* Handle of the Service Changed characteristic */
 128:.\Generated_Source\PSoC4/CYBLE_gatt.c ****     0x000Bu,    /* Handle of the Client Characteristic Configuration descriptor */
 129:.\Generated_Source\PSoC4/CYBLE_gatt.c **** };
 130:.\Generated_Source\PSoC4/CYBLE_gatt.c ****     
 131:.\Generated_Source\PSoC4/CYBLE_gatt.c ****     static uint8 cyBle_attValues[0x50u] = {
 132:.\Generated_Source\PSoC4/CYBLE_gatt.c ****     /* Device Name */
 133:.\Generated_Source\PSoC4/CYBLE_gatt.c ****     (uint8)'P', (uint8)'r', (uint8)'o', (uint8)'x', (uint8)'i', (uint8)'m', (uint8)'i', (uint8)'t',
 134:.\Generated_Source\PSoC4/CYBLE_gatt.c **** (uint8)'R', (uint8)'e', (uint8)'p', (uint8)'o', (uint8)'r', (uint8)'t', (uint8)'e', (uint8)'r', 
 135:.\Generated_Source\PSoC4/CYBLE_gatt.c **** 
 136:.\Generated_Source\PSoC4/CYBLE_gatt.c ****     /* Appearance */
 137:.\Generated_Source\PSoC4/CYBLE_gatt.c ****     0x00u, 0x02u, 
 138:.\Generated_Source\PSoC4/CYBLE_gatt.c **** 
 139:.\Generated_Source\PSoC4/CYBLE_gatt.c ****     /* Peripheral Preferred Connection Parameters */
 140:.\Generated_Source\PSoC4/CYBLE_gatt.c ****     0x28u, 0x00u, 0x38u, 0x00u, 0x00u, 0x00u, 0xE8u, 0x03u, 
 141:.\Generated_Source\PSoC4/CYBLE_gatt.c **** 
 142:.\Generated_Source\PSoC4/CYBLE_gatt.c ****     /* Service Changed */
 143:.\Generated_Source\PSoC4/CYBLE_gatt.c ****     0x00u, 0x00u, 0x00u, 0x00u, 
 144:.\Generated_Source\PSoC4/CYBLE_gatt.c **** 
 145:.\Generated_Source\PSoC4/CYBLE_gatt.c ****     /* Alert Level */
 146:.\Generated_Source\PSoC4/CYBLE_gatt.c ****     0x00u, 
 147:.\Generated_Source\PSoC4/CYBLE_gatt.c **** 
 148:.\Generated_Source\PSoC4/CYBLE_gatt.c ****     /* Tx Power Level */
 149:.\Generated_Source\PSoC4/CYBLE_gatt.c ****     0x00u, 
 150:.\Generated_Source\PSoC4/CYBLE_gatt.c **** 
 151:.\Generated_Source\PSoC4/CYBLE_gatt.c ****     /* Custom Characteristic */
 152:.\Generated_Source\PSoC4/CYBLE_gatt.c ****     0x00u, 
 153:.\Generated_Source\PSoC4/CYBLE_gatt.c **** 
 154:.\Generated_Source\PSoC4/CYBLE_gatt.c ****     /* First Name */
 155:.\Generated_Source\PSoC4/CYBLE_gatt.c ****     
 156:.\Generated_Source\PSoC4/CYBLE_gatt.c **** 
 157:.\Generated_Source\PSoC4/CYBLE_gatt.c ****     /* Last Name */
 158:.\Generated_Source\PSoC4/CYBLE_gatt.c ****     
 159:.\Generated_Source\PSoC4/CYBLE_gatt.c **** 
 160:.\Generated_Source\PSoC4/CYBLE_gatt.c ****     /* Email Address */
 161:.\Generated_Source\PSoC4/CYBLE_gatt.c ****     
 162:.\Generated_Source\PSoC4/CYBLE_gatt.c **** 
 163:.\Generated_Source\PSoC4/CYBLE_gatt.c ****     /* Age */
 164:.\Generated_Source\PSoC4/CYBLE_gatt.c ****     0x00u, 
 165:.\Generated_Source\PSoC4/CYBLE_gatt.c **** 
 166:.\Generated_Source\PSoC4/CYBLE_gatt.c ****     /* Date of Birth */
 167:.\Generated_Source\PSoC4/CYBLE_gatt.c ****     0x00u, 0x00u, 0x00u, 0x00u, 
 168:.\Generated_Source\PSoC4/CYBLE_gatt.c **** 
 169:.\Generated_Source\PSoC4/CYBLE_gatt.c ****     /* Gender */
 170:.\Generated_Source\PSoC4/CYBLE_gatt.c ****     0x00u, 
 171:.\Generated_Source\PSoC4/CYBLE_gatt.c **** 
 172:.\Generated_Source\PSoC4/CYBLE_gatt.c ****     /* Weight */
 173:.\Generated_Source\PSoC4/CYBLE_gatt.c ****     0x00u, 0x00u, 
 174:.\Generated_Source\PSoC4/CYBLE_gatt.c **** 
 175:.\Generated_Source\PSoC4/CYBLE_gatt.c ****     /* Height */
 176:.\Generated_Source\PSoC4/CYBLE_gatt.c ****     0x00u, 0x00u, 
 177:.\Generated_Source\PSoC4/CYBLE_gatt.c **** 
 178:.\Generated_Source\PSoC4/CYBLE_gatt.c ****     /* VO2 Max */
 179:.\Generated_Source\PSoC4/CYBLE_gatt.c ****     0x00u, 
 180:.\Generated_Source\PSoC4/CYBLE_gatt.c **** 
 181:.\Generated_Source\PSoC4/CYBLE_gatt.c ****     /* Heart Rate Max */
 182:.\Generated_Source\PSoC4/CYBLE_gatt.c ****     0x00u, 
 183:.\Generated_Source\PSoC4/CYBLE_gatt.c **** 
ARM GAS  C:\Users\mohammed\AppData\Local\Temp\cc15dDEh.s 			page 21


 184:.\Generated_Source\PSoC4/CYBLE_gatt.c ****     /* Resting Heart Rate */
 185:.\Generated_Source\PSoC4/CYBLE_gatt.c ****     0x00u, 
 186:.\Generated_Source\PSoC4/CYBLE_gatt.c **** 
 187:.\Generated_Source\PSoC4/CYBLE_gatt.c ****     /* Maximum Recommended Heart Rate */
 188:.\Generated_Source\PSoC4/CYBLE_gatt.c ****     0x00u, 
 189:.\Generated_Source\PSoC4/CYBLE_gatt.c **** 
 190:.\Generated_Source\PSoC4/CYBLE_gatt.c ****     /* Aerobic Threshold */
 191:.\Generated_Source\PSoC4/CYBLE_gatt.c ****     0x00u, 
 192:.\Generated_Source\PSoC4/CYBLE_gatt.c **** 
 193:.\Generated_Source\PSoC4/CYBLE_gatt.c ****     /* Anaerobic Threshold */
 194:.\Generated_Source\PSoC4/CYBLE_gatt.c ****     0x00u, 
 195:.\Generated_Source\PSoC4/CYBLE_gatt.c **** 
 196:.\Generated_Source\PSoC4/CYBLE_gatt.c ****     /* Sport Type for Aerobic and Anaerobic Thresholds */
 197:.\Generated_Source\PSoC4/CYBLE_gatt.c ****     0x00u, 
 198:.\Generated_Source\PSoC4/CYBLE_gatt.c **** 
 199:.\Generated_Source\PSoC4/CYBLE_gatt.c ****     /* Date of Threshold Assessment */
 200:.\Generated_Source\PSoC4/CYBLE_gatt.c ****     0x00u, 0x00u, 0x00u, 0x00u, 
 201:.\Generated_Source\PSoC4/CYBLE_gatt.c **** 
 202:.\Generated_Source\PSoC4/CYBLE_gatt.c ****     /* Waist Circumference */
 203:.\Generated_Source\PSoC4/CYBLE_gatt.c ****     0x00u, 0x00u, 
 204:.\Generated_Source\PSoC4/CYBLE_gatt.c **** 
 205:.\Generated_Source\PSoC4/CYBLE_gatt.c ****     /* Hip Circumference */
 206:.\Generated_Source\PSoC4/CYBLE_gatt.c ****     0x00u, 0x00u, 
 207:.\Generated_Source\PSoC4/CYBLE_gatt.c **** 
 208:.\Generated_Source\PSoC4/CYBLE_gatt.c ****     /* Fat Burn Heart Rate Lower Limit */
 209:.\Generated_Source\PSoC4/CYBLE_gatt.c ****     0x00u, 
 210:.\Generated_Source\PSoC4/CYBLE_gatt.c **** 
 211:.\Generated_Source\PSoC4/CYBLE_gatt.c ****     /* Fat Burn Heart Rate Upper Limit */
 212:.\Generated_Source\PSoC4/CYBLE_gatt.c ****     0x00u, 
 213:.\Generated_Source\PSoC4/CYBLE_gatt.c **** 
 214:.\Generated_Source\PSoC4/CYBLE_gatt.c ****     /* Aerobic Heart Rate Lower Limit */
 215:.\Generated_Source\PSoC4/CYBLE_gatt.c ****     0x00u, 
 216:.\Generated_Source\PSoC4/CYBLE_gatt.c **** 
 217:.\Generated_Source\PSoC4/CYBLE_gatt.c ****     /* Aerobic Heart Rate Upper Limit */
 218:.\Generated_Source\PSoC4/CYBLE_gatt.c ****     0x00u, 
 219:.\Generated_Source\PSoC4/CYBLE_gatt.c **** 
 220:.\Generated_Source\PSoC4/CYBLE_gatt.c ****     /* Anaerobic Heart Rate Lower Limit */
 221:.\Generated_Source\PSoC4/CYBLE_gatt.c ****     0x00u, 
 222:.\Generated_Source\PSoC4/CYBLE_gatt.c **** 
 223:.\Generated_Source\PSoC4/CYBLE_gatt.c ****     /* Anaerobic Heart Rate Upper Limit */
 224:.\Generated_Source\PSoC4/CYBLE_gatt.c ****     0x00u, 
 225:.\Generated_Source\PSoC4/CYBLE_gatt.c **** 
 226:.\Generated_Source\PSoC4/CYBLE_gatt.c ****     /* Five Zone Heart Rate Limits */
 227:.\Generated_Source\PSoC4/CYBLE_gatt.c ****     0x00u, 0x00u, 0x00u, 0x00u, 
 228:.\Generated_Source\PSoC4/CYBLE_gatt.c **** 
 229:.\Generated_Source\PSoC4/CYBLE_gatt.c ****     /* Three Zone Heart Rate Limits */
 230:.\Generated_Source\PSoC4/CYBLE_gatt.c ****     0x00u, 0x00u, 
 231:.\Generated_Source\PSoC4/CYBLE_gatt.c **** 
 232:.\Generated_Source\PSoC4/CYBLE_gatt.c ****     /* Two Zone Heart Rate Limit */
 233:.\Generated_Source\PSoC4/CYBLE_gatt.c ****     0x00u, 
 234:.\Generated_Source\PSoC4/CYBLE_gatt.c **** 
 235:.\Generated_Source\PSoC4/CYBLE_gatt.c ****     /* Database Change Increment */
 236:.\Generated_Source\PSoC4/CYBLE_gatt.c ****     0x00u, 0x00u, 0x00u, 0x00u, 
 237:.\Generated_Source\PSoC4/CYBLE_gatt.c **** 
 238:.\Generated_Source\PSoC4/CYBLE_gatt.c ****     /* User Index */
 239:.\Generated_Source\PSoC4/CYBLE_gatt.c ****     0xFFu, 
 240:.\Generated_Source\PSoC4/CYBLE_gatt.c **** 
ARM GAS  C:\Users\mohammed\AppData\Local\Temp\cc15dDEh.s 			page 22


 241:.\Generated_Source\PSoC4/CYBLE_gatt.c ****     /* User Control Point */
 242:.\Generated_Source\PSoC4/CYBLE_gatt.c ****     0x01u, 0x00u, 
 243:.\Generated_Source\PSoC4/CYBLE_gatt.c **** 
 244:.\Generated_Source\PSoC4/CYBLE_gatt.c ****     /* Language */
 245:.\Generated_Source\PSoC4/CYBLE_gatt.c ****     
 246:.\Generated_Source\PSoC4/CYBLE_gatt.c **** 
 247:.\Generated_Source\PSoC4/CYBLE_gatt.c **** };
 248:.\Generated_Source\PSoC4/CYBLE_gatt.c **** #if(CYBLE_GATT_DB_CCCD_COUNT != 0u)
 249:.\Generated_Source\PSoC4/CYBLE_gatt.c **** uint8 cyBle_attValuesCCCD[CYBLE_GATT_DB_CCCD_COUNT];
 250:.\Generated_Source\PSoC4/CYBLE_gatt.c **** #endif /* CYBLE_GATT_DB_CCCD_COUNT != 0u */
 251:.\Generated_Source\PSoC4/CYBLE_gatt.c **** 
 252:.\Generated_Source\PSoC4/CYBLE_gatt.c **** CYBLE_GATTS_ATT_GEN_VAL_LEN_T cyBle_attValuesLen[CYBLE_GATT_DB_ATT_VAL_COUNT] = {
 253:.\Generated_Source\PSoC4/CYBLE_gatt.c ****     { 0x0012u, (void *)&cyBle_attValues[0] }, /* Device Name */
 254:.\Generated_Source\PSoC4/CYBLE_gatt.c ****     { 0x0002u, (void *)&cyBle_attValues[18] }, /* Appearance */
 255:.\Generated_Source\PSoC4/CYBLE_gatt.c ****     { 0x0008u, (void *)&cyBle_attValues[20] }, /* Peripheral Preferred Connection Parameters */
 256:.\Generated_Source\PSoC4/CYBLE_gatt.c ****     { 0x0004u, (void *)&cyBle_attValues[28] }, /* Service Changed */
 257:.\Generated_Source\PSoC4/CYBLE_gatt.c ****     { 0x0002u, (void *)&cyBle_attValuesCCCD[0] }, /* Client Characteristic Configuration */
 258:.\Generated_Source\PSoC4/CYBLE_gatt.c ****     { 0x0001u, (void *)&cyBle_attValues[32] }, /* Alert Level */
 259:.\Generated_Source\PSoC4/CYBLE_gatt.c ****     { 0x0001u, (void *)&cyBle_attValues[33] }, /* Tx Power Level */
 260:.\Generated_Source\PSoC4/CYBLE_gatt.c ****     { 0x0002u, (void *)&cyBle_attValuesCCCD[2] }, /* Client Characteristic Configuration */
 261:.\Generated_Source\PSoC4/CYBLE_gatt.c ****     { 0x0001u, (void *)&cyBle_attValues[34] }, /* Custom Characteristic */
 262:.\Generated_Source\PSoC4/CYBLE_gatt.c ****     { 0x0002u, (void *)&cyBle_attValuesCCCD[4] }, /* Client Characteristic Configuration */
 263:.\Generated_Source\PSoC4/CYBLE_gatt.c ****     { 0x0000u, (void *)&cyBle_attValues[35] }, /* First Name */
 264:.\Generated_Source\PSoC4/CYBLE_gatt.c ****     { 0x0000u, (void *)&cyBle_attValues[35] }, /* Last Name */
 265:.\Generated_Source\PSoC4/CYBLE_gatt.c ****     { 0x0000u, (void *)&cyBle_attValues[35] }, /* Email Address */
 266:.\Generated_Source\PSoC4/CYBLE_gatt.c ****     { 0x0001u, (void *)&cyBle_attValues[35] }, /* Age */
 267:.\Generated_Source\PSoC4/CYBLE_gatt.c ****     { 0x0004u, (void *)&cyBle_attValues[36] }, /* Date of Birth */
 268:.\Generated_Source\PSoC4/CYBLE_gatt.c ****     { 0x0001u, (void *)&cyBle_attValues[40] }, /* Gender */
 269:.\Generated_Source\PSoC4/CYBLE_gatt.c ****     { 0x0002u, (void *)&cyBle_attValues[41] }, /* Weight */
 270:.\Generated_Source\PSoC4/CYBLE_gatt.c ****     { 0x0002u, (void *)&cyBle_attValues[43] }, /* Height */
 271:.\Generated_Source\PSoC4/CYBLE_gatt.c ****     { 0x0001u, (void *)&cyBle_attValues[45] }, /* VO2 Max */
 272:.\Generated_Source\PSoC4/CYBLE_gatt.c ****     { 0x0001u, (void *)&cyBle_attValues[46] }, /* Heart Rate Max */
 273:.\Generated_Source\PSoC4/CYBLE_gatt.c ****     { 0x0001u, (void *)&cyBle_attValues[47] }, /* Resting Heart Rate */
 274:.\Generated_Source\PSoC4/CYBLE_gatt.c ****     { 0x0001u, (void *)&cyBle_attValues[48] }, /* Maximum Recommended Heart Rate */
 275:.\Generated_Source\PSoC4/CYBLE_gatt.c ****     { 0x0001u, (void *)&cyBle_attValues[49] }, /* Aerobic Threshold */
 276:.\Generated_Source\PSoC4/CYBLE_gatt.c ****     { 0x0001u, (void *)&cyBle_attValues[50] }, /* Anaerobic Threshold */
 277:.\Generated_Source\PSoC4/CYBLE_gatt.c ****     { 0x0001u, (void *)&cyBle_attValues[51] }, /* Sport Type for Aerobic and Anaerobic Thresholds *
 278:.\Generated_Source\PSoC4/CYBLE_gatt.c ****     { 0x0004u, (void *)&cyBle_attValues[52] }, /* Date of Threshold Assessment */
 279:.\Generated_Source\PSoC4/CYBLE_gatt.c ****     { 0x0002u, (void *)&cyBle_attValues[56] }, /* Waist Circumference */
 280:.\Generated_Source\PSoC4/CYBLE_gatt.c ****     { 0x0002u, (void *)&cyBle_attValues[58] }, /* Hip Circumference */
 281:.\Generated_Source\PSoC4/CYBLE_gatt.c ****     { 0x0001u, (void *)&cyBle_attValues[60] }, /* Fat Burn Heart Rate Lower Limit */
 282:.\Generated_Source\PSoC4/CYBLE_gatt.c ****     { 0x0001u, (void *)&cyBle_attValues[61] }, /* Fat Burn Heart Rate Upper Limit */
 283:.\Generated_Source\PSoC4/CYBLE_gatt.c ****     { 0x0001u, (void *)&cyBle_attValues[62] }, /* Aerobic Heart Rate Lower Limit */
 284:.\Generated_Source\PSoC4/CYBLE_gatt.c ****     { 0x0001u, (void *)&cyBle_attValues[63] }, /* Aerobic Heart Rate Upper Limit */
 285:.\Generated_Source\PSoC4/CYBLE_gatt.c ****     { 0x0001u, (void *)&cyBle_attValues[64] }, /* Anaerobic Heart Rate Lower Limit */
 286:.\Generated_Source\PSoC4/CYBLE_gatt.c ****     { 0x0001u, (void *)&cyBle_attValues[65] }, /* Anaerobic Heart Rate Upper Limit */
 287:.\Generated_Source\PSoC4/CYBLE_gatt.c ****     { 0x0004u, (void *)&cyBle_attValues[66] }, /* Five Zone Heart Rate Limits */
 288:.\Generated_Source\PSoC4/CYBLE_gatt.c ****     { 0x0002u, (void *)&cyBle_attValues[70] }, /* Three Zone Heart Rate Limits */
 289:.\Generated_Source\PSoC4/CYBLE_gatt.c ****     { 0x0001u, (void *)&cyBle_attValues[72] }, /* Two Zone Heart Rate Limit */
 290:.\Generated_Source\PSoC4/CYBLE_gatt.c ****     { 0x0004u, (void *)&cyBle_attValues[73] }, /* Database Change Increment */
 291:.\Generated_Source\PSoC4/CYBLE_gatt.c ****     { 0x0002u, (void *)&cyBle_attValuesCCCD[6] }, /* Client Characteristic Configuration */
 292:.\Generated_Source\PSoC4/CYBLE_gatt.c ****     { 0x0001u, (void *)&cyBle_attValues[77] }, /* User Index */
 293:.\Generated_Source\PSoC4/CYBLE_gatt.c ****     { 0x0002u, (void *)&cyBle_attValues[78] }, /* User Control Point */
 294:.\Generated_Source\PSoC4/CYBLE_gatt.c ****     { 0x0002u, (void *)&cyBle_attValuesCCCD[8] }, /* Client Characteristic Configuration */
 295:.\Generated_Source\PSoC4/CYBLE_gatt.c ****     { 0x0000u, (void *)&cyBle_attValues[80] }, /* Language */
 296:.\Generated_Source\PSoC4/CYBLE_gatt.c **** };
 297:.\Generated_Source\PSoC4/CYBLE_gatt.c **** 
ARM GAS  C:\Users\mohammed\AppData\Local\Temp\cc15dDEh.s 			page 23


 298:.\Generated_Source\PSoC4/CYBLE_gatt.c **** const CYBLE_GATTS_DB_T cyBle_gattDB[0x57u] = {
 299:.\Generated_Source\PSoC4/CYBLE_gatt.c ****     { 0x0001u, 0x2800u /* Primary service                     */, 0x00000001u /*        */, 0x0007u
 300:.\Generated_Source\PSoC4/CYBLE_gatt.c ****     { 0x0002u, 0x2803u /* Characteristic                      */, 0x00000201u /* rd     */, 0x0003u
 301:.\Generated_Source\PSoC4/CYBLE_gatt.c ****     { 0x0003u, 0x2A00u /* Device Name                         */, 0x00000201u /* rd     */, 0x0003u
 302:.\Generated_Source\PSoC4/CYBLE_gatt.c ****     { 0x0004u, 0x2803u /* Characteristic                      */, 0x00000201u /* rd     */, 0x0005u
 303:.\Generated_Source\PSoC4/CYBLE_gatt.c ****     { 0x0005u, 0x2A01u /* Appearance                          */, 0x00000201u /* rd     */, 0x0005u
 304:.\Generated_Source\PSoC4/CYBLE_gatt.c ****     { 0x0006u, 0x2803u /* Characteristic                      */, 0x00000201u /* rd     */, 0x0007u
 305:.\Generated_Source\PSoC4/CYBLE_gatt.c ****     { 0x0007u, 0x2A04u /* Peripheral Preferred Connection Par */, 0x00000201u /* rd     */, 0x0007u
 306:.\Generated_Source\PSoC4/CYBLE_gatt.c ****     { 0x0008u, 0x2800u /* Primary service                     */, 0x00000001u /*        */, 0x000Bu
 307:.\Generated_Source\PSoC4/CYBLE_gatt.c ****     { 0x0009u, 0x2803u /* Characteristic                      */, 0x00002001u /* ind    */, 0x000Bu
 308:.\Generated_Source\PSoC4/CYBLE_gatt.c ****     { 0x000Au, 0x2A05u /* Service Changed                     */, 0x00002000u /* ind    */, 0x000Bu
 309:.\Generated_Source\PSoC4/CYBLE_gatt.c ****     { 0x000Bu, 0x2902u /* Client Characteristic Configuration */, 0x00000A04u /* rd,wr  */, 0x000Bu
 310:.\Generated_Source\PSoC4/CYBLE_gatt.c ****     { 0x000Cu, 0x2800u /* Primary service                     */, 0x00000001u /*        */, 0x000Eu
 311:.\Generated_Source\PSoC4/CYBLE_gatt.c ****     { 0x000Du, 0x2803u /* Characteristic                      */, 0x00000A01u /* rd,wr  */, 0x000Eu
 312:.\Generated_Source\PSoC4/CYBLE_gatt.c ****     { 0x000Eu, 0x2A06u /* Alert Level                         */, 0x00000A04u /* rd,wr  */, 0x000Eu
 313:.\Generated_Source\PSoC4/CYBLE_gatt.c ****     { 0x000Fu, 0x2800u /* Primary service                     */, 0x00000001u /*        */, 0x0012u
 314:.\Generated_Source\PSoC4/CYBLE_gatt.c ****     { 0x0010u, 0x2803u /* Characteristic                      */, 0x00001201u /* rd,ntf */, 0x0012u
 315:.\Generated_Source\PSoC4/CYBLE_gatt.c ****     { 0x0011u, 0x2A07u /* Tx Power Level                      */, 0x00001201u /* rd,ntf */, 0x0012u
 316:.\Generated_Source\PSoC4/CYBLE_gatt.c ****     { 0x0012u, 0x2902u /* Client Characteristic Configuration */, 0x00000A04u /* rd,wr  */, 0x0012u
 317:.\Generated_Source\PSoC4/CYBLE_gatt.c ****     { 0x0013u, 0x2800u /* Primary service                     */, 0x00000001u /*        */, 0x0016u
 318:.\Generated_Source\PSoC4/CYBLE_gatt.c ****     { 0x0014u, 0x2803u /* Characteristic                      */, 0x00000A01u /* rd,wr  */, 0x0016u
 319:.\Generated_Source\PSoC4/CYBLE_gatt.c ****     { 0x0015u, 0x0000u /* Custom Characteristic               */, 0x00010A04u /* rd,wr  */, 0x0016u
 320:.\Generated_Source\PSoC4/CYBLE_gatt.c ****     { 0x0016u, 0x2902u /* Client Characteristic Configuration */, 0x00010A04u /* rd,wr  */, 0x0016u
 321:.\Generated_Source\PSoC4/CYBLE_gatt.c ****     { 0x0017u, 0x2800u /* Primary service                     */, 0x00000001u /*        */, 0x0057u
 322:.\Generated_Source\PSoC4/CYBLE_gatt.c ****     { 0x0018u, 0x2803u /* Characteristic                      */, 0x00000A01u /* rd,wr  */, 0x0019u
 323:.\Generated_Source\PSoC4/CYBLE_gatt.c ****     { 0x0019u, 0x2A8Au /* First Name                          */, 0x00010A04u /* rd,wr  */, 0x0019u
 324:.\Generated_Source\PSoC4/CYBLE_gatt.c ****     { 0x001Au, 0x2803u /* Characteristic                      */, 0x00000A01u /* rd,wr  */, 0x001Bu
 325:.\Generated_Source\PSoC4/CYBLE_gatt.c ****     { 0x001Bu, 0x2A90u /* Last Name                           */, 0x00010A04u /* rd,wr  */, 0x001Bu
 326:.\Generated_Source\PSoC4/CYBLE_gatt.c ****     { 0x001Cu, 0x2803u /* Characteristic                      */, 0x00000A01u /* rd,wr  */, 0x001Du
 327:.\Generated_Source\PSoC4/CYBLE_gatt.c ****     { 0x001Du, 0x2A87u /* Email Address                       */, 0x00010A04u /* rd,wr  */, 0x001Du
 328:.\Generated_Source\PSoC4/CYBLE_gatt.c ****     { 0x001Eu, 0x2803u /* Characteristic                      */, 0x00000A01u /* rd,wr  */, 0x001Fu
 329:.\Generated_Source\PSoC4/CYBLE_gatt.c ****     { 0x001Fu, 0x2A80u /* Age                                 */, 0x00010A04u /* rd,wr  */, 0x001Fu
 330:.\Generated_Source\PSoC4/CYBLE_gatt.c ****     { 0x0020u, 0x2803u /* Characteristic                      */, 0x00000A01u /* rd,wr  */, 0x0021u
 331:.\Generated_Source\PSoC4/CYBLE_gatt.c ****     { 0x0021u, 0x2A85u /* Date of Birth                       */, 0x00010A04u /* rd,wr  */, 0x0021u
 332:.\Generated_Source\PSoC4/CYBLE_gatt.c ****     { 0x0022u, 0x2803u /* Characteristic                      */, 0x00000A01u /* rd,wr  */, 0x0023u
 333:.\Generated_Source\PSoC4/CYBLE_gatt.c ****     { 0x0023u, 0x2A8Cu /* Gender                              */, 0x00010A04u /* rd,wr  */, 0x0023u
 334:.\Generated_Source\PSoC4/CYBLE_gatt.c ****     { 0x0024u, 0x2803u /* Characteristic                      */, 0x00000A01u /* rd,wr  */, 0x0025u
 335:.\Generated_Source\PSoC4/CYBLE_gatt.c ****     { 0x0025u, 0x2A98u /* Weight                              */, 0x00010A04u /* rd,wr  */, 0x0025u
 336:.\Generated_Source\PSoC4/CYBLE_gatt.c ****     { 0x0026u, 0x2803u /* Characteristic                      */, 0x00000A01u /* rd,wr  */, 0x0027u
 337:.\Generated_Source\PSoC4/CYBLE_gatt.c ****     { 0x0027u, 0x2A8Eu /* Height                              */, 0x00010A04u /* rd,wr  */, 0x0027u
 338:.\Generated_Source\PSoC4/CYBLE_gatt.c ****     { 0x0028u, 0x2803u /* Characteristic                      */, 0x00000A01u /* rd,wr  */, 0x0029u
 339:.\Generated_Source\PSoC4/CYBLE_gatt.c ****     { 0x0029u, 0x2A96u /* VO2 Max                             */, 0x00010A04u /* rd,wr  */, 0x0029u
 340:.\Generated_Source\PSoC4/CYBLE_gatt.c ****     { 0x002Au, 0x2803u /* Characteristic                      */, 0x00000A01u /* rd,wr  */, 0x002Bu
 341:.\Generated_Source\PSoC4/CYBLE_gatt.c ****     { 0x002Bu, 0x2A8Du /* Heart Rate Max                      */, 0x00010A04u /* rd,wr  */, 0x002Bu
 342:.\Generated_Source\PSoC4/CYBLE_gatt.c ****     { 0x002Cu, 0x2803u /* Characteristic                      */, 0x00000A01u /* rd,wr  */, 0x002Du
 343:.\Generated_Source\PSoC4/CYBLE_gatt.c ****     { 0x002Du, 0x2A92u /* Resting Heart Rate                  */, 0x00010A04u /* rd,wr  */, 0x002Du
 344:.\Generated_Source\PSoC4/CYBLE_gatt.c ****     { 0x002Eu, 0x2803u /* Characteristic                      */, 0x00000A01u /* rd,wr  */, 0x002Fu
 345:.\Generated_Source\PSoC4/CYBLE_gatt.c ****     { 0x002Fu, 0x2A91u /* Maximum Recommended Heart Rate      */, 0x00010A04u /* rd,wr  */, 0x002Fu
 346:.\Generated_Source\PSoC4/CYBLE_gatt.c ****     { 0x0030u, 0x2803u /* Characteristic                      */, 0x00000A01u /* rd,wr  */, 0x0031u
 347:.\Generated_Source\PSoC4/CYBLE_gatt.c ****     { 0x0031u, 0x2A7Fu /* Aerobic Threshold                   */, 0x00010A04u /* rd,wr  */, 0x0031u
 348:.\Generated_Source\PSoC4/CYBLE_gatt.c ****     { 0x0032u, 0x2803u /* Characteristic                      */, 0x00000A01u /* rd,wr  */, 0x0033u
 349:.\Generated_Source\PSoC4/CYBLE_gatt.c ****     { 0x0033u, 0x2A83u /* Anaerobic Threshold                 */, 0x00010A04u /* rd,wr  */, 0x0033u
 350:.\Generated_Source\PSoC4/CYBLE_gatt.c ****     { 0x0034u, 0x2803u /* Characteristic                      */, 0x00000A01u /* rd,wr  */, 0x0035u
 351:.\Generated_Source\PSoC4/CYBLE_gatt.c ****     { 0x0035u, 0x2A93u /* Sport Type for Aerobic and Anaerobi */, 0x00010A04u /* rd,wr  */, 0x0035u
 352:.\Generated_Source\PSoC4/CYBLE_gatt.c ****     { 0x0036u, 0x2803u /* Characteristic                      */, 0x00000A01u /* rd,wr  */, 0x0037u
 353:.\Generated_Source\PSoC4/CYBLE_gatt.c ****     { 0x0037u, 0x2A86u /* Date of Threshold Assessment        */, 0x00010A04u /* rd,wr  */, 0x0037u
 354:.\Generated_Source\PSoC4/CYBLE_gatt.c ****     { 0x0038u, 0x2803u /* Characteristic                      */, 0x00000A01u /* rd,wr  */, 0x0039u
ARM GAS  C:\Users\mohammed\AppData\Local\Temp\cc15dDEh.s 			page 24


 355:.\Generated_Source\PSoC4/CYBLE_gatt.c ****     { 0x0039u, 0x2A97u /* Waist Circumference                 */, 0x00010A04u /* rd,wr  */, 0x0039u
 356:.\Generated_Source\PSoC4/CYBLE_gatt.c ****     { 0x003Au, 0x2803u /* Characteristic                      */, 0x00000A01u /* rd,wr  */, 0x003Bu
 357:.\Generated_Source\PSoC4/CYBLE_gatt.c ****     { 0x003Bu, 0x2A8Fu /* Hip Circumference                   */, 0x00010A04u /* rd,wr  */, 0x003Bu
 358:.\Generated_Source\PSoC4/CYBLE_gatt.c ****     { 0x003Cu, 0x2803u /* Characteristic                      */, 0x00000A01u /* rd,wr  */, 0x003Du
 359:.\Generated_Source\PSoC4/CYBLE_gatt.c ****     { 0x003Du, 0x2A88u /* Fat Burn Heart Rate Lower Limit     */, 0x00010A04u /* rd,wr  */, 0x003Du
 360:.\Generated_Source\PSoC4/CYBLE_gatt.c ****     { 0x003Eu, 0x2803u /* Characteristic                      */, 0x00000A01u /* rd,wr  */, 0x003Fu
 361:.\Generated_Source\PSoC4/CYBLE_gatt.c ****     { 0x003Fu, 0x2A89u /* Fat Burn Heart Rate Upper Limit     */, 0x00010A04u /* rd,wr  */, 0x003Fu
 362:.\Generated_Source\PSoC4/CYBLE_gatt.c ****     { 0x0040u, 0x2803u /* Characteristic                      */, 0x00000A01u /* rd,wr  */, 0x0041u
 363:.\Generated_Source\PSoC4/CYBLE_gatt.c ****     { 0x0041u, 0x2A7Eu /* Aerobic Heart Rate Lower Limit      */, 0x00010A04u /* rd,wr  */, 0x0041u
 364:.\Generated_Source\PSoC4/CYBLE_gatt.c ****     { 0x0042u, 0x2803u /* Characteristic                      */, 0x00000A01u /* rd,wr  */, 0x0043u
 365:.\Generated_Source\PSoC4/CYBLE_gatt.c ****     { 0x0043u, 0x2A84u /* Aerobic Heart Rate Upper Limit      */, 0x00010A04u /* rd,wr  */, 0x0043u
 366:.\Generated_Source\PSoC4/CYBLE_gatt.c ****     { 0x0044u, 0x2803u /* Characteristic                      */, 0x00000A01u /* rd,wr  */, 0x0045u
 367:.\Generated_Source\PSoC4/CYBLE_gatt.c ****     { 0x0045u, 0x2A81u /* Anaerobic Heart Rate Lower Limit    */, 0x00010A04u /* rd,wr  */, 0x0045u
 368:.\Generated_Source\PSoC4/CYBLE_gatt.c ****     { 0x0046u, 0x2803u /* Characteristic                      */, 0x00000A01u /* rd,wr  */, 0x0047u
 369:.\Generated_Source\PSoC4/CYBLE_gatt.c ****     { 0x0047u, 0x2A82u /* Anaerobic Heart Rate Upper Limit    */, 0x00010A04u /* rd,wr  */, 0x0047u
 370:.\Generated_Source\PSoC4/CYBLE_gatt.c ****     { 0x0048u, 0x2803u /* Characteristic                      */, 0x00000A01u /* rd,wr  */, 0x0049u
 371:.\Generated_Source\PSoC4/CYBLE_gatt.c ****     { 0x0049u, 0x2A8Bu /* Five Zone Heart Rate Limits         */, 0x00010A04u /* rd,wr  */, 0x0049u
 372:.\Generated_Source\PSoC4/CYBLE_gatt.c ****     { 0x004Au, 0x2803u /* Characteristic                      */, 0x00000A01u /* rd,wr  */, 0x004Bu
 373:.\Generated_Source\PSoC4/CYBLE_gatt.c ****     { 0x004Bu, 0x2A94u /* Three Zone Heart Rate Limits        */, 0x00010A04u /* rd,wr  */, 0x004Bu
 374:.\Generated_Source\PSoC4/CYBLE_gatt.c ****     { 0x004Cu, 0x2803u /* Characteristic                      */, 0x00000A01u /* rd,wr  */, 0x004Du
 375:.\Generated_Source\PSoC4/CYBLE_gatt.c ****     { 0x004Du, 0x2A95u /* Two Zone Heart Rate Limit           */, 0x00010A04u /* rd,wr  */, 0x004Du
 376:.\Generated_Source\PSoC4/CYBLE_gatt.c ****     { 0x004Eu, 0x2803u /* Characteristic                      */, 0x00000A01u /* rd,wr  */, 0x0050u
 377:.\Generated_Source\PSoC4/CYBLE_gatt.c ****     { 0x004Fu, 0x2A99u /* Database Change Increment           */, 0x00000A04u /* rd,wr  */, 0x0050u
 378:.\Generated_Source\PSoC4/CYBLE_gatt.c ****     { 0x0050u, 0x2902u /* Client Characteristic Configuration */, 0x00000A04u /* rd,wr  */, 0x0050u
 379:.\Generated_Source\PSoC4/CYBLE_gatt.c ****     { 0x0051u, 0x2803u /* Characteristic                      */, 0x00000201u /* rd     */, 0x0052u
 380:.\Generated_Source\PSoC4/CYBLE_gatt.c ****     { 0x0052u, 0x2A9Au /* User Index                          */, 0x00000201u /* rd     */, 0x0052u
 381:.\Generated_Source\PSoC4/CYBLE_gatt.c ****     { 0x0053u, 0x2803u /* Characteristic                      */, 0x00002801u /* wr,ind */, 0x0055u
 382:.\Generated_Source\PSoC4/CYBLE_gatt.c ****     { 0x0054u, 0x2A9Fu /* User Control Point                  */, 0x00002802u /* wr,ind */, 0x0055u
 383:.\Generated_Source\PSoC4/CYBLE_gatt.c ****     { 0x0055u, 0x2902u /* Client Characteristic Configuration */, 0x00000A04u /* rd,wr  */, 0x0055u
 384:.\Generated_Source\PSoC4/CYBLE_gatt.c ****     { 0x0056u, 0x2803u /* Characteristic                      */, 0x00000A01u /* rd,wr  */, 0x0057u
 385:.\Generated_Source\PSoC4/CYBLE_gatt.c ****     { 0x0057u, 0x2AA2u /* Language                            */, 0x00010A04u /* rd,wr  */, 0x0057u
 386:.\Generated_Source\PSoC4/CYBLE_gatt.c **** };
 387:.\Generated_Source\PSoC4/CYBLE_gatt.c **** 
 388:.\Generated_Source\PSoC4/CYBLE_gatt.c **** 
 389:.\Generated_Source\PSoC4/CYBLE_gatt.c **** #endif /* (CYBLE_GATT_ROLE_SERVER) */
 390:.\Generated_Source\PSoC4/CYBLE_gatt.c **** 
 391:.\Generated_Source\PSoC4/CYBLE_gatt.c **** #if(CYBLE_GATT_ROLE_CLIENT)
 392:.\Generated_Source\PSoC4/CYBLE_gatt.c ****     
 393:.\Generated_Source\PSoC4/CYBLE_gatt.c **** CYBLE_CLIENT_STATE_T cyBle_clientState;
 394:.\Generated_Source\PSoC4/CYBLE_gatt.c **** CYBLE_GATTC_T cyBle_gattc;
 395:.\Generated_Source\PSoC4/CYBLE_gatt.c **** CYBLE_GATT_ATTR_HANDLE_RANGE_T cyBle_gattcDiscoveryRange;
 396:.\Generated_Source\PSoC4/CYBLE_gatt.c ****     
 397:.\Generated_Source\PSoC4/CYBLE_gatt.c **** #endif /* (CYBLE_GATT_ROLE_CLIENT) */
 398:.\Generated_Source\PSoC4/CYBLE_gatt.c **** 
 399:.\Generated_Source\PSoC4/CYBLE_gatt.c **** 
 400:.\Generated_Source\PSoC4/CYBLE_gatt.c **** #if(CYBLE_GATT_ROLE_SERVER)
 401:.\Generated_Source\PSoC4/CYBLE_gatt.c **** 
 402:.\Generated_Source\PSoC4/CYBLE_gatt.c **** /****************************************************************************** 
 403:.\Generated_Source\PSoC4/CYBLE_gatt.c **** * Function Name: CyBle_GattsReInitGattDb
 404:.\Generated_Source\PSoC4/CYBLE_gatt.c **** ***************************************************************************//**
 405:.\Generated_Source\PSoC4/CYBLE_gatt.c **** * 
 406:.\Generated_Source\PSoC4/CYBLE_gatt.c **** *  Reinitializes the GATT database.
 407:.\Generated_Source\PSoC4/CYBLE_gatt.c **** * 
 408:.\Generated_Source\PSoC4/CYBLE_gatt.c **** *  \return
 409:.\Generated_Source\PSoC4/CYBLE_gatt.c **** *  CYBLE_API_RESULT_T: An API result states if the API succeeded or failed with
 410:.\Generated_Source\PSoC4/CYBLE_gatt.c **** *  error codes:
 411:.\Generated_Source\PSoC4/CYBLE_gatt.c **** 
ARM GAS  C:\Users\mohammed\AppData\Local\Temp\cc15dDEh.s 			page 25


 412:.\Generated_Source\PSoC4/CYBLE_gatt.c **** *  Errors codes                          | Description
 413:.\Generated_Source\PSoC4/CYBLE_gatt.c **** *  ------------                          | -----------
 414:.\Generated_Source\PSoC4/CYBLE_gatt.c **** *  CYBLE_ERROR_OK						 | GATT database was reinitialized successfully.
 415:.\Generated_Source\PSoC4/CYBLE_gatt.c **** *  CYBLE_ERROR_INVALID_STATE             | If the function is called in any state except CYBLE_STAT
 416:.\Generated_Source\PSoC4/CYBLE_gatt.c **** *  CYBLE_ERROR_INVALID_PARAMETER         | If the Database has zero entries or is a NULL pointer.
 417:.\Generated_Source\PSoC4/CYBLE_gatt.c **** * 
 418:.\Generated_Source\PSoC4/CYBLE_gatt.c **** ******************************************************************************/
 419:.\Generated_Source\PSoC4/CYBLE_gatt.c **** CYBLE_API_RESULT_T CyBle_GattsReInitGattDb(void)
 420:.\Generated_Source\PSoC4/CYBLE_gatt.c **** {
 958              		.loc 1 420 0
 959              		.cfi_startproc
 960 0000 90B5     		push	{r4, r7, lr}
 961              		.cfi_def_cfa_offset 12
 962              		.cfi_offset 4, -12
 963              		.cfi_offset 7, -8
 964              		.cfi_offset 14, -4
 965 0002 83B0     		sub	sp, sp, #12
 966              		.cfi_def_cfa_offset 24
 967 0004 00AF     		add	r7, sp, #0
 968              		.cfi_def_cfa_register 7
 421:.\Generated_Source\PSoC4/CYBLE_gatt.c ****     CYBLE_API_RESULT_T apiResult;
 422:.\Generated_Source\PSoC4/CYBLE_gatt.c ****     
 423:.\Generated_Source\PSoC4/CYBLE_gatt.c ****     if(CYBLE_STATE_DISCONNECTED == CyBle_GetState())
 969              		.loc 1 423 0
 970 0006 0C4B     		ldr	r3, .L5
 971 0008 1B78     		ldrb	r3, [r3]
 972 000a 042B     		cmp	r3, #4
 973 000c 09D1     		bne	.L2
 424:.\Generated_Source\PSoC4/CYBLE_gatt.c ****     {
 425:.\Generated_Source\PSoC4/CYBLE_gatt.c ****         apiResult = CyBle_GattsDbRegister(cyBle_gattDB, CYBLE_GATT_DB_INDEX_COUNT, CYBLE_GATT_DB_MA
 974              		.loc 1 425 0
 975 000e BC1D     		add	r4, r7, #6
 976 0010 0A4B     		ldr	r3, .L5+4
 977 0012 181C     		mov	r0, r3
 978 0014 5721     		mov	r1, #87
 979 0016 1222     		mov	r2, #18
 980 0018 FFF7FEFF 		bl	CyBle_GattsDbRegister
 981 001c 031C     		mov	r3, r0
 982 001e 2380     		strh	r3, [r4]
 983 0020 03E0     		b	.L3
 984              	.L2:
 426:.\Generated_Source\PSoC4/CYBLE_gatt.c ****     }
 427:.\Generated_Source\PSoC4/CYBLE_gatt.c ****     else
 428:.\Generated_Source\PSoC4/CYBLE_gatt.c ****     {
 429:.\Generated_Source\PSoC4/CYBLE_gatt.c ****         apiResult = CYBLE_ERROR_INVALID_STATE;
 985              		.loc 1 429 0
 986 0022 BB1D     		add	r3, r7, #6
 987 0024 0422     		mov	r2, #4
 988 0026 FF32     		add	r2, r2, #255
 989 0028 1A80     		strh	r2, [r3]
 990              	.L3:
 430:.\Generated_Source\PSoC4/CYBLE_gatt.c ****     }
 431:.\Generated_Source\PSoC4/CYBLE_gatt.c ****     
 432:.\Generated_Source\PSoC4/CYBLE_gatt.c ****     return(apiResult);
 991              		.loc 1 432 0
 992 002a BB1D     		add	r3, r7, #6
 993 002c 1B88     		ldrh	r3, [r3]
ARM GAS  C:\Users\mohammed\AppData\Local\Temp\cc15dDEh.s 			page 26


 433:.\Generated_Source\PSoC4/CYBLE_gatt.c **** }
 994              		.loc 1 433 0
 995 002e 181C     		mov	r0, r3
 996 0030 BD46     		mov	sp, r7
 997 0032 03B0     		add	sp, sp, #12
 998              		@ sp needed
 999 0034 90BD     		pop	{r4, r7, pc}
 1000              	.L6:
 1001 0036 C046     		.align	2
 1002              	.L5:
 1003 0038 00000000 		.word	cyBle_state
 1004 003c 00000000 		.word	cyBle_gattDB
 1005              		.cfi_endproc
 1006              	.LFE2:
 1007              		.size	CyBle_GattsReInitGattDb, .-CyBle_GattsReInitGattDb
 1008              		.section	.text.CyBle_GattsWriteEventHandler,"ax",%progbits
 1009              		.align	2
 1010              		.global	CyBle_GattsWriteEventHandler
 1011              		.code	16
 1012              		.thumb_func
 1013              		.type	CyBle_GattsWriteEventHandler, %function
 1014              	CyBle_GattsWriteEventHandler:
 1015              	.LFB3:
 434:.\Generated_Source\PSoC4/CYBLE_gatt.c **** 
 435:.\Generated_Source\PSoC4/CYBLE_gatt.c **** 
 436:.\Generated_Source\PSoC4/CYBLE_gatt.c **** /****************************************************************************** 
 437:.\Generated_Source\PSoC4/CYBLE_gatt.c **** * Function Name: CyBle_GattsWriteEventHandler
 438:.\Generated_Source\PSoC4/CYBLE_gatt.c **** ***************************************************************************//**
 439:.\Generated_Source\PSoC4/CYBLE_gatt.c **** * 
 440:.\Generated_Source\PSoC4/CYBLE_gatt.c **** *  Handles the Write Request Event for GATT service.
 441:.\Generated_Source\PSoC4/CYBLE_gatt.c **** * 
 442:.\Generated_Source\PSoC4/CYBLE_gatt.c **** *  \param eventParam: The pointer to the data structure specified by the event.
 443:.\Generated_Source\PSoC4/CYBLE_gatt.c **** * 
 444:.\Generated_Source\PSoC4/CYBLE_gatt.c **** *  \return
 445:.\Generated_Source\PSoC4/CYBLE_gatt.c **** *  CYBLE_GATT_ERR_CODE_T: An API result returns one of the following status 
 446:.\Generated_Source\PSoC4/CYBLE_gatt.c **** *  values.
 447:.\Generated_Source\PSoC4/CYBLE_gatt.c **** 
 448:.\Generated_Source\PSoC4/CYBLE_gatt.c **** *  Errors codes                          | Description
 449:.\Generated_Source\PSoC4/CYBLE_gatt.c **** *  --------------------                  | -----------
 450:.\Generated_Source\PSoC4/CYBLE_gatt.c **** *  CYBLE_GATT_ERR_NONE                   | Write is successful.
 451:.\Generated_Source\PSoC4/CYBLE_gatt.c **** * 
 452:.\Generated_Source\PSoC4/CYBLE_gatt.c **** ******************************************************************************/
 453:.\Generated_Source\PSoC4/CYBLE_gatt.c **** CYBLE_GATT_ERR_CODE_T CyBle_GattsWriteEventHandler(CYBLE_GATTS_WRITE_REQ_PARAM_T *eventParam)
 454:.\Generated_Source\PSoC4/CYBLE_gatt.c **** {
 1016              		.loc 1 454 0
 1017              		.cfi_startproc
 1018 0000 90B5     		push	{r4, r7, lr}
 1019              		.cfi_def_cfa_offset 12
 1020              		.cfi_offset 4, -12
 1021              		.cfi_offset 7, -8
 1022              		.cfi_offset 14, -4
 1023 0002 85B0     		sub	sp, sp, #20
 1024              		.cfi_def_cfa_offset 32
 1025 0004 00AF     		add	r7, sp, #0
 1026              		.cfi_def_cfa_register 7
 1027 0006 7860     		str	r0, [r7, #4]
 455:.\Generated_Source\PSoC4/CYBLE_gatt.c ****     CYBLE_GATT_ERR_CODE_T gattErr = CYBLE_GATT_ERR_NONE;
ARM GAS  C:\Users\mohammed\AppData\Local\Temp\cc15dDEh.s 			page 27


 1028              		.loc 1 455 0
 1029 0008 0F23     		mov	r3, #15
 1030 000a FB18     		add	r3, r7, r3
 1031 000c 0022     		mov	r2, #0
 1032 000e 1A70     		strb	r2, [r3]
 456:.\Generated_Source\PSoC4/CYBLE_gatt.c ****     
 457:.\Generated_Source\PSoC4/CYBLE_gatt.c ****     /* Client Characteristic Configuration descriptor write request */
 458:.\Generated_Source\PSoC4/CYBLE_gatt.c ****     if(eventParam->handleValPair.attrHandle == cyBle_gatts.cccdHandle)
 1033              		.loc 1 458 0
 1034 0010 7B68     		ldr	r3, [r7, #4]
 1035 0012 9B89     		ldrh	r3, [r3, #12]
 1036 0014 0B22     		mov	r2, #11
 1037 0016 9342     		cmp	r3, r2
 1038 0018 37D1     		bne	.L8
 459:.\Generated_Source\PSoC4/CYBLE_gatt.c ****     {
 460:.\Generated_Source\PSoC4/CYBLE_gatt.c ****         /* Store value to database */
 461:.\Generated_Source\PSoC4/CYBLE_gatt.c ****         gattErr = CyBle_GattsWriteAttributeValue(&eventParam->handleValPair, 0u, 
 1039              		.loc 1 461 0
 1040 001a 7B68     		ldr	r3, [r7, #4]
 1041 001c 1A1D     		add	r2, r3, #4
 1042 001e 7B68     		ldr	r3, [r7, #4]
 1043 0020 0F21     		mov	r1, #15
 1044 0022 7C18     		add	r4, r7, r1
 1045 0024 101C     		mov	r0, r2
 1046 0026 0021     		mov	r1, #0
 1047 0028 1A1C     		mov	r2, r3
 1048 002a 4023     		mov	r3, #64
 1049 002c FFF7FEFF 		bl	CyBle_GattsWriteAttributeValue
 1050 0030 031C     		mov	r3, r0
 1051 0032 2370     		strb	r3, [r4]
 462:.\Generated_Source\PSoC4/CYBLE_gatt.c ****                         &eventParam->connHandle, CYBLE_GATT_DB_PEER_INITIATED);
 463:.\Generated_Source\PSoC4/CYBLE_gatt.c ****         
 464:.\Generated_Source\PSoC4/CYBLE_gatt.c ****         if(CYBLE_GATT_ERR_NONE == gattErr)
 1052              		.loc 1 464 0
 1053 0034 0F23     		mov	r3, #15
 1054 0036 FB18     		add	r3, r7, r3
 1055 0038 1B78     		ldrb	r3, [r3]
 1056 003a 002B     		cmp	r3, #0
 1057 003c 1DD1     		bne	.L9
 465:.\Generated_Source\PSoC4/CYBLE_gatt.c ****         {
 466:.\Generated_Source\PSoC4/CYBLE_gatt.c ****             if(CYBLE_IS_INDICATION_ENABLED_IN_PTR(eventParam->handleValPair.value.val))
 1058              		.loc 1 466 0
 1059 003e 7B68     		ldr	r3, [r7, #4]
 1060 0040 5B68     		ldr	r3, [r3, #4]
 1061 0042 181C     		mov	r0, r3
 1062 0044 FFF7FEFF 		bl	CyBle_Get16ByPtr
 1063 0048 031C     		mov	r3, r0
 1064 004a 1A1C     		mov	r2, r3
 1065 004c 0223     		mov	r3, #2
 1066 004e 1340     		and	r3, r2
 1067 0050 9BB2     		uxth	r3, r3
 1068 0052 002B     		cmp	r3, #0
 1069 0054 08D0     		beq	.L10
 467:.\Generated_Source\PSoC4/CYBLE_gatt.c ****             {
 468:.\Generated_Source\PSoC4/CYBLE_gatt.c ****                 CyBle_ApplCallback((uint32)CYBLE_EVT_GATTS_INDICATION_ENABLED, eventParam);
 1070              		.loc 1 468 0
 1071 0056 104B     		ldr	r3, .L12
ARM GAS  C:\Users\mohammed\AppData\Local\Temp\cc15dDEh.s 			page 28


 1072 0058 1B68     		ldr	r3, [r3]
 1073 005a 8222     		mov	r2, #130
 1074 005c 5100     		lsl	r1, r2, #1
 1075 005e 7A68     		ldr	r2, [r7, #4]
 1076 0060 081C     		mov	r0, r1
 1077 0062 111C     		mov	r1, r2
 1078 0064 9847     		blx	r3
 1079 0066 08E0     		b	.L9
 1080              	.L10:
 469:.\Generated_Source\PSoC4/CYBLE_gatt.c ****             }
 470:.\Generated_Source\PSoC4/CYBLE_gatt.c ****             else
 471:.\Generated_Source\PSoC4/CYBLE_gatt.c ****             {
 472:.\Generated_Source\PSoC4/CYBLE_gatt.c ****                 CyBle_ApplCallback((uint32)CYBLE_EVT_GATTS_INDICATION_DISABLED, eventParam);
 1081              		.loc 1 472 0
 1082 0068 0B4B     		ldr	r3, .L12
 1083 006a 1B68     		ldr	r3, [r3]
 1084 006c 0622     		mov	r2, #6
 1085 006e FF32     		add	r2, r2, #255
 1086 0070 111C     		mov	r1, r2
 1087 0072 7A68     		ldr	r2, [r7, #4]
 1088 0074 081C     		mov	r0, r1
 1089 0076 111C     		mov	r1, r2
 1090 0078 9847     		blx	r3
 1091              	.L9:
 473:.\Generated_Source\PSoC4/CYBLE_gatt.c ****             }
 474:.\Generated_Source\PSoC4/CYBLE_gatt.c ****         }
 475:.\Generated_Source\PSoC4/CYBLE_gatt.c ****         cyBle_eventHandlerFlag &= (uint8)~CYBLE_CALLBACK;
 1092              		.loc 1 475 0
 1093 007a 084B     		ldr	r3, .L12+4
 1094 007c 1B78     		ldrb	r3, [r3]
 1095 007e DBB2     		uxtb	r3, r3
 1096 0080 0122     		mov	r2, #1
 1097 0082 9343     		bic	r3, r2
 1098 0084 DAB2     		uxtb	r2, r3
 1099 0086 054B     		ldr	r3, .L12+4
 1100 0088 1A70     		strb	r2, [r3]
 1101              	.L8:
 476:.\Generated_Source\PSoC4/CYBLE_gatt.c ****     }
 477:.\Generated_Source\PSoC4/CYBLE_gatt.c ****     return (gattErr);
 1102              		.loc 1 477 0
 1103 008a 0F23     		mov	r3, #15
 1104 008c FB18     		add	r3, r7, r3
 1105 008e 1B78     		ldrb	r3, [r3]
 478:.\Generated_Source\PSoC4/CYBLE_gatt.c **** }
 1106              		.loc 1 478 0
 1107 0090 181C     		mov	r0, r3
 1108 0092 BD46     		mov	sp, r7
 1109 0094 05B0     		add	sp, sp, #20
 1110              		@ sp needed
 1111 0096 90BD     		pop	{r4, r7, pc}
 1112              	.L13:
 1113              		.align	2
 1114              	.L12:
 1115 0098 00000000 		.word	CyBle_ApplCallback
 1116 009c 00000000 		.word	cyBle_eventHandlerFlag
 1117              		.cfi_endproc
 1118              	.LFE3:
ARM GAS  C:\Users\mohammed\AppData\Local\Temp\cc15dDEh.s 			page 29


 1119              		.size	CyBle_GattsWriteEventHandler, .-CyBle_GattsWriteEventHandler
 1120              		.text
 1121              	.Letext0:
 1122              		.file 2 ".\\Generated_Source\\PSoC4\\cytypes.h"
 1123              		.file 3 ".\\Generated_Source\\PSoC4\\CYBLE_Stack.h"
 1124              		.file 4 ".\\Generated_Source\\PSoC4\\CYBLE_StackGatt.h"
 1125              		.file 5 ".\\Generated_Source\\PSoC4\\CYBLE_StackGattServer.h"
 1126              		.file 6 ".\\Generated_Source\\PSoC4\\CYBLE_StackGattDb.h"
 1127              		.file 7 ".\\Generated_Source\\PSoC4\\CYBLE.h"
 1128              		.file 8 ".\\Generated_Source\\PSoC4\\CYBLE_gatt.h"
 1129              		.file 9 ".\\Generated_Source\\PSoC4\\CYBLE_uds.h"
 1130              		.file 10 ".\\Generated_Source\\PSoC4\\CYBLE_eventHandler.h"