ARM GAS  C:\Users\mohammed\AppData\Local\Temp\cceuH2T0.s 			page 1


   1              		.cpu cortex-m0
   2              		.fpu softvfp
   3              		.eabi_attribute 20, 1
   4              		.eabi_attribute 21, 1
   5              		.eabi_attribute 23, 3
   6              		.eabi_attribute 24, 1
   7              		.eabi_attribute 25, 1
   8              		.eabi_attribute 26, 1
   9              		.eabi_attribute 30, 6
  10              		.eabi_attribute 34, 0
  11              		.eabi_attribute 18, 4
  12              		.code	16
  13              		.file	"CYBLE_uds.c"
  14              		.text
  15              	.Ltext0:
  16              		.cfi_sections	.debug_frame
  17              		.bss
  18              		.align	2
  19              	CyBle_UdsApplCallback:
  20 0000 00000000 		.space	4
  21              		.global	cyBle_udss
  22              		.section	.rodata
  23              		.align	2
  24              		.type	cyBle_udss, %object
  25              		.size	cyBle_udss, 126
  26              	cyBle_udss:
  27 0000 1700     		.short	23
  28 0002 1900     		.short	25
  29 0004 0000     		.short	0
  30 0006 1B00     		.short	27
  31 0008 0000     		.short	0
  32 000a 1D00     		.short	29
  33 000c 0000     		.short	0
  34 000e 1F00     		.short	31
  35 0010 0000     		.short	0
  36 0012 2100     		.short	33
  37 0014 0000     		.short	0
  38 0016 2300     		.short	35
  39 0018 0000     		.short	0
  40 001a 2500     		.short	37
  41 001c 0000     		.short	0
  42 001e 2700     		.short	39
  43 0020 0000     		.short	0
  44 0022 2900     		.short	41
  45 0024 0000     		.short	0
  46 0026 2B00     		.short	43
  47 0028 0000     		.short	0
  48 002a 2D00     		.short	45
  49 002c 0000     		.short	0
  50 002e 2F00     		.short	47
  51 0030 0000     		.short	0
  52 0032 3100     		.short	49
  53 0034 0000     		.short	0
  54 0036 3300     		.short	51
  55 0038 0000     		.short	0
  56 003a 3500     		.short	53
  57 003c 0000     		.short	0
ARM GAS  C:\Users\mohammed\AppData\Local\Temp\cceuH2T0.s 			page 2


  58 003e 3700     		.short	55
  59 0040 0000     		.short	0
  60 0042 3900     		.short	57
  61 0044 0000     		.short	0
  62 0046 3B00     		.short	59
  63 0048 0000     		.short	0
  64 004a 3D00     		.short	61
  65 004c 0000     		.short	0
  66 004e 3F00     		.short	63
  67 0050 0000     		.short	0
  68 0052 4100     		.short	65
  69 0054 0000     		.short	0
  70 0056 4300     		.short	67
  71 0058 0000     		.short	0
  72 005a 4500     		.short	69
  73 005c 0000     		.short	0
  74 005e 4700     		.short	71
  75 0060 0000     		.short	0
  76 0062 4900     		.short	73
  77 0064 0000     		.short	0
  78 0066 4B00     		.short	75
  79 0068 0000     		.short	0
  80 006a 4D00     		.short	77
  81 006c 0000     		.short	0
  82 006e 4F00     		.short	79
  83 0070 5000     		.short	80
  84 0072 5200     		.short	82
  85 0074 0000     		.short	0
  86 0076 5400     		.short	84
  87 0078 5500     		.short	85
  88 007a 5700     		.short	87
  89 007c 0000     		.short	0
  90              		.comm	cyBle_udsFlag,1,1
  91 007e 0000     		.bss
  92              		.align	1
  93              	cyBle_udssReqHandle:
  94 0004 0000     		.space	2
  95 0006 0000     		.section	.text.CyBle_UdsInit,"ax",%progbits
  96              		.align	2
  97              		.global	CyBle_UdsInit
  98              		.code	16
  99              		.thumb_func
 100              		.type	CyBle_UdsInit, %function
 101              	CyBle_UdsInit:
 102              	.LFB2:
 103              		.file 1 ".\\Generated_Source\\PSoC4\\CYBLE_uds.c"
   1:.\Generated_Source\PSoC4/CYBLE_uds.c **** /***************************************************************************//**
   2:.\Generated_Source\PSoC4/CYBLE_uds.c **** * \file CYBLE_uds.c
   3:.\Generated_Source\PSoC4/CYBLE_uds.c **** * \version 3.10
   4:.\Generated_Source\PSoC4/CYBLE_uds.c **** * 
   5:.\Generated_Source\PSoC4/CYBLE_uds.c **** * \brief
   6:.\Generated_Source\PSoC4/CYBLE_uds.c **** *  This file contains the source code for
   7:.\Generated_Source\PSoC4/CYBLE_uds.c **** *  the User Data Service of the BLE Component.
   8:.\Generated_Source\PSoC4/CYBLE_uds.c **** * 
   9:.\Generated_Source\PSoC4/CYBLE_uds.c **** ********************************************************************************
  10:.\Generated_Source\PSoC4/CYBLE_uds.c **** * \copyright
  11:.\Generated_Source\PSoC4/CYBLE_uds.c **** * Copyright 2014-2016, Cypress Semiconductor Corporation.  All rights reserved.
ARM GAS  C:\Users\mohammed\AppData\Local\Temp\cceuH2T0.s 			page 3


  12:.\Generated_Source\PSoC4/CYBLE_uds.c **** * You may use this file only in accordance with the license, terms, conditions,
  13:.\Generated_Source\PSoC4/CYBLE_uds.c **** * disclaimers, and limitations in the end user license agreement accompanying
  14:.\Generated_Source\PSoC4/CYBLE_uds.c **** * the software package with which this file was provided.
  15:.\Generated_Source\PSoC4/CYBLE_uds.c **** *******************************************************************************/
  16:.\Generated_Source\PSoC4/CYBLE_uds.c **** 
  17:.\Generated_Source\PSoC4/CYBLE_uds.c **** 
  18:.\Generated_Source\PSoC4/CYBLE_uds.c **** #include "CYBLE_eventHandler.h"
  19:.\Generated_Source\PSoC4/CYBLE_uds.c **** 
  20:.\Generated_Source\PSoC4/CYBLE_uds.c **** static CYBLE_CALLBACK_T CyBle_UdsApplCallback;
  21:.\Generated_Source\PSoC4/CYBLE_uds.c **** 
  22:.\Generated_Source\PSoC4/CYBLE_uds.c **** #ifdef CYBLE_UDS_SERVER
  23:.\Generated_Source\PSoC4/CYBLE_uds.c **** /* Generated code */
  24:.\Generated_Source\PSoC4/CYBLE_uds.c **** const CYBLE_UDSS_T cyBle_udss =
  25:.\Generated_Source\PSoC4/CYBLE_uds.c **** {
  26:.\Generated_Source\PSoC4/CYBLE_uds.c ****     0x0017u,    /* Handle of the UDS service */
  27:.\Generated_Source\PSoC4/CYBLE_uds.c ****     {
  28:.\Generated_Source\PSoC4/CYBLE_uds.c ****         
  29:.\Generated_Source\PSoC4/CYBLE_uds.c ****         /* First Name characteristic */
  30:.\Generated_Source\PSoC4/CYBLE_uds.c ****         {
  31:.\Generated_Source\PSoC4/CYBLE_uds.c ****             0x0019u, /* Handle of the First Name characteristic */ 
  32:.\Generated_Source\PSoC4/CYBLE_uds.c ****             
  33:.\Generated_Source\PSoC4/CYBLE_uds.c ****             /* Array of Descriptors handles */
  34:.\Generated_Source\PSoC4/CYBLE_uds.c ****             {
  35:.\Generated_Source\PSoC4/CYBLE_uds.c ****                 CYBLE_GATT_INVALID_ATTR_HANDLE_VALUE, 
  36:.\Generated_Source\PSoC4/CYBLE_uds.c ****             }, 
  37:.\Generated_Source\PSoC4/CYBLE_uds.c ****         }, 
  38:.\Generated_Source\PSoC4/CYBLE_uds.c ****         
  39:.\Generated_Source\PSoC4/CYBLE_uds.c ****         /* Last Name characteristic */
  40:.\Generated_Source\PSoC4/CYBLE_uds.c ****         {
  41:.\Generated_Source\PSoC4/CYBLE_uds.c ****             0x001Bu, /* Handle of the Last Name characteristic */ 
  42:.\Generated_Source\PSoC4/CYBLE_uds.c ****             
  43:.\Generated_Source\PSoC4/CYBLE_uds.c ****             /* Array of Descriptors handles */
  44:.\Generated_Source\PSoC4/CYBLE_uds.c ****             {
  45:.\Generated_Source\PSoC4/CYBLE_uds.c ****                 CYBLE_GATT_INVALID_ATTR_HANDLE_VALUE, 
  46:.\Generated_Source\PSoC4/CYBLE_uds.c ****             }, 
  47:.\Generated_Source\PSoC4/CYBLE_uds.c ****         }, 
  48:.\Generated_Source\PSoC4/CYBLE_uds.c ****         
  49:.\Generated_Source\PSoC4/CYBLE_uds.c ****         /* Email Address characteristic */
  50:.\Generated_Source\PSoC4/CYBLE_uds.c ****         {
  51:.\Generated_Source\PSoC4/CYBLE_uds.c ****             0x001Du, /* Handle of the Email Address characteristic */ 
  52:.\Generated_Source\PSoC4/CYBLE_uds.c ****             
  53:.\Generated_Source\PSoC4/CYBLE_uds.c ****             /* Array of Descriptors handles */
  54:.\Generated_Source\PSoC4/CYBLE_uds.c ****             {
  55:.\Generated_Source\PSoC4/CYBLE_uds.c ****                 CYBLE_GATT_INVALID_ATTR_HANDLE_VALUE, 
  56:.\Generated_Source\PSoC4/CYBLE_uds.c ****             }, 
  57:.\Generated_Source\PSoC4/CYBLE_uds.c ****         }, 
  58:.\Generated_Source\PSoC4/CYBLE_uds.c ****         
  59:.\Generated_Source\PSoC4/CYBLE_uds.c ****         /* Age characteristic */
  60:.\Generated_Source\PSoC4/CYBLE_uds.c ****         {
  61:.\Generated_Source\PSoC4/CYBLE_uds.c ****             0x001Fu, /* Handle of the Age characteristic */ 
  62:.\Generated_Source\PSoC4/CYBLE_uds.c ****             
  63:.\Generated_Source\PSoC4/CYBLE_uds.c ****             /* Array of Descriptors handles */
  64:.\Generated_Source\PSoC4/CYBLE_uds.c ****             {
  65:.\Generated_Source\PSoC4/CYBLE_uds.c ****                 CYBLE_GATT_INVALID_ATTR_HANDLE_VALUE, 
  66:.\Generated_Source\PSoC4/CYBLE_uds.c ****             }, 
  67:.\Generated_Source\PSoC4/CYBLE_uds.c ****         }, 
  68:.\Generated_Source\PSoC4/CYBLE_uds.c ****         
ARM GAS  C:\Users\mohammed\AppData\Local\Temp\cceuH2T0.s 			page 4


  69:.\Generated_Source\PSoC4/CYBLE_uds.c ****         /* Date of Birth characteristic */
  70:.\Generated_Source\PSoC4/CYBLE_uds.c ****         {
  71:.\Generated_Source\PSoC4/CYBLE_uds.c ****             0x0021u, /* Handle of the Date of Birth characteristic */ 
  72:.\Generated_Source\PSoC4/CYBLE_uds.c ****             
  73:.\Generated_Source\PSoC4/CYBLE_uds.c ****             /* Array of Descriptors handles */
  74:.\Generated_Source\PSoC4/CYBLE_uds.c ****             {
  75:.\Generated_Source\PSoC4/CYBLE_uds.c ****                 CYBLE_GATT_INVALID_ATTR_HANDLE_VALUE, 
  76:.\Generated_Source\PSoC4/CYBLE_uds.c ****             }, 
  77:.\Generated_Source\PSoC4/CYBLE_uds.c ****         }, 
  78:.\Generated_Source\PSoC4/CYBLE_uds.c ****         
  79:.\Generated_Source\PSoC4/CYBLE_uds.c ****         /* Gender characteristic */
  80:.\Generated_Source\PSoC4/CYBLE_uds.c ****         {
  81:.\Generated_Source\PSoC4/CYBLE_uds.c ****             0x0023u, /* Handle of the Gender characteristic */ 
  82:.\Generated_Source\PSoC4/CYBLE_uds.c ****             
  83:.\Generated_Source\PSoC4/CYBLE_uds.c ****             /* Array of Descriptors handles */
  84:.\Generated_Source\PSoC4/CYBLE_uds.c ****             {
  85:.\Generated_Source\PSoC4/CYBLE_uds.c ****                 CYBLE_GATT_INVALID_ATTR_HANDLE_VALUE, 
  86:.\Generated_Source\PSoC4/CYBLE_uds.c ****             }, 
  87:.\Generated_Source\PSoC4/CYBLE_uds.c ****         }, 
  88:.\Generated_Source\PSoC4/CYBLE_uds.c ****         
  89:.\Generated_Source\PSoC4/CYBLE_uds.c ****         /* Weight characteristic */
  90:.\Generated_Source\PSoC4/CYBLE_uds.c ****         {
  91:.\Generated_Source\PSoC4/CYBLE_uds.c ****             0x0025u, /* Handle of the Weight characteristic */ 
  92:.\Generated_Source\PSoC4/CYBLE_uds.c ****             
  93:.\Generated_Source\PSoC4/CYBLE_uds.c ****             /* Array of Descriptors handles */
  94:.\Generated_Source\PSoC4/CYBLE_uds.c ****             {
  95:.\Generated_Source\PSoC4/CYBLE_uds.c ****                 CYBLE_GATT_INVALID_ATTR_HANDLE_VALUE, 
  96:.\Generated_Source\PSoC4/CYBLE_uds.c ****             }, 
  97:.\Generated_Source\PSoC4/CYBLE_uds.c ****         }, 
  98:.\Generated_Source\PSoC4/CYBLE_uds.c ****         
  99:.\Generated_Source\PSoC4/CYBLE_uds.c ****         /* Height characteristic */
 100:.\Generated_Source\PSoC4/CYBLE_uds.c ****         {
 101:.\Generated_Source\PSoC4/CYBLE_uds.c ****             0x0027u, /* Handle of the Height characteristic */ 
 102:.\Generated_Source\PSoC4/CYBLE_uds.c ****             
 103:.\Generated_Source\PSoC4/CYBLE_uds.c ****             /* Array of Descriptors handles */
 104:.\Generated_Source\PSoC4/CYBLE_uds.c ****             {
 105:.\Generated_Source\PSoC4/CYBLE_uds.c ****                 CYBLE_GATT_INVALID_ATTR_HANDLE_VALUE, 
 106:.\Generated_Source\PSoC4/CYBLE_uds.c ****             }, 
 107:.\Generated_Source\PSoC4/CYBLE_uds.c ****         }, 
 108:.\Generated_Source\PSoC4/CYBLE_uds.c ****         
 109:.\Generated_Source\PSoC4/CYBLE_uds.c ****         /* VO2 Max characteristic */
 110:.\Generated_Source\PSoC4/CYBLE_uds.c ****         {
 111:.\Generated_Source\PSoC4/CYBLE_uds.c ****             0x0029u, /* Handle of the VO2 Max characteristic */ 
 112:.\Generated_Source\PSoC4/CYBLE_uds.c ****             
 113:.\Generated_Source\PSoC4/CYBLE_uds.c ****             /* Array of Descriptors handles */
 114:.\Generated_Source\PSoC4/CYBLE_uds.c ****             {
 115:.\Generated_Source\PSoC4/CYBLE_uds.c ****                 CYBLE_GATT_INVALID_ATTR_HANDLE_VALUE, 
 116:.\Generated_Source\PSoC4/CYBLE_uds.c ****             }, 
 117:.\Generated_Source\PSoC4/CYBLE_uds.c ****         }, 
 118:.\Generated_Source\PSoC4/CYBLE_uds.c ****         
 119:.\Generated_Source\PSoC4/CYBLE_uds.c ****         /* Heart Rate Max characteristic */
 120:.\Generated_Source\PSoC4/CYBLE_uds.c ****         {
 121:.\Generated_Source\PSoC4/CYBLE_uds.c ****             0x002Bu, /* Handle of the Heart Rate Max characteristic */ 
 122:.\Generated_Source\PSoC4/CYBLE_uds.c ****             
 123:.\Generated_Source\PSoC4/CYBLE_uds.c ****             /* Array of Descriptors handles */
 124:.\Generated_Source\PSoC4/CYBLE_uds.c ****             {
 125:.\Generated_Source\PSoC4/CYBLE_uds.c ****                 CYBLE_GATT_INVALID_ATTR_HANDLE_VALUE, 
ARM GAS  C:\Users\mohammed\AppData\Local\Temp\cceuH2T0.s 			page 5


 126:.\Generated_Source\PSoC4/CYBLE_uds.c ****             }, 
 127:.\Generated_Source\PSoC4/CYBLE_uds.c ****         }, 
 128:.\Generated_Source\PSoC4/CYBLE_uds.c ****         
 129:.\Generated_Source\PSoC4/CYBLE_uds.c ****         /* Resting Heart Rate characteristic */
 130:.\Generated_Source\PSoC4/CYBLE_uds.c ****         {
 131:.\Generated_Source\PSoC4/CYBLE_uds.c ****             0x002Du, /* Handle of the Resting Heart Rate characteristic */ 
 132:.\Generated_Source\PSoC4/CYBLE_uds.c ****             
 133:.\Generated_Source\PSoC4/CYBLE_uds.c ****             /* Array of Descriptors handles */
 134:.\Generated_Source\PSoC4/CYBLE_uds.c ****             {
 135:.\Generated_Source\PSoC4/CYBLE_uds.c ****                 CYBLE_GATT_INVALID_ATTR_HANDLE_VALUE, 
 136:.\Generated_Source\PSoC4/CYBLE_uds.c ****             }, 
 137:.\Generated_Source\PSoC4/CYBLE_uds.c ****         }, 
 138:.\Generated_Source\PSoC4/CYBLE_uds.c ****         
 139:.\Generated_Source\PSoC4/CYBLE_uds.c ****         /* Maximum Recommended Heart Rate characteristic */
 140:.\Generated_Source\PSoC4/CYBLE_uds.c ****         {
 141:.\Generated_Source\PSoC4/CYBLE_uds.c ****             0x002Fu, /* Handle of the Maximum Recommended Heart Rate characteristic */ 
 142:.\Generated_Source\PSoC4/CYBLE_uds.c ****             
 143:.\Generated_Source\PSoC4/CYBLE_uds.c ****             /* Array of Descriptors handles */
 144:.\Generated_Source\PSoC4/CYBLE_uds.c ****             {
 145:.\Generated_Source\PSoC4/CYBLE_uds.c ****                 CYBLE_GATT_INVALID_ATTR_HANDLE_VALUE, 
 146:.\Generated_Source\PSoC4/CYBLE_uds.c ****             }, 
 147:.\Generated_Source\PSoC4/CYBLE_uds.c ****         }, 
 148:.\Generated_Source\PSoC4/CYBLE_uds.c ****         
 149:.\Generated_Source\PSoC4/CYBLE_uds.c ****         /* Aerobic Threshold characteristic */
 150:.\Generated_Source\PSoC4/CYBLE_uds.c ****         {
 151:.\Generated_Source\PSoC4/CYBLE_uds.c ****             0x0031u, /* Handle of the Aerobic Threshold characteristic */ 
 152:.\Generated_Source\PSoC4/CYBLE_uds.c ****             
 153:.\Generated_Source\PSoC4/CYBLE_uds.c ****             /* Array of Descriptors handles */
 154:.\Generated_Source\PSoC4/CYBLE_uds.c ****             {
 155:.\Generated_Source\PSoC4/CYBLE_uds.c ****                 CYBLE_GATT_INVALID_ATTR_HANDLE_VALUE, 
 156:.\Generated_Source\PSoC4/CYBLE_uds.c ****             }, 
 157:.\Generated_Source\PSoC4/CYBLE_uds.c ****         }, 
 158:.\Generated_Source\PSoC4/CYBLE_uds.c ****         
 159:.\Generated_Source\PSoC4/CYBLE_uds.c ****         /* Anaerobic Threshold characteristic */
 160:.\Generated_Source\PSoC4/CYBLE_uds.c ****         {
 161:.\Generated_Source\PSoC4/CYBLE_uds.c ****             0x0033u, /* Handle of the Anaerobic Threshold characteristic */ 
 162:.\Generated_Source\PSoC4/CYBLE_uds.c ****             
 163:.\Generated_Source\PSoC4/CYBLE_uds.c ****             /* Array of Descriptors handles */
 164:.\Generated_Source\PSoC4/CYBLE_uds.c ****             {
 165:.\Generated_Source\PSoC4/CYBLE_uds.c ****                 CYBLE_GATT_INVALID_ATTR_HANDLE_VALUE, 
 166:.\Generated_Source\PSoC4/CYBLE_uds.c ****             }, 
 167:.\Generated_Source\PSoC4/CYBLE_uds.c ****         }, 
 168:.\Generated_Source\PSoC4/CYBLE_uds.c ****         
 169:.\Generated_Source\PSoC4/CYBLE_uds.c ****         /* Sport Type for Aerobic and Anaerobic Thresholds characteristic */
 170:.\Generated_Source\PSoC4/CYBLE_uds.c ****         {
 171:.\Generated_Source\PSoC4/CYBLE_uds.c ****             0x0035u, /* Handle of the Sport Type for Aerobic and Anaerobic Thresholds characteristi
 172:.\Generated_Source\PSoC4/CYBLE_uds.c ****             
 173:.\Generated_Source\PSoC4/CYBLE_uds.c ****             /* Array of Descriptors handles */
 174:.\Generated_Source\PSoC4/CYBLE_uds.c ****             {
 175:.\Generated_Source\PSoC4/CYBLE_uds.c ****                 CYBLE_GATT_INVALID_ATTR_HANDLE_VALUE, 
 176:.\Generated_Source\PSoC4/CYBLE_uds.c ****             }, 
 177:.\Generated_Source\PSoC4/CYBLE_uds.c ****         }, 
 178:.\Generated_Source\PSoC4/CYBLE_uds.c ****         
 179:.\Generated_Source\PSoC4/CYBLE_uds.c ****         /* Date of Threshold Assessment characteristic */
 180:.\Generated_Source\PSoC4/CYBLE_uds.c ****         {
 181:.\Generated_Source\PSoC4/CYBLE_uds.c ****             0x0037u, /* Handle of the Date of Threshold Assessment characteristic */ 
 182:.\Generated_Source\PSoC4/CYBLE_uds.c ****             
ARM GAS  C:\Users\mohammed\AppData\Local\Temp\cceuH2T0.s 			page 6


 183:.\Generated_Source\PSoC4/CYBLE_uds.c ****             /* Array of Descriptors handles */
 184:.\Generated_Source\PSoC4/CYBLE_uds.c ****             {
 185:.\Generated_Source\PSoC4/CYBLE_uds.c ****                 CYBLE_GATT_INVALID_ATTR_HANDLE_VALUE, 
 186:.\Generated_Source\PSoC4/CYBLE_uds.c ****             }, 
 187:.\Generated_Source\PSoC4/CYBLE_uds.c ****         }, 
 188:.\Generated_Source\PSoC4/CYBLE_uds.c ****         
 189:.\Generated_Source\PSoC4/CYBLE_uds.c ****         /* Waist Circumference characteristic */
 190:.\Generated_Source\PSoC4/CYBLE_uds.c ****         {
 191:.\Generated_Source\PSoC4/CYBLE_uds.c ****             0x0039u, /* Handle of the Waist Circumference characteristic */ 
 192:.\Generated_Source\PSoC4/CYBLE_uds.c ****             
 193:.\Generated_Source\PSoC4/CYBLE_uds.c ****             /* Array of Descriptors handles */
 194:.\Generated_Source\PSoC4/CYBLE_uds.c ****             {
 195:.\Generated_Source\PSoC4/CYBLE_uds.c ****                 CYBLE_GATT_INVALID_ATTR_HANDLE_VALUE, 
 196:.\Generated_Source\PSoC4/CYBLE_uds.c ****             }, 
 197:.\Generated_Source\PSoC4/CYBLE_uds.c ****         }, 
 198:.\Generated_Source\PSoC4/CYBLE_uds.c ****         
 199:.\Generated_Source\PSoC4/CYBLE_uds.c ****         /* Hip Circumference characteristic */
 200:.\Generated_Source\PSoC4/CYBLE_uds.c ****         {
 201:.\Generated_Source\PSoC4/CYBLE_uds.c ****             0x003Bu, /* Handle of the Hip Circumference characteristic */ 
 202:.\Generated_Source\PSoC4/CYBLE_uds.c ****             
 203:.\Generated_Source\PSoC4/CYBLE_uds.c ****             /* Array of Descriptors handles */
 204:.\Generated_Source\PSoC4/CYBLE_uds.c ****             {
 205:.\Generated_Source\PSoC4/CYBLE_uds.c ****                 CYBLE_GATT_INVALID_ATTR_HANDLE_VALUE, 
 206:.\Generated_Source\PSoC4/CYBLE_uds.c ****             }, 
 207:.\Generated_Source\PSoC4/CYBLE_uds.c ****         }, 
 208:.\Generated_Source\PSoC4/CYBLE_uds.c ****         
 209:.\Generated_Source\PSoC4/CYBLE_uds.c ****         /* Fat Burn Heart Rate Lower Limit characteristic */
 210:.\Generated_Source\PSoC4/CYBLE_uds.c ****         {
 211:.\Generated_Source\PSoC4/CYBLE_uds.c ****             0x003Du, /* Handle of the Fat Burn Heart Rate Lower Limit characteristic */ 
 212:.\Generated_Source\PSoC4/CYBLE_uds.c ****             
 213:.\Generated_Source\PSoC4/CYBLE_uds.c ****             /* Array of Descriptors handles */
 214:.\Generated_Source\PSoC4/CYBLE_uds.c ****             {
 215:.\Generated_Source\PSoC4/CYBLE_uds.c ****                 CYBLE_GATT_INVALID_ATTR_HANDLE_VALUE, 
 216:.\Generated_Source\PSoC4/CYBLE_uds.c ****             }, 
 217:.\Generated_Source\PSoC4/CYBLE_uds.c ****         }, 
 218:.\Generated_Source\PSoC4/CYBLE_uds.c ****         
 219:.\Generated_Source\PSoC4/CYBLE_uds.c ****         /* Fat Burn Heart Rate Upper Limit characteristic */
 220:.\Generated_Source\PSoC4/CYBLE_uds.c ****         {
 221:.\Generated_Source\PSoC4/CYBLE_uds.c ****             0x003Fu, /* Handle of the Fat Burn Heart Rate Upper Limit characteristic */ 
 222:.\Generated_Source\PSoC4/CYBLE_uds.c ****             
 223:.\Generated_Source\PSoC4/CYBLE_uds.c ****             /* Array of Descriptors handles */
 224:.\Generated_Source\PSoC4/CYBLE_uds.c ****             {
 225:.\Generated_Source\PSoC4/CYBLE_uds.c ****                 CYBLE_GATT_INVALID_ATTR_HANDLE_VALUE, 
 226:.\Generated_Source\PSoC4/CYBLE_uds.c ****             }, 
 227:.\Generated_Source\PSoC4/CYBLE_uds.c ****         }, 
 228:.\Generated_Source\PSoC4/CYBLE_uds.c ****         
 229:.\Generated_Source\PSoC4/CYBLE_uds.c ****         /* Aerobic Heart Rate Lower Limit characteristic */
 230:.\Generated_Source\PSoC4/CYBLE_uds.c ****         {
 231:.\Generated_Source\PSoC4/CYBLE_uds.c ****             0x0041u, /* Handle of the Aerobic Heart Rate Lower Limit characteristic */ 
 232:.\Generated_Source\PSoC4/CYBLE_uds.c ****             
 233:.\Generated_Source\PSoC4/CYBLE_uds.c ****             /* Array of Descriptors handles */
 234:.\Generated_Source\PSoC4/CYBLE_uds.c ****             {
 235:.\Generated_Source\PSoC4/CYBLE_uds.c ****                 CYBLE_GATT_INVALID_ATTR_HANDLE_VALUE, 
 236:.\Generated_Source\PSoC4/CYBLE_uds.c ****             }, 
 237:.\Generated_Source\PSoC4/CYBLE_uds.c ****         }, 
 238:.\Generated_Source\PSoC4/CYBLE_uds.c ****         
 239:.\Generated_Source\PSoC4/CYBLE_uds.c ****         /* Aerobic Heart Rate Upper Limit characteristic */
ARM GAS  C:\Users\mohammed\AppData\Local\Temp\cceuH2T0.s 			page 7


 240:.\Generated_Source\PSoC4/CYBLE_uds.c ****         {
 241:.\Generated_Source\PSoC4/CYBLE_uds.c ****             0x0043u, /* Handle of the Aerobic Heart Rate Upper Limit characteristic */ 
 242:.\Generated_Source\PSoC4/CYBLE_uds.c ****             
 243:.\Generated_Source\PSoC4/CYBLE_uds.c ****             /* Array of Descriptors handles */
 244:.\Generated_Source\PSoC4/CYBLE_uds.c ****             {
 245:.\Generated_Source\PSoC4/CYBLE_uds.c ****                 CYBLE_GATT_INVALID_ATTR_HANDLE_VALUE, 
 246:.\Generated_Source\PSoC4/CYBLE_uds.c ****             }, 
 247:.\Generated_Source\PSoC4/CYBLE_uds.c ****         }, 
 248:.\Generated_Source\PSoC4/CYBLE_uds.c ****         
 249:.\Generated_Source\PSoC4/CYBLE_uds.c ****         /* Anaerobic Heart Rate Lower Limit characteristic */
 250:.\Generated_Source\PSoC4/CYBLE_uds.c ****         {
 251:.\Generated_Source\PSoC4/CYBLE_uds.c ****             0x0045u, /* Handle of the Anaerobic Heart Rate Lower Limit characteristic */ 
 252:.\Generated_Source\PSoC4/CYBLE_uds.c ****             
 253:.\Generated_Source\PSoC4/CYBLE_uds.c ****             /* Array of Descriptors handles */
 254:.\Generated_Source\PSoC4/CYBLE_uds.c ****             {
 255:.\Generated_Source\PSoC4/CYBLE_uds.c ****                 CYBLE_GATT_INVALID_ATTR_HANDLE_VALUE, 
 256:.\Generated_Source\PSoC4/CYBLE_uds.c ****             }, 
 257:.\Generated_Source\PSoC4/CYBLE_uds.c ****         }, 
 258:.\Generated_Source\PSoC4/CYBLE_uds.c ****         
 259:.\Generated_Source\PSoC4/CYBLE_uds.c ****         /* Anaerobic Heart Rate Upper Limit characteristic */
 260:.\Generated_Source\PSoC4/CYBLE_uds.c ****         {
 261:.\Generated_Source\PSoC4/CYBLE_uds.c ****             0x0047u, /* Handle of the Anaerobic Heart Rate Upper Limit characteristic */ 
 262:.\Generated_Source\PSoC4/CYBLE_uds.c ****             
 263:.\Generated_Source\PSoC4/CYBLE_uds.c ****             /* Array of Descriptors handles */
 264:.\Generated_Source\PSoC4/CYBLE_uds.c ****             {
 265:.\Generated_Source\PSoC4/CYBLE_uds.c ****                 CYBLE_GATT_INVALID_ATTR_HANDLE_VALUE, 
 266:.\Generated_Source\PSoC4/CYBLE_uds.c ****             }, 
 267:.\Generated_Source\PSoC4/CYBLE_uds.c ****         }, 
 268:.\Generated_Source\PSoC4/CYBLE_uds.c ****         
 269:.\Generated_Source\PSoC4/CYBLE_uds.c ****         /* Five Zone Heart Rate Limits characteristic */
 270:.\Generated_Source\PSoC4/CYBLE_uds.c ****         {
 271:.\Generated_Source\PSoC4/CYBLE_uds.c ****             0x0049u, /* Handle of the Five Zone Heart Rate Limits characteristic */ 
 272:.\Generated_Source\PSoC4/CYBLE_uds.c ****             
 273:.\Generated_Source\PSoC4/CYBLE_uds.c ****             /* Array of Descriptors handles */
 274:.\Generated_Source\PSoC4/CYBLE_uds.c ****             {
 275:.\Generated_Source\PSoC4/CYBLE_uds.c ****                 CYBLE_GATT_INVALID_ATTR_HANDLE_VALUE, 
 276:.\Generated_Source\PSoC4/CYBLE_uds.c ****             }, 
 277:.\Generated_Source\PSoC4/CYBLE_uds.c ****         }, 
 278:.\Generated_Source\PSoC4/CYBLE_uds.c ****         
 279:.\Generated_Source\PSoC4/CYBLE_uds.c ****         /* Three Zone Heart Rate Limits characteristic */
 280:.\Generated_Source\PSoC4/CYBLE_uds.c ****         {
 281:.\Generated_Source\PSoC4/CYBLE_uds.c ****             0x004Bu, /* Handle of the Three Zone Heart Rate Limits characteristic */ 
 282:.\Generated_Source\PSoC4/CYBLE_uds.c ****             
 283:.\Generated_Source\PSoC4/CYBLE_uds.c ****             /* Array of Descriptors handles */
 284:.\Generated_Source\PSoC4/CYBLE_uds.c ****             {
 285:.\Generated_Source\PSoC4/CYBLE_uds.c ****                 CYBLE_GATT_INVALID_ATTR_HANDLE_VALUE, 
 286:.\Generated_Source\PSoC4/CYBLE_uds.c ****             }, 
 287:.\Generated_Source\PSoC4/CYBLE_uds.c ****         }, 
 288:.\Generated_Source\PSoC4/CYBLE_uds.c ****         
 289:.\Generated_Source\PSoC4/CYBLE_uds.c ****         /* Two Zone Heart Rate Limit characteristic */
 290:.\Generated_Source\PSoC4/CYBLE_uds.c ****         {
 291:.\Generated_Source\PSoC4/CYBLE_uds.c ****             0x004Du, /* Handle of the Two Zone Heart Rate Limit characteristic */ 
 292:.\Generated_Source\PSoC4/CYBLE_uds.c ****             
 293:.\Generated_Source\PSoC4/CYBLE_uds.c ****             /* Array of Descriptors handles */
 294:.\Generated_Source\PSoC4/CYBLE_uds.c ****             {
 295:.\Generated_Source\PSoC4/CYBLE_uds.c ****                 CYBLE_GATT_INVALID_ATTR_HANDLE_VALUE, 
 296:.\Generated_Source\PSoC4/CYBLE_uds.c ****             }, 
ARM GAS  C:\Users\mohammed\AppData\Local\Temp\cceuH2T0.s 			page 8


 297:.\Generated_Source\PSoC4/CYBLE_uds.c ****         }, 
 298:.\Generated_Source\PSoC4/CYBLE_uds.c ****         
 299:.\Generated_Source\PSoC4/CYBLE_uds.c ****         /* Database Change Increment characteristic */
 300:.\Generated_Source\PSoC4/CYBLE_uds.c ****         {
 301:.\Generated_Source\PSoC4/CYBLE_uds.c ****             0x004Fu, /* Handle of the Database Change Increment characteristic */ 
 302:.\Generated_Source\PSoC4/CYBLE_uds.c ****             
 303:.\Generated_Source\PSoC4/CYBLE_uds.c ****             /* Array of Descriptors handles */
 304:.\Generated_Source\PSoC4/CYBLE_uds.c ****             {
 305:.\Generated_Source\PSoC4/CYBLE_uds.c ****                 0x0050u, /* Handle of the Client Characteristic Configuration descriptor */ 
 306:.\Generated_Source\PSoC4/CYBLE_uds.c ****             }, 
 307:.\Generated_Source\PSoC4/CYBLE_uds.c ****         }, 
 308:.\Generated_Source\PSoC4/CYBLE_uds.c ****         
 309:.\Generated_Source\PSoC4/CYBLE_uds.c ****         /* User Index characteristic */
 310:.\Generated_Source\PSoC4/CYBLE_uds.c ****         {
 311:.\Generated_Source\PSoC4/CYBLE_uds.c ****             0x0052u, /* Handle of the User Index characteristic */ 
 312:.\Generated_Source\PSoC4/CYBLE_uds.c ****             
 313:.\Generated_Source\PSoC4/CYBLE_uds.c ****             /* Array of Descriptors handles */
 314:.\Generated_Source\PSoC4/CYBLE_uds.c ****             {
 315:.\Generated_Source\PSoC4/CYBLE_uds.c ****                 CYBLE_GATT_INVALID_ATTR_HANDLE_VALUE, 
 316:.\Generated_Source\PSoC4/CYBLE_uds.c ****             }, 
 317:.\Generated_Source\PSoC4/CYBLE_uds.c ****         }, 
 318:.\Generated_Source\PSoC4/CYBLE_uds.c ****         
 319:.\Generated_Source\PSoC4/CYBLE_uds.c ****         /* User Control Point characteristic */
 320:.\Generated_Source\PSoC4/CYBLE_uds.c ****         {
 321:.\Generated_Source\PSoC4/CYBLE_uds.c ****             0x0054u, /* Handle of the User Control Point characteristic */ 
 322:.\Generated_Source\PSoC4/CYBLE_uds.c ****             
 323:.\Generated_Source\PSoC4/CYBLE_uds.c ****             /* Array of Descriptors handles */
 324:.\Generated_Source\PSoC4/CYBLE_uds.c ****             {
 325:.\Generated_Source\PSoC4/CYBLE_uds.c ****                 0x0055u, /* Handle of the Client Characteristic Configuration descriptor */ 
 326:.\Generated_Source\PSoC4/CYBLE_uds.c ****             }, 
 327:.\Generated_Source\PSoC4/CYBLE_uds.c ****         }, 
 328:.\Generated_Source\PSoC4/CYBLE_uds.c ****         
 329:.\Generated_Source\PSoC4/CYBLE_uds.c ****         /* Language characteristic */
 330:.\Generated_Source\PSoC4/CYBLE_uds.c ****         {
 331:.\Generated_Source\PSoC4/CYBLE_uds.c ****             0x0057u, /* Handle of the Language characteristic */ 
 332:.\Generated_Source\PSoC4/CYBLE_uds.c ****             
 333:.\Generated_Source\PSoC4/CYBLE_uds.c ****             /* Array of Descriptors handles */
 334:.\Generated_Source\PSoC4/CYBLE_uds.c ****             {
 335:.\Generated_Source\PSoC4/CYBLE_uds.c ****                 CYBLE_GATT_INVALID_ATTR_HANDLE_VALUE, 
 336:.\Generated_Source\PSoC4/CYBLE_uds.c ****             }, 
 337:.\Generated_Source\PSoC4/CYBLE_uds.c ****         }, 
 338:.\Generated_Source\PSoC4/CYBLE_uds.c ****     },
 339:.\Generated_Source\PSoC4/CYBLE_uds.c **** };
 340:.\Generated_Source\PSoC4/CYBLE_uds.c **** /* End of generated code */
 341:.\Generated_Source\PSoC4/CYBLE_uds.c ****     uint8 cyBle_udsFlag;
 342:.\Generated_Source\PSoC4/CYBLE_uds.c ****     
 343:.\Generated_Source\PSoC4/CYBLE_uds.c **** static CYBLE_GATT_DB_ATTR_HANDLE_T cyBle_udssReqHandle;
 344:.\Generated_Source\PSoC4/CYBLE_uds.c **** 
 345:.\Generated_Source\PSoC4/CYBLE_uds.c **** #endif /* CYBLE_UDS_SERVER */
 346:.\Generated_Source\PSoC4/CYBLE_uds.c **** 
 347:.\Generated_Source\PSoC4/CYBLE_uds.c **** #ifdef CYBLE_UDS_CLIENT
 348:.\Generated_Source\PSoC4/CYBLE_uds.c ****     
 349:.\Generated_Source\PSoC4/CYBLE_uds.c **** /* Server's User Data Service characteristics GATT DB handles structure */
 350:.\Generated_Source\PSoC4/CYBLE_uds.c **** CYBLE_UDSC_T cyBle_udsc;
 351:.\Generated_Source\PSoC4/CYBLE_uds.c **** 
 352:.\Generated_Source\PSoC4/CYBLE_uds.c **** /* Internal storage for last request handle to check response */
 353:.\Generated_Source\PSoC4/CYBLE_uds.c **** static CYBLE_GATT_DB_ATTR_HANDLE_T cyBle_udscReqHandle;
ARM GAS  C:\Users\mohammed\AppData\Local\Temp\cceuH2T0.s 			page 9


 354:.\Generated_Source\PSoC4/CYBLE_uds.c ****     
 355:.\Generated_Source\PSoC4/CYBLE_uds.c **** /* Read Long Descriptors variables */
 356:.\Generated_Source\PSoC4/CYBLE_uds.c **** static uint8 * cyBle_udscRdLongBuffPtr = NULL;
 357:.\Generated_Source\PSoC4/CYBLE_uds.c **** static uint8 cyBle_udscRdLongBuffLen = 0u;
 358:.\Generated_Source\PSoC4/CYBLE_uds.c **** static uint8 cyBle_udscCurrLen = 0u;
 359:.\Generated_Source\PSoC4/CYBLE_uds.c ****     
 360:.\Generated_Source\PSoC4/CYBLE_uds.c **** #endif /* CYBLE_UDS_CLIENT */
 361:.\Generated_Source\PSoC4/CYBLE_uds.c **** 
 362:.\Generated_Source\PSoC4/CYBLE_uds.c **** 
 363:.\Generated_Source\PSoC4/CYBLE_uds.c **** /******************************************************************************
 364:.\Generated_Source\PSoC4/CYBLE_uds.c **** * Function Name: CyBle_UdsInit
 365:.\Generated_Source\PSoC4/CYBLE_uds.c **** ***************************************************************************//**
 366:.\Generated_Source\PSoC4/CYBLE_uds.c **** * 
 367:.\Generated_Source\PSoC4/CYBLE_uds.c **** *  Initializes the profile internals.
 368:.\Generated_Source\PSoC4/CYBLE_uds.c **** * 
 369:.\Generated_Source\PSoC4/CYBLE_uds.c **** * \return
 370:.\Generated_Source\PSoC4/CYBLE_uds.c **** *  None.
 371:.\Generated_Source\PSoC4/CYBLE_uds.c **** * 
 372:.\Generated_Source\PSoC4/CYBLE_uds.c **** ******************************************************************************/
 373:.\Generated_Source\PSoC4/CYBLE_uds.c **** void CyBle_UdsInit(void)
 374:.\Generated_Source\PSoC4/CYBLE_uds.c **** {
 104              		.loc 1 374 0
 105              		.cfi_startproc
 106 0000 80B5     		push	{r7, lr}
 107              		.cfi_def_cfa_offset 8
 108              		.cfi_offset 7, -8
 109              		.cfi_offset 14, -4
 110 0002 00AF     		add	r7, sp, #0
 111              		.cfi_def_cfa_register 7
 375:.\Generated_Source\PSoC4/CYBLE_uds.c **** #ifdef CYBLE_UDS_SERVER
 376:.\Generated_Source\PSoC4/CYBLE_uds.c ****     cyBle_udsFlag = 0u;
 112              		.loc 1 376 0
 113 0004 034B     		ldr	r3, .L2
 114 0006 0022     		mov	r2, #0
 115 0008 1A70     		strb	r2, [r3]
 377:.\Generated_Source\PSoC4/CYBLE_uds.c ****     cyBle_udssReqHandle = CYBLE_GATT_INVALID_ATTR_HANDLE_VALUE;
 116              		.loc 1 377 0
 117 000a 034B     		ldr	r3, .L2+4
 118 000c 0022     		mov	r2, #0
 119 000e 1A80     		strh	r2, [r3]
 378:.\Generated_Source\PSoC4/CYBLE_uds.c **** #endif /* CYBLE_UDS_SERVER */
 379:.\Generated_Source\PSoC4/CYBLE_uds.c **** #ifdef CYBLE_UDS_CLIENT
 380:.\Generated_Source\PSoC4/CYBLE_uds.c ****     if(cyBle_serverInfo[CYBLE_SRVI_UDS].range.startHandle == CYBLE_GATT_INVALID_ATTR_HANDLE_VALUE)
 381:.\Generated_Source\PSoC4/CYBLE_uds.c ****     {
 382:.\Generated_Source\PSoC4/CYBLE_uds.c ****         (void)memset(&cyBle_udsc, 0, sizeof(cyBle_udsc));
 383:.\Generated_Source\PSoC4/CYBLE_uds.c ****     }
 384:.\Generated_Source\PSoC4/CYBLE_uds.c ****     cyBle_udscReqHandle = CYBLE_GATT_INVALID_ATTR_HANDLE_VALUE;
 385:.\Generated_Source\PSoC4/CYBLE_uds.c **** #endif /* CYBLE_UDS_CLIENT */
 386:.\Generated_Source\PSoC4/CYBLE_uds.c **** }
 120              		.loc 1 386 0
 121 0010 BD46     		mov	sp, r7
 122              		@ sp needed
 123 0012 80BD     		pop	{r7, pc}
 124              	.L3:
 125              		.align	2
 126              	.L2:
 127 0014 00000000 		.word	cyBle_udsFlag
ARM GAS  C:\Users\mohammed\AppData\Local\Temp\cceuH2T0.s 			page 10


 128 0018 04000000 		.word	cyBle_udssReqHandle
 129              		.cfi_endproc
 130              	.LFE2:
 131              		.size	CyBle_UdsInit, .-CyBle_UdsInit
 132              		.section	.text.CyBle_UdsRegisterAttrCallback,"ax",%progbits
 133              		.align	2
 134              		.global	CyBle_UdsRegisterAttrCallback
 135              		.code	16
 136              		.thumb_func
 137              		.type	CyBle_UdsRegisterAttrCallback, %function
 138              	CyBle_UdsRegisterAttrCallback:
 139              	.LFB3:
 387:.\Generated_Source\PSoC4/CYBLE_uds.c **** 
 388:.\Generated_Source\PSoC4/CYBLE_uds.c **** 
 389:.\Generated_Source\PSoC4/CYBLE_uds.c **** /******************************************************************************
 390:.\Generated_Source\PSoC4/CYBLE_uds.c **** * Function Name: CyBle_UdsRegisterAttrCallback
 391:.\Generated_Source\PSoC4/CYBLE_uds.c **** ***************************************************************************//**
 392:.\Generated_Source\PSoC4/CYBLE_uds.c **** * 
 393:.\Generated_Source\PSoC4/CYBLE_uds.c **** *  Registers a callback function for service-specific attribute operations.
 394:.\Generated_Source\PSoC4/CYBLE_uds.c **** *  Service-specific write requests from a peer device will not be handled with
 395:.\Generated_Source\PSoC4/CYBLE_uds.c **** *  an unregistered callback function.
 396:.\Generated_Source\PSoC4/CYBLE_uds.c **** * 
 397:.\Generated_Source\PSoC4/CYBLE_uds.c **** *  \param callbackFunc: An application layer event callback function to receive 
 398:.\Generated_Source\PSoC4/CYBLE_uds.c **** *                        events from the BLE Component. The definition of 
 399:.\Generated_Source\PSoC4/CYBLE_uds.c **** *                        CYBLE_CALLBACK_T for UDS is: \n
 400:.\Generated_Source\PSoC4/CYBLE_uds.c **** *    typedef void (* CYBLE_CALLBACK_T) (uint32 eventCode, void *eventParam),
 401:.\Generated_Source\PSoC4/CYBLE_uds.c **** *    where:
 402:.\Generated_Source\PSoC4/CYBLE_uds.c **** *      * eventCode indicates the event that triggered this callback.
 403:.\Generated_Source\PSoC4/CYBLE_uds.c **** *      * eventParam contains the parameters corresponding to the current event.
 404:.\Generated_Source\PSoC4/CYBLE_uds.c **** *
 405:.\Generated_Source\PSoC4/CYBLE_uds.c **** * \return
 406:.\Generated_Source\PSoC4/CYBLE_uds.c **** *  None.
 407:.\Generated_Source\PSoC4/CYBLE_uds.c **** *
 408:.\Generated_Source\PSoC4/CYBLE_uds.c **** * \events
 409:.\Generated_Source\PSoC4/CYBLE_uds.c **** *  None.
 410:.\Generated_Source\PSoC4/CYBLE_uds.c **** *
 411:.\Generated_Source\PSoC4/CYBLE_uds.c **** * \sideeffect
 412:.\Generated_Source\PSoC4/CYBLE_uds.c **** *  The *eventParams in the callback function should not be used by the 
 413:.\Generated_Source\PSoC4/CYBLE_uds.c **** *  application once the callback function execution is finished. Otherwise this
 414:.\Generated_Source\PSoC4/CYBLE_uds.c **** *  data may become corrupted.
 415:.\Generated_Source\PSoC4/CYBLE_uds.c **** *  
 416:.\Generated_Source\PSoC4/CYBLE_uds.c **** ******************************************************************************/
 417:.\Generated_Source\PSoC4/CYBLE_uds.c **** void CyBle_UdsRegisterAttrCallback(CYBLE_CALLBACK_T callbackFunc)
 418:.\Generated_Source\PSoC4/CYBLE_uds.c **** {
 140              		.loc 1 418 0
 141              		.cfi_startproc
 142 0000 80B5     		push	{r7, lr}
 143              		.cfi_def_cfa_offset 8
 144              		.cfi_offset 7, -8
 145              		.cfi_offset 14, -4
 146 0002 82B0     		sub	sp, sp, #8
 147              		.cfi_def_cfa_offset 16
 148 0004 00AF     		add	r7, sp, #0
 149              		.cfi_def_cfa_register 7
 150 0006 7860     		str	r0, [r7, #4]
 419:.\Generated_Source\PSoC4/CYBLE_uds.c ****     CyBle_UdsApplCallback = callbackFunc;
 151              		.loc 1 419 0
ARM GAS  C:\Users\mohammed\AppData\Local\Temp\cceuH2T0.s 			page 11


 152 0008 024B     		ldr	r3, .L5
 153 000a 7A68     		ldr	r2, [r7, #4]
 154 000c 1A60     		str	r2, [r3]
 420:.\Generated_Source\PSoC4/CYBLE_uds.c **** }
 155              		.loc 1 420 0
 156 000e BD46     		mov	sp, r7
 157 0010 02B0     		add	sp, sp, #8
 158              		@ sp needed
 159 0012 80BD     		pop	{r7, pc}
 160              	.L6:
 161              		.align	2
 162              	.L5:
 163 0014 00000000 		.word	CyBle_UdsApplCallback
 164              		.cfi_endproc
 165              	.LFE3:
 166              		.size	CyBle_UdsRegisterAttrCallback, .-CyBle_UdsRegisterAttrCallback
 167              		.section	.text.CyBle_UdssSetCharacteristicValue,"ax",%progbits
 168              		.align	2
 169              		.global	CyBle_UdssSetCharacteristicValue
 170              		.code	16
 171              		.thumb_func
 172              		.type	CyBle_UdssSetCharacteristicValue, %function
 173              	CyBle_UdssSetCharacteristicValue:
 174              	.LFB4:
 421:.\Generated_Source\PSoC4/CYBLE_uds.c **** 
 422:.\Generated_Source\PSoC4/CYBLE_uds.c **** 
 423:.\Generated_Source\PSoC4/CYBLE_uds.c **** #ifdef CYBLE_UDS_SERVER
 424:.\Generated_Source\PSoC4/CYBLE_uds.c **** 
 425:.\Generated_Source\PSoC4/CYBLE_uds.c **** 
 426:.\Generated_Source\PSoC4/CYBLE_uds.c **** /******************************************************************************
 427:.\Generated_Source\PSoC4/CYBLE_uds.c **** * Function Name: CyBle_UdssSetCharacteristicValue
 428:.\Generated_Source\PSoC4/CYBLE_uds.c **** ***************************************************************************//**
 429:.\Generated_Source\PSoC4/CYBLE_uds.c **** * 
 430:.\Generated_Source\PSoC4/CYBLE_uds.c **** *  Sets the value of the characteristic, as identified by charIndex.
 431:.\Generated_Source\PSoC4/CYBLE_uds.c **** * 
 432:.\Generated_Source\PSoC4/CYBLE_uds.c **** *  \param charIndex:  The index of the service characteristic.
 433:.\Generated_Source\PSoC4/CYBLE_uds.c **** *  \param attrSize:   The size of the characteristic value attribute.
 434:.\Generated_Source\PSoC4/CYBLE_uds.c **** *  \param attrValue: The pointer to the characteristic value data that should be
 435:.\Generated_Source\PSoC4/CYBLE_uds.c **** *                     stored to the GATT database.
 436:.\Generated_Source\PSoC4/CYBLE_uds.c **** * 
 437:.\Generated_Source\PSoC4/CYBLE_uds.c **** * \return
 438:.\Generated_Source\PSoC4/CYBLE_uds.c **** *  A return value is of type CYBLE_API_RESULT_T.
 439:.\Generated_Source\PSoC4/CYBLE_uds.c **** *  * CYBLE_ERROR_OK - The request handled successfully.
 440:.\Generated_Source\PSoC4/CYBLE_uds.c **** *  * CYBLE_ERROR_INVALID_PARAMETER - Validation of the input parameter failed.
 441:.\Generated_Source\PSoC4/CYBLE_uds.c **** *  * CYBLE_ERROR_GATT_DB_INVALID_ATTR_HANDLE - An optional characteristic is absent
 442:.\Generated_Source\PSoC4/CYBLE_uds.c **** *
 443:.\Generated_Source\PSoC4/CYBLE_uds.c **** * \events
 444:.\Generated_Source\PSoC4/CYBLE_uds.c **** *  None
 445:.\Generated_Source\PSoC4/CYBLE_uds.c **** *
 446:.\Generated_Source\PSoC4/CYBLE_uds.c **** ******************************************************************************/
 447:.\Generated_Source\PSoC4/CYBLE_uds.c **** CYBLE_API_RESULT_T CyBle_UdssSetCharacteristicValue(CYBLE_UDS_CHAR_INDEX_T charIndex, uint8 attrSiz
 448:.\Generated_Source\PSoC4/CYBLE_uds.c **** {
 175              		.loc 1 448 0
 176              		.cfi_startproc
 177 0000 80B5     		push	{r7, lr}
 178              		.cfi_def_cfa_offset 8
 179              		.cfi_offset 7, -8
ARM GAS  C:\Users\mohammed\AppData\Local\Temp\cceuH2T0.s 			page 12


 180              		.cfi_offset 14, -4
 181 0002 86B0     		sub	sp, sp, #24
 182              		.cfi_def_cfa_offset 32
 183 0004 00AF     		add	r7, sp, #0
 184              		.cfi_def_cfa_register 7
 185 0006 3A60     		str	r2, [r7]
 186 0008 FB1D     		add	r3, r7, #7
 187 000a 021C     		add	r2, r0, #0
 188 000c 1A70     		strb	r2, [r3]
 189 000e BB1D     		add	r3, r7, #6
 190 0010 0A1C     		add	r2, r1, #0
 191 0012 1A70     		strb	r2, [r3]
 449:.\Generated_Source\PSoC4/CYBLE_uds.c ****     CYBLE_API_RESULT_T apiResult;
 450:.\Generated_Source\PSoC4/CYBLE_uds.c ****     
 451:.\Generated_Source\PSoC4/CYBLE_uds.c ****     /* Check parameters */
 452:.\Generated_Source\PSoC4/CYBLE_uds.c ****     if(charIndex >= CYBLE_UDS_CHAR_COUNT)
 192              		.loc 1 452 0
 193 0014 FB1D     		add	r3, r7, #7
 194 0016 1B78     		ldrb	r3, [r3]
 195 0018 1E2B     		cmp	r3, #30
 196 001a 04D9     		bls	.L8
 453:.\Generated_Source\PSoC4/CYBLE_uds.c ****     {
 454:.\Generated_Source\PSoC4/CYBLE_uds.c ****         apiResult = CYBLE_ERROR_INVALID_PARAMETER;
 197              		.loc 1 454 0
 198 001c 1623     		mov	r3, #22
 199 001e FB18     		add	r3, r7, r3
 200 0020 0122     		mov	r2, #1
 201 0022 1A80     		strh	r2, [r3]
 202 0024 32E0     		b	.L9
 203              	.L8:
 455:.\Generated_Source\PSoC4/CYBLE_uds.c ****     }
 456:.\Generated_Source\PSoC4/CYBLE_uds.c **** 	else if(CYBLE_GATT_INVALID_ATTR_HANDLE_VALUE == cyBle_udss.charInfo[charIndex].charHandle)
 204              		.loc 1 456 0
 205 0026 FB1D     		add	r3, r7, #7
 206 0028 1B78     		ldrb	r3, [r3]
 207 002a 1C4A     		ldr	r2, .L14
 208 002c 9B00     		lsl	r3, r3, #2
 209 002e D318     		add	r3, r2, r3
 210 0030 5B88     		ldrh	r3, [r3, #2]
 211 0032 002B     		cmp	r3, #0
 212 0034 04D1     		bne	.L10
 457:.\Generated_Source\PSoC4/CYBLE_uds.c ****     {
 458:.\Generated_Source\PSoC4/CYBLE_uds.c ****         apiResult = CYBLE_ERROR_GATT_DB_INVALID_ATTR_HANDLE;
 213              		.loc 1 458 0
 214 0036 1623     		mov	r3, #22
 215 0038 FB18     		add	r3, r7, r3
 216 003a 1322     		mov	r2, #19
 217 003c 1A80     		strh	r2, [r3]
 218 003e 25E0     		b	.L9
 219              	.L10:
 220              	.LBB2:
 459:.\Generated_Source\PSoC4/CYBLE_uds.c ****     } 
 460:.\Generated_Source\PSoC4/CYBLE_uds.c ****     else
 461:.\Generated_Source\PSoC4/CYBLE_uds.c ****     {
 462:.\Generated_Source\PSoC4/CYBLE_uds.c ****         CYBLE_GATT_HANDLE_VALUE_PAIR_T locHandleValuePair;
 463:.\Generated_Source\PSoC4/CYBLE_uds.c ****         
 464:.\Generated_Source\PSoC4/CYBLE_uds.c ****         /* Store characteristic value into GATT database */
ARM GAS  C:\Users\mohammed\AppData\Local\Temp\cceuH2T0.s 			page 13


 465:.\Generated_Source\PSoC4/CYBLE_uds.c ****         locHandleValuePair.attrHandle = cyBle_udss.charInfo[charIndex].charHandle;
 221              		.loc 1 465 0
 222 0040 FB1D     		add	r3, r7, #7
 223 0042 1B78     		ldrb	r3, [r3]
 224 0044 154A     		ldr	r2, .L14
 225 0046 9B00     		lsl	r3, r3, #2
 226 0048 D318     		add	r3, r2, r3
 227 004a 5A88     		ldrh	r2, [r3, #2]
 228 004c 0823     		mov	r3, #8
 229 004e FB18     		add	r3, r7, r3
 230 0050 1A81     		strh	r2, [r3, #8]
 466:.\Generated_Source\PSoC4/CYBLE_uds.c ****         locHandleValuePair.value.len = attrSize;
 231              		.loc 1 466 0
 232 0052 BB1D     		add	r3, r7, #6
 233 0054 1B78     		ldrb	r3, [r3]
 234 0056 9AB2     		uxth	r2, r3
 235 0058 0823     		mov	r3, #8
 236 005a FB18     		add	r3, r7, r3
 237 005c 9A80     		strh	r2, [r3, #4]
 467:.\Generated_Source\PSoC4/CYBLE_uds.c ****         locHandleValuePair.value.val = attrValue;
 238              		.loc 1 467 0
 239 005e 0823     		mov	r3, #8
 240 0060 FB18     		add	r3, r7, r3
 241 0062 3A68     		ldr	r2, [r7]
 242 0064 1A60     		str	r2, [r3]
 468:.\Generated_Source\PSoC4/CYBLE_uds.c ****         
 469:.\Generated_Source\PSoC4/CYBLE_uds.c ****         if(CYBLE_GATT_ERR_NONE != CyBle_GattsWriteAttributeValue(&locHandleValuePair,
 243              		.loc 1 469 0
 244 0066 0823     		mov	r3, #8
 245 0068 FB18     		add	r3, r7, r3
 246 006a 181C     		mov	r0, r3
 247 006c 0021     		mov	r1, #0
 248 006e 0022     		mov	r2, #0
 249 0070 0023     		mov	r3, #0
 250 0072 FFF7FEFF 		bl	CyBle_GattsWriteAttributeValue
 251 0076 031E     		sub	r3, r0, #0
 252 0078 04D0     		beq	.L11
 470:.\Generated_Source\PSoC4/CYBLE_uds.c ****                                     0u, NULL, CYBLE_GATT_DB_LOCALLY_INITIATED))
 471:.\Generated_Source\PSoC4/CYBLE_uds.c ****         {
 472:.\Generated_Source\PSoC4/CYBLE_uds.c ****             apiResult = CYBLE_ERROR_INVALID_PARAMETER;
 253              		.loc 1 472 0
 254 007a 1623     		mov	r3, #22
 255 007c FB18     		add	r3, r7, r3
 256 007e 0122     		mov	r2, #1
 257 0080 1A80     		strh	r2, [r3]
 258 0082 03E0     		b	.L9
 259              	.L11:
 473:.\Generated_Source\PSoC4/CYBLE_uds.c ****         }
 474:.\Generated_Source\PSoC4/CYBLE_uds.c ****         else
 475:.\Generated_Source\PSoC4/CYBLE_uds.c ****         {
 476:.\Generated_Source\PSoC4/CYBLE_uds.c ****             apiResult = CYBLE_ERROR_OK;
 260              		.loc 1 476 0
 261 0084 1623     		mov	r3, #22
 262 0086 FB18     		add	r3, r7, r3
 263 0088 0022     		mov	r2, #0
 264 008a 1A80     		strh	r2, [r3]
 265              	.L9:
ARM GAS  C:\Users\mohammed\AppData\Local\Temp\cceuH2T0.s 			page 14


 266              	.LBE2:
 477:.\Generated_Source\PSoC4/CYBLE_uds.c ****         }
 478:.\Generated_Source\PSoC4/CYBLE_uds.c ****     }
 479:.\Generated_Source\PSoC4/CYBLE_uds.c **** 
 480:.\Generated_Source\PSoC4/CYBLE_uds.c ****     return (apiResult);
 267              		.loc 1 480 0
 268 008c 1623     		mov	r3, #22
 269 008e FB18     		add	r3, r7, r3
 270 0090 1B88     		ldrh	r3, [r3]
 481:.\Generated_Source\PSoC4/CYBLE_uds.c **** }
 271              		.loc 1 481 0
 272 0092 181C     		mov	r0, r3
 273 0094 BD46     		mov	sp, r7
 274 0096 06B0     		add	sp, sp, #24
 275              		@ sp needed
 276 0098 80BD     		pop	{r7, pc}
 277              	.L15:
 278 009a C046     		.align	2
 279              	.L14:
 280 009c 00000000 		.word	cyBle_udss
 281              		.cfi_endproc
 282              	.LFE4:
 283              		.size	CyBle_UdssSetCharacteristicValue, .-CyBle_UdssSetCharacteristicValue
 284              		.section	.text.CyBle_UdssGetCharacteristicValue,"ax",%progbits
 285              		.align	2
 286              		.global	CyBle_UdssGetCharacteristicValue
 287              		.code	16
 288              		.thumb_func
 289              		.type	CyBle_UdssGetCharacteristicValue, %function
 290              	CyBle_UdssGetCharacteristicValue:
 291              	.LFB5:
 482:.\Generated_Source\PSoC4/CYBLE_uds.c **** 
 483:.\Generated_Source\PSoC4/CYBLE_uds.c **** 
 484:.\Generated_Source\PSoC4/CYBLE_uds.c **** /******************************************************************************
 485:.\Generated_Source\PSoC4/CYBLE_uds.c **** * Function Name: CyBle_UdssGetCharacteristicValue
 486:.\Generated_Source\PSoC4/CYBLE_uds.c **** ***************************************************************************//**
 487:.\Generated_Source\PSoC4/CYBLE_uds.c **** * 
 488:.\Generated_Source\PSoC4/CYBLE_uds.c **** *  Gets the value of the characteristic, as identified by charIndex.
 489:.\Generated_Source\PSoC4/CYBLE_uds.c **** * 
 490:.\Generated_Source\PSoC4/CYBLE_uds.c **** *  \param charIndex:  The index of the service characteristic.
 491:.\Generated_Source\PSoC4/CYBLE_uds.c **** *  \param attrSize:   The size of the characteristic value attribute.
 492:.\Generated_Source\PSoC4/CYBLE_uds.c **** *  \param attrValue: The pointer to the location where characteristic 
 493:.\Generated_Source\PSoC4/CYBLE_uds.c **** *                     value data should be stored.
 494:.\Generated_Source\PSoC4/CYBLE_uds.c **** * 
 495:.\Generated_Source\PSoC4/CYBLE_uds.c **** * \return
 496:.\Generated_Source\PSoC4/CYBLE_uds.c **** *  A return value is of type CYBLE_API_RESULT_T.
 497:.\Generated_Source\PSoC4/CYBLE_uds.c **** *   * CYBLE_ERROR_OK - The characteristic value was read successfully
 498:.\Generated_Source\PSoC4/CYBLE_uds.c **** *   * CYBLE_ERROR_INVALID_PARAMETER - Validation of the input parameter failed.
 499:.\Generated_Source\PSoC4/CYBLE_uds.c **** *   * CYBLE_ERROR_INVALID_OPERATION - Operation is invalid for this characteristic.
 500:.\Generated_Source\PSoC4/CYBLE_uds.c **** *   * CYBLE_ERROR_GATT_DB_INVALID_ATTR_HANDLE - A characteristic is absent.
 501:.\Generated_Source\PSoC4/CYBLE_uds.c **** *
 502:.\Generated_Source\PSoC4/CYBLE_uds.c **** * \events
 503:.\Generated_Source\PSoC4/CYBLE_uds.c **** *  None.
 504:.\Generated_Source\PSoC4/CYBLE_uds.c **** *
 505:.\Generated_Source\PSoC4/CYBLE_uds.c **** ******************************************************************************/
 506:.\Generated_Source\PSoC4/CYBLE_uds.c **** CYBLE_API_RESULT_T CyBle_UdssGetCharacteristicValue(CYBLE_UDS_CHAR_INDEX_T charIndex, uint8 attrSiz
 507:.\Generated_Source\PSoC4/CYBLE_uds.c **** {
ARM GAS  C:\Users\mohammed\AppData\Local\Temp\cceuH2T0.s 			page 15


 292              		.loc 1 507 0
 293              		.cfi_startproc
 294 0000 80B5     		push	{r7, lr}
 295              		.cfi_def_cfa_offset 8
 296              		.cfi_offset 7, -8
 297              		.cfi_offset 14, -4
 298 0002 86B0     		sub	sp, sp, #24
 299              		.cfi_def_cfa_offset 32
 300 0004 00AF     		add	r7, sp, #0
 301              		.cfi_def_cfa_register 7
 302 0006 3A60     		str	r2, [r7]
 303 0008 FB1D     		add	r3, r7, #7
 304 000a 021C     		add	r2, r0, #0
 305 000c 1A70     		strb	r2, [r3]
 306 000e BB1D     		add	r3, r7, #6
 307 0010 0A1C     		add	r2, r1, #0
 308 0012 1A70     		strb	r2, [r3]
 508:.\Generated_Source\PSoC4/CYBLE_uds.c ****     CYBLE_API_RESULT_T apiResult;
 509:.\Generated_Source\PSoC4/CYBLE_uds.c ****     
 510:.\Generated_Source\PSoC4/CYBLE_uds.c ****     /* Check parameters */
 511:.\Generated_Source\PSoC4/CYBLE_uds.c ****     if(charIndex >= CYBLE_UDS_CHAR_COUNT)
 309              		.loc 1 511 0
 310 0014 FB1D     		add	r3, r7, #7
 311 0016 1B78     		ldrb	r3, [r3]
 312 0018 1E2B     		cmp	r3, #30
 313 001a 04D9     		bls	.L17
 512:.\Generated_Source\PSoC4/CYBLE_uds.c ****     {
 513:.\Generated_Source\PSoC4/CYBLE_uds.c ****         apiResult = CYBLE_ERROR_INVALID_PARAMETER;
 314              		.loc 1 513 0
 315 001c 1623     		mov	r3, #22
 316 001e FB18     		add	r3, r7, r3
 317 0020 0122     		mov	r2, #1
 318 0022 1A80     		strh	r2, [r3]
 319 0024 31E0     		b	.L18
 320              	.L17:
 514:.\Generated_Source\PSoC4/CYBLE_uds.c ****     }
 515:.\Generated_Source\PSoC4/CYBLE_uds.c **** 	else if(CYBLE_GATT_INVALID_ATTR_HANDLE_VALUE == cyBle_udss.charInfo[charIndex].charHandle)
 321              		.loc 1 515 0
 322 0026 FB1D     		add	r3, r7, #7
 323 0028 1B78     		ldrb	r3, [r3]
 324 002a 1B4A     		ldr	r2, .L23
 325 002c 9B00     		lsl	r3, r3, #2
 326 002e D318     		add	r3, r2, r3
 327 0030 5B88     		ldrh	r3, [r3, #2]
 328 0032 002B     		cmp	r3, #0
 329 0034 04D1     		bne	.L19
 516:.\Generated_Source\PSoC4/CYBLE_uds.c ****     {
 517:.\Generated_Source\PSoC4/CYBLE_uds.c ****         apiResult = CYBLE_ERROR_GATT_DB_INVALID_ATTR_HANDLE;
 330              		.loc 1 517 0
 331 0036 1623     		mov	r3, #22
 332 0038 FB18     		add	r3, r7, r3
 333 003a 1322     		mov	r2, #19
 334 003c 1A80     		strh	r2, [r3]
 335 003e 24E0     		b	.L18
 336              	.L19:
 337              	.LBB3:
 518:.\Generated_Source\PSoC4/CYBLE_uds.c ****     }
ARM GAS  C:\Users\mohammed\AppData\Local\Temp\cceuH2T0.s 			page 16


 519:.\Generated_Source\PSoC4/CYBLE_uds.c ****     else
 520:.\Generated_Source\PSoC4/CYBLE_uds.c ****     {
 521:.\Generated_Source\PSoC4/CYBLE_uds.c ****         CYBLE_GATT_HANDLE_VALUE_PAIR_T locHandleValuePair;
 522:.\Generated_Source\PSoC4/CYBLE_uds.c ****         
 523:.\Generated_Source\PSoC4/CYBLE_uds.c ****         /* Get characteristic value from GATT database */
 524:.\Generated_Source\PSoC4/CYBLE_uds.c ****         locHandleValuePair.attrHandle = cyBle_udss.charInfo[charIndex].charHandle;
 338              		.loc 1 524 0
 339 0040 FB1D     		add	r3, r7, #7
 340 0042 1B78     		ldrb	r3, [r3]
 341 0044 144A     		ldr	r2, .L23
 342 0046 9B00     		lsl	r3, r3, #2
 343 0048 D318     		add	r3, r2, r3
 344 004a 5A88     		ldrh	r2, [r3, #2]
 345 004c 0823     		mov	r3, #8
 346 004e FB18     		add	r3, r7, r3
 347 0050 1A81     		strh	r2, [r3, #8]
 525:.\Generated_Source\PSoC4/CYBLE_uds.c ****         locHandleValuePair.value.len = attrSize;
 348              		.loc 1 525 0
 349 0052 BB1D     		add	r3, r7, #6
 350 0054 1B78     		ldrb	r3, [r3]
 351 0056 9AB2     		uxth	r2, r3
 352 0058 0823     		mov	r3, #8
 353 005a FB18     		add	r3, r7, r3
 354 005c 9A80     		strh	r2, [r3, #4]
 526:.\Generated_Source\PSoC4/CYBLE_uds.c ****         locHandleValuePair.value.val = attrValue;
 355              		.loc 1 526 0
 356 005e 0823     		mov	r3, #8
 357 0060 FB18     		add	r3, r7, r3
 358 0062 3A68     		ldr	r2, [r7]
 359 0064 1A60     		str	r2, [r3]
 527:.\Generated_Source\PSoC4/CYBLE_uds.c ****         
 528:.\Generated_Source\PSoC4/CYBLE_uds.c ****         if(CYBLE_GATT_ERR_NONE != CyBle_GattsReadAttributeValue(&locHandleValuePair,
 360              		.loc 1 528 0
 361 0066 0823     		mov	r3, #8
 362 0068 FB18     		add	r3, r7, r3
 363 006a 181C     		mov	r0, r3
 364 006c 0021     		mov	r1, #0
 365 006e 0022     		mov	r2, #0
 366 0070 FFF7FEFF 		bl	CyBle_GattsReadAttributeValue
 367 0074 031E     		sub	r3, r0, #0
 368 0076 04D0     		beq	.L20
 529:.\Generated_Source\PSoC4/CYBLE_uds.c ****                                     0u, CYBLE_GATT_DB_LOCALLY_INITIATED))
 530:.\Generated_Source\PSoC4/CYBLE_uds.c ****         {
 531:.\Generated_Source\PSoC4/CYBLE_uds.c ****             apiResult = CYBLE_ERROR_INVALID_PARAMETER;
 369              		.loc 1 531 0
 370 0078 1623     		mov	r3, #22
 371 007a FB18     		add	r3, r7, r3
 372 007c 0122     		mov	r2, #1
 373 007e 1A80     		strh	r2, [r3]
 374 0080 03E0     		b	.L18
 375              	.L20:
 532:.\Generated_Source\PSoC4/CYBLE_uds.c ****         }
 533:.\Generated_Source\PSoC4/CYBLE_uds.c ****         else
 534:.\Generated_Source\PSoC4/CYBLE_uds.c ****         {
 535:.\Generated_Source\PSoC4/CYBLE_uds.c ****             apiResult = CYBLE_ERROR_OK;
 376              		.loc 1 535 0
 377 0082 1623     		mov	r3, #22
ARM GAS  C:\Users\mohammed\AppData\Local\Temp\cceuH2T0.s 			page 17


 378 0084 FB18     		add	r3, r7, r3
 379 0086 0022     		mov	r2, #0
 380 0088 1A80     		strh	r2, [r3]
 381              	.L18:
 382              	.LBE3:
 536:.\Generated_Source\PSoC4/CYBLE_uds.c ****         }
 537:.\Generated_Source\PSoC4/CYBLE_uds.c ****     }
 538:.\Generated_Source\PSoC4/CYBLE_uds.c **** 
 539:.\Generated_Source\PSoC4/CYBLE_uds.c ****     return (apiResult);
 383              		.loc 1 539 0
 384 008a 1623     		mov	r3, #22
 385 008c FB18     		add	r3, r7, r3
 386 008e 1B88     		ldrh	r3, [r3]
 540:.\Generated_Source\PSoC4/CYBLE_uds.c **** }
 387              		.loc 1 540 0
 388 0090 181C     		mov	r0, r3
 389 0092 BD46     		mov	sp, r7
 390 0094 06B0     		add	sp, sp, #24
 391              		@ sp needed
 392 0096 80BD     		pop	{r7, pc}
 393              	.L24:
 394              		.align	2
 395              	.L23:
 396 0098 00000000 		.word	cyBle_udss
 397              		.cfi_endproc
 398              	.LFE5:
 399              		.size	CyBle_UdssGetCharacteristicValue, .-CyBle_UdssGetCharacteristicValue
 400              		.section	.text.CyBle_UdssGetCharacteristicDescriptor,"ax",%progbits
 401              		.align	2
 402              		.global	CyBle_UdssGetCharacteristicDescriptor
 403              		.code	16
 404              		.thumb_func
 405              		.type	CyBle_UdssGetCharacteristicDescriptor, %function
 406              	CyBle_UdssGetCharacteristicDescriptor:
 407              	.LFB6:
 541:.\Generated_Source\PSoC4/CYBLE_uds.c **** 
 542:.\Generated_Source\PSoC4/CYBLE_uds.c **** 
 543:.\Generated_Source\PSoC4/CYBLE_uds.c **** /******************************************************************************
 544:.\Generated_Source\PSoC4/CYBLE_uds.c **** * Function Name: CyBle_UdssGetCharacteristicDescriptor
 545:.\Generated_Source\PSoC4/CYBLE_uds.c **** ***************************************************************************//**
 546:.\Generated_Source\PSoC4/CYBLE_uds.c **** * 
 547:.\Generated_Source\PSoC4/CYBLE_uds.c **** *  Gets a characteristic descriptor of the specified characteristic.
 548:.\Generated_Source\PSoC4/CYBLE_uds.c **** * 
 549:.\Generated_Source\PSoC4/CYBLE_uds.c **** *  \param charIndex:  The index of the characteristic.
 550:.\Generated_Source\PSoC4/CYBLE_uds.c **** *  \param descrIndex: The index of the descriptor.
 551:.\Generated_Source\PSoC4/CYBLE_uds.c **** *  \param attrSize:   The size of the descriptor value attribute.
 552:.\Generated_Source\PSoC4/CYBLE_uds.c **** *  \param attrValue: The pointer to the location where characteristic descriptor value 
 553:.\Generated_Source\PSoC4/CYBLE_uds.c **** *                     data should be stored. 
 554:.\Generated_Source\PSoC4/CYBLE_uds.c **** * 
 555:.\Generated_Source\PSoC4/CYBLE_uds.c **** * \return
 556:.\Generated_Source\PSoC4/CYBLE_uds.c **** *  A return value is of type CYBLE_API_RESULT_T.
 557:.\Generated_Source\PSoC4/CYBLE_uds.c **** *   * CYBLE_ERROR_OK - Characteristic Descriptor value was read successfully
 558:.\Generated_Source\PSoC4/CYBLE_uds.c **** *   * CYBLE_ERROR_INVALID_PARAMETER - Validation of the input parameter failed.
 559:.\Generated_Source\PSoC4/CYBLE_uds.c **** *   * CYBLE_ERROR_GATT_DB_INVALID_ATTR_HANDLE - A characteristic is absent.
 560:.\Generated_Source\PSoC4/CYBLE_uds.c **** *
 561:.\Generated_Source\PSoC4/CYBLE_uds.c **** * \events
 562:.\Generated_Source\PSoC4/CYBLE_uds.c **** *  None.
ARM GAS  C:\Users\mohammed\AppData\Local\Temp\cceuH2T0.s 			page 18


 563:.\Generated_Source\PSoC4/CYBLE_uds.c **** *
 564:.\Generated_Source\PSoC4/CYBLE_uds.c **** ******************************************************************************/
 565:.\Generated_Source\PSoC4/CYBLE_uds.c **** CYBLE_API_RESULT_T CyBle_UdssGetCharacteristicDescriptor(CYBLE_UDS_CHAR_INDEX_T charIndex, 
 566:.\Generated_Source\PSoC4/CYBLE_uds.c ****                                                          CYBLE_UDS_DESCR_INDEX_T descrIndex,
 567:.\Generated_Source\PSoC4/CYBLE_uds.c ****                                                          uint8 attrSize, uint8 *attrValue)
 568:.\Generated_Source\PSoC4/CYBLE_uds.c **** {
 408              		.loc 1 568 0
 409              		.cfi_startproc
 410 0000 90B5     		push	{r4, r7, lr}
 411              		.cfi_def_cfa_offset 12
 412              		.cfi_offset 4, -12
 413              		.cfi_offset 7, -8
 414              		.cfi_offset 14, -4
 415 0002 87B0     		sub	sp, sp, #28
 416              		.cfi_def_cfa_offset 40
 417 0004 00AF     		add	r7, sp, #0
 418              		.cfi_def_cfa_register 7
 419 0006 041C     		mov	r4, r0
 420 0008 081C     		mov	r0, r1
 421 000a 111C     		mov	r1, r2
 422 000c 3B60     		str	r3, [r7]
 423 000e FB1D     		add	r3, r7, #7
 424 0010 221C     		add	r2, r4, #0
 425 0012 1A70     		strb	r2, [r3]
 426 0014 BB1D     		add	r3, r7, #6
 427 0016 021C     		add	r2, r0, #0
 428 0018 1A70     		strb	r2, [r3]
 429 001a 7B1D     		add	r3, r7, #5
 430 001c 0A1C     		add	r2, r1, #0
 431 001e 1A70     		strb	r2, [r3]
 569:.\Generated_Source\PSoC4/CYBLE_uds.c ****     CYBLE_API_RESULT_T apiResult;
 570:.\Generated_Source\PSoC4/CYBLE_uds.c ****     
 571:.\Generated_Source\PSoC4/CYBLE_uds.c ****     /* Check parameters */
 572:.\Generated_Source\PSoC4/CYBLE_uds.c ****     if((charIndex >= CYBLE_UDS_CHAR_COUNT) || (descrIndex >= CYBLE_UDS_DESCR_COUNT))
 432              		.loc 1 572 0
 433 0020 FB1D     		add	r3, r7, #7
 434 0022 1B78     		ldrb	r3, [r3]
 435 0024 1E2B     		cmp	r3, #30
 436 0026 03D8     		bhi	.L26
 437              		.loc 1 572 0 is_stmt 0 discriminator 1
 438 0028 BB1D     		add	r3, r7, #6
 439 002a 1B78     		ldrb	r3, [r3]
 440 002c 002B     		cmp	r3, #0
 441 002e 04D0     		beq	.L27
 442              	.L26:
 573:.\Generated_Source\PSoC4/CYBLE_uds.c ****     {
 574:.\Generated_Source\PSoC4/CYBLE_uds.c ****         apiResult = CYBLE_ERROR_INVALID_PARAMETER;
 443              		.loc 1 574 0 is_stmt 1
 444 0030 1623     		mov	r3, #22
 445 0032 FB18     		add	r3, r7, r3
 446 0034 0122     		mov	r2, #1
 447 0036 1A80     		strh	r2, [r3]
 448 0038 35E0     		b	.L28
 449              	.L27:
 575:.\Generated_Source\PSoC4/CYBLE_uds.c ****     }
 576:.\Generated_Source\PSoC4/CYBLE_uds.c ****     else if(CYBLE_GATT_INVALID_ATTR_HANDLE_VALUE == cyBle_udss.charInfo[charIndex].descrHandle[CYBL
 450              		.loc 1 576 0
ARM GAS  C:\Users\mohammed\AppData\Local\Temp\cceuH2T0.s 			page 19


 451 003a FB1D     		add	r3, r7, #7
 452 003c 1B78     		ldrb	r3, [r3]
 453 003e 1D4A     		ldr	r2, .L33
 454 0040 9B00     		lsl	r3, r3, #2
 455 0042 D318     		add	r3, r2, r3
 456 0044 9B88     		ldrh	r3, [r3, #4]
 457 0046 002B     		cmp	r3, #0
 458 0048 04D1     		bne	.L29
 577:.\Generated_Source\PSoC4/CYBLE_uds.c ****     {
 578:.\Generated_Source\PSoC4/CYBLE_uds.c ****         apiResult = CYBLE_ERROR_GATT_DB_INVALID_ATTR_HANDLE;
 459              		.loc 1 578 0
 460 004a 1623     		mov	r3, #22
 461 004c FB18     		add	r3, r7, r3
 462 004e 1322     		mov	r2, #19
 463 0050 1A80     		strh	r2, [r3]
 464 0052 28E0     		b	.L28
 465              	.L29:
 466              	.LBB4:
 579:.\Generated_Source\PSoC4/CYBLE_uds.c ****     }
 580:.\Generated_Source\PSoC4/CYBLE_uds.c ****     else
 581:.\Generated_Source\PSoC4/CYBLE_uds.c ****     {
 582:.\Generated_Source\PSoC4/CYBLE_uds.c ****         CYBLE_GATT_HANDLE_VALUE_PAIR_T locHandleValuePair;
 583:.\Generated_Source\PSoC4/CYBLE_uds.c ****         
 584:.\Generated_Source\PSoC4/CYBLE_uds.c ****         /* Get data from database */
 585:.\Generated_Source\PSoC4/CYBLE_uds.c ****         locHandleValuePair.attrHandle = cyBle_udss.charInfo[charIndex].descrHandle[descrIndex];
 467              		.loc 1 585 0
 468 0054 FB1D     		add	r3, r7, #7
 469 0056 1978     		ldrb	r1, [r3]
 470 0058 BB1D     		add	r3, r7, #6
 471 005a 1B78     		ldrb	r3, [r3]
 472 005c 154A     		ldr	r2, .L33
 473 005e 4900     		lsl	r1, r1, #1
 474 0060 CB18     		add	r3, r1, r3
 475 0062 5B00     		lsl	r3, r3, #1
 476 0064 D318     		add	r3, r2, r3
 477 0066 9A88     		ldrh	r2, [r3, #4]
 478 0068 0823     		mov	r3, #8
 479 006a FB18     		add	r3, r7, r3
 480 006c 1A81     		strh	r2, [r3, #8]
 586:.\Generated_Source\PSoC4/CYBLE_uds.c ****         locHandleValuePair.value.len = attrSize;
 481              		.loc 1 586 0
 482 006e 7B1D     		add	r3, r7, #5
 483 0070 1B78     		ldrb	r3, [r3]
 484 0072 9AB2     		uxth	r2, r3
 485 0074 0823     		mov	r3, #8
 486 0076 FB18     		add	r3, r7, r3
 487 0078 9A80     		strh	r2, [r3, #4]
 587:.\Generated_Source\PSoC4/CYBLE_uds.c ****         locHandleValuePair.value.val = attrValue;
 488              		.loc 1 587 0
 489 007a 0823     		mov	r3, #8
 490 007c FB18     		add	r3, r7, r3
 491 007e 3A68     		ldr	r2, [r7]
 492 0080 1A60     		str	r2, [r3]
 588:.\Generated_Source\PSoC4/CYBLE_uds.c **** 
 589:.\Generated_Source\PSoC4/CYBLE_uds.c ****         if(CYBLE_GATT_ERR_NONE != CyBle_GattsReadAttributeValue(&locHandleValuePair,
 493              		.loc 1 589 0
 494 0082 0823     		mov	r3, #8
ARM GAS  C:\Users\mohammed\AppData\Local\Temp\cceuH2T0.s 			page 20


 495 0084 FB18     		add	r3, r7, r3
 496 0086 181C     		mov	r0, r3
 497 0088 0021     		mov	r1, #0
 498 008a 0022     		mov	r2, #0
 499 008c FFF7FEFF 		bl	CyBle_GattsReadAttributeValue
 500 0090 031E     		sub	r3, r0, #0
 501 0092 04D0     		beq	.L30
 590:.\Generated_Source\PSoC4/CYBLE_uds.c ****                                     0u, CYBLE_GATT_DB_LOCALLY_INITIATED))
 591:.\Generated_Source\PSoC4/CYBLE_uds.c ****         {
 592:.\Generated_Source\PSoC4/CYBLE_uds.c ****             apiResult = CYBLE_ERROR_INVALID_PARAMETER;
 502              		.loc 1 592 0
 503 0094 1623     		mov	r3, #22
 504 0096 FB18     		add	r3, r7, r3
 505 0098 0122     		mov	r2, #1
 506 009a 1A80     		strh	r2, [r3]
 507 009c 03E0     		b	.L28
 508              	.L30:
 593:.\Generated_Source\PSoC4/CYBLE_uds.c ****         }
 594:.\Generated_Source\PSoC4/CYBLE_uds.c ****         else
 595:.\Generated_Source\PSoC4/CYBLE_uds.c ****         {
 596:.\Generated_Source\PSoC4/CYBLE_uds.c ****             apiResult = CYBLE_ERROR_OK;
 509              		.loc 1 596 0
 510 009e 1623     		mov	r3, #22
 511 00a0 FB18     		add	r3, r7, r3
 512 00a2 0022     		mov	r2, #0
 513 00a4 1A80     		strh	r2, [r3]
 514              	.L28:
 515              	.LBE4:
 597:.\Generated_Source\PSoC4/CYBLE_uds.c ****         }
 598:.\Generated_Source\PSoC4/CYBLE_uds.c ****     }
 599:.\Generated_Source\PSoC4/CYBLE_uds.c **** 
 600:.\Generated_Source\PSoC4/CYBLE_uds.c ****     return (apiResult);
 516              		.loc 1 600 0
 517 00a6 1623     		mov	r3, #22
 518 00a8 FB18     		add	r3, r7, r3
 519 00aa 1B88     		ldrh	r3, [r3]
 601:.\Generated_Source\PSoC4/CYBLE_uds.c **** }
 520              		.loc 1 601 0
 521 00ac 181C     		mov	r0, r3
 522 00ae BD46     		mov	sp, r7
 523 00b0 07B0     		add	sp, sp, #28
 524              		@ sp needed
 525 00b2 90BD     		pop	{r4, r7, pc}
 526              	.L34:
 527              		.align	2
 528              	.L33:
 529 00b4 00000000 		.word	cyBle_udss
 530              		.cfi_endproc
 531              	.LFE6:
 532              		.size	CyBle_UdssGetCharacteristicDescriptor, .-CyBle_UdssGetCharacteristicDescriptor
 533              		.section	.text.CyBle_UdssSendNotification,"ax",%progbits
 534              		.align	2
 535              		.global	CyBle_UdssSendNotification
 536              		.code	16
 537              		.thumb_func
 538              		.type	CyBle_UdssSendNotification, %function
 539              	CyBle_UdssSendNotification:
ARM GAS  C:\Users\mohammed\AppData\Local\Temp\cceuH2T0.s 			page 21


 540              	.LFB7:
 602:.\Generated_Source\PSoC4/CYBLE_uds.c **** 
 603:.\Generated_Source\PSoC4/CYBLE_uds.c **** 
 604:.\Generated_Source\PSoC4/CYBLE_uds.c **** /******************************************************************************
 605:.\Generated_Source\PSoC4/CYBLE_uds.c **** * Function Name: CyBle_UdssSendNotification
 606:.\Generated_Source\PSoC4/CYBLE_uds.c **** ***************************************************************************//**
 607:.\Generated_Source\PSoC4/CYBLE_uds.c **** * 
 608:.\Generated_Source\PSoC4/CYBLE_uds.c **** *  Sends a notification of the specified characteristic value, as identified by
 609:.\Generated_Source\PSoC4/CYBLE_uds.c **** *  the charIndex.
 610:.\Generated_Source\PSoC4/CYBLE_uds.c **** * 
 611:.\Generated_Source\PSoC4/CYBLE_uds.c **** *  \param connHandle: The connection handle which consist of the device ID and ATT 
 612:.\Generated_Source\PSoC4/CYBLE_uds.c **** *                     connection ID.
 613:.\Generated_Source\PSoC4/CYBLE_uds.c **** *  \param charIndex:  The index of the service characteristic.
 614:.\Generated_Source\PSoC4/CYBLE_uds.c **** *  \param attrSize:   The size of the characteristic value attribute.
 615:.\Generated_Source\PSoC4/CYBLE_uds.c **** *  \param attrValue: The pointer to the characteristic value data
 616:.\Generated_Source\PSoC4/CYBLE_uds.c **** *                     that should be sent to the client device. 
 617:.\Generated_Source\PSoC4/CYBLE_uds.c **** * 
 618:.\Generated_Source\PSoC4/CYBLE_uds.c **** * \return
 619:.\Generated_Source\PSoC4/CYBLE_uds.c **** *  A return value is of type CYBLE_API_RESULT_T.
 620:.\Generated_Source\PSoC4/CYBLE_uds.c **** *   * CYBLE_ERROR_OK - The request handled successfully.
 621:.\Generated_Source\PSoC4/CYBLE_uds.c **** *   * CYBLE_ERROR_INVALID_PARAMETER - Validation of the input parameter failed.
 622:.\Generated_Source\PSoC4/CYBLE_uds.c **** *   * CYBLE_ERROR_INVALID_OPERATION - Operation is invalid for this 
 623:.\Generated_Source\PSoC4/CYBLE_uds.c **** *                                     characteristic
 624:.\Generated_Source\PSoC4/CYBLE_uds.c **** *   * CYBLE_ERROR_GATT_DB_INVALID_ATTR_HANDLE - An optional characteristic is absent.
 625:.\Generated_Source\PSoC4/CYBLE_uds.c **** *   * CYBLE_ERROR_INVALID_STATE - Connection with the client is not established.
 626:.\Generated_Source\PSoC4/CYBLE_uds.c **** *   * CYBLE_ERROR_MEMORY_ALLOCATION_FAILED - Memory allocation failed.
 627:.\Generated_Source\PSoC4/CYBLE_uds.c **** *   * CYBLE_ERROR_NTF_DISABLED - Notification is not enabled by the client.
 628:.\Generated_Source\PSoC4/CYBLE_uds.c **** *
 629:.\Generated_Source\PSoC4/CYBLE_uds.c **** * \events
 630:.\Generated_Source\PSoC4/CYBLE_uds.c **** *  None.
 631:.\Generated_Source\PSoC4/CYBLE_uds.c **** *
 632:.\Generated_Source\PSoC4/CYBLE_uds.c **** ******************************************************************************/
 633:.\Generated_Source\PSoC4/CYBLE_uds.c **** CYBLE_API_RESULT_T CyBle_UdssSendNotification(CYBLE_CONN_HANDLE_T connHandle,
 634:.\Generated_Source\PSoC4/CYBLE_uds.c ****                     CYBLE_UDS_CHAR_INDEX_T charIndex, uint8 attrSize, uint8 *attrValue)
 635:.\Generated_Source\PSoC4/CYBLE_uds.c **** {
 541              		.loc 1 635 0
 542              		.cfi_startproc
 543 0000 90B5     		push	{r4, r7, lr}
 544              		.cfi_def_cfa_offset 12
 545              		.cfi_offset 4, -12
 546              		.cfi_offset 7, -8
 547              		.cfi_offset 14, -4
 548 0002 89B0     		sub	sp, sp, #36
 549              		.cfi_def_cfa_offset 48
 550 0004 00AF     		add	r7, sp, #0
 551              		.cfi_def_cfa_register 7
 552 0006 0C24     		mov	r4, #12
 553 0008 3C19     		add	r4, r7, r4
 554 000a 2080     		strh	r0, [r4]
 555 000c 081C     		mov	r0, r1
 556 000e 111C     		mov	r1, r2
 557 0010 7B60     		str	r3, [r7, #4]
 558 0012 0B23     		mov	r3, #11
 559 0014 FB18     		add	r3, r7, r3
 560 0016 021C     		add	r2, r0, #0
 561 0018 1A70     		strb	r2, [r3]
 562 001a 0A23     		mov	r3, #10
ARM GAS  C:\Users\mohammed\AppData\Local\Temp\cceuH2T0.s 			page 22


 563 001c FB18     		add	r3, r7, r3
 564 001e 0A1C     		add	r2, r1, #0
 565 0020 1A70     		strb	r2, [r3]
 636:.\Generated_Source\PSoC4/CYBLE_uds.c ****     CYBLE_API_RESULT_T apiResult;
 637:.\Generated_Source\PSoC4/CYBLE_uds.c ****     
 638:.\Generated_Source\PSoC4/CYBLE_uds.c ****     /* Send Notification if it is enabled and connected */
 639:.\Generated_Source\PSoC4/CYBLE_uds.c ****     if(CYBLE_STATE_CONNECTED != CyBle_GetState())
 566              		.loc 1 639 0
 567 0022 354B     		ldr	r3, .L42
 568 0024 1B78     		ldrb	r3, [r3]
 569 0026 022B     		cmp	r3, #2
 570 0028 04D0     		beq	.L36
 640:.\Generated_Source\PSoC4/CYBLE_uds.c ****     {
 641:.\Generated_Source\PSoC4/CYBLE_uds.c ****         apiResult = CYBLE_ERROR_INVALID_STATE;
 571              		.loc 1 641 0
 572 002a 1E23     		mov	r3, #30
 573 002c FB18     		add	r3, r7, r3
 574 002e 0422     		mov	r2, #4
 575 0030 FF32     		add	r2, r2, #255
 576 0032 1A80     		strh	r2, [r3]
 577              	.L36:
 642:.\Generated_Source\PSoC4/CYBLE_uds.c ****     }
 643:.\Generated_Source\PSoC4/CYBLE_uds.c ****     if(charIndex >= CYBLE_UDS_CHAR_COUNT)
 578              		.loc 1 643 0
 579 0034 0B23     		mov	r3, #11
 580 0036 FB18     		add	r3, r7, r3
 581 0038 1B78     		ldrb	r3, [r3]
 582 003a 1E2B     		cmp	r3, #30
 583 003c 04D9     		bls	.L37
 644:.\Generated_Source\PSoC4/CYBLE_uds.c ****     {
 645:.\Generated_Source\PSoC4/CYBLE_uds.c ****         apiResult = CYBLE_ERROR_INVALID_PARAMETER;
 584              		.loc 1 645 0
 585 003e 1E23     		mov	r3, #30
 586 0040 FB18     		add	r3, r7, r3
 587 0042 0122     		mov	r2, #1
 588 0044 1A80     		strh	r2, [r3]
 589 0046 4FE0     		b	.L38
 590              	.L37:
 646:.\Generated_Source\PSoC4/CYBLE_uds.c ****     }
 647:.\Generated_Source\PSoC4/CYBLE_uds.c ****     else if(CYBLE_GATT_INVALID_ATTR_HANDLE_VALUE == cyBle_udss.charInfo[charIndex].descrHandle[CYBL
 591              		.loc 1 647 0
 592 0048 0B23     		mov	r3, #11
 593 004a FB18     		add	r3, r7, r3
 594 004c 1B78     		ldrb	r3, [r3]
 595 004e 2B4A     		ldr	r2, .L42+4
 596 0050 9B00     		lsl	r3, r3, #2
 597 0052 D318     		add	r3, r2, r3
 598 0054 9B88     		ldrh	r3, [r3, #4]
 599 0056 002B     		cmp	r3, #0
 600 0058 04D1     		bne	.L39
 648:.\Generated_Source\PSoC4/CYBLE_uds.c ****     {
 649:.\Generated_Source\PSoC4/CYBLE_uds.c **** 		apiResult = CYBLE_ERROR_GATT_DB_INVALID_ATTR_HANDLE;
 601              		.loc 1 649 0
 602 005a 1E23     		mov	r3, #30
 603 005c FB18     		add	r3, r7, r3
 604 005e 1322     		mov	r2, #19
 605 0060 1A80     		strh	r2, [r3]
ARM GAS  C:\Users\mohammed\AppData\Local\Temp\cceuH2T0.s 			page 23


 606 0062 41E0     		b	.L38
 607              	.L39:
 650:.\Generated_Source\PSoC4/CYBLE_uds.c **** 	}
 651:.\Generated_Source\PSoC4/CYBLE_uds.c ****     else if(!CYBLE_IS_NOTIFICATION_ENABLED(cyBle_udss.charInfo[charIndex].descrHandle[CYBLE_UDS_CCC
 608              		.loc 1 651 0
 609 0064 0B23     		mov	r3, #11
 610 0066 FB18     		add	r3, r7, r3
 611 0068 1B78     		ldrb	r3, [r3]
 612 006a 244A     		ldr	r2, .L42+4
 613 006c 9B00     		lsl	r3, r3, #2
 614 006e D318     		add	r3, r2, r3
 615 0070 9B88     		ldrh	r3, [r3, #4]
 616 0072 5A1E     		sub	r2, r3, #1
 617 0074 2249     		ldr	r1, .L42+8
 618 0076 131C     		mov	r3, r2
 619 0078 9B00     		lsl	r3, r3, #2
 620 007a 9B18     		add	r3, r3, r2
 621 007c 9B00     		lsl	r3, r3, #2
 622 007e CB18     		add	r3, r1, r3
 623 0080 0833     		add	r3, r3, #8
 624 0082 9B68     		ldr	r3, [r3, #8]
 625 0084 5B68     		ldr	r3, [r3, #4]
 626 0086 181C     		mov	r0, r3
 627 0088 FFF7FEFF 		bl	CyBle_Get16ByPtr
 628 008c 031C     		mov	r3, r0
 629 008e 1A1C     		mov	r2, r3
 630 0090 0123     		mov	r3, #1
 631 0092 1340     		and	r3, r2
 632 0094 9BB2     		uxth	r3, r3
 633 0096 002B     		cmp	r3, #0
 634 0098 05D1     		bne	.L40
 652:.\Generated_Source\PSoC4/CYBLE_uds.c ****     {
 653:.\Generated_Source\PSoC4/CYBLE_uds.c ****         apiResult = CYBLE_ERROR_NTF_DISABLED;
 635              		.loc 1 653 0
 636 009a 1E23     		mov	r3, #30
 637 009c FB18     		add	r3, r7, r3
 638 009e 8022     		mov	r2, #128
 639 00a0 5200     		lsl	r2, r2, #1
 640 00a2 1A80     		strh	r2, [r3]
 641 00a4 20E0     		b	.L38
 642              	.L40:
 643              	.LBB5:
 654:.\Generated_Source\PSoC4/CYBLE_uds.c ****     }
 655:.\Generated_Source\PSoC4/CYBLE_uds.c ****     else
 656:.\Generated_Source\PSoC4/CYBLE_uds.c ****     {
 657:.\Generated_Source\PSoC4/CYBLE_uds.c ****         CYBLE_GATTS_HANDLE_VALUE_NTF_T ntfParam;
 658:.\Generated_Source\PSoC4/CYBLE_uds.c ****         
 659:.\Generated_Source\PSoC4/CYBLE_uds.c ****         /* Fill all fields of write request structure ... */
 660:.\Generated_Source\PSoC4/CYBLE_uds.c ****         ntfParam.attrHandle = cyBle_udss.charInfo[charIndex].charHandle; 
 644              		.loc 1 660 0
 645 00a6 0B23     		mov	r3, #11
 646 00a8 FB18     		add	r3, r7, r3
 647 00aa 1B78     		ldrb	r3, [r3]
 648 00ac 134A     		ldr	r2, .L42+4
 649 00ae 9B00     		lsl	r3, r3, #2
 650 00b0 D318     		add	r3, r2, r3
 651 00b2 5A88     		ldrh	r2, [r3, #2]
ARM GAS  C:\Users\mohammed\AppData\Local\Temp\cceuH2T0.s 			page 24


 652 00b4 1023     		mov	r3, #16
 653 00b6 FB18     		add	r3, r7, r3
 654 00b8 1A81     		strh	r2, [r3, #8]
 661:.\Generated_Source\PSoC4/CYBLE_uds.c ****         ntfParam.value.val = attrValue;
 655              		.loc 1 661 0
 656 00ba 1023     		mov	r3, #16
 657 00bc FB18     		add	r3, r7, r3
 658 00be 7A68     		ldr	r2, [r7, #4]
 659 00c0 1A60     		str	r2, [r3]
 662:.\Generated_Source\PSoC4/CYBLE_uds.c ****         ntfParam.value.len = attrSize;
 660              		.loc 1 662 0
 661 00c2 0A23     		mov	r3, #10
 662 00c4 FB18     		add	r3, r7, r3
 663 00c6 1B78     		ldrb	r3, [r3]
 664 00c8 9AB2     		uxth	r2, r3
 665 00ca 1023     		mov	r3, #16
 666 00cc FB18     		add	r3, r7, r3
 667 00ce 9A80     		strh	r2, [r3, #4]
 663:.\Generated_Source\PSoC4/CYBLE_uds.c ****         
 664:.\Generated_Source\PSoC4/CYBLE_uds.c ****         /* Send notification to client using previously filled structure */
 665:.\Generated_Source\PSoC4/CYBLE_uds.c ****         apiResult = CyBle_GattsNotification(connHandle, &ntfParam);
 668              		.loc 1 665 0
 669 00d0 1E23     		mov	r3, #30
 670 00d2 FC18     		add	r4, r7, r3
 671 00d4 0C23     		mov	r3, #12
 672 00d6 FB18     		add	r3, r7, r3
 673 00d8 1022     		mov	r2, #16
 674 00da BA18     		add	r2, r7, r2
 675 00dc 1868     		ldr	r0, [r3]
 676 00de 111C     		mov	r1, r2
 677 00e0 FFF7FEFF 		bl	CyBle_GattsNotification
 678 00e4 031C     		mov	r3, r0
 679 00e6 2380     		strh	r3, [r4]
 680              	.L38:
 681              	.LBE5:
 666:.\Generated_Source\PSoC4/CYBLE_uds.c ****     }
 667:.\Generated_Source\PSoC4/CYBLE_uds.c **** 
 668:.\Generated_Source\PSoC4/CYBLE_uds.c ****     return (apiResult);
 682              		.loc 1 668 0
 683 00e8 1E23     		mov	r3, #30
 684 00ea FB18     		add	r3, r7, r3
 685 00ec 1B88     		ldrh	r3, [r3]
 669:.\Generated_Source\PSoC4/CYBLE_uds.c **** }
 686              		.loc 1 669 0
 687 00ee 181C     		mov	r0, r3
 688 00f0 BD46     		mov	sp, r7
 689 00f2 09B0     		add	sp, sp, #36
 690              		@ sp needed
 691 00f4 90BD     		pop	{r4, r7, pc}
 692              	.L43:
 693 00f6 C046     		.align	2
 694              	.L42:
 695 00f8 00000000 		.word	cyBle_state
 696 00fc 00000000 		.word	cyBle_udss
 697 0100 00000000 		.word	cyBle_gattDB
 698              		.cfi_endproc
 699              	.LFE7:
ARM GAS  C:\Users\mohammed\AppData\Local\Temp\cceuH2T0.s 			page 25


 700              		.size	CyBle_UdssSendNotification, .-CyBle_UdssSendNotification
 701              		.section	.text.CyBle_UdssSendIndication,"ax",%progbits
 702              		.align	2
 703              		.global	CyBle_UdssSendIndication
 704              		.code	16
 705              		.thumb_func
 706              		.type	CyBle_UdssSendIndication, %function
 707              	CyBle_UdssSendIndication:
 708              	.LFB8:
 670:.\Generated_Source\PSoC4/CYBLE_uds.c **** 
 671:.\Generated_Source\PSoC4/CYBLE_uds.c **** 
 672:.\Generated_Source\PSoC4/CYBLE_uds.c **** /******************************************************************************
 673:.\Generated_Source\PSoC4/CYBLE_uds.c **** * Function Name: CyBle_UdssSendIndication
 674:.\Generated_Source\PSoC4/CYBLE_uds.c **** ***************************************************************************//**
 675:.\Generated_Source\PSoC4/CYBLE_uds.c **** * 
 676:.\Generated_Source\PSoC4/CYBLE_uds.c **** *  Sends an indication of the specified characteristic value, as identified by
 677:.\Generated_Source\PSoC4/CYBLE_uds.c **** *  the charIndex.
 678:.\Generated_Source\PSoC4/CYBLE_uds.c **** * 
 679:.\Generated_Source\PSoC4/CYBLE_uds.c **** *  \param connHandle: The connection handle which consist of the device ID and ATT 
 680:.\Generated_Source\PSoC4/CYBLE_uds.c **** *                     connection ID.
 681:.\Generated_Source\PSoC4/CYBLE_uds.c **** *  \param charIndex:  The index of the service characteristic.
 682:.\Generated_Source\PSoC4/CYBLE_uds.c **** *  \param attrSize:   The size of the characteristic value attribute.
 683:.\Generated_Source\PSoC4/CYBLE_uds.c **** *  \param attrValue: The pointer to the characteristic value data that should be sent 
 684:.\Generated_Source\PSoC4/CYBLE_uds.c **** *                     to the client device.
 685:.\Generated_Source\PSoC4/CYBLE_uds.c **** * 
 686:.\Generated_Source\PSoC4/CYBLE_uds.c **** * \return
 687:.\Generated_Source\PSoC4/CYBLE_uds.c **** *  A return value is of type CYBLE_API_RESULT_T.
 688:.\Generated_Source\PSoC4/CYBLE_uds.c **** *   * CYBLE_ERROR_OK - The request handled successfully.
 689:.\Generated_Source\PSoC4/CYBLE_uds.c **** *   * CYBLE_ERROR_INVALID_PARAMETER - Validation of the input parameter failed.
 690:.\Generated_Source\PSoC4/CYBLE_uds.c **** *   * CYBLE_ERROR_INVALID_OPERATION - Operation is invalid for this 
 691:.\Generated_Source\PSoC4/CYBLE_uds.c **** *                                      characteristic.
 692:.\Generated_Source\PSoC4/CYBLE_uds.c **** *   * CYBLE_ERROR_GATT_DB_INVALID_ATTR_HANDLE - An optional characteristic is absent.
 693:.\Generated_Source\PSoC4/CYBLE_uds.c **** *   * CYBLE_ERROR_INVALID_STATE - Connection with the client is not established.
 694:.\Generated_Source\PSoC4/CYBLE_uds.c **** *   * CYBLE_ERROR_MEMORY_ALLOCATION_FAILED - Memory allocation failed.
 695:.\Generated_Source\PSoC4/CYBLE_uds.c **** *   * CYBLE_ERROR_NTF_DISABLED - Notification is not enabled by the client.
 696:.\Generated_Source\PSoC4/CYBLE_uds.c **** *   * CYBLE_ERROR_IND_DISABLED - Indication is disabled for this characteristic.
 697:.\Generated_Source\PSoC4/CYBLE_uds.c **** *
 698:.\Generated_Source\PSoC4/CYBLE_uds.c **** * \events
 699:.\Generated_Source\PSoC4/CYBLE_uds.c **** *  In case of successful execution (return value = CYBLE_ERROR_OK)
 700:.\Generated_Source\PSoC4/CYBLE_uds.c **** *  the next events can appear: \n
 701:.\Generated_Source\PSoC4/CYBLE_uds.c **** *   If the UDS service-specific callback is registered 
 702:.\Generated_Source\PSoC4/CYBLE_uds.c **** *      (with CyBle_UdsRegisterAttrCallback):
 703:.\Generated_Source\PSoC4/CYBLE_uds.c **** *  * CYBLE_EVT_UDSS_INDICATION_CONFIRMED - If the indication is
 704:.\Generated_Source\PSoC4/CYBLE_uds.c **** *                                successfully delivered to the peer device.
 705:.\Generated_Source\PSoC4/CYBLE_uds.c **** *  .
 706:.\Generated_Source\PSoC4/CYBLE_uds.c **** *   Otherwise (if the UDS service-specific callback is not registered):
 707:.\Generated_Source\PSoC4/CYBLE_uds.c **** *  * CYBLE_EVT_GATTS_HANDLE_VALUE_CNF - If the indication is
 708:.\Generated_Source\PSoC4/CYBLE_uds.c **** *                                successfully delivered to the peer device.
 709:.\Generated_Source\PSoC4/CYBLE_uds.c **** *
 710:.\Generated_Source\PSoC4/CYBLE_uds.c **** ******************************************************************************/
 711:.\Generated_Source\PSoC4/CYBLE_uds.c **** CYBLE_API_RESULT_T CyBle_UdssSendIndication(CYBLE_CONN_HANDLE_T connHandle,
 712:.\Generated_Source\PSoC4/CYBLE_uds.c ****                     CYBLE_UDS_CHAR_INDEX_T charIndex, uint8 attrSize, uint8 *attrValue)
 713:.\Generated_Source\PSoC4/CYBLE_uds.c **** {
 709              		.loc 1 713 0
 710              		.cfi_startproc
 711 0000 90B5     		push	{r4, r7, lr}
 712              		.cfi_def_cfa_offset 12
ARM GAS  C:\Users\mohammed\AppData\Local\Temp\cceuH2T0.s 			page 26


 713              		.cfi_offset 4, -12
 714              		.cfi_offset 7, -8
 715              		.cfi_offset 14, -4
 716 0002 89B0     		sub	sp, sp, #36
 717              		.cfi_def_cfa_offset 48
 718 0004 00AF     		add	r7, sp, #0
 719              		.cfi_def_cfa_register 7
 720 0006 0C24     		mov	r4, #12
 721 0008 3C19     		add	r4, r7, r4
 722 000a 2080     		strh	r0, [r4]
 723 000c 081C     		mov	r0, r1
 724 000e 111C     		mov	r1, r2
 725 0010 7B60     		str	r3, [r7, #4]
 726 0012 0B23     		mov	r3, #11
 727 0014 FB18     		add	r3, r7, r3
 728 0016 021C     		add	r2, r0, #0
 729 0018 1A70     		strb	r2, [r3]
 730 001a 0A23     		mov	r3, #10
 731 001c FB18     		add	r3, r7, r3
 732 001e 0A1C     		add	r2, r1, #0
 733 0020 1A70     		strb	r2, [r3]
 714:.\Generated_Source\PSoC4/CYBLE_uds.c ****     CYBLE_API_RESULT_T apiResult;
 715:.\Generated_Source\PSoC4/CYBLE_uds.c ****     
 716:.\Generated_Source\PSoC4/CYBLE_uds.c ****     /* Send Indication if it is enabled and connected */
 717:.\Generated_Source\PSoC4/CYBLE_uds.c ****     if(CYBLE_STATE_CONNECTED != CyBle_GetState())
 734              		.loc 1 717 0
 735 0022 3A4B     		ldr	r3, .L52
 736 0024 1B78     		ldrb	r3, [r3]
 737 0026 022B     		cmp	r3, #2
 738 0028 04D0     		beq	.L45
 718:.\Generated_Source\PSoC4/CYBLE_uds.c ****     {
 719:.\Generated_Source\PSoC4/CYBLE_uds.c ****         apiResult = CYBLE_ERROR_INVALID_STATE;
 739              		.loc 1 719 0
 740 002a 1E23     		mov	r3, #30
 741 002c FB18     		add	r3, r7, r3
 742 002e 0422     		mov	r2, #4
 743 0030 FF32     		add	r2, r2, #255
 744 0032 1A80     		strh	r2, [r3]
 745              	.L45:
 720:.\Generated_Source\PSoC4/CYBLE_uds.c ****     }
 721:.\Generated_Source\PSoC4/CYBLE_uds.c ****     if(charIndex >= CYBLE_UDS_CHAR_COUNT)
 746              		.loc 1 721 0
 747 0034 0B23     		mov	r3, #11
 748 0036 FB18     		add	r3, r7, r3
 749 0038 1B78     		ldrb	r3, [r3]
 750 003a 1E2B     		cmp	r3, #30
 751 003c 04D9     		bls	.L46
 722:.\Generated_Source\PSoC4/CYBLE_uds.c ****     {
 723:.\Generated_Source\PSoC4/CYBLE_uds.c ****         apiResult = CYBLE_ERROR_INVALID_PARAMETER;
 752              		.loc 1 723 0
 753 003e 1E23     		mov	r3, #30
 754 0040 FB18     		add	r3, r7, r3
 755 0042 0122     		mov	r2, #1
 756 0044 1A80     		strh	r2, [r3]
 757 0046 59E0     		b	.L47
 758              	.L46:
 724:.\Generated_Source\PSoC4/CYBLE_uds.c ****     }
ARM GAS  C:\Users\mohammed\AppData\Local\Temp\cceuH2T0.s 			page 27


 725:.\Generated_Source\PSoC4/CYBLE_uds.c ****     else if(CYBLE_GATT_INVALID_ATTR_HANDLE_VALUE == cyBle_udss.charInfo[charIndex].descrHandle[CYBL
 759              		.loc 1 725 0
 760 0048 0B23     		mov	r3, #11
 761 004a FB18     		add	r3, r7, r3
 762 004c 1B78     		ldrb	r3, [r3]
 763 004e 304A     		ldr	r2, .L52+4
 764 0050 9B00     		lsl	r3, r3, #2
 765 0052 D318     		add	r3, r2, r3
 766 0054 9B88     		ldrh	r3, [r3, #4]
 767 0056 002B     		cmp	r3, #0
 768 0058 04D1     		bne	.L48
 726:.\Generated_Source\PSoC4/CYBLE_uds.c ****     {
 727:.\Generated_Source\PSoC4/CYBLE_uds.c **** 		apiResult = CYBLE_ERROR_GATT_DB_INVALID_ATTR_HANDLE;
 769              		.loc 1 727 0
 770 005a 1E23     		mov	r3, #30
 771 005c FB18     		add	r3, r7, r3
 772 005e 1322     		mov	r2, #19
 773 0060 1A80     		strh	r2, [r3]
 774 0062 4BE0     		b	.L47
 775              	.L48:
 728:.\Generated_Source\PSoC4/CYBLE_uds.c **** 	}
 729:.\Generated_Source\PSoC4/CYBLE_uds.c ****     else if(!CYBLE_IS_INDICATION_ENABLED(cyBle_udss.charInfo[charIndex].descrHandle[CYBLE_UDS_CCCD]
 776              		.loc 1 729 0
 777 0064 0B23     		mov	r3, #11
 778 0066 FB18     		add	r3, r7, r3
 779 0068 1B78     		ldrb	r3, [r3]
 780 006a 294A     		ldr	r2, .L52+4
 781 006c 9B00     		lsl	r3, r3, #2
 782 006e D318     		add	r3, r2, r3
 783 0070 9B88     		ldrh	r3, [r3, #4]
 784 0072 5A1E     		sub	r2, r3, #1
 785 0074 2749     		ldr	r1, .L52+8
 786 0076 131C     		mov	r3, r2
 787 0078 9B00     		lsl	r3, r3, #2
 788 007a 9B18     		add	r3, r3, r2
 789 007c 9B00     		lsl	r3, r3, #2
 790 007e CB18     		add	r3, r1, r3
 791 0080 0833     		add	r3, r3, #8
 792 0082 9B68     		ldr	r3, [r3, #8]
 793 0084 5B68     		ldr	r3, [r3, #4]
 794 0086 181C     		mov	r0, r3
 795 0088 FFF7FEFF 		bl	CyBle_Get16ByPtr
 796 008c 031C     		mov	r3, r0
 797 008e 1A1C     		mov	r2, r3
 798 0090 0223     		mov	r3, #2
 799 0092 1340     		and	r3, r2
 800 0094 9BB2     		uxth	r3, r3
 801 0096 002B     		cmp	r3, #0
 802 0098 05D1     		bne	.L49
 730:.\Generated_Source\PSoC4/CYBLE_uds.c ****     {
 731:.\Generated_Source\PSoC4/CYBLE_uds.c ****         apiResult = CYBLE_ERROR_IND_DISABLED;
 803              		.loc 1 731 0
 804 009a 1E23     		mov	r3, #30
 805 009c FB18     		add	r3, r7, r3
 806 009e 0222     		mov	r2, #2
 807 00a0 FF32     		add	r2, r2, #255
 808 00a2 1A80     		strh	r2, [r3]
ARM GAS  C:\Users\mohammed\AppData\Local\Temp\cceuH2T0.s 			page 28


 809 00a4 2AE0     		b	.L47
 810              	.L49:
 811              	.LBB6:
 732:.\Generated_Source\PSoC4/CYBLE_uds.c ****     }
 733:.\Generated_Source\PSoC4/CYBLE_uds.c ****     else
 734:.\Generated_Source\PSoC4/CYBLE_uds.c ****     {
 735:.\Generated_Source\PSoC4/CYBLE_uds.c ****         CYBLE_GATTS_HANDLE_VALUE_IND_T indParam;
 736:.\Generated_Source\PSoC4/CYBLE_uds.c ****         
 737:.\Generated_Source\PSoC4/CYBLE_uds.c ****         /* Fill all fields of write request structure ... */
 738:.\Generated_Source\PSoC4/CYBLE_uds.c ****         indParam.attrHandle = cyBle_udss.charInfo[charIndex].charHandle; 
 812              		.loc 1 738 0
 813 00a6 0B23     		mov	r3, #11
 814 00a8 FB18     		add	r3, r7, r3
 815 00aa 1B78     		ldrb	r3, [r3]
 816 00ac 184A     		ldr	r2, .L52+4
 817 00ae 9B00     		lsl	r3, r3, #2
 818 00b0 D318     		add	r3, r2, r3
 819 00b2 5A88     		ldrh	r2, [r3, #2]
 820 00b4 1023     		mov	r3, #16
 821 00b6 FB18     		add	r3, r7, r3
 822 00b8 1A81     		strh	r2, [r3, #8]
 739:.\Generated_Source\PSoC4/CYBLE_uds.c ****         indParam.value.val = attrValue;
 823              		.loc 1 739 0
 824 00ba 1023     		mov	r3, #16
 825 00bc FB18     		add	r3, r7, r3
 826 00be 7A68     		ldr	r2, [r7, #4]
 827 00c0 1A60     		str	r2, [r3]
 740:.\Generated_Source\PSoC4/CYBLE_uds.c ****         indParam.value.len = attrSize;
 828              		.loc 1 740 0
 829 00c2 0A23     		mov	r3, #10
 830 00c4 FB18     		add	r3, r7, r3
 831 00c6 1B78     		ldrb	r3, [r3]
 832 00c8 9AB2     		uxth	r2, r3
 833 00ca 1023     		mov	r3, #16
 834 00cc FB18     		add	r3, r7, r3
 835 00ce 9A80     		strh	r2, [r3, #4]
 741:.\Generated_Source\PSoC4/CYBLE_uds.c ****         
 742:.\Generated_Source\PSoC4/CYBLE_uds.c ****         /* Send notification to client using previously filled structure */
 743:.\Generated_Source\PSoC4/CYBLE_uds.c ****         apiResult = CyBle_GattsIndication(connHandle, &indParam);
 836              		.loc 1 743 0
 837 00d0 1E23     		mov	r3, #30
 838 00d2 FC18     		add	r4, r7, r3
 839 00d4 0C23     		mov	r3, #12
 840 00d6 FB18     		add	r3, r7, r3
 841 00d8 1022     		mov	r2, #16
 842 00da BA18     		add	r2, r7, r2
 843 00dc 1868     		ldr	r0, [r3]
 844 00de 111C     		mov	r1, r2
 845 00e0 FFF7FEFF 		bl	CyBle_GattsIndication
 846 00e4 031C     		mov	r3, r0
 847 00e6 2380     		strh	r3, [r4]
 744:.\Generated_Source\PSoC4/CYBLE_uds.c ****         
 745:.\Generated_Source\PSoC4/CYBLE_uds.c ****         if(CYBLE_ERROR_OK == apiResult)
 848              		.loc 1 745 0
 849 00e8 1E23     		mov	r3, #30
 850 00ea FB18     		add	r3, r7, r3
 851 00ec 1B88     		ldrh	r3, [r3]
ARM GAS  C:\Users\mohammed\AppData\Local\Temp\cceuH2T0.s 			page 29


 852 00ee 002B     		cmp	r3, #0
 853 00f0 04D1     		bne	.L47
 746:.\Generated_Source\PSoC4/CYBLE_uds.c ****         {
 747:.\Generated_Source\PSoC4/CYBLE_uds.c ****             /* Save handle to support service specific value confirmation response from client */
 748:.\Generated_Source\PSoC4/CYBLE_uds.c ****             cyBle_udssReqHandle = indParam.attrHandle;
 854              		.loc 1 748 0
 855 00f2 1023     		mov	r3, #16
 856 00f4 FB18     		add	r3, r7, r3
 857 00f6 1A89     		ldrh	r2, [r3, #8]
 858 00f8 074B     		ldr	r3, .L52+12
 859 00fa 1A80     		strh	r2, [r3]
 860              	.L47:
 861              	.LBE6:
 749:.\Generated_Source\PSoC4/CYBLE_uds.c ****         }
 750:.\Generated_Source\PSoC4/CYBLE_uds.c ****     }
 751:.\Generated_Source\PSoC4/CYBLE_uds.c **** 
 752:.\Generated_Source\PSoC4/CYBLE_uds.c ****     return (apiResult);
 862              		.loc 1 752 0
 863 00fc 1E23     		mov	r3, #30
 864 00fe FB18     		add	r3, r7, r3
 865 0100 1B88     		ldrh	r3, [r3]
 753:.\Generated_Source\PSoC4/CYBLE_uds.c **** }
 866              		.loc 1 753 0
 867 0102 181C     		mov	r0, r3
 868 0104 BD46     		mov	sp, r7
 869 0106 09B0     		add	sp, sp, #36
 870              		@ sp needed
 871 0108 90BD     		pop	{r4, r7, pc}
 872              	.L53:
 873 010a C046     		.align	2
 874              	.L52:
 875 010c 00000000 		.word	cyBle_state
 876 0110 00000000 		.word	cyBle_udss
 877 0114 00000000 		.word	cyBle_gattDB
 878 0118 04000000 		.word	cyBle_udssReqHandle
 879              		.cfi_endproc
 880              	.LFE8:
 881              		.size	CyBle_UdssSendIndication, .-CyBle_UdssSendIndication
 882              		.section	.text.CyBle_UdssConfirmationEventHandler,"ax",%progbits
 883              		.align	2
 884              		.global	CyBle_UdssConfirmationEventHandler
 885              		.code	16
 886              		.thumb_func
 887              		.type	CyBle_UdssConfirmationEventHandler, %function
 888              	CyBle_UdssConfirmationEventHandler:
 889              	.LFB9:
 754:.\Generated_Source\PSoC4/CYBLE_uds.c **** 
 755:.\Generated_Source\PSoC4/CYBLE_uds.c **** 
 756:.\Generated_Source\PSoC4/CYBLE_uds.c **** /******************************************************************************
 757:.\Generated_Source\PSoC4/CYBLE_uds.c **** * Function Name: CyBle_UdssConfirmationEventHandler
 758:.\Generated_Source\PSoC4/CYBLE_uds.c **** ***************************************************************************//**
 759:.\Generated_Source\PSoC4/CYBLE_uds.c **** * 
 760:.\Generated_Source\PSoC4/CYBLE_uds.c **** *  Handles the Value Confirmation request event from the BLE stack.
 761:.\Generated_Source\PSoC4/CYBLE_uds.c **** * 
 762:.\Generated_Source\PSoC4/CYBLE_uds.c **** *  \param eventParam: The pointer to a structure of type CYBLE_CONN_HANDLE_T.
 763:.\Generated_Source\PSoC4/CYBLE_uds.c **** * 
 764:.\Generated_Source\PSoC4/CYBLE_uds.c **** * \return
ARM GAS  C:\Users\mohammed\AppData\Local\Temp\cceuH2T0.s 			page 30


 765:.\Generated_Source\PSoC4/CYBLE_uds.c **** *  None.
 766:.\Generated_Source\PSoC4/CYBLE_uds.c **** * 
 767:.\Generated_Source\PSoC4/CYBLE_uds.c **** ******************************************************************************/
 768:.\Generated_Source\PSoC4/CYBLE_uds.c **** void CyBle_UdssConfirmationEventHandler(const CYBLE_CONN_HANDLE_T *eventParam)
 769:.\Generated_Source\PSoC4/CYBLE_uds.c **** {
 890              		.loc 1 769 0
 891              		.cfi_startproc
 892 0000 80B5     		push	{r7, lr}
 893              		.cfi_def_cfa_offset 8
 894              		.cfi_offset 7, -8
 895              		.cfi_offset 14, -4
 896 0002 86B0     		sub	sp, sp, #24
 897              		.cfi_def_cfa_offset 32
 898 0004 00AF     		add	r7, sp, #0
 899              		.cfi_def_cfa_register 7
 900 0006 7860     		str	r0, [r7, #4]
 770:.\Generated_Source\PSoC4/CYBLE_uds.c ****     if((NULL != CyBle_UdsApplCallback) 
 901              		.loc 1 770 0
 902 0008 1D4B     		ldr	r3, .L56
 903 000a 1B68     		ldr	r3, [r3]
 904 000c 002B     		cmp	r3, #0
 905 000e 33D0     		beq	.L54
 771:.\Generated_Source\PSoC4/CYBLE_uds.c ****         && (cyBle_udss.charInfo[CYBLE_UDS_UCP].charHandle == cyBle_udssReqHandle))
 906              		.loc 1 771 0
 907 0010 5422     		mov	r2, #84
 908 0012 1C4B     		ldr	r3, .L56+4
 909 0014 1B88     		ldrh	r3, [r3]
 910 0016 9A42     		cmp	r2, r3
 911 0018 2ED1     		bne	.L54
 912              	.LBB7:
 772:.\Generated_Source\PSoC4/CYBLE_uds.c ****     {   
 773:.\Generated_Source\PSoC4/CYBLE_uds.c ****         CYBLE_UDS_CHAR_VALUE_T locCharIndex;
 774:.\Generated_Source\PSoC4/CYBLE_uds.c ****         
 775:.\Generated_Source\PSoC4/CYBLE_uds.c ****         cyBle_udssReqHandle = CYBLE_GATT_INVALID_ATTR_HANDLE_VALUE;
 913              		.loc 1 775 0
 914 001a 1A4B     		ldr	r3, .L56+4
 915 001c 0022     		mov	r2, #0
 916 001e 1A80     		strh	r2, [r3]
 776:.\Generated_Source\PSoC4/CYBLE_uds.c ****         
 777:.\Generated_Source\PSoC4/CYBLE_uds.c ****         cyBle_udsFlag &= (uint8) ~CYBLE_UDS_FLAG_PROCESS;
 917              		.loc 1 777 0
 918 0020 194B     		ldr	r3, .L56+8
 919 0022 1B78     		ldrb	r3, [r3]
 920 0024 0122     		mov	r2, #1
 921 0026 9343     		bic	r3, r2
 922 0028 DAB2     		uxtb	r2, r3
 923 002a 174B     		ldr	r3, .L56+8
 924 002c 1A70     		strb	r2, [r3]
 778:.\Generated_Source\PSoC4/CYBLE_uds.c ****         
 779:.\Generated_Source\PSoC4/CYBLE_uds.c ****         locCharIndex.connHandle = *eventParam;
 925              		.loc 1 779 0
 926 002e 0C23     		mov	r3, #12
 927 0030 FA18     		add	r2, r7, r3
 928 0032 7B68     		ldr	r3, [r7, #4]
 929 0034 111C     		mov	r1, r2
 930 0036 1A1C     		mov	r2, r3
 931 0038 0223     		mov	r3, #2
ARM GAS  C:\Users\mohammed\AppData\Local\Temp\cceuH2T0.s 			page 31


 932 003a 081C     		mov	r0, r1
 933 003c 111C     		mov	r1, r2
 934 003e 1A1C     		mov	r2, r3
 935 0040 FFF7FEFF 		bl	memcpy
 780:.\Generated_Source\PSoC4/CYBLE_uds.c ****         locCharIndex.charIndex = CYBLE_UDS_UCP;
 936              		.loc 1 780 0
 937 0044 0C23     		mov	r3, #12
 938 0046 FB18     		add	r3, r7, r3
 939 0048 1D22     		mov	r2, #29
 940 004a 9A70     		strb	r2, [r3, #2]
 781:.\Generated_Source\PSoC4/CYBLE_uds.c ****         locCharIndex.value = NULL;
 941              		.loc 1 781 0
 942 004c 0C23     		mov	r3, #12
 943 004e FB18     		add	r3, r7, r3
 944 0050 0022     		mov	r2, #0
 945 0052 5A60     		str	r2, [r3, #4]
 782:.\Generated_Source\PSoC4/CYBLE_uds.c ****         
 783:.\Generated_Source\PSoC4/CYBLE_uds.c ****         cyBle_eventHandlerFlag &= (uint8)~CYBLE_CALLBACK;
 946              		.loc 1 783 0
 947 0054 0D4B     		ldr	r3, .L56+12
 948 0056 1B78     		ldrb	r3, [r3]
 949 0058 DBB2     		uxtb	r3, r3
 950 005a 0122     		mov	r2, #1
 951 005c 9343     		bic	r3, r2
 952 005e DAB2     		uxtb	r2, r3
 953 0060 0A4B     		ldr	r3, .L56+12
 954 0062 1A70     		strb	r2, [r3]
 784:.\Generated_Source\PSoC4/CYBLE_uds.c ****         CyBle_UdsApplCallback((uint32)CYBLE_EVT_UDSS_INDICATION_CONFIRMED, &locCharIndex);
 955              		.loc 1 784 0
 956 0064 064B     		ldr	r3, .L56
 957 0066 1B68     		ldr	r3, [r3]
 958 0068 F022     		mov	r2, #240
 959 006a FF32     		add	r2, r2, #255
 960 006c 111C     		mov	r1, r2
 961 006e 0C22     		mov	r2, #12
 962 0070 BA18     		add	r2, r7, r2
 963 0072 081C     		mov	r0, r1
 964 0074 111C     		mov	r1, r2
 965 0076 9847     		blx	r3
 966              	.L54:
 967              	.LBE7:
 785:.\Generated_Source\PSoC4/CYBLE_uds.c ****     }
 786:.\Generated_Source\PSoC4/CYBLE_uds.c **** }
 968              		.loc 1 786 0
 969 0078 BD46     		mov	sp, r7
 970 007a 06B0     		add	sp, sp, #24
 971              		@ sp needed
 972 007c 80BD     		pop	{r7, pc}
 973              	.L57:
 974 007e C046     		.align	2
 975              	.L56:
 976 0080 00000000 		.word	CyBle_UdsApplCallback
 977 0084 04000000 		.word	cyBle_udssReqHandle
 978 0088 00000000 		.word	cyBle_udsFlag
 979 008c 00000000 		.word	cyBle_eventHandlerFlag
 980              		.cfi_endproc
 981              	.LFE9:
ARM GAS  C:\Users\mohammed\AppData\Local\Temp\cceuH2T0.s 			page 32


 982              		.size	CyBle_UdssConfirmationEventHandler, .-CyBle_UdssConfirmationEventHandler
 983              		.section	.text.CyBle_UdssReadRequestEventHandler,"ax",%progbits
 984              		.align	2
 985              		.global	CyBle_UdssReadRequestEventHandler
 986              		.code	16
 987              		.thumb_func
 988              		.type	CyBle_UdssReadRequestEventHandler, %function
 989              	CyBle_UdssReadRequestEventHandler:
 990              	.LFB10:
 787:.\Generated_Source\PSoC4/CYBLE_uds.c **** 
 788:.\Generated_Source\PSoC4/CYBLE_uds.c **** 
 789:.\Generated_Source\PSoC4/CYBLE_uds.c **** /******************************************************************************
 790:.\Generated_Source\PSoC4/CYBLE_uds.c **** * Function Name: CyBle_UdssReadRequestEventHandler
 791:.\Generated_Source\PSoC4/CYBLE_uds.c **** ***************************************************************************//**
 792:.\Generated_Source\PSoC4/CYBLE_uds.c **** * 
 793:.\Generated_Source\PSoC4/CYBLE_uds.c **** *  Handles the Read Request Event.
 794:.\Generated_Source\PSoC4/CYBLE_uds.c **** * 
 795:.\Generated_Source\PSoC4/CYBLE_uds.c **** *  \param eventParam: The pointer to the data structure specified by the event.
 796:.\Generated_Source\PSoC4/CYBLE_uds.c **** * 
 797:.\Generated_Source\PSoC4/CYBLE_uds.c **** * \return
 798:.\Generated_Source\PSoC4/CYBLE_uds.c **** *  None.
 799:.\Generated_Source\PSoC4/CYBLE_uds.c **** * 
 800:.\Generated_Source\PSoC4/CYBLE_uds.c **** ******************************************************************************/
 801:.\Generated_Source\PSoC4/CYBLE_uds.c **** void CyBle_UdssReadRequestEventHandler(CYBLE_GATTS_CHAR_VAL_READ_REQ_T *eventParam)
 802:.\Generated_Source\PSoC4/CYBLE_uds.c **** {
 991              		.loc 1 802 0
 992              		.cfi_startproc
 993 0000 80B5     		push	{r7, lr}
 994              		.cfi_def_cfa_offset 8
 995              		.cfi_offset 7, -8
 996              		.cfi_offset 14, -4
 997 0002 86B0     		sub	sp, sp, #24
 998              		.cfi_def_cfa_offset 32
 999 0004 00AF     		add	r7, sp, #0
 1000              		.cfi_def_cfa_register 7
 1001 0006 7860     		str	r0, [r7, #4]
 803:.\Generated_Source\PSoC4/CYBLE_uds.c ****     if(CyBle_UdsApplCallback != NULL)
 1002              		.loc 1 803 0
 1003 0008 294B     		ldr	r3, .L66
 1004 000a 1B68     		ldr	r3, [r3]
 1005 000c 002B     		cmp	r3, #0
 1006 000e 4CD0     		beq	.L58
 1007              	.LBB8:
 804:.\Generated_Source\PSoC4/CYBLE_uds.c ****     {
 805:.\Generated_Source\PSoC4/CYBLE_uds.c ****         CYBLE_UDS_CHAR_VALUE_T locCharValue;
 806:.\Generated_Source\PSoC4/CYBLE_uds.c ****         locCharValue.connHandle = eventParam->connHandle;
 1008              		.loc 1 806 0
 1009 0010 0C23     		mov	r3, #12
 1010 0012 FB18     		add	r3, r7, r3
 1011 0014 7A68     		ldr	r2, [r7, #4]
 1012 0016 1288     		ldrh	r2, [r2]
 1013 0018 1A80     		strh	r2, [r3]
 807:.\Generated_Source\PSoC4/CYBLE_uds.c ****         locCharValue.gattErrorCode = CYBLE_GATT_ERR_NONE;
 1014              		.loc 1 807 0
 1015 001a 0C23     		mov	r3, #12
 1016 001c FB18     		add	r3, r7, r3
 1017 001e 0022     		mov	r2, #0
ARM GAS  C:\Users\mohammed\AppData\Local\Temp\cceuH2T0.s 			page 33


 1018 0020 1A72     		strb	r2, [r3, #8]
 808:.\Generated_Source\PSoC4/CYBLE_uds.c ****         locCharValue.value = NULL;
 1019              		.loc 1 808 0
 1020 0022 0C23     		mov	r3, #12
 1021 0024 FB18     		add	r3, r7, r3
 1022 0026 0022     		mov	r2, #0
 1023 0028 5A60     		str	r2, [r3, #4]
 809:.\Generated_Source\PSoC4/CYBLE_uds.c ****     
 810:.\Generated_Source\PSoC4/CYBLE_uds.c ****         for(locCharValue.charIndex = CYBLE_UDS_FNM; 
 1024              		.loc 1 810 0
 1025 002a 0C23     		mov	r3, #12
 1026 002c FB18     		add	r3, r7, r3
 1027 002e 0022     		mov	r2, #0
 1028 0030 9A70     		strb	r2, [r3, #2]
 1029 0032 35E0     		b	.L60
 1030              	.L65:
 811:.\Generated_Source\PSoC4/CYBLE_uds.c ****             locCharValue.charIndex < CYBLE_UDS_CHAR_COUNT; 
 812:.\Generated_Source\PSoC4/CYBLE_uds.c ****             locCharValue.charIndex++)
 813:.\Generated_Source\PSoC4/CYBLE_uds.c ****         {
 814:.\Generated_Source\PSoC4/CYBLE_uds.c ****             if(locCharValue.charIndex == CYBLE_UDS_UCP)
 1031              		.loc 1 814 0
 1032 0034 0C23     		mov	r3, #12
 1033 0036 FB18     		add	r3, r7, r3
 1034 0038 9B78     		ldrb	r3, [r3, #2]
 1035 003a 1D2B     		cmp	r3, #29
 1036 003c 03D1     		bne	.L61
 815:.\Generated_Source\PSoC4/CYBLE_uds.c ****             {
 816:.\Generated_Source\PSoC4/CYBLE_uds.c ****                 /* Omit UCP characteristic */
 817:.\Generated_Source\PSoC4/CYBLE_uds.c ****                 locCharValue.charIndex = CYBLE_UDS_LNG;
 1037              		.loc 1 817 0
 1038 003e 0C23     		mov	r3, #12
 1039 0040 FB18     		add	r3, r7, r3
 1040 0042 1E22     		mov	r2, #30
 1041 0044 9A70     		strb	r2, [r3, #2]
 1042              	.L61:
 818:.\Generated_Source\PSoC4/CYBLE_uds.c ****             }
 819:.\Generated_Source\PSoC4/CYBLE_uds.c ****             
 820:.\Generated_Source\PSoC4/CYBLE_uds.c ****             if(eventParam->attrHandle == cyBle_udss.charInfo[locCharValue.charIndex].charHandle)
 1043              		.loc 1 820 0
 1044 0046 7B68     		ldr	r3, [r7, #4]
 1045 0048 5A88     		ldrh	r2, [r3, #2]
 1046 004a 0C23     		mov	r3, #12
 1047 004c FB18     		add	r3, r7, r3
 1048 004e 9B78     		ldrb	r3, [r3, #2]
 1049 0050 1849     		ldr	r1, .L66+4
 1050 0052 9B00     		lsl	r3, r3, #2
 1051 0054 CB18     		add	r3, r1, r3
 1052 0056 5B88     		ldrh	r3, [r3, #2]
 1053 0058 9A42     		cmp	r2, r3
 1054 005a 19D1     		bne	.L62
 821:.\Generated_Source\PSoC4/CYBLE_uds.c ****             {
 822:.\Generated_Source\PSoC4/CYBLE_uds.c **** 
 823:.\Generated_Source\PSoC4/CYBLE_uds.c ****                 CyBle_UdsApplCallback((uint32)CYBLE_EVT_UDSS_READ_CHAR, &locCharValue);
 1055              		.loc 1 823 0
 1056 005c 144B     		ldr	r3, .L66
 1057 005e 1B68     		ldr	r3, [r3]
 1058 0060 F922     		mov	r2, #249
ARM GAS  C:\Users\mohammed\AppData\Local\Temp\cceuH2T0.s 			page 34


 1059 0062 5100     		lsl	r1, r2, #1
 1060 0064 0C22     		mov	r2, #12
 1061 0066 BA18     		add	r2, r7, r2
 1062 0068 081C     		mov	r0, r1
 1063 006a 111C     		mov	r1, r2
 1064 006c 9847     		blx	r3
 824:.\Generated_Source\PSoC4/CYBLE_uds.c ****                         
 825:.\Generated_Source\PSoC4/CYBLE_uds.c ****                 if(locCharValue.gattErrorCode == CYBLE_GATT_ERR_USER_DATA_ACCESS_NOT_PERMITTED)
 1065              		.loc 1 825 0
 1066 006e 0C23     		mov	r3, #12
 1067 0070 FB18     		add	r3, r7, r3
 1068 0072 1B7A     		ldrb	r3, [r3, #8]
 1069 0074 802B     		cmp	r3, #128
 1070 0076 02D1     		bne	.L63
 826:.\Generated_Source\PSoC4/CYBLE_uds.c **** 	            {
 827:.\Generated_Source\PSoC4/CYBLE_uds.c ****                     eventParam->gattErrorCode = CYBLE_GATT_ERR_USER_DATA_ACCESS_NOT_PERMITTED;
 1071              		.loc 1 827 0
 1072 0078 7B68     		ldr	r3, [r7, #4]
 1073 007a 8022     		mov	r2, #128
 1074 007c 1A71     		strb	r2, [r3, #4]
 1075              	.L63:
 828:.\Generated_Source\PSoC4/CYBLE_uds.c ****                 }
 829:.\Generated_Source\PSoC4/CYBLE_uds.c ****                 
 830:.\Generated_Source\PSoC4/CYBLE_uds.c ****                 cyBle_eventHandlerFlag &= (uint8)~CYBLE_CALLBACK;
 1076              		.loc 1 830 0
 1077 007e 0E4B     		ldr	r3, .L66+8
 1078 0080 1B78     		ldrb	r3, [r3]
 1079 0082 DBB2     		uxtb	r3, r3
 1080 0084 0122     		mov	r2, #1
 1081 0086 9343     		bic	r3, r2
 1082 0088 DAB2     		uxtb	r2, r3
 1083 008a 0B4B     		ldr	r3, .L66+8
 1084 008c 1A70     		strb	r2, [r3]
 831:.\Generated_Source\PSoC4/CYBLE_uds.c ****                 break;
 1085              		.loc 1 831 0
 1086 008e 0CE0     		b	.L58
 1087              	.L62:
 812:.\Generated_Source\PSoC4/CYBLE_uds.c ****         {
 1088              		.loc 1 812 0
 1089 0090 0C23     		mov	r3, #12
 1090 0092 FB18     		add	r3, r7, r3
 1091 0094 9B78     		ldrb	r3, [r3, #2]
 1092 0096 0133     		add	r3, r3, #1
 1093 0098 DAB2     		uxtb	r2, r3
 1094 009a 0C23     		mov	r3, #12
 1095 009c FB18     		add	r3, r7, r3
 1096 009e 9A70     		strb	r2, [r3, #2]
 1097              	.L60:
 811:.\Generated_Source\PSoC4/CYBLE_uds.c ****             locCharValue.charIndex++)
 1098              		.loc 1 811 0 discriminator 1
 1099 00a0 0C23     		mov	r3, #12
 1100 00a2 FB18     		add	r3, r7, r3
 1101 00a4 9B78     		ldrb	r3, [r3, #2]
 810:.\Generated_Source\PSoC4/CYBLE_uds.c ****             locCharValue.charIndex < CYBLE_UDS_CHAR_COUNT; 
 1102              		.loc 1 810 0 discriminator 1
 1103 00a6 1E2B     		cmp	r3, #30
 1104 00a8 C4D9     		bls	.L65
ARM GAS  C:\Users\mohammed\AppData\Local\Temp\cceuH2T0.s 			page 35


 1105              	.L58:
 1106              	.LBE8:
 832:.\Generated_Source\PSoC4/CYBLE_uds.c ****             }
 833:.\Generated_Source\PSoC4/CYBLE_uds.c ****         }
 834:.\Generated_Source\PSoC4/CYBLE_uds.c ****     }
 835:.\Generated_Source\PSoC4/CYBLE_uds.c **** }
 1107              		.loc 1 835 0
 1108 00aa BD46     		mov	sp, r7
 1109 00ac 06B0     		add	sp, sp, #24
 1110              		@ sp needed
 1111 00ae 80BD     		pop	{r7, pc}
 1112              	.L67:
 1113              		.align	2
 1114              	.L66:
 1115 00b0 00000000 		.word	CyBle_UdsApplCallback
 1116 00b4 00000000 		.word	cyBle_udss
 1117 00b8 00000000 		.word	cyBle_eventHandlerFlag
 1118              		.cfi_endproc
 1119              	.LFE10:
 1120              		.size	CyBle_UdssReadRequestEventHandler, .-CyBle_UdssReadRequestEventHandler
 1121              		.section	.text.CyBle_UdssWriteEventHandler,"ax",%progbits
 1122              		.align	2
 1123              		.global	CyBle_UdssWriteEventHandler
 1124              		.code	16
 1125              		.thumb_func
 1126              		.type	CyBle_UdssWriteEventHandler, %function
 1127              	CyBle_UdssWriteEventHandler:
 1128              	.LFB11:
 836:.\Generated_Source\PSoC4/CYBLE_uds.c **** 
 837:.\Generated_Source\PSoC4/CYBLE_uds.c **** 
 838:.\Generated_Source\PSoC4/CYBLE_uds.c **** /******************************************************************************
 839:.\Generated_Source\PSoC4/CYBLE_uds.c **** * Function Name: CyBle_UdssWriteEventHandler
 840:.\Generated_Source\PSoC4/CYBLE_uds.c **** ***************************************************************************//**
 841:.\Generated_Source\PSoC4/CYBLE_uds.c **** * 
 842:.\Generated_Source\PSoC4/CYBLE_uds.c **** *  Handles the Write Request Event.
 843:.\Generated_Source\PSoC4/CYBLE_uds.c **** * 
 844:.\Generated_Source\PSoC4/CYBLE_uds.c **** *  \param eventParam: The pointer to the data structure specified by the event.
 845:.\Generated_Source\PSoC4/CYBLE_uds.c **** * 
 846:.\Generated_Source\PSoC4/CYBLE_uds.c **** * \return
 847:.\Generated_Source\PSoC4/CYBLE_uds.c **** *  CYBLE_GATT_ERR_CODE_T - An API result state if the API succeeded
 848:.\Generated_Source\PSoC4/CYBLE_uds.c **** *  (CYBLE_GATT_ERR_NONE) or failed with error codes:
 849:.\Generated_Source\PSoC4/CYBLE_uds.c **** *   * CYBLE_GATTS_ERR_PROCEDURE_ALREADY_IN_PROGRESS
 850:.\Generated_Source\PSoC4/CYBLE_uds.c **** *   * CYBLE_GATTS_ERR_CCCD_IMPROPERLY_CONFIGURED
 851:.\Generated_Source\PSoC4/CYBLE_uds.c **** * 
 852:.\Generated_Source\PSoC4/CYBLE_uds.c **** ******************************************************************************/
 853:.\Generated_Source\PSoC4/CYBLE_uds.c **** CYBLE_GATT_ERR_CODE_T CyBle_UdssWriteEventHandler(CYBLE_GATTS_WRITE_REQ_PARAM_T *eventParam)
 854:.\Generated_Source\PSoC4/CYBLE_uds.c **** {
 1129              		.loc 1 854 0
 1130              		.cfi_startproc
 1131 0000 90B5     		push	{r4, r7, lr}
 1132              		.cfi_def_cfa_offset 12
 1133              		.cfi_offset 4, -12
 1134              		.cfi_offset 7, -8
 1135              		.cfi_offset 14, -4
 1136 0002 89B0     		sub	sp, sp, #36
 1137              		.cfi_def_cfa_offset 48
 1138 0004 00AF     		add	r7, sp, #0
ARM GAS  C:\Users\mohammed\AppData\Local\Temp\cceuH2T0.s 			page 36


 1139              		.cfi_def_cfa_register 7
 1140 0006 7860     		str	r0, [r7, #4]
 855:.\Generated_Source\PSoC4/CYBLE_uds.c ****     CYBLE_GATT_ERR_CODE_T gattErr = CYBLE_GATT_ERR_NONE;
 1141              		.loc 1 855 0
 1142 0008 1F23     		mov	r3, #31
 1143 000a FB18     		add	r3, r7, r3
 1144 000c 0022     		mov	r2, #0
 1145 000e 1A70     		strb	r2, [r3]
 856:.\Generated_Source\PSoC4/CYBLE_uds.c ****     
 857:.\Generated_Source\PSoC4/CYBLE_uds.c ****     if(NULL != CyBle_UdsApplCallback)
 1146              		.loc 1 857 0
 1147 0010 AA4B     		ldr	r3, .L89
 1148 0012 1B68     		ldr	r3, [r3]
 1149 0014 002B     		cmp	r3, #0
 1150 0016 00D1     		bne	.LCB986
 1151 0018 49E1     		b	.L69	@long jump
 1152              	.LCB986:
 1153              	.LBB9:
 858:.\Generated_Source\PSoC4/CYBLE_uds.c ****     {
 859:.\Generated_Source\PSoC4/CYBLE_uds.c **** 	    CYBLE_UDS_CHAR_VALUE_T locCharValue;
 860:.\Generated_Source\PSoC4/CYBLE_uds.c ****         locCharValue.connHandle = eventParam->connHandle;
 1154              		.loc 1 860 0
 1155 001a 0C23     		mov	r3, #12
 1156 001c FB18     		add	r3, r7, r3
 1157 001e 7A68     		ldr	r2, [r7, #4]
 1158 0020 1288     		ldrh	r2, [r2]
 1159 0022 1A80     		strh	r2, [r3]
 861:.\Generated_Source\PSoC4/CYBLE_uds.c ****         locCharValue.gattErrorCode = CYBLE_GATT_ERR_NONE;
 1160              		.loc 1 861 0
 1161 0024 0C23     		mov	r3, #12
 1162 0026 FB18     		add	r3, r7, r3
 1163 0028 0022     		mov	r2, #0
 1164 002a 1A72     		strb	r2, [r3, #8]
 862:.\Generated_Source\PSoC4/CYBLE_uds.c **** 	
 863:.\Generated_Source\PSoC4/CYBLE_uds.c **** 	    if((eventParam->handleValPair.attrHandle == cyBle_udss.charInfo[CYBLE_UDS_DCI].descrHandle[CYB
 1165              		.loc 1 863 0
 1166 002c 7B68     		ldr	r3, [r7, #4]
 1167 002e 9B89     		ldrh	r3, [r3, #12]
 1168 0030 5022     		mov	r2, #80
 1169 0032 9342     		cmp	r3, r2
 1170 0034 04D0     		beq	.L70
 864:.\Generated_Source\PSoC4/CYBLE_uds.c ****            (eventParam->handleValPair.attrHandle == cyBle_udss.charInfo[CYBLE_UDS_UCP].descrHandle[
 1171              		.loc 1 864 0 discriminator 1
 1172 0036 7B68     		ldr	r3, [r7, #4]
 1173 0038 9B89     		ldrh	r3, [r3, #12]
 1174 003a 5522     		mov	r2, #85
 863:.\Generated_Source\PSoC4/CYBLE_uds.c ****            (eventParam->handleValPair.attrHandle == cyBle_udss.charInfo[CYBLE_UDS_UCP].descrHandle[
 1175              		.loc 1 863 0 discriminator 1
 1176 003c 9342     		cmp	r3, r2
 1177 003e 5AD1     		bne	.L71
 1178              	.L70:
 865:.\Generated_Source\PSoC4/CYBLE_uds.c **** 	    {
 866:.\Generated_Source\PSoC4/CYBLE_uds.c ****             locCharValue.value = NULL;
 1179              		.loc 1 866 0
 1180 0040 0C23     		mov	r3, #12
 1181 0042 FB18     		add	r3, r7, r3
 1182 0044 0022     		mov	r2, #0
ARM GAS  C:\Users\mohammed\AppData\Local\Temp\cceuH2T0.s 			page 37


 1183 0046 5A60     		str	r2, [r3, #4]
 867:.\Generated_Source\PSoC4/CYBLE_uds.c ****             gattErr = CyBle_GattsWriteAttributeValue(&eventParam->handleValPair,
 1184              		.loc 1 867 0
 1185 0048 7B68     		ldr	r3, [r7, #4]
 1186 004a 1A1D     		add	r2, r3, #4
 1187 004c 7B68     		ldr	r3, [r7, #4]
 1188 004e 1F21     		mov	r1, #31
 1189 0050 7C18     		add	r4, r7, r1
 1190 0052 101C     		mov	r0, r2
 1191 0054 0021     		mov	r1, #0
 1192 0056 1A1C     		mov	r2, r3
 1193 0058 4023     		mov	r3, #64
 1194 005a FFF7FEFF 		bl	CyBle_GattsWriteAttributeValue
 1195 005e 031C     		mov	r3, r0
 1196 0060 2370     		strb	r3, [r4]
 868:.\Generated_Source\PSoC4/CYBLE_uds.c ****                          0u, &eventParam->connHandle, CYBLE_GATT_DB_PEER_INITIATED);
 869:.\Generated_Source\PSoC4/CYBLE_uds.c ****             
 870:.\Generated_Source\PSoC4/CYBLE_uds.c ****             if(CYBLE_GATT_ERR_NONE == gattErr)
 1197              		.loc 1 870 0
 1198 0062 1F23     		mov	r3, #31
 1199 0064 FB18     		add	r3, r7, r3
 1200 0066 1B78     		ldrb	r3, [r3]
 1201 0068 002B     		cmp	r3, #0
 1202 006a 3BD1     		bne	.L72
 1203              	.LBB10:
 871:.\Generated_Source\PSoC4/CYBLE_uds.c ****             {
 872:.\Generated_Source\PSoC4/CYBLE_uds.c ****                 uint32 eventCode;
 873:.\Generated_Source\PSoC4/CYBLE_uds.c ****                 
 874:.\Generated_Source\PSoC4/CYBLE_uds.c ****                 if(eventParam->handleValPair.attrHandle == cyBle_udss.charInfo[CYBLE_UDS_DCI].descr
 1204              		.loc 1 874 0
 1205 006c 7B68     		ldr	r3, [r7, #4]
 1206 006e 9B89     		ldrh	r3, [r3, #12]
 1207 0070 5022     		mov	r2, #80
 1208 0072 9342     		cmp	r3, r2
 1209 0074 17D1     		bne	.L73
 875:.\Generated_Source\PSoC4/CYBLE_uds.c ****                 {
 876:.\Generated_Source\PSoC4/CYBLE_uds.c ****                     locCharValue.charIndex = CYBLE_UDS_DCI;
 1210              		.loc 1 876 0
 1211 0076 0C23     		mov	r3, #12
 1212 0078 FB18     		add	r3, r7, r3
 1213 007a 1B22     		mov	r2, #27
 1214 007c 9A70     		strb	r2, [r3, #2]
 877:.\Generated_Source\PSoC4/CYBLE_uds.c ****                     
 878:.\Generated_Source\PSoC4/CYBLE_uds.c ****                     if(CYBLE_IS_NOTIFICATION_ENABLED_IN_PTR(eventParam->handleValPair.value.val))
 1215              		.loc 1 878 0
 1216 007e 7B68     		ldr	r3, [r7, #4]
 1217 0080 5B68     		ldr	r3, [r3, #4]
 1218 0082 181C     		mov	r0, r3
 1219 0084 FFF7FEFF 		bl	CyBle_Get16ByPtr
 1220 0088 031C     		mov	r3, r0
 1221 008a 1A1C     		mov	r2, r3
 1222 008c 0123     		mov	r3, #1
 1223 008e 1340     		and	r3, r2
 1224 0090 9BB2     		uxth	r3, r3
 1225 0092 002B     		cmp	r3, #0
 1226 0094 03D0     		beq	.L74
 879:.\Generated_Source\PSoC4/CYBLE_uds.c ****                     {
ARM GAS  C:\Users\mohammed\AppData\Local\Temp\cceuH2T0.s 			page 38


 880:.\Generated_Source\PSoC4/CYBLE_uds.c ****                         eventCode = (uint32) CYBLE_EVT_UDSS_NOTIFICATION_ENABLED;
 1227              		.loc 1 880 0
 1228 0096 F823     		mov	r3, #248
 1229 0098 5B00     		lsl	r3, r3, #1
 1230 009a BB61     		str	r3, [r7, #24]
 1231 009c 1AE0     		b	.L76
 1232              	.L74:
 881:.\Generated_Source\PSoC4/CYBLE_uds.c ****                     }
 882:.\Generated_Source\PSoC4/CYBLE_uds.c ****                     else
 883:.\Generated_Source\PSoC4/CYBLE_uds.c ****                     {
 884:.\Generated_Source\PSoC4/CYBLE_uds.c ****                         eventCode = (uint32) CYBLE_EVT_UDSS_NOTIFICATION_DISABLED;
 1233              		.loc 1 884 0
 1234 009e F223     		mov	r3, #242
 1235 00a0 FF33     		add	r3, r3, #255
 1236 00a2 BB61     		str	r3, [r7, #24]
 1237 00a4 16E0     		b	.L76
 1238              	.L73:
 885:.\Generated_Source\PSoC4/CYBLE_uds.c ****                     }
 886:.\Generated_Source\PSoC4/CYBLE_uds.c ****                 }
 887:.\Generated_Source\PSoC4/CYBLE_uds.c ****                 else
 888:.\Generated_Source\PSoC4/CYBLE_uds.c ****                 {
 889:.\Generated_Source\PSoC4/CYBLE_uds.c ****                     locCharValue.charIndex = CYBLE_UDS_UCP;
 1239              		.loc 1 889 0
 1240 00a6 0C23     		mov	r3, #12
 1241 00a8 FB18     		add	r3, r7, r3
 1242 00aa 1D22     		mov	r2, #29
 1243 00ac 9A70     		strb	r2, [r3, #2]
 890:.\Generated_Source\PSoC4/CYBLE_uds.c ****                     
 891:.\Generated_Source\PSoC4/CYBLE_uds.c ****                     if(CYBLE_IS_INDICATION_ENABLED_IN_PTR(eventParam->handleValPair.value.val))
 1244              		.loc 1 891 0
 1245 00ae 7B68     		ldr	r3, [r7, #4]
 1246 00b0 5B68     		ldr	r3, [r3, #4]
 1247 00b2 181C     		mov	r0, r3
 1248 00b4 FFF7FEFF 		bl	CyBle_Get16ByPtr
 1249 00b8 031C     		mov	r3, r0
 1250 00ba 1A1C     		mov	r2, r3
 1251 00bc 0223     		mov	r3, #2
 1252 00be 1340     		and	r3, r2
 1253 00c0 9BB2     		uxth	r3, r3
 1254 00c2 002B     		cmp	r3, #0
 1255 00c4 03D0     		beq	.L77
 892:.\Generated_Source\PSoC4/CYBLE_uds.c ****                     {
 893:.\Generated_Source\PSoC4/CYBLE_uds.c ****                         eventCode = (uint32) CYBLE_EVT_UDSS_INDICATION_ENABLED;
 1256              		.loc 1 893 0
 1257 00c6 EE23     		mov	r3, #238
 1258 00c8 FF33     		add	r3, r3, #255
 1259 00ca BB61     		str	r3, [r7, #24]
 1260 00cc 02E0     		b	.L76
 1261              	.L77:
 894:.\Generated_Source\PSoC4/CYBLE_uds.c ****                     }
 895:.\Generated_Source\PSoC4/CYBLE_uds.c ****                     else
 896:.\Generated_Source\PSoC4/CYBLE_uds.c ****                     {
 897:.\Generated_Source\PSoC4/CYBLE_uds.c ****                         eventCode = (uint32) CYBLE_EVT_UDSS_INDICATION_DISABLED;
 1262              		.loc 1 897 0
 1263 00ce F723     		mov	r3, #247
 1264 00d0 5B00     		lsl	r3, r3, #1
 1265 00d2 BB61     		str	r3, [r7, #24]
ARM GAS  C:\Users\mohammed\AppData\Local\Temp\cceuH2T0.s 			page 39


 1266              	.L76:
 898:.\Generated_Source\PSoC4/CYBLE_uds.c ****                     }
 899:.\Generated_Source\PSoC4/CYBLE_uds.c ****                 }
 900:.\Generated_Source\PSoC4/CYBLE_uds.c ****                 
 901:.\Generated_Source\PSoC4/CYBLE_uds.c ****                 CyBle_UdsApplCallback(eventCode, &locCharValue);
 1267              		.loc 1 901 0
 1268 00d4 794B     		ldr	r3, .L89
 1269 00d6 1B68     		ldr	r3, [r3]
 1270 00d8 B969     		ldr	r1, [r7, #24]
 1271 00da 0C22     		mov	r2, #12
 1272 00dc BA18     		add	r2, r7, r2
 1273 00de 081C     		mov	r0, r1
 1274 00e0 111C     		mov	r1, r2
 1275 00e2 9847     		blx	r3
 1276              	.L72:
 1277              	.LBE10:
 902:.\Generated_Source\PSoC4/CYBLE_uds.c ****             }
 903:.\Generated_Source\PSoC4/CYBLE_uds.c **** 
 904:.\Generated_Source\PSoC4/CYBLE_uds.c ****         #if((CYBLE_GAP_ROLE_PERIPHERAL || CYBLE_GAP_ROLE_CENTRAL) && \
 905:.\Generated_Source\PSoC4/CYBLE_uds.c ****             (CYBLE_BONDING_REQUIREMENT == CYBLE_BONDING_YES))
 906:.\Generated_Source\PSoC4/CYBLE_uds.c ****             /* Set flag to store bonding data to flash */
 907:.\Generated_Source\PSoC4/CYBLE_uds.c ****             if(cyBle_peerBonding == CYBLE_GAP_BONDING)
 908:.\Generated_Source\PSoC4/CYBLE_uds.c ****             {
 909:.\Generated_Source\PSoC4/CYBLE_uds.c ****                 cyBle_pendingFlashWrite |= CYBLE_PENDING_CCCD_FLASH_WRITE_BIT;
 910:.\Generated_Source\PSoC4/CYBLE_uds.c ****             }
 911:.\Generated_Source\PSoC4/CYBLE_uds.c ****         #endif /* (CYBLE_BONDING_REQUIREMENT == CYBLE_BONDING_YES) */
 912:.\Generated_Source\PSoC4/CYBLE_uds.c **** 			    
 913:.\Generated_Source\PSoC4/CYBLE_uds.c ****             cyBle_eventHandlerFlag &= (uint8)~CYBLE_CALLBACK;
 1278              		.loc 1 913 0
 1279 00e4 764B     		ldr	r3, .L89+4
 1280 00e6 1B78     		ldrb	r3, [r3]
 1281 00e8 DBB2     		uxtb	r3, r3
 1282 00ea 0122     		mov	r2, #1
 1283 00ec 9343     		bic	r3, r2
 1284 00ee DAB2     		uxtb	r2, r3
 1285 00f0 734B     		ldr	r3, .L89+4
 1286 00f2 1A70     		strb	r2, [r3]
 1287 00f4 DBE0     		b	.L69
 1288              	.L71:
 914:.\Generated_Source\PSoC4/CYBLE_uds.c ****         }
 915:.\Generated_Source\PSoC4/CYBLE_uds.c **** 	    else
 916:.\Generated_Source\PSoC4/CYBLE_uds.c ****         {
 917:.\Generated_Source\PSoC4/CYBLE_uds.c ****             for(locCharValue.charIndex = CYBLE_UDS_FNM; 
 1289              		.loc 1 917 0
 1290 00f6 0C23     		mov	r3, #12
 1291 00f8 FB18     		add	r3, r7, r3
 1292 00fa 0022     		mov	r2, #0
 1293 00fc 9A70     		strb	r2, [r3, #2]
 1294 00fe D0E0     		b	.L79
 1295              	.L87:
 918:.\Generated_Source\PSoC4/CYBLE_uds.c ****                 locCharValue.charIndex < CYBLE_UDS_CHAR_COUNT; 
 919:.\Generated_Source\PSoC4/CYBLE_uds.c ****                 locCharValue.charIndex++)
 920:.\Generated_Source\PSoC4/CYBLE_uds.c **** 	        {
 921:.\Generated_Source\PSoC4/CYBLE_uds.c ****                 if(eventParam->handleValPair.attrHandle == cyBle_udss.charInfo[locCharValue.charInd
 1296              		.loc 1 921 0
 1297 0100 7B68     		ldr	r3, [r7, #4]
 1298 0102 9A89     		ldrh	r2, [r3, #12]
ARM GAS  C:\Users\mohammed\AppData\Local\Temp\cceuH2T0.s 			page 40


 1299 0104 0C23     		mov	r3, #12
 1300 0106 FB18     		add	r3, r7, r3
 1301 0108 9B78     		ldrb	r3, [r3, #2]
 1302 010a 6E49     		ldr	r1, .L89+8
 1303 010c 9B00     		lsl	r3, r3, #2
 1304 010e CB18     		add	r3, r1, r3
 1305 0110 5B88     		ldrh	r3, [r3, #2]
 1306 0112 9A42     		cmp	r2, r3
 1307 0114 00D0     		beq	.LCB1132
 1308 0116 BCE0     		b	.L80	@long jump
 1309              	.LCB1132:
 922:.\Generated_Source\PSoC4/CYBLE_uds.c **** 	            {
 923:.\Generated_Source\PSoC4/CYBLE_uds.c **** 	                gattErr = CyBle_GattDbCheckPermission(eventParam->handleValPair.attrHandle, 
 1310              		.loc 1 923 0
 1311 0118 7B68     		ldr	r3, [r7, #4]
 1312 011a 9A89     		ldrh	r2, [r3, #12]
 1313 011c 7B68     		ldr	r3, [r7, #4]
 1314 011e 1F21     		mov	r1, #31
 1315 0120 7C18     		add	r4, r7, r1
 1316 0122 101C     		mov	r0, r2
 1317 0124 191C     		mov	r1, r3
 1318 0126 4222     		mov	r2, #66
 1319 0128 FFF7FEFF 		bl	CyBle_GattDbCheckPermission
 1320 012c 031C     		mov	r3, r0
 1321 012e 2370     		strb	r3, [r4]
 924:.\Generated_Source\PSoC4/CYBLE_uds.c ****                                                          &eventParam->connHandle,
 925:.\Generated_Source\PSoC4/CYBLE_uds.c ****                                                          CYBLE_GATT_DB_WRITE | CYBLE_GATT_DB_PEER_I
 926:.\Generated_Source\PSoC4/CYBLE_uds.c ****                     
 927:.\Generated_Source\PSoC4/CYBLE_uds.c ****                     if((gattErr == CYBLE_GATT_ERR_NONE) && (locCharValue.charIndex == CYBLE_UDS_UCP
 1322              		.loc 1 927 0
 1323 0130 1F23     		mov	r3, #31
 1324 0132 FB18     		add	r3, r7, r3
 1325 0134 1B78     		ldrb	r3, [r3]
 1326 0136 002B     		cmp	r3, #0
 1327 0138 29D1     		bne	.L81
 1328              		.loc 1 927 0 is_stmt 0 discriminator 1
 1329 013a 0C23     		mov	r3, #12
 1330 013c FB18     		add	r3, r7, r3
 1331 013e 9B78     		ldrb	r3, [r3, #2]
 1332 0140 1D2B     		cmp	r3, #29
 1333 0142 24D1     		bne	.L81
 928:.\Generated_Source\PSoC4/CYBLE_uds.c ****                     {
 929:.\Generated_Source\PSoC4/CYBLE_uds.c ****                         if(CYBLE_UDS_IS_PROCEDURE_IN_PROGRESS)
 1334              		.loc 1 929 0 is_stmt 1
 1335 0144 604B     		ldr	r3, .L89+12
 1336 0146 1B78     		ldrb	r3, [r3]
 1337 0148 0122     		mov	r2, #1
 1338 014a 1340     		and	r3, r2
 1339 014c DBB2     		uxtb	r3, r3
 1340 014e 002B     		cmp	r3, #0
 1341 0150 04D0     		beq	.L82
 930:.\Generated_Source\PSoC4/CYBLE_uds.c ****                         {
 931:.\Generated_Source\PSoC4/CYBLE_uds.c ****                             gattErr = CYBLE_GATT_ERR_PROCEDURE_ALREADY_IN_PROGRESS;
 1342              		.loc 1 931 0
 1343 0152 1F23     		mov	r3, #31
 1344 0154 FB18     		add	r3, r7, r3
 1345 0156 FE22     		mov	r2, #254
ARM GAS  C:\Users\mohammed\AppData\Local\Temp\cceuH2T0.s 			page 41


 1346 0158 1A70     		strb	r2, [r3]
 1347 015a 18E0     		b	.L81
 1348              	.L82:
 932:.\Generated_Source\PSoC4/CYBLE_uds.c ****                         }
 933:.\Generated_Source\PSoC4/CYBLE_uds.c ****                         else if(!CYBLE_IS_INDICATION_ENABLED(cyBle_udss.charInfo[CYBLE_UDS_UCP].
 1349              		.loc 1 933 0
 1350 015c 5523     		mov	r3, #85
 1351 015e 5A1E     		sub	r2, r3, #1
 1352 0160 5A49     		ldr	r1, .L89+16
 1353 0162 131C     		mov	r3, r2
 1354 0164 9B00     		lsl	r3, r3, #2
 1355 0166 9B18     		add	r3, r3, r2
 1356 0168 9B00     		lsl	r3, r3, #2
 1357 016a CB18     		add	r3, r1, r3
 1358 016c 0833     		add	r3, r3, #8
 1359 016e 9B68     		ldr	r3, [r3, #8]
 1360 0170 5B68     		ldr	r3, [r3, #4]
 1361 0172 181C     		mov	r0, r3
 1362 0174 FFF7FEFF 		bl	CyBle_Get16ByPtr
 1363 0178 031C     		mov	r3, r0
 1364 017a 1A1C     		mov	r2, r3
 1365 017c 0223     		mov	r3, #2
 1366 017e 1340     		and	r3, r2
 1367 0180 9BB2     		uxth	r3, r3
 1368 0182 002B     		cmp	r3, #0
 1369 0184 03D1     		bne	.L81
 934:.\Generated_Source\PSoC4/CYBLE_uds.c ****                                                                      descrHandle[CYBLE_UDS_CCCD]))
 935:.\Generated_Source\PSoC4/CYBLE_uds.c ****                         {
 936:.\Generated_Source\PSoC4/CYBLE_uds.c ****                             gattErr = CYBLE_GATT_ERR_CCCD_IMPROPERLY_CONFIGURED;
 1370              		.loc 1 936 0
 1371 0186 1F23     		mov	r3, #31
 1372 0188 FB18     		add	r3, r7, r3
 1373 018a FD22     		mov	r2, #253
 1374 018c 1A70     		strb	r2, [r3]
 1375              	.L81:
 937:.\Generated_Source\PSoC4/CYBLE_uds.c ****                         }
 938:.\Generated_Source\PSoC4/CYBLE_uds.c ****                         else
 939:.\Generated_Source\PSoC4/CYBLE_uds.c ****                         {
 940:.\Generated_Source\PSoC4/CYBLE_uds.c ****                         }
 941:.\Generated_Source\PSoC4/CYBLE_uds.c ****                     }
 942:.\Generated_Source\PSoC4/CYBLE_uds.c ****                     
 943:.\Generated_Source\PSoC4/CYBLE_uds.c ****                     if(gattErr == CYBLE_GATT_ERR_NONE)
 1376              		.loc 1 943 0
 1377 018e 1F23     		mov	r3, #31
 1378 0190 FB18     		add	r3, r7, r3
 1379 0192 1B78     		ldrb	r3, [r3]
 1380 0194 002B     		cmp	r3, #0
 1381 0196 00D0     		beq	.LCB1199
 1382 0198 72E0     		b	.L83	@long jump
 1383              	.LCB1199:
 944:.\Generated_Source\PSoC4/CYBLE_uds.c ****                     {
 945:.\Generated_Source\PSoC4/CYBLE_uds.c ****                         locCharValue.value = &eventParam->handleValPair.value;
 1384              		.loc 1 945 0
 1385 019a 7B68     		ldr	r3, [r7, #4]
 1386 019c 1A1D     		add	r2, r3, #4
 1387 019e 0C23     		mov	r3, #12
 1388 01a0 FB18     		add	r3, r7, r3
ARM GAS  C:\Users\mohammed\AppData\Local\Temp\cceuH2T0.s 			page 42


 1389 01a2 5A60     		str	r2, [r3, #4]
 946:.\Generated_Source\PSoC4/CYBLE_uds.c ****                         
 947:.\Generated_Source\PSoC4/CYBLE_uds.c ****                         if(!CYBLE_GATT_DB_ATTR_CHECK_PRPTY(eventParam->handleValPair.attrHandle, CY
 1390              		.loc 1 947 0
 1391 01a4 7B68     		ldr	r3, [r7, #4]
 1392 01a6 9B89     		ldrh	r3, [r3, #12]
 1393 01a8 5A1E     		sub	r2, r3, #1
 1394 01aa 4849     		ldr	r1, .L89+16
 1395 01ac 131C     		mov	r3, r2
 1396 01ae 9B00     		lsl	r3, r3, #2
 1397 01b0 9B18     		add	r3, r3, r2
 1398 01b2 9B00     		lsl	r3, r3, #2
 1399 01b4 CB18     		add	r3, r1, r3
 1400 01b6 5A68     		ldr	r2, [r3, #4]
 1401 01b8 8023     		mov	r3, #128
 1402 01ba 1B01     		lsl	r3, r3, #4
 1403 01bc 1340     		and	r3, r2
 1404 01be 04D1     		bne	.L84
 948:.\Generated_Source\PSoC4/CYBLE_uds.c ****                         {
 949:.\Generated_Source\PSoC4/CYBLE_uds.c ****                             gattErr = CYBLE_GATT_ERR_WRITE_NOT_PERMITTED;
 1405              		.loc 1 949 0
 1406 01c0 1F23     		mov	r3, #31
 1407 01c2 FB18     		add	r3, r7, r3
 1408 01c4 0322     		mov	r2, #3
 1409 01c6 1A70     		strb	r2, [r3]
 1410 01c8 5AE0     		b	.L83
 1411              	.L84:
 950:.\Generated_Source\PSoC4/CYBLE_uds.c ****                         }
 951:.\Generated_Source\PSoC4/CYBLE_uds.c ****                         else if(eventParam->handleValPair.value.len > CYBLE_GATT_DB_ATTR_GET_ATTR_G
 1412              		.loc 1 951 0
 1413 01ca 7B68     		ldr	r3, [r7, #4]
 1414 01cc 1989     		ldrh	r1, [r3, #8]
 1415 01ce 7B68     		ldr	r3, [r7, #4]
 1416 01d0 9B89     		ldrh	r3, [r3, #12]
 1417 01d2 5A1E     		sub	r2, r3, #1
 1418 01d4 3D48     		ldr	r0, .L89+16
 1419 01d6 131C     		mov	r3, r2
 1420 01d8 9B00     		lsl	r3, r3, #2
 1421 01da 9B18     		add	r3, r3, r2
 1422 01dc 9B00     		lsl	r3, r3, #2
 1423 01de C318     		add	r3, r0, r3
 1424 01e0 0833     		add	r3, r3, #8
 1425 01e2 9B88     		ldrh	r3, [r3, #4]
 1426 01e4 9942     		cmp	r1, r3
 1427 01e6 04D9     		bls	.L85
 952:.\Generated_Source\PSoC4/CYBLE_uds.c ****                         {
 953:.\Generated_Source\PSoC4/CYBLE_uds.c ****                             gattErr = CYBLE_GATT_ERR_INVALID_ATTRIBUTE_LEN;   
 1428              		.loc 1 953 0
 1429 01e8 1F23     		mov	r3, #31
 1430 01ea FB18     		add	r3, r7, r3
 1431 01ec 0D22     		mov	r2, #13
 1432 01ee 1A70     		strb	r2, [r3]
 1433 01f0 46E0     		b	.L83
 1434              	.L85:
 954:.\Generated_Source\PSoC4/CYBLE_uds.c ****                         }
 955:.\Generated_Source\PSoC4/CYBLE_uds.c ****                         else
 956:.\Generated_Source\PSoC4/CYBLE_uds.c ****                         {
ARM GAS  C:\Users\mohammed\AppData\Local\Temp\cceuH2T0.s 			page 43


 957:.\Generated_Source\PSoC4/CYBLE_uds.c ****                             CyBle_UdsApplCallback((uint32)CYBLE_EVT_UDSS_WRITE_CHAR, &locCharValue)
 1435              		.loc 1 957 0
 1436 01f2 324B     		ldr	r3, .L89
 1437 01f4 1B68     		ldr	r3, [r3]
 1438 01f6 F422     		mov	r2, #244
 1439 01f8 FF32     		add	r2, r2, #255
 1440 01fa 111C     		mov	r1, r2
 1441 01fc 0C22     		mov	r2, #12
 1442 01fe BA18     		add	r2, r7, r2
 1443 0200 081C     		mov	r0, r1
 1444 0202 111C     		mov	r1, r2
 1445 0204 9847     		blx	r3
 958:.\Generated_Source\PSoC4/CYBLE_uds.c ****                             
 959:.\Generated_Source\PSoC4/CYBLE_uds.c ****                             if(locCharValue.gattErrorCode == CYBLE_GATT_ERR_USER_DATA_ACCESS_NOT_PE
 1446              		.loc 1 959 0
 1447 0206 0C23     		mov	r3, #12
 1448 0208 FB18     		add	r3, r7, r3
 1449 020a 1B7A     		ldrb	r3, [r3, #8]
 1450 020c 802B     		cmp	r3, #128
 1451 020e 04D1     		bne	.L86
 960:.\Generated_Source\PSoC4/CYBLE_uds.c ****             	            {
 961:.\Generated_Source\PSoC4/CYBLE_uds.c ****                                 gattErr = CYBLE_GATT_ERR_USER_DATA_ACCESS_NOT_PERMITTED;
 1452              		.loc 1 961 0
 1453 0210 1F23     		mov	r3, #31
 1454 0212 FB18     		add	r3, r7, r3
 1455 0214 8022     		mov	r2, #128
 1456 0216 1A70     		strb	r2, [r3]
 1457 0218 32E0     		b	.L83
 1458              	.L86:
 962:.\Generated_Source\PSoC4/CYBLE_uds.c ****                             }
 963:.\Generated_Source\PSoC4/CYBLE_uds.c ****                             else
 964:.\Generated_Source\PSoC4/CYBLE_uds.c ****                             {
 965:.\Generated_Source\PSoC4/CYBLE_uds.c ****                                 gattErr = CyBle_GattsWriteAttributeValue(&eventParam->handleValPair
 1459              		.loc 1 965 0
 1460 021a 7B68     		ldr	r3, [r7, #4]
 1461 021c 1A1D     		add	r2, r3, #4
 1462 021e 7B68     		ldr	r3, [r7, #4]
 1463 0220 1F21     		mov	r1, #31
 1464 0222 7C18     		add	r4, r7, r1
 1465 0224 101C     		mov	r0, r2
 1466 0226 0021     		mov	r1, #0
 1467 0228 1A1C     		mov	r2, r3
 1468 022a 4023     		mov	r3, #64
 1469 022c FFF7FEFF 		bl	CyBle_GattsWriteAttributeValue
 1470 0230 031C     		mov	r3, r0
 1471 0232 2370     		strb	r3, [r4]
 966:.\Generated_Source\PSoC4/CYBLE_uds.c ****             	                      0u, &eventParam->connHandle, CYBLE_GATT_DB_PEER_INITIATED);
 967:.\Generated_Source\PSoC4/CYBLE_uds.c ****                     
 968:.\Generated_Source\PSoC4/CYBLE_uds.c ****                                 if(gattErr == CYBLE_GATT_ERR_NONE)
 1472              		.loc 1 968 0
 1473 0234 1F23     		mov	r3, #31
 1474 0236 FB18     		add	r3, r7, r3
 1475 0238 1B78     		ldrb	r3, [r3]
 1476 023a 002B     		cmp	r3, #0
 1477 023c 20D1     		bne	.L83
 969:.\Generated_Source\PSoC4/CYBLE_uds.c ****                     	        {
 970:.\Generated_Source\PSoC4/CYBLE_uds.c ****                                     CYBLE_GATT_DB_ATTR_SET_ATTR_GEN_LEN
ARM GAS  C:\Users\mohammed\AppData\Local\Temp\cceuH2T0.s 			page 44


 1478              		.loc 1 970 0
 1479 023e 0C23     		mov	r3, #12
 1480 0240 FB18     		add	r3, r7, r3
 1481 0242 9B78     		ldrb	r3, [r3, #2]
 1482 0244 1F4A     		ldr	r2, .L89+8
 1483 0246 9B00     		lsl	r3, r3, #2
 1484 0248 D318     		add	r3, r2, r3
 1485 024a 5B88     		ldrh	r3, [r3, #2]
 1486 024c 5A1E     		sub	r2, r3, #1
 1487 024e 1F49     		ldr	r1, .L89+16
 1488 0250 131C     		mov	r3, r2
 1489 0252 9B00     		lsl	r3, r3, #2
 1490 0254 9B18     		add	r3, r3, r2
 1491 0256 9B00     		lsl	r3, r3, #2
 1492 0258 CB18     		add	r3, r1, r3
 1493 025a 0833     		add	r3, r3, #8
 1494 025c 9A68     		ldr	r2, [r3, #8]
 1495 025e 0C23     		mov	r3, #12
 1496 0260 FB18     		add	r3, r7, r3
 1497 0262 5B68     		ldr	r3, [r3, #4]
 1498 0264 9B88     		ldrh	r3, [r3, #4]
 1499 0266 1380     		strh	r3, [r2]
 971:.\Generated_Source\PSoC4/CYBLE_uds.c ****                                         (cyBle_udss.charInfo[locCharValue.charIndex].charHandle,
 972:.\Generated_Source\PSoC4/CYBLE_uds.c ****                                             locCharValue.value->len);
 973:.\Generated_Source\PSoC4/CYBLE_uds.c ****                                     
 974:.\Generated_Source\PSoC4/CYBLE_uds.c ****                                     if(locCharValue.charIndex == CYBLE_UDS_UCP)
 1500              		.loc 1 974 0
 1501 0268 0C23     		mov	r3, #12
 1502 026a FB18     		add	r3, r7, r3
 1503 026c 9B78     		ldrb	r3, [r3, #2]
 1504 026e 1D2B     		cmp	r3, #29
 1505 0270 06D1     		bne	.L83
 975:.\Generated_Source\PSoC4/CYBLE_uds.c ****                                     {
 976:.\Generated_Source\PSoC4/CYBLE_uds.c ****                                         cyBle_udsFlag |= CYBLE_UDS_FLAG_PROCESS;
 1506              		.loc 1 976 0
 1507 0272 154B     		ldr	r3, .L89+12
 1508 0274 1B78     		ldrb	r3, [r3]
 1509 0276 0122     		mov	r2, #1
 1510 0278 1343     		orr	r3, r2
 1511 027a DAB2     		uxtb	r2, r3
 1512 027c 124B     		ldr	r3, .L89+12
 1513 027e 1A70     		strb	r2, [r3]
 1514              	.L83:
 977:.\Generated_Source\PSoC4/CYBLE_uds.c ****                                     }
 978:.\Generated_Source\PSoC4/CYBLE_uds.c ****                     	        }
 979:.\Generated_Source\PSoC4/CYBLE_uds.c ****                             }
 980:.\Generated_Source\PSoC4/CYBLE_uds.c ****                         }
 981:.\Generated_Source\PSoC4/CYBLE_uds.c ****                     }
 982:.\Generated_Source\PSoC4/CYBLE_uds.c ****                     cyBle_eventHandlerFlag &= (uint8)~CYBLE_CALLBACK;
 1515              		.loc 1 982 0
 1516 0280 0F4B     		ldr	r3, .L89+4
 1517 0282 1B78     		ldrb	r3, [r3]
 1518 0284 DBB2     		uxtb	r3, r3
 1519 0286 0122     		mov	r2, #1
 1520 0288 9343     		bic	r3, r2
 1521 028a DAB2     		uxtb	r2, r3
 1522 028c 0C4B     		ldr	r3, .L89+4
ARM GAS  C:\Users\mohammed\AppData\Local\Temp\cceuH2T0.s 			page 45


 1523 028e 1A70     		strb	r2, [r3]
 983:.\Generated_Source\PSoC4/CYBLE_uds.c ****                     break;
 1524              		.loc 1 983 0
 1525 0290 0DE0     		b	.L69
 1526              	.L80:
 919:.\Generated_Source\PSoC4/CYBLE_uds.c **** 	        {
 1527              		.loc 1 919 0
 1528 0292 0C23     		mov	r3, #12
 1529 0294 FB18     		add	r3, r7, r3
 1530 0296 9B78     		ldrb	r3, [r3, #2]
 1531 0298 0133     		add	r3, r3, #1
 1532 029a DAB2     		uxtb	r2, r3
 1533 029c 0C23     		mov	r3, #12
 1534 029e FB18     		add	r3, r7, r3
 1535 02a0 9A70     		strb	r2, [r3, #2]
 1536              	.L79:
 918:.\Generated_Source\PSoC4/CYBLE_uds.c ****                 locCharValue.charIndex++)
 1537              		.loc 1 918 0 discriminator 1
 1538 02a2 0C23     		mov	r3, #12
 1539 02a4 FB18     		add	r3, r7, r3
 1540 02a6 9B78     		ldrb	r3, [r3, #2]
 917:.\Generated_Source\PSoC4/CYBLE_uds.c ****                 locCharValue.charIndex < CYBLE_UDS_CHAR_COUNT; 
 1541              		.loc 1 917 0 discriminator 1
 1542 02a8 1E2B     		cmp	r3, #30
 1543 02aa 00D8     		bhi	.LCB1352
 1544 02ac 28E7     		b	.L87	@long jump
 1545              	.LCB1352:
 1546              	.L69:
 1547              	.LBE9:
 984:.\Generated_Source\PSoC4/CYBLE_uds.c **** 				}
 985:.\Generated_Source\PSoC4/CYBLE_uds.c ****             }
 986:.\Generated_Source\PSoC4/CYBLE_uds.c ****         }
 987:.\Generated_Source\PSoC4/CYBLE_uds.c ****     }
 988:.\Generated_Source\PSoC4/CYBLE_uds.c **** 
 989:.\Generated_Source\PSoC4/CYBLE_uds.c ****     return (gattErr);
 1548              		.loc 1 989 0
 1549 02ae 1F23     		mov	r3, #31
 1550 02b0 FB18     		add	r3, r7, r3
 1551 02b2 1B78     		ldrb	r3, [r3]
 990:.\Generated_Source\PSoC4/CYBLE_uds.c **** }
 1552              		.loc 1 990 0
 1553 02b4 181C     		mov	r0, r3
 1554 02b6 BD46     		mov	sp, r7
 1555 02b8 09B0     		add	sp, sp, #36
 1556              		@ sp needed
 1557 02ba 90BD     		pop	{r4, r7, pc}
 1558              	.L90:
 1559              		.align	2
 1560              	.L89:
 1561 02bc 00000000 		.word	CyBle_UdsApplCallback
 1562 02c0 00000000 		.word	cyBle_eventHandlerFlag
 1563 02c4 00000000 		.word	cyBle_udss
 1564 02c8 00000000 		.word	cyBle_udsFlag
 1565 02cc 00000000 		.word	cyBle_gattDB
 1566              		.cfi_endproc
 1567              	.LFE11:
 1568              		.size	CyBle_UdssWriteEventHandler, .-CyBle_UdssWriteEventHandler
ARM GAS  C:\Users\mohammed\AppData\Local\Temp\cceuH2T0.s 			page 46


 1569              		.section	.text.CyBle_UdssPrepareWriteRequestEventHandler,"ax",%progbits
 1570              		.align	2
 1571              		.global	CyBle_UdssPrepareWriteRequestEventHandler
 1572              		.code	16
 1573              		.thumb_func
 1574              		.type	CyBle_UdssPrepareWriteRequestEventHandler, %function
 1575              	CyBle_UdssPrepareWriteRequestEventHandler:
 1576              	.LFB12:
 991:.\Generated_Source\PSoC4/CYBLE_uds.c **** 
 992:.\Generated_Source\PSoC4/CYBLE_uds.c **** /****************************************************************************** 
 993:.\Generated_Source\PSoC4/CYBLE_uds.c **** * Function Name: CyBle_UdssPrepareWriteEventHandler
 994:.\Generated_Source\PSoC4/CYBLE_uds.c **** ***************************************************************************//**
 995:.\Generated_Source\PSoC4/CYBLE_uds.c **** * 
 996:.\Generated_Source\PSoC4/CYBLE_uds.c **** *  Handles the Prepare Write Request Event.
 997:.\Generated_Source\PSoC4/CYBLE_uds.c **** * 
 998:.\Generated_Source\PSoC4/CYBLE_uds.c **** *  \param eventParam: The pointer to the data that comes with a prepare 
 999:.\Generated_Source\PSoC4/CYBLE_uds.c **** *                      write request.
1000:.\Generated_Source\PSoC4/CYBLE_uds.c **** *                                                  
1001:.\Generated_Source\PSoC4/CYBLE_uds.c **** * 
1002:.\Generated_Source\PSoC4/CYBLE_uds.c **** * \return
1003:.\Generated_Source\PSoC4/CYBLE_uds.c **** *  None.
1004:.\Generated_Source\PSoC4/CYBLE_uds.c **** * 
1005:.\Generated_Source\PSoC4/CYBLE_uds.c **** ******************************************************************************/
1006:.\Generated_Source\PSoC4/CYBLE_uds.c **** void CyBle_UdssPrepareWriteRequestEventHandler(CYBLE_GATTS_PREP_WRITE_REQ_PARAM_T *eventParam)
1007:.\Generated_Source\PSoC4/CYBLE_uds.c **** {
 1577              		.loc 1 1007 0
 1578              		.cfi_startproc
 1579 0000 80B5     		push	{r7, lr}
 1580              		.cfi_def_cfa_offset 8
 1581              		.cfi_offset 7, -8
 1582              		.cfi_offset 14, -4
 1583 0002 84B0     		sub	sp, sp, #16
 1584              		.cfi_def_cfa_offset 24
 1585 0004 00AF     		add	r7, sp, #0
 1586              		.cfi_def_cfa_register 7
 1587 0006 7860     		str	r0, [r7, #4]
1008:.\Generated_Source\PSoC4/CYBLE_uds.c ****     CYBLE_UDS_CHAR_INDEX_T locCharIndex;
1009:.\Generated_Source\PSoC4/CYBLE_uds.c ****     uint16 locMtu = CYBLE_GATT_MTU;
 1588              		.loc 1 1009 0
 1589 0008 0C23     		mov	r3, #12
 1590 000a FB18     		add	r3, r7, r3
 1591 000c 1722     		mov	r2, #23
 1592 000e 1A80     		strh	r2, [r3]
1010:.\Generated_Source\PSoC4/CYBLE_uds.c ****     (void) CyBle_GattGetMtuSize(&locMtu);
 1593              		.loc 1 1010 0
 1594 0010 0C23     		mov	r3, #12
 1595 0012 FB18     		add	r3, r7, r3
 1596 0014 181C     		mov	r0, r3
 1597 0016 FFF7FEFF 		bl	CyBle_GattGetMtuSize
1011:.\Generated_Source\PSoC4/CYBLE_uds.c ****     
1012:.\Generated_Source\PSoC4/CYBLE_uds.c ****     for(locCharIndex = CYBLE_UDS_FNM; locCharIndex <= CYBLE_UDS_EML; locCharIndex++)
 1598              		.loc 1 1012 0
 1599 001a 0F23     		mov	r3, #15
 1600 001c FB18     		add	r3, r7, r3
 1601 001e 0022     		mov	r2, #0
 1602 0020 1A70     		strb	r2, [r3]
 1603 0022 44E0     		b	.L92
ARM GAS  C:\Users\mohammed\AppData\Local\Temp\cceuH2T0.s 			page 47


 1604              	.L98:
1013:.\Generated_Source\PSoC4/CYBLE_uds.c ****     {
1014:.\Generated_Source\PSoC4/CYBLE_uds.c ****         if(eventParam->baseAddr[eventParam->currentPrepWriteReqCount - 1u].handleValuePair.attrHand
 1605              		.loc 1 1014 0
 1606 0024 7B68     		ldr	r3, [r7, #4]
 1607 0026 5A68     		ldr	r2, [r3, #4]
 1608 0028 7B68     		ldr	r3, [r7, #4]
 1609 002a 1B7A     		ldrb	r3, [r3, #8]
 1610 002c 2449     		ldr	r1, .L99
 1611 002e 8C46     		mov	ip, r1
 1612 0030 6344     		add	r3, r3, ip
 1613 0032 1B01     		lsl	r3, r3, #4
 1614 0034 D318     		add	r3, r2, r3
 1615 0036 1A89     		ldrh	r2, [r3, #8]
1015:.\Generated_Source\PSoC4/CYBLE_uds.c ****                 cyBle_udss.charInfo[locCharIndex].charHandle)
 1616              		.loc 1 1015 0
 1617 0038 0F23     		mov	r3, #15
 1618 003a FB18     		add	r3, r7, r3
 1619 003c 1B78     		ldrb	r3, [r3]
 1620 003e 2149     		ldr	r1, .L99+4
 1621 0040 9B00     		lsl	r3, r3, #2
 1622 0042 CB18     		add	r3, r1, r3
 1623 0044 5B88     		ldrh	r3, [r3, #2]
1014:.\Generated_Source\PSoC4/CYBLE_uds.c ****                 cyBle_udss.charInfo[locCharIndex].charHandle)
 1624              		.loc 1 1014 0
 1625 0046 9A42     		cmp	r2, r3
 1626 0048 2AD1     		bne	.L93
1016:.\Generated_Source\PSoC4/CYBLE_uds.c ****         {
1017:.\Generated_Source\PSoC4/CYBLE_uds.c ****             if(CYBLE_GATT_DB_ATTR_GET_ATTR_GEN_MAX_LEN(cyBle_udss.charInfo[locCharIndex].charHandle
 1627              		.loc 1 1017 0
 1628 004a 0F23     		mov	r3, #15
 1629 004c FB18     		add	r3, r7, r3
 1630 004e 1B78     		ldrb	r3, [r3]
 1631 0050 1C4A     		ldr	r2, .L99+4
 1632 0052 9B00     		lsl	r3, r3, #2
 1633 0054 D318     		add	r3, r2, r3
 1634 0056 5B88     		ldrh	r3, [r3, #2]
 1635 0058 5A1E     		sub	r2, r3, #1
 1636 005a 1B49     		ldr	r1, .L99+8
 1637 005c 131C     		mov	r3, r2
 1638 005e 9B00     		lsl	r3, r3, #2
 1639 0060 9B18     		add	r3, r3, r2
 1640 0062 9B00     		lsl	r3, r3, #2
 1641 0064 CB18     		add	r3, r1, r3
 1642 0066 0833     		add	r3, r3, #8
 1643 0068 9B88     		ldrh	r3, [r3, #4]
 1644 006a 1A1C     		mov	r2, r3
 1645 006c 0C23     		mov	r3, #12
 1646 006e FB18     		add	r3, r7, r3
 1647 0070 1B88     		ldrh	r3, [r3]
 1648 0072 033B     		sub	r3, r3, #3
 1649 0074 9A42     		cmp	r2, r3
 1650 0076 07D9     		bls	.L94
1018:.\Generated_Source\PSoC4/CYBLE_uds.c ****             {   
1019:.\Generated_Source\PSoC4/CYBLE_uds.c ****                 #ifdef ATT_QUEUED_WRITE_SUPPORT
1020:.\Generated_Source\PSoC4/CYBLE_uds.c ****                     if(eventParam->currentPrepWriteReqCount == CYBLE_GATTS_FIRST_PREP_WRITE_REQ)
 1651              		.loc 1 1020 0
ARM GAS  C:\Users\mohammed\AppData\Local\Temp\cceuH2T0.s 			page 48


 1652 0078 7B68     		ldr	r3, [r7, #4]
 1653 007a 1B7A     		ldrb	r3, [r3, #8]
 1654 007c 012B     		cmp	r3, #1
 1655 007e 06D1     		bne	.L96
1021:.\Generated_Source\PSoC4/CYBLE_uds.c ****                     {
1022:.\Generated_Source\PSoC4/CYBLE_uds.c ****                         CyBle_GattsPrepWriteReqSupport(CYBLE_GATTS_PREP_WRITE_SUPPORT);
 1656              		.loc 1 1022 0
 1657 0080 0120     		mov	r0, #1
 1658 0082 FFF7FEFF 		bl	CyBle_GattsPrepWriteReqSupport
 1659 0086 02E0     		b	.L96
 1660              	.L94:
1023:.\Generated_Source\PSoC4/CYBLE_uds.c ****                     }
1024:.\Generated_Source\PSoC4/CYBLE_uds.c ****                 #endif /* ATT_QUEUED_WRITE_SUPPORT */
1025:.\Generated_Source\PSoC4/CYBLE_uds.c ****             } 
1026:.\Generated_Source\PSoC4/CYBLE_uds.c ****             else
1027:.\Generated_Source\PSoC4/CYBLE_uds.c ****             {
1028:.\Generated_Source\PSoC4/CYBLE_uds.c ****                 eventParam->gattErrorCode = CYBLE_GATT_ERR_ATTRIBUTE_NOT_LONG;
 1661              		.loc 1 1028 0
 1662 0088 7B68     		ldr	r3, [r7, #4]
 1663 008a 0B22     		mov	r2, #11
 1664 008c 5A72     		strb	r2, [r3, #9]
 1665              	.L96:
1029:.\Generated_Source\PSoC4/CYBLE_uds.c ****             }
1030:.\Generated_Source\PSoC4/CYBLE_uds.c ****             
1031:.\Generated_Source\PSoC4/CYBLE_uds.c ****             /* Indicate that request was handled */
1032:.\Generated_Source\PSoC4/CYBLE_uds.c ****             cyBle_eventHandlerFlag &= (uint8)~CYBLE_CALLBACK;
 1666              		.loc 1 1032 0
 1667 008e 0F4B     		ldr	r3, .L99+12
 1668 0090 1B78     		ldrb	r3, [r3]
 1669 0092 DBB2     		uxtb	r3, r3
 1670 0094 0122     		mov	r2, #1
 1671 0096 9343     		bic	r3, r2
 1672 0098 DAB2     		uxtb	r2, r3
 1673 009a 0C4B     		ldr	r3, .L99+12
 1674 009c 1A70     		strb	r2, [r3]
1033:.\Generated_Source\PSoC4/CYBLE_uds.c ****             break;
 1675              		.loc 1 1033 0
 1676 009e 0BE0     		b	.L91
 1677              	.L93:
1012:.\Generated_Source\PSoC4/CYBLE_uds.c ****     {
 1678              		.loc 1 1012 0 discriminator 2
 1679 00a0 0F23     		mov	r3, #15
 1680 00a2 FB18     		add	r3, r7, r3
 1681 00a4 1A78     		ldrb	r2, [r3]
 1682 00a6 0F23     		mov	r3, #15
 1683 00a8 FB18     		add	r3, r7, r3
 1684 00aa 0132     		add	r2, r2, #1
 1685 00ac 1A70     		strb	r2, [r3]
 1686              	.L92:
1012:.\Generated_Source\PSoC4/CYBLE_uds.c ****     {
 1687              		.loc 1 1012 0 is_stmt 0 discriminator 1
 1688 00ae 0F23     		mov	r3, #15
 1689 00b0 FB18     		add	r3, r7, r3
 1690 00b2 1B78     		ldrb	r3, [r3]
 1691 00b4 022B     		cmp	r3, #2
 1692 00b6 B5D9     		bls	.L98
 1693              	.L91:
ARM GAS  C:\Users\mohammed\AppData\Local\Temp\cceuH2T0.s 			page 49


1034:.\Generated_Source\PSoC4/CYBLE_uds.c ****         }
1035:.\Generated_Source\PSoC4/CYBLE_uds.c ****     }
1036:.\Generated_Source\PSoC4/CYBLE_uds.c **** }
 1694              		.loc 1 1036 0 is_stmt 1
 1695 00b8 BD46     		mov	sp, r7
 1696 00ba 04B0     		add	sp, sp, #16
 1697              		@ sp needed
 1698 00bc 80BD     		pop	{r7, pc}
 1699              	.L100:
 1700 00be C046     		.align	2
 1701              	.L99:
 1702 00c0 FFFFFF0F 		.word	268435455
 1703 00c4 00000000 		.word	cyBle_udss
 1704 00c8 00000000 		.word	cyBle_gattDB
 1705 00cc 00000000 		.word	cyBle_eventHandlerFlag
 1706              		.cfi_endproc
 1707              	.LFE12:
 1708              		.size	CyBle_UdssPrepareWriteRequestEventHandler, .-CyBle_UdssPrepareWriteRequestEventHandler
 1709              		.section	.text.CyBle_UdssExecuteWriteRequestEventHandler,"ax",%progbits
 1710              		.align	2
 1711              		.global	CyBle_UdssExecuteWriteRequestEventHandler
 1712              		.code	16
 1713              		.thumb_func
 1714              		.type	CyBle_UdssExecuteWriteRequestEventHandler, %function
 1715              	CyBle_UdssExecuteWriteRequestEventHandler:
 1716              	.LFB13:
1037:.\Generated_Source\PSoC4/CYBLE_uds.c **** 
1038:.\Generated_Source\PSoC4/CYBLE_uds.c **** /****************************************************************************** 
1039:.\Generated_Source\PSoC4/CYBLE_uds.c **** * Function Name: CyBle_UdssExecuteWriteRequestEventHandler
1040:.\Generated_Source\PSoC4/CYBLE_uds.c **** ***************************************************************************//**
1041:.\Generated_Source\PSoC4/CYBLE_uds.c **** * 
1042:.\Generated_Source\PSoC4/CYBLE_uds.c **** *  Handles the Execute Write Request Event.
1043:.\Generated_Source\PSoC4/CYBLE_uds.c **** * 
1044:.\Generated_Source\PSoC4/CYBLE_uds.c **** *  \param eventParam: The pointer to the data that came with a write request.
1045:.\Generated_Source\PSoC4/CYBLE_uds.c **** * 
1046:.\Generated_Source\PSoC4/CYBLE_uds.c **** * \return
1047:.\Generated_Source\PSoC4/CYBLE_uds.c **** *  None.
1048:.\Generated_Source\PSoC4/CYBLE_uds.c **** * 
1049:.\Generated_Source\PSoC4/CYBLE_uds.c **** ******************************************************************************/
1050:.\Generated_Source\PSoC4/CYBLE_uds.c **** void CyBle_UdssExecuteWriteRequestEventHandler(CYBLE_GATTS_EXEC_WRITE_REQ_T *eventParam)
1051:.\Generated_Source\PSoC4/CYBLE_uds.c **** {
 1717              		.loc 1 1051 0
 1718              		.cfi_startproc
 1719 0000 90B5     		push	{r4, r7, lr}
 1720              		.cfi_def_cfa_offset 12
 1721              		.cfi_offset 4, -12
 1722              		.cfi_offset 7, -8
 1723              		.cfi_offset 14, -4
 1724 0002 93B0     		sub	sp, sp, #76
 1725              		.cfi_def_cfa_offset 88
 1726 0004 00AF     		add	r7, sp, #0
 1727              		.cfi_def_cfa_register 7
 1728 0006 7860     		str	r0, [r7, #4]
1052:.\Generated_Source\PSoC4/CYBLE_uds.c ****     uint8 locCount;
1053:.\Generated_Source\PSoC4/CYBLE_uds.c ****     CYBLE_UDS_CHAR_VALUE_T locCharValue[CYBLE_UDS_LONG_CHAR_COUNT];
1054:.\Generated_Source\PSoC4/CYBLE_uds.c ****     CYBLE_GATT_VALUE_T locGattValue[CYBLE_UDS_LONG_CHAR_COUNT];
1055:.\Generated_Source\PSoC4/CYBLE_uds.c ****     CYBLE_UDS_CHAR_INDEX_T locCharIndex;
ARM GAS  C:\Users\mohammed\AppData\Local\Temp\cceuH2T0.s 			page 50


1056:.\Generated_Source\PSoC4/CYBLE_uds.c ****     for(locCharIndex = CYBLE_UDS_FNM; locCharIndex <= CYBLE_UDS_EML; locCharIndex++)
 1729              		.loc 1 1056 0
 1730 0008 4623     		mov	r3, #70
 1731 000a FB18     		add	r3, r7, r3
 1732 000c 0022     		mov	r2, #0
 1733 000e 1A70     		strb	r2, [r3]
 1734 0010 17E0     		b	.L102
 1735              	.L103:
1057:.\Generated_Source\PSoC4/CYBLE_uds.c ****     {
1058:.\Generated_Source\PSoC4/CYBLE_uds.c ****         locGattValue[locCharIndex].len = 0u;
 1736              		.loc 1 1058 0 discriminator 3
 1737 0012 4623     		mov	r3, #70
 1738 0014 FB18     		add	r3, r7, r3
 1739 0016 1B78     		ldrb	r3, [r3]
 1740 0018 0822     		mov	r2, #8
 1741 001a BA18     		add	r2, r7, r2
 1742 001c DB00     		lsl	r3, r3, #3
 1743 001e D318     		add	r3, r2, r3
 1744 0020 0022     		mov	r2, #0
 1745 0022 9A80     		strh	r2, [r3, #4]
1059:.\Generated_Source\PSoC4/CYBLE_uds.c ****         locGattValue[locCharIndex].val = NULL;
 1746              		.loc 1 1059 0 discriminator 3
 1747 0024 4623     		mov	r3, #70
 1748 0026 FB18     		add	r3, r7, r3
 1749 0028 1A78     		ldrb	r2, [r3]
 1750 002a 0823     		mov	r3, #8
 1751 002c FB18     		add	r3, r7, r3
 1752 002e D200     		lsl	r2, r2, #3
 1753 0030 0021     		mov	r1, #0
 1754 0032 D150     		str	r1, [r2, r3]
1056:.\Generated_Source\PSoC4/CYBLE_uds.c ****     {
 1755              		.loc 1 1056 0 discriminator 3
 1756 0034 4623     		mov	r3, #70
 1757 0036 FB18     		add	r3, r7, r3
 1758 0038 1A78     		ldrb	r2, [r3]
 1759 003a 4623     		mov	r3, #70
 1760 003c FB18     		add	r3, r7, r3
 1761 003e 0132     		add	r2, r2, #1
 1762 0040 1A70     		strb	r2, [r3]
 1763              	.L102:
1056:.\Generated_Source\PSoC4/CYBLE_uds.c ****     {
 1764              		.loc 1 1056 0 is_stmt 0 discriminator 1
 1765 0042 4623     		mov	r3, #70
 1766 0044 FB18     		add	r3, r7, r3
 1767 0046 1B78     		ldrb	r3, [r3]
 1768 0048 022B     		cmp	r3, #2
 1769 004a E2D9     		bls	.L103
1060:.\Generated_Source\PSoC4/CYBLE_uds.c ****     }
1061:.\Generated_Source\PSoC4/CYBLE_uds.c ****     
1062:.\Generated_Source\PSoC4/CYBLE_uds.c ****     for(locCount = 0u; locCount < eventParam->prepWriteReqCount; locCount++)
 1770              		.loc 1 1062 0 is_stmt 1
 1771 004c 4723     		mov	r3, #71
 1772 004e FB18     		add	r3, r7, r3
 1773 0050 0022     		mov	r2, #0
 1774 0052 1A70     		strb	r2, [r3]
 1775 0054 75E0     		b	.L104
 1776              	.L109:
ARM GAS  C:\Users\mohammed\AppData\Local\Temp\cceuH2T0.s 			page 51


1063:.\Generated_Source\PSoC4/CYBLE_uds.c ****     {
1064:.\Generated_Source\PSoC4/CYBLE_uds.c ****         for(locCharIndex = CYBLE_UDS_FNM; locCharIndex <= CYBLE_UDS_EML; locCharIndex++)
 1777              		.loc 1 1064 0
 1778 0056 4623     		mov	r3, #70
 1779 0058 FB18     		add	r3, r7, r3
 1780 005a 0022     		mov	r2, #0
 1781 005c 1A70     		strb	r2, [r3]
 1782 005e 64E0     		b	.L105
 1783              	.L108:
1065:.\Generated_Source\PSoC4/CYBLE_uds.c ****         {
1066:.\Generated_Source\PSoC4/CYBLE_uds.c ****             if(eventParam->baseAddr[locCount].handleValuePair.attrHandle ==
 1784              		.loc 1 1066 0
 1785 0060 7B68     		ldr	r3, [r7, #4]
 1786 0062 5A68     		ldr	r2, [r3, #4]
 1787 0064 4723     		mov	r3, #71
 1788 0066 FB18     		add	r3, r7, r3
 1789 0068 1B78     		ldrb	r3, [r3]
 1790 006a 1B01     		lsl	r3, r3, #4
 1791 006c D318     		add	r3, r2, r3
 1792 006e 1A89     		ldrh	r2, [r3, #8]
1067:.\Generated_Source\PSoC4/CYBLE_uds.c ****                 cyBle_udss.charInfo[locCharIndex].charHandle)
 1793              		.loc 1 1067 0
 1794 0070 4623     		mov	r3, #70
 1795 0072 FB18     		add	r3, r7, r3
 1796 0074 1B78     		ldrb	r3, [r3]
 1797 0076 9549     		ldr	r1, .L115
 1798 0078 9B00     		lsl	r3, r3, #2
 1799 007a CB18     		add	r3, r1, r3
 1800 007c 5B88     		ldrh	r3, [r3, #2]
1066:.\Generated_Source\PSoC4/CYBLE_uds.c ****                 cyBle_udss.charInfo[locCharIndex].charHandle)
 1801              		.loc 1 1066 0
 1802 007e 9A42     		cmp	r2, r3
 1803 0080 4CD1     		bne	.L106
1068:.\Generated_Source\PSoC4/CYBLE_uds.c ****             {
1069:.\Generated_Source\PSoC4/CYBLE_uds.c ****                 locGattValue[locCharIndex].len = eventParam->baseAddr[locCount].offset + 
 1804              		.loc 1 1069 0
 1805 0082 4623     		mov	r3, #70
 1806 0084 FB18     		add	r3, r7, r3
 1807 0086 1978     		ldrb	r1, [r3]
 1808 0088 7B68     		ldr	r3, [r7, #4]
 1809 008a 5A68     		ldr	r2, [r3, #4]
 1810 008c 4723     		mov	r3, #71
 1811 008e FB18     		add	r3, r7, r3
 1812 0090 1B78     		ldrb	r3, [r3]
 1813 0092 1B01     		lsl	r3, r3, #4
 1814 0094 D318     		add	r3, r2, r3
 1815 0096 9A89     		ldrh	r2, [r3, #12]
1070:.\Generated_Source\PSoC4/CYBLE_uds.c ****                                    eventParam->baseAddr[locCount].handleValuePair.value.len;
 1816              		.loc 1 1070 0
 1817 0098 7B68     		ldr	r3, [r7, #4]
 1818 009a 5868     		ldr	r0, [r3, #4]
 1819 009c 4723     		mov	r3, #71
 1820 009e FB18     		add	r3, r7, r3
 1821 00a0 1B78     		ldrb	r3, [r3]
 1822 00a2 1B01     		lsl	r3, r3, #4
 1823 00a4 C318     		add	r3, r0, r3
 1824 00a6 9B88     		ldrh	r3, [r3, #4]
ARM GAS  C:\Users\mohammed\AppData\Local\Temp\cceuH2T0.s 			page 52


1069:.\Generated_Source\PSoC4/CYBLE_uds.c ****                                    eventParam->baseAddr[locCount].handleValuePair.value.len;
 1825              		.loc 1 1069 0
 1826 00a8 D318     		add	r3, r2, r3
 1827 00aa 98B2     		uxth	r0, r3
 1828 00ac 0823     		mov	r3, #8
 1829 00ae FA18     		add	r2, r7, r3
 1830 00b0 CB00     		lsl	r3, r1, #3
 1831 00b2 D318     		add	r3, r2, r3
 1832 00b4 021C     		add	r2, r0, #0
 1833 00b6 9A80     		strh	r2, [r3, #4]
1071:.\Generated_Source\PSoC4/CYBLE_uds.c **** 
1072:.\Generated_Source\PSoC4/CYBLE_uds.c ****                 if(locGattValue[locCharIndex].val == NULL)
 1834              		.loc 1 1072 0
 1835 00b8 4623     		mov	r3, #70
 1836 00ba FB18     		add	r3, r7, r3
 1837 00bc 1A78     		ldrb	r2, [r3]
 1838 00be 0823     		mov	r3, #8
 1839 00c0 FB18     		add	r3, r7, r3
 1840 00c2 D200     		lsl	r2, r2, #3
 1841 00c4 D358     		ldr	r3, [r2, r3]
 1842 00c6 002B     		cmp	r3, #0
 1843 00c8 0FD1     		bne	.L107
1073:.\Generated_Source\PSoC4/CYBLE_uds.c ****                 {
1074:.\Generated_Source\PSoC4/CYBLE_uds.c ****                     locGattValue[locCharIndex].val = eventParam->baseAddr[locCount].handleValuePair
 1844              		.loc 1 1074 0
 1845 00ca 4623     		mov	r3, #70
 1846 00cc FB18     		add	r3, r7, r3
 1847 00ce 1A78     		ldrb	r2, [r3]
 1848 00d0 7B68     		ldr	r3, [r7, #4]
 1849 00d2 5968     		ldr	r1, [r3, #4]
 1850 00d4 4723     		mov	r3, #71
 1851 00d6 FB18     		add	r3, r7, r3
 1852 00d8 1B78     		ldrb	r3, [r3]
 1853 00da 1B01     		lsl	r3, r3, #4
 1854 00dc CB18     		add	r3, r1, r3
 1855 00de 1968     		ldr	r1, [r3]
 1856 00e0 0823     		mov	r3, #8
 1857 00e2 FB18     		add	r3, r7, r3
 1858 00e4 D200     		lsl	r2, r2, #3
 1859 00e6 D150     		str	r1, [r2, r3]
 1860 00e8 18E0     		b	.L106
 1861              	.L107:
1075:.\Generated_Source\PSoC4/CYBLE_uds.c ****                 }
1076:.\Generated_Source\PSoC4/CYBLE_uds.c ****                 else if(eventParam->baseAddr[locCount].offset == 0u)
 1862              		.loc 1 1076 0
 1863 00ea 7B68     		ldr	r3, [r7, #4]
 1864 00ec 5A68     		ldr	r2, [r3, #4]
 1865 00ee 4723     		mov	r3, #71
 1866 00f0 FB18     		add	r3, r7, r3
 1867 00f2 1B78     		ldrb	r3, [r3]
 1868 00f4 1B01     		lsl	r3, r3, #4
 1869 00f6 D318     		add	r3, r2, r3
 1870 00f8 9B89     		ldrh	r3, [r3, #12]
 1871 00fa 002B     		cmp	r3, #0
 1872 00fc 0ED1     		bne	.L106
1077:.\Generated_Source\PSoC4/CYBLE_uds.c ****                 {
1078:.\Generated_Source\PSoC4/CYBLE_uds.c ****                     /* Case when client wants to rewrite value from beginning */
ARM GAS  C:\Users\mohammed\AppData\Local\Temp\cceuH2T0.s 			page 53


1079:.\Generated_Source\PSoC4/CYBLE_uds.c ****                     locGattValue[locCharIndex].val = eventParam->baseAddr[locCount].handleValuePair
 1873              		.loc 1 1079 0
 1874 00fe 4623     		mov	r3, #70
 1875 0100 FB18     		add	r3, r7, r3
 1876 0102 1A78     		ldrb	r2, [r3]
 1877 0104 7B68     		ldr	r3, [r7, #4]
 1878 0106 5968     		ldr	r1, [r3, #4]
 1879 0108 4723     		mov	r3, #71
 1880 010a FB18     		add	r3, r7, r3
 1881 010c 1B78     		ldrb	r3, [r3]
 1882 010e 1B01     		lsl	r3, r3, #4
 1883 0110 CB18     		add	r3, r1, r3
 1884 0112 1968     		ldr	r1, [r3]
 1885 0114 0823     		mov	r3, #8
 1886 0116 FB18     		add	r3, r7, r3
 1887 0118 D200     		lsl	r2, r2, #3
 1888 011a D150     		str	r1, [r2, r3]
 1889              	.L106:
1064:.\Generated_Source\PSoC4/CYBLE_uds.c ****         {
 1890              		.loc 1 1064 0 discriminator 2
 1891 011c 4623     		mov	r3, #70
 1892 011e FB18     		add	r3, r7, r3
 1893 0120 1A78     		ldrb	r2, [r3]
 1894 0122 4623     		mov	r3, #70
 1895 0124 FB18     		add	r3, r7, r3
 1896 0126 0132     		add	r2, r2, #1
 1897 0128 1A70     		strb	r2, [r3]
 1898              	.L105:
1064:.\Generated_Source\PSoC4/CYBLE_uds.c ****         {
 1899              		.loc 1 1064 0 is_stmt 0 discriminator 1
 1900 012a 4623     		mov	r3, #70
 1901 012c FB18     		add	r3, r7, r3
 1902 012e 1B78     		ldrb	r3, [r3]
 1903 0130 022B     		cmp	r3, #2
 1904 0132 95D9     		bls	.L108
1062:.\Generated_Source\PSoC4/CYBLE_uds.c ****     {
 1905              		.loc 1 1062 0 is_stmt 1 discriminator 2
 1906 0134 4723     		mov	r3, #71
 1907 0136 FB18     		add	r3, r7, r3
 1908 0138 1A78     		ldrb	r2, [r3]
 1909 013a 4723     		mov	r3, #71
 1910 013c FB18     		add	r3, r7, r3
 1911 013e 0132     		add	r2, r2, #1
 1912 0140 1A70     		strb	r2, [r3]
 1913              	.L104:
1062:.\Generated_Source\PSoC4/CYBLE_uds.c ****     {
 1914              		.loc 1 1062 0 is_stmt 0 discriminator 1
 1915 0142 7B68     		ldr	r3, [r7, #4]
 1916 0144 1B7A     		ldrb	r3, [r3, #8]
 1917 0146 4722     		mov	r2, #71
 1918 0148 BA18     		add	r2, r7, r2
 1919 014a 1278     		ldrb	r2, [r2]
 1920 014c 9A42     		cmp	r2, r3
 1921 014e 00D2     		bcs	.LCB1708
 1922 0150 81E7     		b	.L109	@long jump
 1923              	.LCB1708:
1080:.\Generated_Source\PSoC4/CYBLE_uds.c ****                 }
ARM GAS  C:\Users\mohammed\AppData\Local\Temp\cceuH2T0.s 			page 54


1081:.\Generated_Source\PSoC4/CYBLE_uds.c ****                 else
1082:.\Generated_Source\PSoC4/CYBLE_uds.c ****                 {
1083:.\Generated_Source\PSoC4/CYBLE_uds.c ****                     /* Do nothing */
1084:.\Generated_Source\PSoC4/CYBLE_uds.c ****                 }
1085:.\Generated_Source\PSoC4/CYBLE_uds.c ****             }
1086:.\Generated_Source\PSoC4/CYBLE_uds.c ****         }
1087:.\Generated_Source\PSoC4/CYBLE_uds.c ****     }
1088:.\Generated_Source\PSoC4/CYBLE_uds.c ****     
1089:.\Generated_Source\PSoC4/CYBLE_uds.c ****     for(locCharIndex = CYBLE_UDS_FNM; locCharIndex <= CYBLE_UDS_EML; locCharIndex++)
 1924              		.loc 1 1089 0 is_stmt 1
 1925 0152 4623     		mov	r3, #70
 1926 0154 FB18     		add	r3, r7, r3
 1927 0156 0022     		mov	r2, #0
 1928 0158 1A70     		strb	r2, [r3]
 1929 015a ADE0     		b	.L110
 1930              	.L114:
1090:.\Generated_Source\PSoC4/CYBLE_uds.c ****     {
1091:.\Generated_Source\PSoC4/CYBLE_uds.c ****         if((locGattValue[locCharIndex].len != 0u) &&
 1931              		.loc 1 1091 0
 1932 015c 4623     		mov	r3, #70
 1933 015e FB18     		add	r3, r7, r3
 1934 0160 1B78     		ldrb	r3, [r3]
 1935 0162 0822     		mov	r2, #8
 1936 0164 BA18     		add	r2, r7, r2
 1937 0166 DB00     		lsl	r3, r3, #3
 1938 0168 D318     		add	r3, r2, r3
 1939 016a 9B88     		ldrh	r3, [r3, #4]
 1940 016c 002B     		cmp	r3, #0
 1941 016e 00D1     		bne	.LCB1726
 1942 0170 9BE0     		b	.L111	@long jump
 1943              	.LCB1726:
1092:.\Generated_Source\PSoC4/CYBLE_uds.c ****            (locGattValue[locCharIndex].len <= 
 1944              		.loc 1 1092 0 discriminator 1
 1945 0172 4623     		mov	r3, #70
 1946 0174 FB18     		add	r3, r7, r3
 1947 0176 1B78     		ldrb	r3, [r3]
 1948 0178 0822     		mov	r2, #8
 1949 017a BA18     		add	r2, r7, r2
 1950 017c DB00     		lsl	r3, r3, #3
 1951 017e D318     		add	r3, r2, r3
 1952 0180 9988     		ldrh	r1, [r3, #4]
1093:.\Generated_Source\PSoC4/CYBLE_uds.c ****             CYBLE_GATT_DB_ATTR_GET_ATTR_GEN_MAX_LEN(cyBle_udss.charInfo[locCharIndex].charHandle)))
 1953              		.loc 1 1093 0 discriminator 1
 1954 0182 4623     		mov	r3, #70
 1955 0184 FB18     		add	r3, r7, r3
 1956 0186 1B78     		ldrb	r3, [r3]
 1957 0188 504A     		ldr	r2, .L115
 1958 018a 9B00     		lsl	r3, r3, #2
 1959 018c D318     		add	r3, r2, r3
 1960 018e 5B88     		ldrh	r3, [r3, #2]
 1961 0190 5A1E     		sub	r2, r3, #1
 1962 0192 4F48     		ldr	r0, .L115+4
 1963 0194 131C     		mov	r3, r2
 1964 0196 9B00     		lsl	r3, r3, #2
 1965 0198 9B18     		add	r3, r3, r2
 1966 019a 9B00     		lsl	r3, r3, #2
 1967 019c C318     		add	r3, r0, r3
ARM GAS  C:\Users\mohammed\AppData\Local\Temp\cceuH2T0.s 			page 55


 1968 019e 0833     		add	r3, r3, #8
 1969 01a0 9B88     		ldrh	r3, [r3, #4]
1091:.\Generated_Source\PSoC4/CYBLE_uds.c ****            (locGattValue[locCharIndex].len <= 
 1970              		.loc 1 1091 0 discriminator 1
 1971 01a2 9942     		cmp	r1, r3
 1972 01a4 00D9     		bls	.LCB1752
 1973 01a6 80E0     		b	.L111	@long jump
 1974              	.LCB1752:
1094:.\Generated_Source\PSoC4/CYBLE_uds.c ****         {
1095:.\Generated_Source\PSoC4/CYBLE_uds.c ****             /* Check the execWriteFlag before execute or cancel write long operation */
1096:.\Generated_Source\PSoC4/CYBLE_uds.c ****             if(eventParam->execWriteFlag == CYBLE_GATT_EXECUTE_WRITE_EXEC_FLAG)
 1975              		.loc 1 1096 0
 1976 01a8 7B68     		ldr	r3, [r7, #4]
 1977 01aa 5B7A     		ldrb	r3, [r3, #9]
 1978 01ac 012B     		cmp	r3, #1
 1979 01ae 74D1     		bne	.L112
1097:.\Generated_Source\PSoC4/CYBLE_uds.c ****             {
1098:.\Generated_Source\PSoC4/CYBLE_uds.c ****                 locCharValue[locCharIndex].gattErrorCode = CYBLE_GATT_ERR_NONE;
 1980              		.loc 1 1098 0
 1981 01b0 4623     		mov	r3, #70
 1982 01b2 FB18     		add	r3, r7, r3
 1983 01b4 1A78     		ldrb	r2, [r3]
 1984 01b6 2023     		mov	r3, #32
 1985 01b8 F918     		add	r1, r7, r3
 1986 01ba 131C     		mov	r3, r2
 1987 01bc 5B00     		lsl	r3, r3, #1
 1988 01be 9B18     		add	r3, r3, r2
 1989 01c0 9B00     		lsl	r3, r3, #2
 1990 01c2 CB18     		add	r3, r1, r3
 1991 01c4 0833     		add	r3, r3, #8
 1992 01c6 0022     		mov	r2, #0
 1993 01c8 1A70     		strb	r2, [r3]
1099:.\Generated_Source\PSoC4/CYBLE_uds.c ****                 locCharValue[locCharIndex].connHandle = eventParam->connHandle;
 1994              		.loc 1 1099 0
 1995 01ca 4623     		mov	r3, #70
 1996 01cc FB18     		add	r3, r7, r3
 1997 01ce 1A78     		ldrb	r2, [r3]
 1998 01d0 2023     		mov	r3, #32
 1999 01d2 F918     		add	r1, r7, r3
 2000 01d4 131C     		mov	r3, r2
 2001 01d6 5B00     		lsl	r3, r3, #1
 2002 01d8 9B18     		add	r3, r3, r2
 2003 01da 9B00     		lsl	r3, r3, #2
 2004 01dc 7A68     		ldr	r2, [r7, #4]
 2005 01de 1288     		ldrh	r2, [r2]
 2006 01e0 5A52     		strh	r2, [r3, r1]
1100:.\Generated_Source\PSoC4/CYBLE_uds.c ****                 locCharValue[locCharIndex].charIndex = locCharIndex;
 2007              		.loc 1 1100 0
 2008 01e2 4623     		mov	r3, #70
 2009 01e4 FB18     		add	r3, r7, r3
 2010 01e6 1A78     		ldrb	r2, [r3]
 2011 01e8 2023     		mov	r3, #32
 2012 01ea F918     		add	r1, r7, r3
 2013 01ec 131C     		mov	r3, r2
 2014 01ee 5B00     		lsl	r3, r3, #1
 2015 01f0 9B18     		add	r3, r3, r2
 2016 01f2 9B00     		lsl	r3, r3, #2
ARM GAS  C:\Users\mohammed\AppData\Local\Temp\cceuH2T0.s 			page 56


 2017 01f4 4622     		mov	r2, #70
 2018 01f6 BA18     		add	r2, r7, r2
 2019 01f8 CB18     		add	r3, r1, r3
 2020 01fa 1278     		ldrb	r2, [r2]
 2021 01fc 9A70     		strb	r2, [r3, #2]
1101:.\Generated_Source\PSoC4/CYBLE_uds.c ****                 locCharValue[locCharIndex].value = &locGattValue[locCharIndex];
 2022              		.loc 1 1101 0
 2023 01fe 4623     		mov	r3, #70
 2024 0200 FB18     		add	r3, r7, r3
 2025 0202 1A78     		ldrb	r2, [r3]
 2026 0204 4623     		mov	r3, #70
 2027 0206 FB18     		add	r3, r7, r3
 2028 0208 1B78     		ldrb	r3, [r3]
 2029 020a 0821     		mov	r1, #8
 2030 020c 7918     		add	r1, r7, r1
 2031 020e DB00     		lsl	r3, r3, #3
 2032 0210 C918     		add	r1, r1, r3
 2033 0212 2023     		mov	r3, #32
 2034 0214 F818     		add	r0, r7, r3
 2035 0216 131C     		mov	r3, r2
 2036 0218 5B00     		lsl	r3, r3, #1
 2037 021a 9B18     		add	r3, r3, r2
 2038 021c 9B00     		lsl	r3, r3, #2
 2039 021e C318     		add	r3, r0, r3
 2040 0220 5960     		str	r1, [r3, #4]
1102:.\Generated_Source\PSoC4/CYBLE_uds.c ****             
1103:.\Generated_Source\PSoC4/CYBLE_uds.c ****                 CyBle_UdsApplCallback((uint32)CYBLE_EVT_UDSS_WRITE_CHAR, &locCharValue[locCharIndex
 2041              		.loc 1 1103 0
 2042 0222 2C4B     		ldr	r3, .L115+8
 2043 0224 1C68     		ldr	r4, [r3]
 2044 0226 4623     		mov	r3, #70
 2045 0228 FB18     		add	r3, r7, r3
 2046 022a 1A78     		ldrb	r2, [r3]
 2047 022c 2023     		mov	r3, #32
 2048 022e F918     		add	r1, r7, r3
 2049 0230 131C     		mov	r3, r2
 2050 0232 5B00     		lsl	r3, r3, #1
 2051 0234 9B18     		add	r3, r3, r2
 2052 0236 9B00     		lsl	r3, r3, #2
 2053 0238 CA18     		add	r2, r1, r3
 2054 023a F423     		mov	r3, #244
 2055 023c FF33     		add	r3, r3, #255
 2056 023e 181C     		mov	r0, r3
 2057 0240 111C     		mov	r1, r2
 2058 0242 A047     		blx	r4
1104:.\Generated_Source\PSoC4/CYBLE_uds.c ****                            
1105:.\Generated_Source\PSoC4/CYBLE_uds.c ****                 if(locCharValue[locCharIndex].gattErrorCode == CYBLE_GATT_ERR_USER_DATA_ACCESS_NOT_
 2059              		.loc 1 1105 0
 2060 0244 4623     		mov	r3, #70
 2061 0246 FB18     		add	r3, r7, r3
 2062 0248 1A78     		ldrb	r2, [r3]
 2063 024a 2023     		mov	r3, #32
 2064 024c F918     		add	r1, r7, r3
 2065 024e 131C     		mov	r3, r2
 2066 0250 5B00     		lsl	r3, r3, #1
 2067 0252 9B18     		add	r3, r3, r2
 2068 0254 9B00     		lsl	r3, r3, #2
ARM GAS  C:\Users\mohammed\AppData\Local\Temp\cceuH2T0.s 			page 57


 2069 0256 CB18     		add	r3, r1, r3
 2070 0258 0833     		add	r3, r3, #8
 2071 025a 1B78     		ldrb	r3, [r3]
 2072 025c 802B     		cmp	r3, #128
 2073 025e 03D1     		bne	.L113
1106:.\Generated_Source\PSoC4/CYBLE_uds.c ****                 {
1107:.\Generated_Source\PSoC4/CYBLE_uds.c ****                     eventParam->gattErrorCode = CYBLE_GATT_ERR_USER_DATA_ACCESS_NOT_PERMITTED;
 2074              		.loc 1 1107 0
 2075 0260 7B68     		ldr	r3, [r7, #4]
 2076 0262 8022     		mov	r2, #128
 2077 0264 1A73     		strb	r2, [r3, #12]
 2078 0266 18E0     		b	.L112
 2079              	.L113:
1108:.\Generated_Source\PSoC4/CYBLE_uds.c ****                 }
1109:.\Generated_Source\PSoC4/CYBLE_uds.c ****                 else
1110:.\Generated_Source\PSoC4/CYBLE_uds.c ****                 {
1111:.\Generated_Source\PSoC4/CYBLE_uds.c ****                     CYBLE_GATT_DB_ATTR_SET_ATTR_GEN_LEN(cyBle_udss.charInfo[locCharIndex].charHandl
 2080              		.loc 1 1111 0
 2081 0268 4623     		mov	r3, #70
 2082 026a FB18     		add	r3, r7, r3
 2083 026c 1B78     		ldrb	r3, [r3]
 2084 026e 174A     		ldr	r2, .L115
 2085 0270 9B00     		lsl	r3, r3, #2
 2086 0272 D318     		add	r3, r2, r3
 2087 0274 5B88     		ldrh	r3, [r3, #2]
 2088 0276 5A1E     		sub	r2, r3, #1
 2089 0278 1549     		ldr	r1, .L115+4
 2090 027a 131C     		mov	r3, r2
 2091 027c 9B00     		lsl	r3, r3, #2
 2092 027e 9B18     		add	r3, r3, r2
 2093 0280 9B00     		lsl	r3, r3, #2
 2094 0282 CB18     		add	r3, r1, r3
 2095 0284 0833     		add	r3, r3, #8
 2096 0286 9B68     		ldr	r3, [r3, #8]
 2097 0288 4622     		mov	r2, #70
 2098 028a BA18     		add	r2, r7, r2
 2099 028c 1278     		ldrb	r2, [r2]
 2100 028e 0821     		mov	r1, #8
 2101 0290 7918     		add	r1, r7, r1
 2102 0292 D200     		lsl	r2, r2, #3
 2103 0294 8A18     		add	r2, r1, r2
 2104 0296 9288     		ldrh	r2, [r2, #4]
 2105 0298 1A80     		strh	r2, [r3]
 2106              	.L112:
1112:.\Generated_Source\PSoC4/CYBLE_uds.c ****                                                             locGattValue[locCharIndex].len);    
1113:.\Generated_Source\PSoC4/CYBLE_uds.c ****                 }
1114:.\Generated_Source\PSoC4/CYBLE_uds.c ****             }
1115:.\Generated_Source\PSoC4/CYBLE_uds.c ****             
1116:.\Generated_Source\PSoC4/CYBLE_uds.c ****             /* Indicate that request was handled */
1117:.\Generated_Source\PSoC4/CYBLE_uds.c ****             cyBle_eventHandlerFlag &= (uint8)~CYBLE_CALLBACK;
 2107              		.loc 1 1117 0
 2108 029a 0F4B     		ldr	r3, .L115+12
 2109 029c 1B78     		ldrb	r3, [r3]
 2110 029e DBB2     		uxtb	r3, r3
 2111 02a0 0122     		mov	r2, #1
 2112 02a2 9343     		bic	r3, r2
 2113 02a4 DAB2     		uxtb	r2, r3
ARM GAS  C:\Users\mohammed\AppData\Local\Temp\cceuH2T0.s 			page 58


 2114 02a6 0C4B     		ldr	r3, .L115+12
 2115 02a8 1A70     		strb	r2, [r3]
 2116              	.L111:
1089:.\Generated_Source\PSoC4/CYBLE_uds.c ****     {
 2117              		.loc 1 1089 0 discriminator 2
 2118 02aa 4623     		mov	r3, #70
 2119 02ac FB18     		add	r3, r7, r3
 2120 02ae 1A78     		ldrb	r2, [r3]
 2121 02b0 4623     		mov	r3, #70
 2122 02b2 FB18     		add	r3, r7, r3
 2123 02b4 0132     		add	r2, r2, #1
 2124 02b6 1A70     		strb	r2, [r3]
 2125              	.L110:
1089:.\Generated_Source\PSoC4/CYBLE_uds.c ****     {
 2126              		.loc 1 1089 0 is_stmt 0 discriminator 1
 2127 02b8 4623     		mov	r3, #70
 2128 02ba FB18     		add	r3, r7, r3
 2129 02bc 1B78     		ldrb	r3, [r3]
 2130 02be 022B     		cmp	r3, #2
 2131 02c0 00D8     		bhi	.LCB1902
 2132 02c2 4BE7     		b	.L114	@long jump
 2133              	.LCB1902:
1118:.\Generated_Source\PSoC4/CYBLE_uds.c ****         }
1119:.\Generated_Source\PSoC4/CYBLE_uds.c ****     }
1120:.\Generated_Source\PSoC4/CYBLE_uds.c **** }
 2134              		.loc 1 1120 0 is_stmt 1
 2135 02c4 BD46     		mov	sp, r7
 2136 02c6 13B0     		add	sp, sp, #76
 2137              		@ sp needed
 2138 02c8 90BD     		pop	{r4, r7, pc}
 2139              	.L116:
 2140 02ca C046     		.align	2
 2141              	.L115:
 2142 02cc 00000000 		.word	cyBle_udss
 2143 02d0 00000000 		.word	cyBle_gattDB
 2144 02d4 00000000 		.word	CyBle_UdsApplCallback
 2145 02d8 00000000 		.word	cyBle_eventHandlerFlag
 2146              		.cfi_endproc
 2147              	.LFE13:
 2148              		.size	CyBle_UdssExecuteWriteRequestEventHandler, .-CyBle_UdssExecuteWriteRequestEventHandler
 2149              		.text
 2150              	.Letext0:
 2151              		.file 2 ".\\Generated_Source\\PSoC4\\cytypes.h"
 2152              		.file 3 ".\\Generated_Source\\PSoC4\\CYBLE_Stack.h"
 2153              		.file 4 ".\\Generated_Source\\PSoC4\\CYBLE_StackGatt.h"
 2154              		.file 5 ".\\Generated_Source\\PSoC4\\CYBLE_StackGattServer.h"
 2155              		.file 6 ".\\Generated_Source\\PSoC4\\CYBLE_StackGattDb.h"
 2156              		.file 7 ".\\Generated_Source\\PSoC4\\CYBLE.h"
 2157              		.file 8 ".\\Generated_Source\\PSoC4\\CYBLE_uds.h"
 2158              		.file 9 ".\\Generated_Source\\PSoC4\\CYBLE_eventHandler.h"
 2159              		.file 10 ".\\Generated_Source\\PSoC4\\CYBLE_gatt.h"
 2160              		.section	.debug_info,"",%progbits
 2161              	.Ldebug_info0:
 2162 0000 9A150000 		.4byte	0x159a
 2163 0004 0400     		.2byte	0x4
 2164 0006 00000000 		.4byte	.Ldebug_abbrev0
 2165 000a 04       		.byte	0x4
ARM GAS  C:\Users\mohammed\AppData\Local\Temp\cceuH2T0.s 			page 59


 2166 000b 01       		.uleb128 0x1
 2167 000c C32E0000 		.4byte	.LASF550
 2168 0010 01       		.byte	0x1
 2169 0011 B93A0000 		.4byte	.LASF551
 2170 0015 300D0000 		.4byte	.LASF552
 2171 0019 00000000 		.4byte	.Ldebug_ranges0+0
 2172 001d 00000000 		.4byte	0
 2173 0021 00000000 		.4byte	.Ldebug_line0
 2174 0025 02       		.uleb128 0x2
 2175 0026 01       		.byte	0x1
 2176 0027 06       		.byte	0x6
 2177 0028 BA0D0000 		.4byte	.LASF0
 2178 002c 02       		.uleb128 0x2
 2179 002d 01       		.byte	0x1
 2180 002e 08       		.byte	0x8
 2181 002f DF0E0000 		.4byte	.LASF1
 2182 0033 02       		.uleb128 0x2
 2183 0034 02       		.byte	0x2
 2184 0035 05       		.byte	0x5
 2185 0036 BE330000 		.4byte	.LASF2
 2186 003a 02       		.uleb128 0x2
 2187 003b 02       		.byte	0x2
 2188 003c 07       		.byte	0x7
 2189 003d 793B0000 		.4byte	.LASF3
 2190 0041 02       		.uleb128 0x2
 2191 0042 04       		.byte	0x4
 2192 0043 05       		.byte	0x5
 2193 0044 FF090000 		.4byte	.LASF4
 2194 0048 02       		.uleb128 0x2
 2195 0049 04       		.byte	0x4
 2196 004a 07       		.byte	0x7
 2197 004b 881B0000 		.4byte	.LASF5
 2198 004f 02       		.uleb128 0x2
 2199 0050 08       		.byte	0x8
 2200 0051 05       		.byte	0x5
 2201 0052 A71F0000 		.4byte	.LASF6
 2202 0056 02       		.uleb128 0x2
 2203 0057 08       		.byte	0x8
 2204 0058 07       		.byte	0x7
 2205 0059 1A2C0000 		.4byte	.LASF7
 2206 005d 03       		.uleb128 0x3
 2207 005e 04       		.byte	0x4
 2208 005f 05       		.byte	0x5
 2209 0060 696E7400 		.ascii	"int\000"
 2210 0064 02       		.uleb128 0x2
 2211 0065 04       		.byte	0x4
 2212 0066 07       		.byte	0x7
 2213 0067 BA240000 		.4byte	.LASF8
 2214 006b 04       		.uleb128 0x4
 2215 006c 4D330000 		.4byte	.LASF9
 2216 0070 02       		.byte	0x2
 2217 0071 3801     		.2byte	0x138
 2218 0073 2C000000 		.4byte	0x2c
 2219 0077 04       		.uleb128 0x4
 2220 0078 5D3E0000 		.4byte	.LASF10
 2221 007c 02       		.byte	0x2
 2222 007d 3901     		.2byte	0x139
ARM GAS  C:\Users\mohammed\AppData\Local\Temp\cceuH2T0.s 			page 60


 2223 007f 3A000000 		.4byte	0x3a
 2224 0083 04       		.uleb128 0x4
 2225 0084 36030000 		.4byte	.LASF11
 2226 0088 02       		.byte	0x2
 2227 0089 3A01     		.2byte	0x13a
 2228 008b 48000000 		.4byte	0x48
 2229 008f 02       		.uleb128 0x2
 2230 0090 04       		.byte	0x4
 2231 0091 04       		.byte	0x4
 2232 0092 39230000 		.4byte	.LASF12
 2233 0096 02       		.uleb128 0x2
 2234 0097 08       		.byte	0x8
 2235 0098 04       		.byte	0x4
 2236 0099 CC200000 		.4byte	.LASF13
 2237 009d 02       		.uleb128 0x2
 2238 009e 01       		.byte	0x1
 2239 009f 08       		.byte	0x8
 2240 00a0 A4110000 		.4byte	.LASF14
 2241 00a4 05       		.uleb128 0x5
 2242 00a5 6B000000 		.4byte	0x6b
 2243 00a9 02       		.uleb128 0x2
 2244 00aa 04       		.byte	0x4
 2245 00ab 07       		.byte	0x7
 2246 00ac 70000000 		.4byte	.LASF15
 2247 00b0 06       		.uleb128 0x6
 2248 00b1 04       		.byte	0x4
 2249 00b2 07       		.uleb128 0x7
 2250 00b3 01       		.byte	0x1
 2251 00b4 03       		.byte	0x3
 2252 00b5 4201     		.2byte	0x142
 2253 00b7 6F020000 		.4byte	0x26f
 2254 00bb 08       		.uleb128 0x8
 2255 00bc 3E120000 		.4byte	.LASF16
 2256 00c0 00       		.sleb128 0
 2257 00c1 08       		.uleb128 0x8
 2258 00c2 EB0A0000 		.4byte	.LASF17
 2259 00c6 01       		.sleb128 1
 2260 00c7 08       		.uleb128 0x8
 2261 00c8 5D2C0000 		.4byte	.LASF18
 2262 00cc 02       		.sleb128 2
 2263 00cd 08       		.uleb128 0x8
 2264 00ce 300E0000 		.4byte	.LASF19
 2265 00d2 03       		.sleb128 3
 2266 00d3 08       		.uleb128 0x8
 2267 00d4 A43C0000 		.4byte	.LASF20
 2268 00d8 04       		.sleb128 4
 2269 00d9 08       		.uleb128 0x8
 2270 00da D8390000 		.4byte	.LASF21
 2271 00de 05       		.sleb128 5
 2272 00df 08       		.uleb128 0x8
 2273 00e0 BF290000 		.4byte	.LASF22
 2274 00e4 06       		.sleb128 6
 2275 00e5 08       		.uleb128 0x8
 2276 00e6 F1350000 		.4byte	.LASF23
 2277 00ea 20       		.sleb128 32
 2278 00eb 08       		.uleb128 0x8
 2279 00ec 59070000 		.4byte	.LASF24
ARM GAS  C:\Users\mohammed\AppData\Local\Temp\cceuH2T0.s 			page 61


 2280 00f0 21       		.sleb128 33
 2281 00f1 08       		.uleb128 0x8
 2282 00f2 B01E0000 		.4byte	.LASF25
 2283 00f6 22       		.sleb128 34
 2284 00f7 08       		.uleb128 0x8
 2285 00f8 04280000 		.4byte	.LASF26
 2286 00fc 23       		.sleb128 35
 2287 00fd 08       		.uleb128 0x8
 2288 00fe 071A0000 		.4byte	.LASF27
 2289 0102 24       		.sleb128 36
 2290 0103 08       		.uleb128 0x8
 2291 0104 871A0000 		.4byte	.LASF28
 2292 0108 25       		.sleb128 37
 2293 0109 08       		.uleb128 0x8
 2294 010a 63320000 		.4byte	.LASF29
 2295 010e 26       		.sleb128 38
 2296 010f 08       		.uleb128 0x8
 2297 0110 B6020000 		.4byte	.LASF30
 2298 0114 27       		.sleb128 39
 2299 0115 08       		.uleb128 0x8
 2300 0116 C83D0000 		.4byte	.LASF31
 2301 011a 28       		.sleb128 40
 2302 011b 08       		.uleb128 0x8
 2303 011c 622A0000 		.4byte	.LASF32
 2304 0120 29       		.sleb128 41
 2305 0121 08       		.uleb128 0x8
 2306 0122 BD1D0000 		.4byte	.LASF33
 2307 0126 2A       		.sleb128 42
 2308 0127 08       		.uleb128 0x8
 2309 0128 69270000 		.4byte	.LASF34
 2310 012c 2B       		.sleb128 43
 2311 012d 08       		.uleb128 0x8
 2312 012e 363A0000 		.4byte	.LASF35
 2313 0132 2C       		.sleb128 44
 2314 0133 08       		.uleb128 0x8
 2315 0134 8C010000 		.4byte	.LASF36
 2316 0138 2D       		.sleb128 45
 2317 0139 08       		.uleb128 0x8
 2318 013a 75330000 		.4byte	.LASF37
 2319 013e 2E       		.sleb128 46
 2320 013f 08       		.uleb128 0x8
 2321 0140 9B080000 		.4byte	.LASF38
 2322 0144 2F       		.sleb128 47
 2323 0145 08       		.uleb128 0x8
 2324 0146 5E110000 		.4byte	.LASF39
 2325 014a 30       		.sleb128 48
 2326 014b 08       		.uleb128 0x8
 2327 014c 21220000 		.4byte	.LASF40
 2328 0150 31       		.sleb128 49
 2329 0151 08       		.uleb128 0x8
 2330 0152 73120000 		.4byte	.LASF41
 2331 0156 32       		.sleb128 50
 2332 0157 08       		.uleb128 0x8
 2333 0158 E50F0000 		.4byte	.LASF42
 2334 015c 33       		.sleb128 51
 2335 015d 08       		.uleb128 0x8
 2336 015e D2340000 		.4byte	.LASF43
ARM GAS  C:\Users\mohammed\AppData\Local\Temp\cceuH2T0.s 			page 62


 2337 0162 C000     		.sleb128 64
 2338 0164 08       		.uleb128 0x8
 2339 0165 F8020000 		.4byte	.LASF44
 2340 0169 C100     		.sleb128 65
 2341 016b 08       		.uleb128 0x8
 2342 016c B93C0000 		.4byte	.LASF45
 2343 0170 C200     		.sleb128 66
 2344 0172 08       		.uleb128 0x8
 2345 0173 C42A0000 		.4byte	.LASF46
 2346 0177 C300     		.sleb128 67
 2347 0179 08       		.uleb128 0x8
 2348 017a ED0E0000 		.4byte	.LASF47
 2349 017e C400     		.sleb128 68
 2350 0180 08       		.uleb128 0x8
 2351 0181 650E0000 		.4byte	.LASF48
 2352 0185 C500     		.sleb128 69
 2353 0187 08       		.uleb128 0x8
 2354 0188 3D300000 		.4byte	.LASF49
 2355 018c C600     		.sleb128 70
 2356 018e 08       		.uleb128 0x8
 2357 018f 1F300000 		.4byte	.LASF50
 2358 0193 C700     		.sleb128 71
 2359 0195 08       		.uleb128 0x8
 2360 0196 12110000 		.4byte	.LASF51
 2361 019a C800     		.sleb128 72
 2362 019c 08       		.uleb128 0x8
 2363 019d 5C280000 		.4byte	.LASF52
 2364 01a1 C900     		.sleb128 73
 2365 01a3 08       		.uleb128 0x8
 2366 01a4 D4120000 		.4byte	.LASF53
 2367 01a8 CA00     		.sleb128 74
 2368 01aa 08       		.uleb128 0x8
 2369 01ab FB110000 		.4byte	.LASF54
 2370 01af CB00     		.sleb128 75
 2371 01b1 08       		.uleb128 0x8
 2372 01b2 AC270000 		.4byte	.LASF55
 2373 01b6 CC00     		.sleb128 76
 2374 01b8 08       		.uleb128 0x8
 2375 01b9 B3310000 		.4byte	.LASF56
 2376 01bd CD00     		.sleb128 77
 2377 01bf 08       		.uleb128 0x8
 2378 01c0 BD090000 		.4byte	.LASF57
 2379 01c4 CE00     		.sleb128 78
 2380 01c6 08       		.uleb128 0x8
 2381 01c7 C7240000 		.4byte	.LASF58
 2382 01cb CF00     		.sleb128 79
 2383 01cd 08       		.uleb128 0x8
 2384 01ce D2350000 		.4byte	.LASF59
 2385 01d2 D000     		.sleb128 80
 2386 01d4 08       		.uleb128 0x8
 2387 01d5 38130000 		.4byte	.LASF60
 2388 01d9 D100     		.sleb128 81
 2389 01db 08       		.uleb128 0x8
 2390 01dc 38070000 		.4byte	.LASF61
 2391 01e0 D200     		.sleb128 82
 2392 01e2 08       		.uleb128 0x8
 2393 01e3 4E390000 		.4byte	.LASF62
ARM GAS  C:\Users\mohammed\AppData\Local\Temp\cceuH2T0.s 			page 63


 2394 01e7 D300     		.sleb128 83
 2395 01e9 08       		.uleb128 0x8
 2396 01ea 0A3E0000 		.4byte	.LASF63
 2397 01ee D400     		.sleb128 84
 2398 01f0 08       		.uleb128 0x8
 2399 01f1 09060000 		.4byte	.LASF64
 2400 01f5 D500     		.sleb128 85
 2401 01f7 08       		.uleb128 0x8
 2402 01f8 40140000 		.4byte	.LASF65
 2403 01fc D600     		.sleb128 86
 2404 01fe 08       		.uleb128 0x8
 2405 01ff E5230000 		.4byte	.LASF66
 2406 0203 D700     		.sleb128 87
 2407 0205 08       		.uleb128 0x8
 2408 0206 893D0000 		.4byte	.LASF67
 2409 020a D800     		.sleb128 88
 2410 020c 08       		.uleb128 0x8
 2411 020d AA210000 		.4byte	.LASF68
 2412 0211 F000     		.sleb128 112
 2413 0213 08       		.uleb128 0x8
 2414 0214 B1180000 		.4byte	.LASF69
 2415 0218 F100     		.sleb128 113
 2416 021a 08       		.uleb128 0x8
 2417 021b FB0C0000 		.4byte	.LASF70
 2418 021f F200     		.sleb128 114
 2419 0221 08       		.uleb128 0x8
 2420 0222 B4350000 		.4byte	.LASF71
 2421 0226 F300     		.sleb128 115
 2422 0228 08       		.uleb128 0x8
 2423 0229 CF280000 		.4byte	.LASF72
 2424 022d F400     		.sleb128 116
 2425 022f 08       		.uleb128 0x8
 2426 0230 511E0000 		.4byte	.LASF73
 2427 0234 F500     		.sleb128 117
 2428 0236 08       		.uleb128 0x8
 2429 0237 F1100000 		.4byte	.LASF74
 2430 023b F600     		.sleb128 118
 2431 023d 08       		.uleb128 0x8
 2432 023e 2A2D0000 		.4byte	.LASF75
 2433 0242 F700     		.sleb128 119
 2434 0244 08       		.uleb128 0x8
 2435 0245 2D060000 		.4byte	.LASF76
 2436 0249 F800     		.sleb128 120
 2437 024b 08       		.uleb128 0x8
 2438 024c 0C100000 		.4byte	.LASF77
 2439 0250 F900     		.sleb128 121
 2440 0252 08       		.uleb128 0x8
 2441 0253 FD3C0000 		.4byte	.LASF78
 2442 0257 FA00     		.sleb128 122
 2443 0259 08       		.uleb128 0x8
 2444 025a 21210000 		.4byte	.LASF79
 2445 025e FA01     		.sleb128 250
 2446 0260 08       		.uleb128 0x8
 2447 0261 90380000 		.4byte	.LASF80
 2448 0265 FB01     		.sleb128 251
 2449 0267 08       		.uleb128 0x8
 2450 0268 5B270000 		.4byte	.LASF81
ARM GAS  C:\Users\mohammed\AppData\Local\Temp\cceuH2T0.s 			page 64


 2451 026c FF01     		.sleb128 255
 2452 026e 00       		.byte	0
 2453 026f 07       		.uleb128 0x7
 2454 0270 02       		.byte	0x2
 2455 0271 03       		.byte	0x3
 2456 0272 FF02     		.2byte	0x2ff
 2457 0274 3F030000 		.4byte	0x33f
 2458 0278 08       		.uleb128 0x8
 2459 0279 490E0000 		.4byte	.LASF82
 2460 027d 00       		.sleb128 0
 2461 027e 08       		.uleb128 0x8
 2462 027f B6150000 		.4byte	.LASF83
 2463 0283 01       		.sleb128 1
 2464 0284 08       		.uleb128 0x8
 2465 0285 863C0000 		.4byte	.LASF84
 2466 0289 02       		.sleb128 2
 2467 028a 08       		.uleb128 0x8
 2468 028b 14170000 		.4byte	.LASF85
 2469 028f 03       		.sleb128 3
 2470 0290 08       		.uleb128 0x8
 2471 0291 F61A0000 		.4byte	.LASF86
 2472 0295 04       		.sleb128 4
 2473 0296 08       		.uleb128 0x8
 2474 0297 8B200000 		.4byte	.LASF87
 2475 029b 05       		.sleb128 5
 2476 029c 08       		.uleb128 0x8
 2477 029d 06380000 		.4byte	.LASF88
 2478 02a1 06       		.sleb128 6
 2479 02a2 08       		.uleb128 0x8
 2480 02a3 B7120000 		.4byte	.LASF89
 2481 02a7 07       		.sleb128 7
 2482 02a8 08       		.uleb128 0x8
 2483 02a9 C0220000 		.4byte	.LASF90
 2484 02ad 08       		.sleb128 8
 2485 02ae 08       		.uleb128 0x8
 2486 02af EE360000 		.4byte	.LASF91
 2487 02b3 09       		.sleb128 9
 2488 02b4 08       		.uleb128 0x8
 2489 02b5 913E0000 		.4byte	.LASF92
 2490 02b9 0A       		.sleb128 10
 2491 02ba 08       		.uleb128 0x8
 2492 02bb DD070000 		.4byte	.LASF93
 2493 02bf 0B       		.sleb128 11
 2494 02c0 08       		.uleb128 0x8
 2495 02c1 C1390000 		.4byte	.LASF94
 2496 02c5 0C       		.sleb128 12
 2497 02c6 08       		.uleb128 0x8
 2498 02c7 7A260000 		.4byte	.LASF95
 2499 02cb 0D       		.sleb128 13
 2500 02cc 08       		.uleb128 0x8
 2501 02cd C41C0000 		.4byte	.LASF96
 2502 02d1 0E       		.sleb128 14
 2503 02d2 08       		.uleb128 0x8
 2504 02d3 66200000 		.4byte	.LASF97
 2505 02d7 0F       		.sleb128 15
 2506 02d8 08       		.uleb128 0x8
 2507 02d9 7E050000 		.4byte	.LASF98
ARM GAS  C:\Users\mohammed\AppData\Local\Temp\cceuH2T0.s 			page 65


 2508 02dd 10       		.sleb128 16
 2509 02de 08       		.uleb128 0x8
 2510 02df 8F220000 		.4byte	.LASF99
 2511 02e3 11       		.sleb128 17
 2512 02e4 08       		.uleb128 0x8
 2513 02e5 FE0A0000 		.4byte	.LASF100
 2514 02e9 12       		.sleb128 18
 2515 02ea 08       		.uleb128 0x8
 2516 02eb 920D0000 		.4byte	.LASF101
 2517 02ef 13       		.sleb128 19
 2518 02f0 08       		.uleb128 0x8
 2519 02f1 D3200000 		.4byte	.LASF102
 2520 02f5 27       		.sleb128 39
 2521 02f6 08       		.uleb128 0x8
 2522 02f7 9A230000 		.4byte	.LASF103
 2523 02fb 28       		.sleb128 40
 2524 02fc 08       		.uleb128 0x8
 2525 02fd C7050000 		.4byte	.LASF104
 2526 0301 29       		.sleb128 41
 2527 0302 08       		.uleb128 0x8
 2528 0303 3C340000 		.4byte	.LASF105
 2529 0307 2A       		.sleb128 42
 2530 0308 08       		.uleb128 0x8
 2531 0309 3E1C0000 		.4byte	.LASF106
 2532 030d 2B       		.sleb128 43
 2533 030e 08       		.uleb128 0x8
 2534 030f E42D0000 		.4byte	.LASF107
 2535 0313 2C       		.sleb128 44
 2536 0314 08       		.uleb128 0x8
 2537 0315 81150000 		.4byte	.LASF108
 2538 0319 FE01     		.sleb128 254
 2539 031b 08       		.uleb128 0x8
 2540 031c 7E180000 		.4byte	.LASF109
 2541 0320 FF01     		.sleb128 255
 2542 0322 08       		.uleb128 0x8
 2543 0323 43280000 		.4byte	.LASF110
 2544 0327 8002     		.sleb128 256
 2545 0329 08       		.uleb128 0x8
 2546 032a 2A280000 		.4byte	.LASF111
 2547 032e 8102     		.sleb128 257
 2548 0330 08       		.uleb128 0x8
 2549 0331 FC0B0000 		.4byte	.LASF112
 2550 0335 8202     		.sleb128 258
 2551 0337 08       		.uleb128 0x8
 2552 0338 D22C0000 		.4byte	.LASF113
 2553 033c 8302     		.sleb128 259
 2554 033e 00       		.byte	0
 2555 033f 04       		.uleb128 0x4
 2556 0340 AF380000 		.4byte	.LASF114
 2557 0344 03       		.byte	0x3
 2558 0345 6B03     		.2byte	0x36b
 2559 0347 6F020000 		.4byte	0x26f
 2560 034b 09       		.uleb128 0x9
 2561 034c 04       		.byte	0x4
 2562 034d 6B000000 		.4byte	0x6b
 2563 0351 0A       		.uleb128 0xa
 2564 0352 01       		.byte	0x1
ARM GAS  C:\Users\mohammed\AppData\Local\Temp\cceuH2T0.s 			page 66


 2565 0353 04       		.byte	0x4
 2566 0354 AB       		.byte	0xab
 2567 0355 52040000 		.4byte	0x452
 2568 0359 08       		.uleb128 0x8
 2569 035a 492D0000 		.4byte	.LASF115
 2570 035e 00       		.sleb128 0
 2571 035f 08       		.uleb128 0x8
 2572 0360 3F2C0000 		.4byte	.LASF116
 2573 0364 01       		.sleb128 1
 2574 0365 08       		.uleb128 0x8
 2575 0366 11050000 		.4byte	.LASF117
 2576 036a 02       		.sleb128 2
 2577 036b 08       		.uleb128 0x8
 2578 036c 323B0000 		.4byte	.LASF118
 2579 0370 03       		.sleb128 3
 2580 0371 08       		.uleb128 0x8
 2581 0372 E10B0000 		.4byte	.LASF119
 2582 0376 04       		.sleb128 4
 2583 0377 08       		.uleb128 0x8
 2584 0378 F3240000 		.4byte	.LASF120
 2585 037c 05       		.sleb128 5
 2586 037d 08       		.uleb128 0x8
 2587 037e AD340000 		.4byte	.LASF121
 2588 0382 06       		.sleb128 6
 2589 0383 08       		.uleb128 0x8
 2590 0384 8F280000 		.4byte	.LASF122
 2591 0388 07       		.sleb128 7
 2592 0389 08       		.uleb128 0x8
 2593 038a 32240000 		.4byte	.LASF123
 2594 038e 08       		.sleb128 8
 2595 038f 08       		.uleb128 0x8
 2596 0390 1C200000 		.4byte	.LASF124
 2597 0394 09       		.sleb128 9
 2598 0395 08       		.uleb128 0x8
 2599 0396 EB260000 		.4byte	.LASF125
 2600 039a 0A       		.sleb128 10
 2601 039b 08       		.uleb128 0x8
 2602 039c D7130000 		.4byte	.LASF126
 2603 03a0 0B       		.sleb128 11
 2604 03a1 08       		.uleb128 0x8
 2605 03a2 3F210000 		.4byte	.LASF127
 2606 03a6 0C       		.sleb128 12
 2607 03a7 08       		.uleb128 0x8
 2608 03a8 B90C0000 		.4byte	.LASF128
 2609 03ac 0D       		.sleb128 13
 2610 03ad 08       		.uleb128 0x8
 2611 03ae 55120000 		.4byte	.LASF129
 2612 03b2 0E       		.sleb128 14
 2613 03b3 08       		.uleb128 0x8
 2614 03b4 8C3B0000 		.4byte	.LASF130
 2615 03b8 0F       		.sleb128 15
 2616 03b9 08       		.uleb128 0x8
 2617 03ba 58050000 		.4byte	.LASF131
 2618 03be 10       		.sleb128 16
 2619 03bf 08       		.uleb128 0x8
 2620 03c0 33050000 		.4byte	.LASF132
 2621 03c4 11       		.sleb128 17
ARM GAS  C:\Users\mohammed\AppData\Local\Temp\cceuH2T0.s 			page 67


 2622 03c5 08       		.uleb128 0x8
 2623 03c6 7D130000 		.4byte	.LASF133
 2624 03ca 8001     		.sleb128 128
 2625 03cc 08       		.uleb128 0x8
 2626 03cd B3190000 		.4byte	.LASF134
 2627 03d1 8001     		.sleb128 128
 2628 03d3 08       		.uleb128 0x8
 2629 03d4 59340000 		.4byte	.LASF135
 2630 03d8 8001     		.sleb128 128
 2631 03da 08       		.uleb128 0x8
 2632 03db 2D2E0000 		.4byte	.LASF136
 2633 03df 8001     		.sleb128 128
 2634 03e1 08       		.uleb128 0x8
 2635 03e2 00260000 		.4byte	.LASF137
 2636 03e6 8001     		.sleb128 128
 2637 03e8 08       		.uleb128 0x8
 2638 03e9 3F1B0000 		.4byte	.LASF138
 2639 03ed 8001     		.sleb128 128
 2640 03ef 08       		.uleb128 0x8
 2641 03f0 B72C0000 		.4byte	.LASF139
 2642 03f4 8001     		.sleb128 128
 2643 03f6 08       		.uleb128 0x8
 2644 03f7 22180000 		.4byte	.LASF140
 2645 03fb 8101     		.sleb128 129
 2646 03fd 08       		.uleb128 0x8
 2647 03fe CB300000 		.4byte	.LASF141
 2648 0402 8101     		.sleb128 129
 2649 0404 08       		.uleb128 0x8
 2650 0405 47000000 		.4byte	.LASF142
 2651 0409 8101     		.sleb128 129
 2652 040b 08       		.uleb128 0x8
 2653 040c 520B0000 		.4byte	.LASF143
 2654 0410 8101     		.sleb128 129
 2655 0412 08       		.uleb128 0x8
 2656 0413 D9080000 		.4byte	.LASF144
 2657 0417 8201     		.sleb128 130
 2658 0419 08       		.uleb128 0x8
 2659 041a 95370000 		.4byte	.LASF145
 2660 041e A001     		.sleb128 160
 2661 0420 08       		.uleb128 0x8
 2662 0421 141D0000 		.4byte	.LASF146
 2663 0425 A001     		.sleb128 160
 2664 0427 08       		.uleb128 0x8
 2665 0428 0D090000 		.4byte	.LASF147
 2666 042c A101     		.sleb128 161
 2667 042e 08       		.uleb128 0x8
 2668 042f BA360000 		.4byte	.LASF148
 2669 0433 A201     		.sleb128 162
 2670 0435 08       		.uleb128 0x8
 2671 0436 A1140000 		.4byte	.LASF149
 2672 043a A301     		.sleb128 163
 2673 043c 08       		.uleb128 0x8
 2674 043d CC1A0000 		.4byte	.LASF150
 2675 0441 FD01     		.sleb128 253
 2676 0443 08       		.uleb128 0x8
 2677 0444 D0210000 		.4byte	.LASF151
 2678 0448 FE01     		.sleb128 254
ARM GAS  C:\Users\mohammed\AppData\Local\Temp\cceuH2T0.s 			page 68


 2679 044a 08       		.uleb128 0x8
 2680 044b 48290000 		.4byte	.LASF152
 2681 044f FF01     		.sleb128 255
 2682 0451 00       		.byte	0
 2683 0452 04       		.uleb128 0x4
 2684 0453 A4360000 		.4byte	.LASF153
 2685 0457 04       		.byte	0x4
 2686 0458 6201     		.2byte	0x162
 2687 045a 51030000 		.4byte	0x351
 2688 045e 04       		.uleb128 0x4
 2689 045f EC2C0000 		.4byte	.LASF154
 2690 0463 04       		.byte	0x4
 2691 0464 9201     		.2byte	0x192
 2692 0466 77000000 		.4byte	0x77
 2693 046a 0B       		.uleb128 0xb
 2694 046b 02       		.byte	0x2
 2695 046c 04       		.byte	0x4
 2696 046d 9C01     		.2byte	0x19c
 2697 046f 8E040000 		.4byte	0x48e
 2698 0473 0C       		.uleb128 0xc
 2699 0474 D0080000 		.4byte	.LASF155
 2700 0478 04       		.byte	0x4
 2701 0479 A301     		.2byte	0x1a3
 2702 047b 6B000000 		.4byte	0x6b
 2703 047f 00       		.byte	0
 2704 0480 0C       		.uleb128 0xc
 2705 0481 803C0000 		.4byte	.LASF156
 2706 0485 04       		.byte	0x4
 2707 0486 A901     		.2byte	0x1a9
 2708 0488 6B000000 		.4byte	0x6b
 2709 048c 01       		.byte	0x1
 2710 048d 00       		.byte	0
 2711 048e 04       		.uleb128 0x4
 2712 048f A6070000 		.4byte	.LASF157
 2713 0493 04       		.byte	0x4
 2714 0494 AB01     		.2byte	0x1ab
 2715 0496 6A040000 		.4byte	0x46a
 2716 049a 0B       		.uleb128 0xb
 2717 049b 08       		.byte	0x8
 2718 049c 04       		.byte	0x4
 2719 049d C701     		.2byte	0x1c7
 2720 049f CB040000 		.4byte	0x4cb
 2721 04a3 0D       		.uleb128 0xd
 2722 04a4 76616C00 		.ascii	"val\000"
 2723 04a8 04       		.byte	0x4
 2724 04a9 CA01     		.2byte	0x1ca
 2725 04ab 4B030000 		.4byte	0x34b
 2726 04af 00       		.byte	0
 2727 04b0 0D       		.uleb128 0xd
 2728 04b1 6C656E00 		.ascii	"len\000"
 2729 04b5 04       		.byte	0x4
 2730 04b6 CD01     		.2byte	0x1cd
 2731 04b8 77000000 		.4byte	0x77
 2732 04bc 04       		.byte	0x4
 2733 04bd 0C       		.uleb128 0xc
 2734 04be 113C0000 		.4byte	.LASF158
 2735 04c2 04       		.byte	0x4
ARM GAS  C:\Users\mohammed\AppData\Local\Temp\cceuH2T0.s 			page 69


 2736 04c3 D401     		.2byte	0x1d4
 2737 04c5 77000000 		.4byte	0x77
 2738 04c9 06       		.byte	0x6
 2739 04ca 00       		.byte	0
 2740 04cb 04       		.uleb128 0x4
 2741 04cc 50060000 		.4byte	.LASF159
 2742 04d0 04       		.byte	0x4
 2743 04d1 D601     		.2byte	0x1d6
 2744 04d3 9A040000 		.4byte	0x49a
 2745 04d7 0B       		.uleb128 0xb
 2746 04d8 0C       		.byte	0xc
 2747 04d9 04       		.byte	0x4
 2748 04da D901     		.2byte	0x1d9
 2749 04dc FB040000 		.4byte	0x4fb
 2750 04e0 0C       		.uleb128 0xc
 2751 04e1 5D2D0000 		.4byte	.LASF160
 2752 04e5 04       		.byte	0x4
 2753 04e6 DC01     		.2byte	0x1dc
 2754 04e8 CB040000 		.4byte	0x4cb
 2755 04ec 00       		.byte	0
 2756 04ed 0C       		.uleb128 0xc
 2757 04ee 67240000 		.4byte	.LASF161
 2758 04f2 04       		.byte	0x4
 2759 04f3 DF01     		.2byte	0x1df
 2760 04f5 5E040000 		.4byte	0x45e
 2761 04f9 08       		.byte	0x8
 2762 04fa 00       		.byte	0
 2763 04fb 04       		.uleb128 0x4
 2764 04fc 460C0000 		.4byte	.LASF162
 2765 0500 04       		.byte	0x4
 2766 0501 E101     		.2byte	0x1e1
 2767 0503 D7040000 		.4byte	0x4d7
 2768 0507 0B       		.uleb128 0xb
 2769 0508 10       		.byte	0x10
 2770 0509 04       		.byte	0x4
 2771 050a FA01     		.2byte	0x1fa
 2772 050c 2B050000 		.4byte	0x52b
 2773 0510 0C       		.uleb128 0xc
 2774 0511 89310000 		.4byte	.LASF163
 2775 0515 04       		.byte	0x4
 2776 0516 FD01     		.2byte	0x1fd
 2777 0518 FB040000 		.4byte	0x4fb
 2778 051c 00       		.byte	0
 2779 051d 0C       		.uleb128 0xc
 2780 051e 0E270000 		.4byte	.LASF164
 2781 0522 04       		.byte	0x4
 2782 0523 0002     		.2byte	0x200
 2783 0525 77000000 		.4byte	0x77
 2784 0529 0C       		.byte	0xc
 2785 052a 00       		.byte	0
 2786 052b 04       		.uleb128 0x4
 2787 052c C4260000 		.4byte	.LASF165
 2788 0530 04       		.byte	0x4
 2789 0531 0202     		.2byte	0x202
 2790 0533 07050000 		.4byte	0x507
 2791 0537 0E       		.uleb128 0xe
 2792 0538 9B000000 		.4byte	.LASF166
ARM GAS  C:\Users\mohammed\AppData\Local\Temp\cceuH2T0.s 			page 70


 2793 053c 05       		.byte	0x5
 2794 053d 34       		.byte	0x34
 2795 053e FB040000 		.4byte	0x4fb
 2796 0542 0E       		.uleb128 0xe
 2797 0543 81170000 		.4byte	.LASF167
 2798 0547 05       		.byte	0x5
 2799 0548 37       		.byte	0x37
 2800 0549 FB040000 		.4byte	0x4fb
 2801 054d 0F       		.uleb128 0xf
 2802 054e 0C       		.byte	0xc
 2803 054f 05       		.byte	0x5
 2804 0550 4E       		.byte	0x4e
 2805 0551 86050000 		.4byte	0x586
 2806 0555 10       		.uleb128 0x10
 2807 0556 772F0000 		.4byte	.LASF168
 2808 055a 05       		.byte	0x5
 2809 055b 51       		.byte	0x51
 2810 055c 8E040000 		.4byte	0x48e
 2811 0560 00       		.byte	0
 2812 0561 10       		.uleb128 0x10
 2813 0562 231F0000 		.4byte	.LASF169
 2814 0566 05       		.byte	0x5
 2815 0567 5C       		.byte	0x5c
 2816 0568 86050000 		.4byte	0x586
 2817 056c 04       		.byte	0x4
 2818 056d 10       		.uleb128 0x10
 2819 056e 4D380000 		.4byte	.LASF170
 2820 0572 05       		.byte	0x5
 2821 0573 61       		.byte	0x61
 2822 0574 6B000000 		.4byte	0x6b
 2823 0578 08       		.byte	0x8
 2824 0579 10       		.uleb128 0x10
 2825 057a D41E0000 		.4byte	.LASF171
 2826 057e 05       		.byte	0x5
 2827 057f 64       		.byte	0x64
 2828 0580 6B000000 		.4byte	0x6b
 2829 0584 09       		.byte	0x9
 2830 0585 00       		.byte	0
 2831 0586 09       		.uleb128 0x9
 2832 0587 04       		.byte	0x4
 2833 0588 2B050000 		.4byte	0x52b
 2834 058c 0E       		.uleb128 0xe
 2835 058d 1C020000 		.4byte	.LASF172
 2836 0591 05       		.byte	0x5
 2837 0592 66       		.byte	0x66
 2838 0593 4D050000 		.4byte	0x54d
 2839 0597 0F       		.uleb128 0xf
 2840 0598 10       		.byte	0x10
 2841 0599 05       		.byte	0x5
 2842 059a 69       		.byte	0x69
 2843 059b E8050000 		.4byte	0x5e8
 2844 059f 10       		.uleb128 0x10
 2845 05a0 772F0000 		.4byte	.LASF168
 2846 05a4 05       		.byte	0x5
 2847 05a5 6C       		.byte	0x6c
 2848 05a6 8E040000 		.4byte	0x48e
 2849 05aa 00       		.byte	0
ARM GAS  C:\Users\mohammed\AppData\Local\Temp\cceuH2T0.s 			page 71


 2850 05ab 10       		.uleb128 0x10
 2851 05ac 231F0000 		.4byte	.LASF169
 2852 05b0 05       		.byte	0x5
 2853 05b1 77       		.byte	0x77
 2854 05b2 86050000 		.4byte	0x586
 2855 05b6 04       		.byte	0x4
 2856 05b7 10       		.uleb128 0x10
 2857 05b8 37160000 		.4byte	.LASF173
 2858 05bc 05       		.byte	0x5
 2859 05bd 7C       		.byte	0x7c
 2860 05be 6B000000 		.4byte	0x6b
 2861 05c2 08       		.byte	0x8
 2862 05c3 10       		.uleb128 0x10
 2863 05c4 FF080000 		.4byte	.LASF174
 2864 05c8 05       		.byte	0x5
 2865 05c9 7F       		.byte	0x7f
 2866 05ca 6B000000 		.4byte	0x6b
 2867 05ce 09       		.byte	0x9
 2868 05cf 10       		.uleb128 0x10
 2869 05d0 67240000 		.4byte	.LASF161
 2870 05d4 05       		.byte	0x5
 2871 05d5 82       		.byte	0x82
 2872 05d6 5E040000 		.4byte	0x45e
 2873 05da 0A       		.byte	0xa
 2874 05db 10       		.uleb128 0x10
 2875 05dc D41E0000 		.4byte	.LASF171
 2876 05e0 05       		.byte	0x5
 2877 05e1 85       		.byte	0x85
 2878 05e2 6B000000 		.4byte	0x6b
 2879 05e6 0C       		.byte	0xc
 2880 05e7 00       		.byte	0
 2881 05e8 0E       		.uleb128 0xe
 2882 05e9 8F2F0000 		.4byte	.LASF175
 2883 05ed 05       		.byte	0x5
 2884 05ee 87       		.byte	0x87
 2885 05ef 97050000 		.4byte	0x597
 2886 05f3 0F       		.uleb128 0xf
 2887 05f4 10       		.byte	0x10
 2888 05f5 05       		.byte	0x5
 2889 05f6 8A       		.byte	0x8a
 2890 05f7 14060000 		.4byte	0x614
 2891 05fb 10       		.uleb128 0x10
 2892 05fc 772F0000 		.4byte	.LASF168
 2893 0600 05       		.byte	0x5
 2894 0601 8D       		.byte	0x8d
 2895 0602 8E040000 		.4byte	0x48e
 2896 0606 00       		.byte	0
 2897 0607 10       		.uleb128 0x10
 2898 0608 D6330000 		.4byte	.LASF176
 2899 060c 05       		.byte	0x5
 2900 060d 90       		.byte	0x90
 2901 060e FB040000 		.4byte	0x4fb
 2902 0612 04       		.byte	0x4
 2903 0613 00       		.byte	0
 2904 0614 0E       		.uleb128 0xe
 2905 0615 9C240000 		.4byte	.LASF177
 2906 0619 05       		.byte	0x5
ARM GAS  C:\Users\mohammed\AppData\Local\Temp\cceuH2T0.s 			page 72


 2907 061a 92       		.byte	0x92
 2908 061b F3050000 		.4byte	0x5f3
 2909 061f 0F       		.uleb128 0xf
 2910 0620 06       		.byte	0x6
 2911 0621 05       		.byte	0x5
 2912 0622 A2       		.byte	0xa2
 2913 0623 4C060000 		.4byte	0x64c
 2914 0627 10       		.uleb128 0x10
 2915 0628 772F0000 		.4byte	.LASF168
 2916 062c 05       		.byte	0x5
 2917 062d A5       		.byte	0xa5
 2918 062e 8E040000 		.4byte	0x48e
 2919 0632 00       		.byte	0
 2920 0633 10       		.uleb128 0x10
 2921 0634 67240000 		.4byte	.LASF161
 2922 0638 05       		.byte	0x5
 2923 0639 A8       		.byte	0xa8
 2924 063a 5E040000 		.4byte	0x45e
 2925 063e 02       		.byte	0x2
 2926 063f 10       		.uleb128 0x10
 2927 0640 D41E0000 		.4byte	.LASF171
 2928 0644 05       		.byte	0x5
 2929 0645 AE       		.byte	0xae
 2930 0646 52040000 		.4byte	0x452
 2931 064a 04       		.byte	0x4
 2932 064b 00       		.byte	0
 2933 064c 0E       		.uleb128 0xe
 2934 064d E21E0000 		.4byte	.LASF178
 2935 0651 05       		.byte	0x5
 2936 0652 B0       		.byte	0xb0
 2937 0653 1F060000 		.4byte	0x61f
 2938 0657 0F       		.uleb128 0xf
 2939 0658 08       		.byte	0x8
 2940 0659 06       		.byte	0x6
 2941 065a C3       		.byte	0xc3
 2942 065b 78060000 		.4byte	0x678
 2943 065f 10       		.uleb128 0x10
 2944 0660 822F0000 		.4byte	.LASF179
 2945 0664 06       		.byte	0x6
 2946 0665 C6       		.byte	0xc6
 2947 0666 77000000 		.4byte	0x77
 2948 066a 00       		.byte	0
 2949 066b 10       		.uleb128 0x10
 2950 066c E1320000 		.4byte	.LASF180
 2951 0670 06       		.byte	0x6
 2952 0671 CB       		.byte	0xcb
 2953 0672 B0000000 		.4byte	0xb0
 2954 0676 04       		.byte	0x4
 2955 0677 00       		.byte	0
 2956 0678 0E       		.uleb128 0xe
 2957 0679 ED280000 		.4byte	.LASF181
 2958 067d 06       		.byte	0x6
 2959 067e CD       		.byte	0xcd
 2960 067f 57060000 		.4byte	0x657
 2961 0683 0F       		.uleb128 0xf
 2962 0684 08       		.byte	0x8
 2963 0685 06       		.byte	0x6
ARM GAS  C:\Users\mohammed\AppData\Local\Temp\cceuH2T0.s 			page 73


 2964 0686 D0       		.byte	0xd0
 2965 0687 A4060000 		.4byte	0x6a4
 2966 068b 10       		.uleb128 0x10
 2967 068c A9110000 		.4byte	.LASF182
 2968 0690 06       		.byte	0x6
 2969 0691 D3       		.byte	0xd3
 2970 0692 77000000 		.4byte	0x77
 2971 0696 00       		.byte	0
 2972 0697 10       		.uleb128 0x10
 2973 0698 FE330000 		.4byte	.LASF183
 2974 069c 06       		.byte	0x6
 2975 069d D8       		.byte	0xd8
 2976 069e A4060000 		.4byte	0x6a4
 2977 06a2 04       		.byte	0x4
 2978 06a3 00       		.byte	0
 2979 06a4 09       		.uleb128 0x9
 2980 06a5 04       		.byte	0x4
 2981 06a6 78060000 		.4byte	0x678
 2982 06aa 0E       		.uleb128 0xe
 2983 06ab 44320000 		.4byte	.LASF184
 2984 06af 06       		.byte	0x6
 2985 06b0 DA       		.byte	0xda
 2986 06b1 83060000 		.4byte	0x683
 2987 06b5 11       		.uleb128 0x11
 2988 06b6 08       		.byte	0x8
 2989 06b7 06       		.byte	0x6
 2990 06b8 DD       		.byte	0xdd
 2991 06b9 D4060000 		.4byte	0x6d4
 2992 06bd 12       		.uleb128 0x12
 2993 06be 0F340000 		.4byte	.LASF185
 2994 06c2 06       		.byte	0x6
 2995 06c3 E4       		.byte	0xe4
 2996 06c4 AA060000 		.4byte	0x6aa
 2997 06c8 12       		.uleb128 0x12
 2998 06c9 071D0000 		.4byte	.LASF186
 2999 06cd 06       		.byte	0x6
 3000 06ce E7       		.byte	0xe7
 3001 06cf 77000000 		.4byte	0x77
 3002 06d3 00       		.byte	0
 3003 06d4 0E       		.uleb128 0xe
 3004 06d5 0F320000 		.4byte	.LASF187
 3005 06d9 06       		.byte	0x6
 3006 06da E9       		.byte	0xe9
 3007 06db B5060000 		.4byte	0x6b5
 3008 06df 0F       		.uleb128 0xf
 3009 06e0 14       		.byte	0x14
 3010 06e1 06       		.byte	0x6
 3011 06e2 EC       		.byte	0xec
 3012 06e3 26070000 		.4byte	0x726
 3013 06e7 10       		.uleb128 0x10
 3014 06e8 2F100000 		.4byte	.LASF188
 3015 06ec 06       		.byte	0x6
 3016 06ed EF       		.byte	0xef
 3017 06ee 77000000 		.4byte	0x77
 3018 06f2 00       		.byte	0
 3019 06f3 10       		.uleb128 0x10
 3020 06f4 650C0000 		.4byte	.LASF189
ARM GAS  C:\Users\mohammed\AppData\Local\Temp\cceuH2T0.s 			page 74


 3021 06f8 06       		.byte	0x6
 3022 06f9 F5       		.byte	0xf5
 3023 06fa 77000000 		.4byte	0x77
 3024 06fe 02       		.byte	0x2
 3025 06ff 10       		.uleb128 0x10
 3026 0700 86060000 		.4byte	.LASF190
 3027 0704 06       		.byte	0x6
 3028 0705 FF       		.byte	0xff
 3029 0706 83000000 		.4byte	0x83
 3030 070a 04       		.byte	0x4
 3031 070b 0C       		.uleb128 0xc
 3032 070c E6240000 		.4byte	.LASF191
 3033 0710 06       		.byte	0x6
 3034 0711 0201     		.2byte	0x102
 3035 0713 77000000 		.4byte	0x77
 3036 0717 08       		.byte	0x8
 3037 0718 0C       		.uleb128 0xc
 3038 0719 A32D0000 		.4byte	.LASF192
 3039 071d 06       		.byte	0x6
 3040 071e 0B01     		.2byte	0x10b
 3041 0720 D4060000 		.4byte	0x6d4
 3042 0724 0C       		.byte	0xc
 3043 0725 00       		.byte	0
 3044 0726 04       		.uleb128 0x4
 3045 0727 E8140000 		.4byte	.LASF193
 3046 072b 06       		.byte	0x6
 3047 072c 0C01     		.2byte	0x10c
 3048 072e DF060000 		.4byte	0x6df
 3049 0732 04       		.uleb128 0x4
 3050 0733 0C070000 		.4byte	.LASF194
 3051 0737 07       		.byte	0x7
 3052 0738 E701     		.2byte	0x1e7
 3053 073a 3E070000 		.4byte	0x73e
 3054 073e 09       		.uleb128 0x9
 3055 073f 04       		.byte	0x4
 3056 0740 44070000 		.4byte	0x744
 3057 0744 13       		.uleb128 0x13
 3058 0745 54070000 		.4byte	0x754
 3059 0749 14       		.uleb128 0x14
 3060 074a 83000000 		.4byte	0x83
 3061 074e 14       		.uleb128 0x14
 3062 074f B0000000 		.4byte	0xb0
 3063 0753 00       		.byte	0
 3064 0754 15       		.uleb128 0x15
 3065 0755 5E040000 		.4byte	0x45e
 3066 0759 64070000 		.4byte	0x764
 3067 075d 16       		.uleb128 0x16
 3068 075e A9000000 		.4byte	0xa9
 3069 0762 00       		.byte	0
 3070 0763 00       		.byte	0
 3071 0764 09       		.uleb128 0x9
 3072 0765 04       		.byte	0x4
 3073 0766 CB040000 		.4byte	0x4cb
 3074 076a 0A       		.uleb128 0xa
 3075 076b 01       		.byte	0x1
 3076 076c 08       		.byte	0x8
 3077 076d 25       		.byte	0x25
ARM GAS  C:\Users\mohammed\AppData\Local\Temp\cceuH2T0.s 			page 75


 3078 076e 33080000 		.4byte	0x833
 3079 0772 08       		.uleb128 0x8
 3080 0773 AB0C0000 		.4byte	.LASF195
 3081 0777 00       		.sleb128 0
 3082 0778 08       		.uleb128 0x8
 3083 0779 BE1A0000 		.4byte	.LASF196
 3084 077d 01       		.sleb128 1
 3085 077e 08       		.uleb128 0x8
 3086 077f 312C0000 		.4byte	.LASF197
 3087 0783 02       		.sleb128 2
 3088 0784 08       		.uleb128 0x8
 3089 0785 363C0000 		.4byte	.LASF198
 3090 0789 03       		.sleb128 3
 3091 078a 08       		.uleb128 0x8
 3092 078b C8330000 		.4byte	.LASF199
 3093 078f 04       		.sleb128 4
 3094 0790 08       		.uleb128 0x8
 3095 0791 A5190000 		.4byte	.LASF200
 3096 0795 05       		.sleb128 5
 3097 0796 08       		.uleb128 0x8
 3098 0797 E1190000 		.4byte	.LASF201
 3099 079b 06       		.sleb128 6
 3100 079c 08       		.uleb128 0x8
 3101 079d 4D180000 		.4byte	.LASF202
 3102 07a1 07       		.sleb128 7
 3103 07a2 08       		.uleb128 0x8
 3104 07a3 B61C0000 		.4byte	.LASF203
 3105 07a7 08       		.sleb128 8
 3106 07a8 08       		.uleb128 0x8
 3107 07a9 1F2E0000 		.4byte	.LASF204
 3108 07ad 09       		.sleb128 9
 3109 07ae 08       		.uleb128 0x8
 3110 07af BD1B0000 		.4byte	.LASF205
 3111 07b3 0A       		.sleb128 10
 3112 07b4 08       		.uleb128 0x8
 3113 07b5 6E2E0000 		.4byte	.LASF206
 3114 07b9 0B       		.sleb128 11
 3115 07ba 08       		.uleb128 0x8
 3116 07bb 32390000 		.4byte	.LASF207
 3117 07bf 0C       		.sleb128 12
 3118 07c0 08       		.uleb128 0x8
 3119 07c1 6D0C0000 		.4byte	.LASF208
 3120 07c5 0D       		.sleb128 13
 3121 07c6 08       		.uleb128 0x8
 3122 07c7 62000000 		.4byte	.LASF209
 3123 07cb 0E       		.sleb128 14
 3124 07cc 08       		.uleb128 0x8
 3125 07cd 2B3E0000 		.4byte	.LASF210
 3126 07d1 0F       		.sleb128 15
 3127 07d2 08       		.uleb128 0x8
 3128 07d3 78100000 		.4byte	.LASF211
 3129 07d7 10       		.sleb128 16
 3130 07d8 08       		.uleb128 0x8
 3131 07d9 2F0F0000 		.4byte	.LASF212
 3132 07dd 11       		.sleb128 17
 3133 07de 08       		.uleb128 0x8
 3134 07df D3320000 		.4byte	.LASF213
ARM GAS  C:\Users\mohammed\AppData\Local\Temp\cceuH2T0.s 			page 76


 3135 07e3 12       		.sleb128 18
 3136 07e4 08       		.uleb128 0x8
 3137 07e5 FA320000 		.4byte	.LASF214
 3138 07e9 13       		.sleb128 19
 3139 07ea 08       		.uleb128 0x8
 3140 07eb E6380000 		.4byte	.LASF215
 3141 07ef 14       		.sleb128 20
 3142 07f0 08       		.uleb128 0x8
 3143 07f1 40390000 		.4byte	.LASF216
 3144 07f5 15       		.sleb128 21
 3145 07f6 08       		.uleb128 0x8
 3146 07f7 380C0000 		.4byte	.LASF217
 3147 07fb 16       		.sleb128 22
 3148 07fc 08       		.uleb128 0x8
 3149 07fd 7B0C0000 		.4byte	.LASF218
 3150 0801 17       		.sleb128 23
 3151 0802 08       		.uleb128 0x8
 3152 0803 BB0A0000 		.4byte	.LASF219
 3153 0807 18       		.sleb128 24
 3154 0808 08       		.uleb128 0x8
 3155 0809 D02F0000 		.4byte	.LASF220
 3156 080d 19       		.sleb128 25
 3157 080e 08       		.uleb128 0x8
 3158 080f 8E240000 		.4byte	.LASF221
 3159 0813 1A       		.sleb128 26
 3160 0814 08       		.uleb128 0x8
 3161 0815 861C0000 		.4byte	.LASF222
 3162 0819 1B       		.sleb128 27
 3163 081a 08       		.uleb128 0x8
 3164 081b EB030000 		.4byte	.LASF223
 3165 081f 1C       		.sleb128 28
 3166 0820 08       		.uleb128 0x8
 3167 0821 E0360000 		.4byte	.LASF224
 3168 0825 1D       		.sleb128 29
 3169 0826 08       		.uleb128 0x8
 3170 0827 37260000 		.4byte	.LASF225
 3171 082b 1E       		.sleb128 30
 3172 082c 08       		.uleb128 0x8
 3173 082d 711C0000 		.4byte	.LASF226
 3174 0831 1F       		.sleb128 31
 3175 0832 00       		.byte	0
 3176 0833 0E       		.uleb128 0xe
 3177 0834 A23A0000 		.4byte	.LASF227
 3178 0838 08       		.byte	0x8
 3179 0839 46       		.byte	0x46
 3180 083a 6A070000 		.4byte	0x76a
 3181 083e 0A       		.uleb128 0xa
 3182 083f 01       		.byte	0x1
 3183 0840 08       		.byte	0x8
 3184 0841 4A       		.byte	0x4a
 3185 0842 53080000 		.4byte	0x853
 3186 0846 08       		.uleb128 0x8
 3187 0847 25370000 		.4byte	.LASF228
 3188 084b 00       		.sleb128 0
 3189 084c 08       		.uleb128 0x8
 3190 084d 62100000 		.4byte	.LASF229
 3191 0851 01       		.sleb128 1
ARM GAS  C:\Users\mohammed\AppData\Local\Temp\cceuH2T0.s 			page 77


 3192 0852 00       		.byte	0
 3193 0853 0E       		.uleb128 0xe
 3194 0854 EF190000 		.4byte	.LASF230
 3195 0858 08       		.byte	0x8
 3196 0859 4D       		.byte	0x4d
 3197 085a 3E080000 		.4byte	0x83e
 3198 085e 0F       		.uleb128 0xf
 3199 085f 04       		.byte	0x4
 3200 0860 08       		.byte	0x8
 3201 0861 52       		.byte	0x52
 3202 0862 7F080000 		.4byte	0x87f
 3203 0866 10       		.uleb128 0x10
 3204 0867 EF320000 		.4byte	.LASF231
 3205 086b 08       		.byte	0x8
 3206 086c 54       		.byte	0x54
 3207 086d 5E040000 		.4byte	0x45e
 3208 0871 00       		.byte	0
 3209 0872 10       		.uleb128 0x10
 3210 0873 C4080000 		.4byte	.LASF232
 3211 0877 08       		.byte	0x8
 3212 0878 55       		.byte	0x55
 3213 0879 54070000 		.4byte	0x754
 3214 087d 02       		.byte	0x2
 3215 087e 00       		.byte	0
 3216 087f 0E       		.uleb128 0xe
 3217 0880 45260000 		.4byte	.LASF233
 3218 0884 08       		.byte	0x8
 3219 0885 56       		.byte	0x56
 3220 0886 5E080000 		.4byte	0x85e
 3221 088a 0F       		.uleb128 0xf
 3222 088b 7E       		.byte	0x7e
 3223 088c 08       		.byte	0x8
 3224 088d 59       		.byte	0x59
 3225 088e AB080000 		.4byte	0x8ab
 3226 0892 10       		.uleb128 0x10
 3227 0893 AF0B0000 		.4byte	.LASF234
 3228 0897 08       		.byte	0x8
 3229 0898 5C       		.byte	0x5c
 3230 0899 5E040000 		.4byte	0x45e
 3231 089d 00       		.byte	0
 3232 089e 10       		.uleb128 0x10
 3233 089f FD370000 		.4byte	.LASF235
 3234 08a3 08       		.byte	0x8
 3235 08a4 5F       		.byte	0x5f
 3236 08a5 AB080000 		.4byte	0x8ab
 3237 08a9 02       		.byte	0x2
 3238 08aa 00       		.byte	0
 3239 08ab 15       		.uleb128 0x15
 3240 08ac 7F080000 		.4byte	0x87f
 3241 08b0 BB080000 		.4byte	0x8bb
 3242 08b4 16       		.uleb128 0x16
 3243 08b5 A9000000 		.4byte	0xa9
 3244 08b9 1E       		.byte	0x1e
 3245 08ba 00       		.byte	0
 3246 08bb 0E       		.uleb128 0xe
 3247 08bc AA2C0000 		.4byte	.LASF236
 3248 08c0 08       		.byte	0x8
ARM GAS  C:\Users\mohammed\AppData\Local\Temp\cceuH2T0.s 			page 78


 3249 08c1 60       		.byte	0x60
 3250 08c2 8A080000 		.4byte	0x88a
 3251 08c6 0F       		.uleb128 0xf
 3252 08c7 0C       		.byte	0xc
 3253 08c8 08       		.byte	0x8
 3254 08c9 7D       		.byte	0x7d
 3255 08ca FF080000 		.4byte	0x8ff
 3256 08ce 10       		.uleb128 0x10
 3257 08cf 772F0000 		.4byte	.LASF168
 3258 08d3 08       		.byte	0x8
 3259 08d4 7F       		.byte	0x7f
 3260 08d5 8E040000 		.4byte	0x48e
 3261 08d9 00       		.byte	0
 3262 08da 10       		.uleb128 0x10
 3263 08db 17010000 		.4byte	.LASF237
 3264 08df 08       		.byte	0x8
 3265 08e0 80       		.byte	0x80
 3266 08e1 33080000 		.4byte	0x833
 3267 08e5 02       		.byte	0x2
 3268 08e6 10       		.uleb128 0x10
 3269 08e7 5D2D0000 		.4byte	.LASF160
 3270 08eb 08       		.byte	0x8
 3271 08ec 81       		.byte	0x81
 3272 08ed 64070000 		.4byte	0x764
 3273 08f1 04       		.byte	0x4
 3274 08f2 10       		.uleb128 0x10
 3275 08f3 D41E0000 		.4byte	.LASF171
 3276 08f7 08       		.byte	0x8
 3277 08f8 82       		.byte	0x82
 3278 08f9 52040000 		.4byte	0x452
 3279 08fd 08       		.byte	0x8
 3280 08fe 00       		.byte	0
 3281 08ff 0E       		.uleb128 0xe
 3282 0900 27120000 		.4byte	.LASF238
 3283 0904 08       		.byte	0x8
 3284 0905 83       		.byte	0x83
 3285 0906 C6080000 		.4byte	0x8c6
 3286 090a 0A       		.uleb128 0xa
 3287 090b 02       		.byte	0x2
 3288 090c 09       		.byte	0x9
 3289 090d AB       		.byte	0xab
 3290 090e 7D100000 		.4byte	0x107d
 3291 0912 08       		.uleb128 0x8
 3292 0913 57260000 		.4byte	.LASF239
 3293 0917 8002     		.sleb128 256
 3294 0919 08       		.uleb128 0x8
 3295 091a 213D0000 		.4byte	.LASF240
 3296 091e 8102     		.sleb128 257
 3297 0920 08       		.uleb128 0x8
 3298 0921 C90A0000 		.4byte	.LASF241
 3299 0925 8202     		.sleb128 258
 3300 0927 08       		.uleb128 0x8
 3301 0928 D73C0000 		.4byte	.LASF242
 3302 092c 8302     		.sleb128 259
 3303 092e 08       		.uleb128 0x8
 3304 092f F72B0000 		.4byte	.LASF243
 3305 0933 8402     		.sleb128 260
ARM GAS  C:\Users\mohammed\AppData\Local\Temp\cceuH2T0.s 			page 79


 3306 0935 08       		.uleb128 0x8
 3307 0936 553B0000 		.4byte	.LASF244
 3308 093a 8502     		.sleb128 261
 3309 093c 08       		.uleb128 0x8
 3310 093d 47100000 		.4byte	.LASF245
 3311 0941 8602     		.sleb128 262
 3312 0943 08       		.uleb128 0x8
 3313 0944 52350000 		.4byte	.LASF246
 3314 0948 8702     		.sleb128 263
 3315 094a 08       		.uleb128 0x8
 3316 094b 0C3B0000 		.4byte	.LASF247
 3317 094f 8802     		.sleb128 264
 3318 0951 08       		.uleb128 0x8
 3319 0952 E3050000 		.4byte	.LASF248
 3320 0956 8902     		.sleb128 265
 3321 0958 08       		.uleb128 0x8
 3322 0959 3D030000 		.4byte	.LASF249
 3323 095d 8A02     		.sleb128 266
 3324 095f 08       		.uleb128 0x8
 3325 0960 4D2E0000 		.4byte	.LASF250
 3326 0964 8B02     		.sleb128 267
 3327 0966 08       		.uleb128 0x8
 3328 0967 D71F0000 		.4byte	.LASF251
 3329 096b 8C02     		.sleb128 268
 3330 096d 08       		.uleb128 0x8
 3331 096e A22A0000 		.4byte	.LASF252
 3332 0972 8D02     		.sleb128 269
 3333 0974 08       		.uleb128 0x8
 3334 0975 3E040000 		.4byte	.LASF253
 3335 0979 8E02     		.sleb128 270
 3336 097b 08       		.uleb128 0x8
 3337 097c D3110000 		.4byte	.LASF254
 3338 0980 8F02     		.sleb128 271
 3339 0982 08       		.uleb128 0x8
 3340 0983 7E070000 		.4byte	.LASF255
 3341 0987 9002     		.sleb128 272
 3342 0989 08       		.uleb128 0x8
 3343 098a F4380000 		.4byte	.LASF256
 3344 098e 9102     		.sleb128 273
 3345 0990 08       		.uleb128 0x8
 3346 0991 39110000 		.4byte	.LASF257
 3347 0995 9202     		.sleb128 274
 3348 0997 08       		.uleb128 0x8
 3349 0998 512F0000 		.4byte	.LASF258
 3350 099c 9302     		.sleb128 275
 3351 099e 08       		.uleb128 0x8
 3352 099f 1B3C0000 		.4byte	.LASF259
 3353 09a3 9402     		.sleb128 276
 3354 09a5 08       		.uleb128 0x8
 3355 09a6 8D210000 		.4byte	.LASF260
 3356 09aa 9502     		.sleb128 277
 3357 09ac 08       		.uleb128 0x8
 3358 09ad 2D0A0000 		.4byte	.LASF261
 3359 09b1 9602     		.sleb128 278
 3360 09b3 08       		.uleb128 0x8
 3361 09b4 643E0000 		.4byte	.LASF262
 3362 09b8 9702     		.sleb128 279
ARM GAS  C:\Users\mohammed\AppData\Local\Temp\cceuH2T0.s 			page 80


 3363 09ba 08       		.uleb128 0x8
 3364 09bb 0E240000 		.4byte	.LASF263
 3365 09bf 9802     		.sleb128 280
 3366 09c1 08       		.uleb128 0x8
 3367 09c2 EE150000 		.4byte	.LASF264
 3368 09c6 9902     		.sleb128 281
 3369 09c8 08       		.uleb128 0x8
 3370 09c9 0F350000 		.4byte	.LASF265
 3371 09cd 9A02     		.sleb128 282
 3372 09cf 08       		.uleb128 0x8
 3373 09d0 88270000 		.4byte	.LASF266
 3374 09d4 9B02     		.sleb128 283
 3375 09d6 08       		.uleb128 0x8
 3376 09d7 D03E0000 		.4byte	.LASF267
 3377 09db 9C02     		.sleb128 284
 3378 09dd 08       		.uleb128 0x8
 3379 09de 9A350000 		.4byte	.LASF268
 3380 09e2 9D02     		.sleb128 285
 3381 09e4 08       		.uleb128 0x8
 3382 09e5 AC3D0000 		.4byte	.LASF269
 3383 09e9 9E02     		.sleb128 286
 3384 09eb 08       		.uleb128 0x8
 3385 09ec 941C0000 		.4byte	.LASF270
 3386 09f0 9F02     		.sleb128 287
 3387 09f2 08       		.uleb128 0x8
 3388 09f3 D7180000 		.4byte	.LASF271
 3389 09f7 A002     		.sleb128 288
 3390 09f9 08       		.uleb128 0x8
 3391 09fa EE040000 		.4byte	.LASF272
 3392 09fe A102     		.sleb128 289
 3393 0a00 08       		.uleb128 0x8
 3394 0a01 7F2B0000 		.4byte	.LASF273
 3395 0a05 A202     		.sleb128 290
 3396 0a07 08       		.uleb128 0x8
 3397 0a08 381D0000 		.4byte	.LASF274
 3398 0a0c A302     		.sleb128 291
 3399 0a0e 08       		.uleb128 0x8
 3400 0a0f EC3B0000 		.4byte	.LASF275
 3401 0a13 A402     		.sleb128 292
 3402 0a15 08       		.uleb128 0x8
 3403 0a16 462A0000 		.4byte	.LASF276
 3404 0a1a A502     		.sleb128 293
 3405 0a1c 08       		.uleb128 0x8
 3406 0a1d 57370000 		.4byte	.LASF277
 3407 0a21 A602     		.sleb128 294
 3408 0a23 08       		.uleb128 0x8
 3409 0a24 0D0E0000 		.4byte	.LASF278
 3410 0a28 A702     		.sleb128 295
 3411 0a2a 08       		.uleb128 0x8
 3412 0a2b 2E350000 		.4byte	.LASF279
 3413 0a2f A802     		.sleb128 296
 3414 0a31 08       		.uleb128 0x8
 3415 0a32 00180000 		.4byte	.LASF280
 3416 0a36 A902     		.sleb128 297
 3417 0a38 08       		.uleb128 0x8
 3418 0a39 5E190000 		.4byte	.LASF281
 3419 0a3d AA02     		.sleb128 298
ARM GAS  C:\Users\mohammed\AppData\Local\Temp\cceuH2T0.s 			page 81


 3420 0a3f 08       		.uleb128 0x8
 3421 0a40 AD030000 		.4byte	.LASF282
 3422 0a44 AB02     		.sleb128 299
 3423 0a46 08       		.uleb128 0x8
 3424 0a47 D1030000 		.4byte	.LASF283
 3425 0a4b AC02     		.sleb128 300
 3426 0a4d 08       		.uleb128 0x8
 3427 0a4e 79000000 		.4byte	.LASF284
 3428 0a52 AD02     		.sleb128 301
 3429 0a54 08       		.uleb128 0x8
 3430 0a55 C60D0000 		.4byte	.LASF285
 3431 0a59 AE02     		.sleb128 302
 3432 0a5b 08       		.uleb128 0x8
 3433 0a5c 433D0000 		.4byte	.LASF286
 3434 0a60 AF02     		.sleb128 303
 3435 0a62 08       		.uleb128 0x8
 3436 0a63 CE060000 		.4byte	.LASF287
 3437 0a67 B002     		.sleb128 304
 3438 0a69 08       		.uleb128 0x8
 3439 0a6a 66250000 		.4byte	.LASF288
 3440 0a6e B102     		.sleb128 305
 3441 0a70 08       		.uleb128 0x8
 3442 0a71 8B320000 		.4byte	.LASF289
 3443 0a75 B202     		.sleb128 306
 3444 0a77 08       		.uleb128 0x8
 3445 0a78 1F150000 		.4byte	.LASF290
 3446 0a7c B302     		.sleb128 307
 3447 0a7e 08       		.uleb128 0x8
 3448 0a7f 9F260000 		.4byte	.LASF291
 3449 0a83 B402     		.sleb128 308
 3450 0a85 08       		.uleb128 0x8
 3451 0a86 AA170000 		.4byte	.LASF292
 3452 0a8a B502     		.sleb128 309
 3453 0a8c 08       		.uleb128 0x8
 3454 0a8d F0060000 		.4byte	.LASF293
 3455 0a91 B602     		.sleb128 310
 3456 0a93 08       		.uleb128 0x8
 3457 0a94 94020000 		.4byte	.LASF294
 3458 0a98 B702     		.sleb128 311
 3459 0a9a 08       		.uleb128 0x8
 3460 0a9b 31090000 		.4byte	.LASF295
 3461 0a9f B802     		.sleb128 312
 3462 0aa1 08       		.uleb128 0x8
 3463 0aa2 7F2D0000 		.4byte	.LASF296
 3464 0aa6 B902     		.sleb128 313
 3465 0aa8 08       		.uleb128 0x8
 3466 0aa9 E4330000 		.4byte	.LASF297
 3467 0aad BA02     		.sleb128 314
 3468 0aaf 08       		.uleb128 0x8
 3469 0ab0 4E080000 		.4byte	.LASF298
 3470 0ab4 BB02     		.sleb128 315
 3471 0ab6 08       		.uleb128 0x8
 3472 0ab7 1E250000 		.4byte	.LASF299
 3473 0abb BC02     		.sleb128 316
 3474 0abd 08       		.uleb128 0x8
 3475 0abe 6D380000 		.4byte	.LASF300
 3476 0ac2 BD02     		.sleb128 317
ARM GAS  C:\Users\mohammed\AppData\Local\Temp\cceuH2T0.s 			page 82


 3477 0ac4 08       		.uleb128 0x8
 3478 0ac5 A9200000 		.4byte	.LASF301
 3479 0ac9 BE02     		.sleb128 318
 3480 0acb 08       		.uleb128 0x8
 3481 0acc C2380000 		.4byte	.LASF302
 3482 0ad0 BF02     		.sleb128 319
 3483 0ad2 08       		.uleb128 0x8
 3484 0ad3 9E2E0000 		.4byte	.LASF303
 3485 0ad7 C002     		.sleb128 320
 3486 0ad9 08       		.uleb128 0x8
 3487 0ada 7E290000 		.4byte	.LASF304
 3488 0ade C102     		.sleb128 321
 3489 0ae0 08       		.uleb128 0x8
 3490 0ae1 DE3A0000 		.4byte	.LASF305
 3491 0ae5 C202     		.sleb128 322
 3492 0ae7 08       		.uleb128 0x8
 3493 0ae8 17390000 		.4byte	.LASF306
 3494 0aec C302     		.sleb128 323
 3495 0aee 08       		.uleb128 0x8
 3496 0aef BA000000 		.4byte	.LASF307
 3497 0af3 C402     		.sleb128 324
 3498 0af5 08       		.uleb128 0x8
 3499 0af6 90340000 		.4byte	.LASF308
 3500 0afa C502     		.sleb128 325
 3501 0afc 08       		.uleb128 0x8
 3502 0afd E61D0000 		.4byte	.LASF309
 3503 0b01 C602     		.sleb128 326
 3504 0b03 08       		.uleb128 0x8
 3505 0b04 08330000 		.4byte	.LASF310
 3506 0b08 C702     		.sleb128 327
 3507 0b0a 08       		.uleb128 0x8
 3508 0b0b 84300000 		.4byte	.LASF311
 3509 0b0f C802     		.sleb128 328
 3510 0b11 08       		.uleb128 0x8
 3511 0b12 3F020000 		.4byte	.LASF312
 3512 0b16 C902     		.sleb128 329
 3513 0b18 08       		.uleb128 0x8
 3514 0b19 AC2F0000 		.4byte	.LASF313
 3515 0b1d CA02     		.sleb128 330
 3516 0b1f 08       		.uleb128 0x8
 3517 0b20 5E0F0000 		.4byte	.LASF314
 3518 0b24 CB02     		.sleb128 331
 3519 0b26 08       		.uleb128 0x8
 3520 0b27 77090000 		.4byte	.LASF315
 3521 0b2b CC02     		.sleb128 332
 3522 0b2d 08       		.uleb128 0x8
 3523 0b2e 54090000 		.4byte	.LASF316
 3524 0b32 CD02     		.sleb128 333
 3525 0b34 08       		.uleb128 0x8
 3526 0b35 0B0F0000 		.4byte	.LASF317
 3527 0b39 CE02     		.sleb128 334
 3528 0b3b 08       		.uleb128 0x8
 3529 0b3c 021F0000 		.4byte	.LASF318
 3530 0b40 CF02     		.sleb128 335
 3531 0b42 08       		.uleb128 0x8
 3532 0b43 5E3C0000 		.4byte	.LASF319
 3533 0b47 D002     		.sleb128 336
ARM GAS  C:\Users\mohammed\AppData\Local\Temp\cceuH2T0.s 			page 83


 3534 0b49 08       		.uleb128 0x8
 3535 0b4a 62140000 		.4byte	.LASF320
 3536 0b4e D102     		.sleb128 337
 3537 0b50 08       		.uleb128 0x8
 3538 0b51 632D0000 		.4byte	.LASF321
 3539 0b55 D202     		.sleb128 338
 3540 0b57 08       		.uleb128 0x8
 3541 0b58 75280000 		.4byte	.LASF322
 3542 0b5c D302     		.sleb128 339
 3543 0b5e 08       		.uleb128 0x8
 3544 0b5f D7010000 		.4byte	.LASF323
 3545 0b63 D402     		.sleb128 340
 3546 0b65 08       		.uleb128 0x8
 3547 0b66 9A1D0000 		.4byte	.LASF324
 3548 0b6a D502     		.sleb128 341
 3549 0b6c 08       		.uleb128 0x8
 3550 0b6d D5000000 		.4byte	.LASF325
 3551 0b71 D602     		.sleb128 342
 3552 0b73 08       		.uleb128 0x8
 3553 0b74 DB090000 		.4byte	.LASF326
 3554 0b78 D702     		.sleb128 343
 3555 0b7a 08       		.uleb128 0x8
 3556 0b7b 6F390000 		.4byte	.LASF327
 3557 0b7f D802     		.sleb128 344
 3558 0b81 08       		.uleb128 0x8
 3559 0b82 5C170000 		.4byte	.LASF328
 3560 0b86 D902     		.sleb128 345
 3561 0b88 08       		.uleb128 0x8
 3562 0b89 6D160000 		.4byte	.LASF329
 3563 0b8d DA02     		.sleb128 346
 3564 0b8f 08       		.uleb128 0x8
 3565 0b90 63060000 		.4byte	.LASF330
 3566 0b94 DB02     		.sleb128 347
 3567 0b96 08       		.uleb128 0x8
 3568 0b97 20380000 		.4byte	.LASF331
 3569 0b9b DC02     		.sleb128 348
 3570 0b9d 08       		.uleb128 0x8
 3571 0b9e 67220000 		.4byte	.LASF332
 3572 0ba2 DD02     		.sleb128 349
 3573 0ba4 08       		.uleb128 0x8
 3574 0ba5 721E0000 		.4byte	.LASF333
 3575 0ba9 DE02     		.sleb128 350
 3576 0bab 08       		.uleb128 0x8
 3577 0bac FD070000 		.4byte	.LASF334
 3578 0bb0 DF02     		.sleb128 351
 3579 0bb2 08       		.uleb128 0x8
 3580 0bb3 1D070000 		.4byte	.LASF335
 3581 0bb7 E002     		.sleb128 352
 3582 0bb9 08       		.uleb128 0x8
 3583 0bba F9010000 		.4byte	.LASF336
 3584 0bbe E102     		.sleb128 353
 3585 0bc0 08       		.uleb128 0x8
 3586 0bc1 2D1E0000 		.4byte	.LASF337
 3587 0bc5 E202     		.sleb128 354
 3588 0bc7 08       		.uleb128 0x8
 3589 0bc8 393E0000 		.4byte	.LASF338
 3590 0bcc E302     		.sleb128 355
ARM GAS  C:\Users\mohammed\AppData\Local\Temp\cceuH2T0.s 			page 84


 3591 0bce 08       		.uleb128 0x8
 3592 0bcf 1F190000 		.4byte	.LASF339
 3593 0bd3 E402     		.sleb128 356
 3594 0bd5 08       		.uleb128 0x8
 3595 0bd6 93160000 		.4byte	.LASF340
 3596 0bda E502     		.sleb128 357
 3597 0bdc 08       		.uleb128 0x8
 3598 0bdd 41250000 		.4byte	.LASF341
 3599 0be1 E602     		.sleb128 358
 3600 0be3 08       		.uleb128 0x8
 3601 0be4 38360000 		.4byte	.LASF342
 3602 0be8 E702     		.sleb128 359
 3603 0bea 08       		.uleb128 0x8
 3604 0beb C82D0000 		.4byte	.LASF343
 3605 0bef E802     		.sleb128 360
 3606 0bf1 08       		.uleb128 0x8
 3607 0bf2 1C040000 		.4byte	.LASF344
 3608 0bf6 E902     		.sleb128 361
 3609 0bf8 08       		.uleb128 0x8
 3610 0bf9 6F2C0000 		.4byte	.LASF345
 3611 0bfd EA02     		.sleb128 362
 3612 0bff 08       		.uleb128 0x8
 3613 0c00 F9130000 		.4byte	.LASF346
 3614 0c04 EB02     		.sleb128 363
 3615 0c06 08       		.uleb128 0x8
 3616 0c07 5C1D0000 		.4byte	.LASF347
 3617 0c0b EC02     		.sleb128 364
 3618 0c0d 08       		.uleb128 0x8
 3619 0c0e AD280000 		.4byte	.LASF348
 3620 0c12 ED02     		.sleb128 365
 3621 0c14 08       		.uleb128 0x8
 3622 0c15 CD310000 		.4byte	.LASF349
 3623 0c19 EE02     		.sleb128 366
 3624 0c1b 08       		.uleb128 0x8
 3625 0c1c C3140000 		.4byte	.LASF350
 3626 0c20 EF02     		.sleb128 367
 3627 0c22 08       		.uleb128 0x8
 3628 0c23 F9220000 		.4byte	.LASF351
 3629 0c27 F002     		.sleb128 368
 3630 0c29 08       		.uleb128 0x8
 3631 0c2a F5200000 		.4byte	.LASF352
 3632 0c2e F102     		.sleb128 369
 3633 0c30 08       		.uleb128 0x8
 3634 0c31 D9250000 		.4byte	.LASF353
 3635 0c35 F202     		.sleb128 370
 3636 0c37 08       		.uleb128 0x8
 3637 0c38 99310000 		.4byte	.LASF354
 3638 0c3c F302     		.sleb128 371
 3639 0c3e 08       		.uleb128 0x8
 3640 0c3f 1B230000 		.4byte	.LASF355
 3641 0c43 F402     		.sleb128 372
 3642 0c45 08       		.uleb128 0x8
 3643 0c46 DE220000 		.4byte	.LASF356
 3644 0c4a F502     		.sleb128 373
 3645 0c4c 08       		.uleb128 0x8
 3646 0c4d 7E230000 		.4byte	.LASF357
 3647 0c51 F602     		.sleb128 374
ARM GAS  C:\Users\mohammed\AppData\Local\Temp\cceuH2T0.s 			page 85


 3648 0c53 08       		.uleb128 0x8
 3649 0c54 D4150000 		.4byte	.LASF358
 3650 0c58 F702     		.sleb128 375
 3651 0c5a 08       		.uleb128 0x8
 3652 0c5b 890C0000 		.4byte	.LASF359
 3653 0c5f F802     		.sleb128 376
 3654 0c61 08       		.uleb128 0x8
 3655 0c62 EC340000 		.4byte	.LASF360
 3656 0c66 F902     		.sleb128 377
 3657 0c68 08       		.uleb128 0x8
 3658 0c69 641A0000 		.4byte	.LASF361
 3659 0c6d FA02     		.sleb128 378
 3660 0c6f 08       		.uleb128 0x8
 3661 0c70 2E0B0000 		.4byte	.LASF362
 3662 0c74 FB02     		.sleb128 379
 3663 0c76 08       		.uleb128 0x8
 3664 0c77 78350000 		.4byte	.LASF363
 3665 0c7b FC02     		.sleb128 380
 3666 0c7d 08       		.uleb128 0x8
 3667 0c7e FC2D0000 		.4byte	.LASF364
 3668 0c82 FD02     		.sleb128 381
 3669 0c84 08       		.uleb128 0x8
 3670 0c85 C52B0000 		.4byte	.LASF365
 3671 0c89 FE02     		.sleb128 382
 3672 0c8b 08       		.uleb128 0x8
 3673 0c8c F81F0000 		.4byte	.LASF366
 3674 0c90 FF02     		.sleb128 383
 3675 0c92 08       		.uleb128 0x8
 3676 0c93 64020000 		.4byte	.LASF367
 3677 0c97 8003     		.sleb128 384
 3678 0c99 08       		.uleb128 0x8
 3679 0c9a 64290000 		.4byte	.LASF368
 3680 0c9e 8103     		.sleb128 385
 3681 0ca0 08       		.uleb128 0x8
 3682 0ca1 443C0000 		.4byte	.LASF369
 3683 0ca5 8203     		.sleb128 386
 3684 0ca7 08       		.uleb128 0x8
 3685 0ca8 79370000 		.4byte	.LASF370
 3686 0cac 8303     		.sleb128 387
 3687 0cae 08       		.uleb128 0x8
 3688 0caf 501F0000 		.4byte	.LASF371
 3689 0cb3 8403     		.sleb128 388
 3690 0cb5 08       		.uleb128 0x8
 3691 0cb6 13030000 		.4byte	.LASF372
 3692 0cba 8503     		.sleb128 389
 3693 0cbc 08       		.uleb128 0x8
 3694 0cbd 94120000 		.4byte	.LASF373
 3695 0cc1 8603     		.sleb128 390
 3696 0cc3 08       		.uleb128 0x8
 3697 0cc4 68010000 		.4byte	.LASF374
 3698 0cc8 8703     		.sleb128 391
 3699 0cca 08       		.uleb128 0x8
 3700 0ccb 0F3F0000 		.4byte	.LASF375
 3701 0ccf 8803     		.sleb128 392
 3702 0cd1 08       		.uleb128 0x8
 3703 0cd2 BF230000 		.4byte	.LASF376
 3704 0cd6 8903     		.sleb128 393
ARM GAS  C:\Users\mohammed\AppData\Local\Temp\cceuH2T0.s 			page 86


 3705 0cd8 08       		.uleb128 0x8
 3706 0cd9 EA3D0000 		.4byte	.LASF377
 3707 0cdd 8A03     		.sleb128 394
 3708 0cdf 08       		.uleb128 0x8
 3709 0ce0 5C230000 		.4byte	.LASF378
 3710 0ce4 8B03     		.sleb128 395
 3711 0ce6 08       		.uleb128 0x8
 3712 0ce7 7A0D0000 		.4byte	.LASF379
 3713 0ceb 8C03     		.sleb128 396
 3714 0ced 08       		.uleb128 0x8
 3715 0cee A11A0000 		.4byte	.LASF380
 3716 0cf2 8D03     		.sleb128 397
 3717 0cf4 08       		.uleb128 0x8
 3718 0cf5 DE170000 		.4byte	.LASF381
 3719 0cf9 8E03     		.sleb128 398
 3720 0cfb 08       		.uleb128 0x8
 3721 0cfc DE0C0000 		.4byte	.LASF382
 3722 0d00 8F03     		.sleb128 399
 3723 0d02 08       		.uleb128 0x8
 3724 0d03 A8300000 		.4byte	.LASF383
 3725 0d07 9003     		.sleb128 400
 3726 0d09 08       		.uleb128 0x8
 3727 0d0a 641B0000 		.4byte	.LASF384
 3728 0d0e 9103     		.sleb128 401
 3729 0d10 08       		.uleb128 0x8
 3730 0d11 002A0000 		.4byte	.LASF385
 3731 0d15 9203     		.sleb128 402
 3732 0d17 08       		.uleb128 0x8
 3733 0d18 A5040000 		.4byte	.LASF386
 3734 0d1c 9303     		.sleb128 403
 3735 0d1e 08       		.uleb128 0x8
 3736 0d1f 86100000 		.4byte	.LASF387
 3737 0d23 9403     		.sleb128 404
 3738 0d25 08       		.uleb128 0x8
 3739 0d26 E22A0000 		.4byte	.LASF388
 3740 0d2a 9503     		.sleb128 405
 3741 0d2c 08       		.uleb128 0x8
 3742 0d2d C4170000 		.4byte	.LASF389
 3743 0d31 9603     		.sleb128 406
 3744 0d33 08       		.uleb128 0x8
 3745 0d34 88360000 		.4byte	.LASF390
 3746 0d38 9703     		.sleb128 407
 3747 0d3a 08       		.uleb128 0x8
 3748 0d3b 44200000 		.4byte	.LASF391
 3749 0d3f 9803     		.sleb128 408
 3750 0d41 08       		.uleb128 0x8
 3751 0d42 15360000 		.4byte	.LASF392
 3752 0d46 9903     		.sleb128 409
 3753 0d48 08       		.uleb128 0x8
 3754 0d49 43150000 		.4byte	.LASF393
 3755 0d4d 9A03     		.sleb128 410
 3756 0d4f 08       		.uleb128 0x8
 3757 0d50 38270000 		.4byte	.LASF394
 3758 0d54 9B03     		.sleb128 411
 3759 0d56 08       		.uleb128 0x8
 3760 0d57 7C140000 		.4byte	.LASF395
 3761 0d5b 9C03     		.sleb128 412
ARM GAS  C:\Users\mohammed\AppData\Local\Temp\cceuH2T0.s 			page 87


 3762 0d5d 08       		.uleb128 0x8
 3763 0d5e 81190000 		.4byte	.LASF396
 3764 0d62 9D03     		.sleb128 413
 3765 0d64 08       		.uleb128 0x8
 3766 0d65 7D3F0000 		.4byte	.LASF397
 3767 0d69 9E03     		.sleb128 414
 3768 0d6b 08       		.uleb128 0x8
 3769 0d6c A3290000 		.4byte	.LASF398
 3770 0d70 9F03     		.sleb128 415
 3771 0d72 08       		.uleb128 0x8
 3772 0d73 242A0000 		.4byte	.LASF399
 3773 0d77 A003     		.sleb128 416
 3774 0d79 08       		.uleb128 0x8
 3775 0d7a BA070000 		.4byte	.LASF400
 3776 0d7e A103     		.sleb128 417
 3777 0d80 08       		.uleb128 0x8
 3778 0d81 39170000 		.4byte	.LASF401
 3779 0d85 A203     		.sleb128 418
 3780 0d87 08       		.uleb128 0x8
 3781 0d88 4B310000 		.4byte	.LASF402
 3782 0d8c A303     		.sleb128 419
 3783 0d8e 08       		.uleb128 0x8
 3784 0d8f BD0B0000 		.4byte	.LASF403
 3785 0d93 A403     		.sleb128 420
 3786 0d95 08       		.uleb128 0x8
 3787 0d96 22000000 		.4byte	.LASF404
 3788 0d9a A503     		.sleb128 421
 3789 0d9c 08       		.uleb128 0x8
 3790 0d9d 03370000 		.4byte	.LASF405
 3791 0da1 A603     		.sleb128 422
 3792 0da3 08       		.uleb128 0x8
 3793 0da4 F2120000 		.4byte	.LASF406
 3794 0da8 A703     		.sleb128 423
 3795 0daa 08       		.uleb128 0x8
 3796 0dab 343F0000 		.4byte	.LASF407
 3797 0daf A803     		.sleb128 424
 3798 0db1 08       		.uleb128 0x8
 3799 0db2 ED1C0000 		.4byte	.LASF408
 3800 0db6 A903     		.sleb128 425
 3801 0db8 08       		.uleb128 0x8
 3802 0db9 8B1F0000 		.4byte	.LASF409
 3803 0dbd AA03     		.sleb128 426
 3804 0dbf 08       		.uleb128 0x8
 3805 0dc0 F53E0000 		.4byte	.LASF410
 3806 0dc4 AB03     		.sleb128 427
 3807 0dc6 08       		.uleb128 0x8
 3808 0dc7 53330000 		.4byte	.LASF411
 3809 0dcb AC03     		.sleb128 428
 3810 0dcd 08       		.uleb128 0x8
 3811 0dce 15270000 		.4byte	.LASF412
 3812 0dd2 AD03     		.sleb128 429
 3813 0dd4 08       		.uleb128 0x8
 3814 0dd5 0B290000 		.4byte	.LASF413
 3815 0dd9 AE03     		.sleb128 430
 3816 0ddb 08       		.uleb128 0x8
 3817 0ddc 123A0000 		.4byte	.LASF414
 3818 0de0 AF03     		.sleb128 431
ARM GAS  C:\Users\mohammed\AppData\Local\Temp\cceuH2T0.s 			page 88


 3819 0de2 08       		.uleb128 0x8
 3820 0de3 CB1B0000 		.4byte	.LASF415
 3821 0de7 B003     		.sleb128 432
 3822 0de9 08       		.uleb128 0x8
 3823 0dea 170D0000 		.4byte	.LASF416
 3824 0dee B103     		.sleb128 433
 3825 0df0 08       		.uleb128 0x8
 3826 0df1 34080000 		.4byte	.LASF417
 3827 0df5 B203     		.sleb128 434
 3828 0df7 08       		.uleb128 0x8
 3829 0df8 F1310000 		.4byte	.LASF418
 3830 0dfc B303     		.sleb128 435
 3831 0dfe 08       		.uleb128 0x8
 3832 0dff CF100000 		.4byte	.LASF419
 3833 0e03 B403     		.sleb128 436
 3834 0e05 08       		.uleb128 0x8
 3835 0e06 70080000 		.4byte	.LASF420
 3836 0e0a B503     		.sleb128 437
 3837 0e0c 08       		.uleb128 0x8
 3838 0e0d 8C0B0000 		.4byte	.LASF421
 3839 0e11 B603     		.sleb128 438
 3840 0e13 08       		.uleb128 0x8
 3841 0e14 9A1B0000 		.4byte	.LASF422
 3842 0e18 B703     		.sleb128 439
 3843 0e1a 08       		.uleb128 0x8
 3844 0e1b 2C1F0000 		.4byte	.LASF423
 3845 0e1f B803     		.sleb128 440
 3846 0e21 08       		.uleb128 0x8
 3847 0e22 F4390000 		.4byte	.LASF424
 3848 0e26 B903     		.sleb128 441
 3849 0e28 08       		.uleb128 0x8
 3850 0e29 231A0000 		.4byte	.LASF425
 3851 0e2d BA03     		.sleb128 442
 3852 0e2f 08       		.uleb128 0x8
 3853 0e30 F6160000 		.4byte	.LASF426
 3854 0e34 BB03     		.sleb128 443
 3855 0e36 08       		.uleb128 0x8
 3856 0e37 45220000 		.4byte	.LASF427
 3857 0e3b BC03     		.sleb128 444
 3858 0e3d 08       		.uleb128 0x8
 3859 0e3e D5020000 		.4byte	.LASF428
 3860 0e42 BD03     		.sleb128 445
 3861 0e44 08       		.uleb128 0x8
 3862 0e45 7C2E0000 		.4byte	.LASF429
 3863 0e49 BE03     		.sleb128 446
 3864 0e4b 08       		.uleb128 0x8
 3865 0e4c F9030000 		.4byte	.LASF430
 3866 0e50 BF03     		.sleb128 447
 3867 0e52 08       		.uleb128 0x8
 3868 0e53 382B0000 		.4byte	.LASF431
 3869 0e57 C003     		.sleb128 448
 3870 0e59 08       		.uleb128 0x8
 3871 0e5a 99090000 		.4byte	.LASF432
 3872 0e5e C103     		.sleb128 449
 3873 0e60 08       		.uleb128 0x8
 3874 0e61 080A0000 		.4byte	.LASF433
 3875 0e65 C203     		.sleb128 450
ARM GAS  C:\Users\mohammed\AppData\Local\Temp\cceuH2T0.s 			page 89


 3876 0e67 08       		.uleb128 0x8
 3877 0e68 6F310000 		.4byte	.LASF434
 3878 0e6c C303     		.sleb128 451
 3879 0e6e 08       		.uleb128 0x8
 3880 0e6f 91060000 		.4byte	.LASF435
 3881 0e73 C403     		.sleb128 452
 3882 0e75 08       		.uleb128 0x8
 3883 0e76 AC2D0000 		.4byte	.LASF436
 3884 0e7a C503     		.sleb128 453
 3885 0e7c 08       		.uleb128 0x8
 3886 0e7d A32B0000 		.4byte	.LASF437
 3887 0e81 C603     		.sleb128 454
 3888 0e83 08       		.uleb128 0x8
 3889 0e84 8E180000 		.4byte	.LASF438
 3890 0e88 C703     		.sleb128 455
 3891 0e8a 08       		.uleb128 0x8
 3892 0e8b B33B0000 		.4byte	.LASF439
 3893 0e8f C803     		.sleb128 456
 3894 0e91 08       		.uleb128 0x8
 3895 0e92 FD210000 		.4byte	.LASF440
 3896 0e96 C903     		.sleb128 457
 3897 0e98 08       		.uleb128 0x8
 3898 0e99 7F2A0000 		.4byte	.LASF441
 3899 0e9d CA03     		.sleb128 458
 3900 0e9f 08       		.uleb128 0x8
 3901 0ea0 FC1B0000 		.4byte	.LASF442
 3902 0ea4 CB03     		.sleb128 459
 3903 0ea6 08       		.uleb128 0x8
 3904 0ea7 5E300000 		.4byte	.LASF443
 3905 0eab CC03     		.sleb128 460
 3906 0ead 08       		.uleb128 0x8
 3907 0eae 7F1D0000 		.4byte	.LASF444
 3908 0eb2 CD03     		.sleb128 461
 3909 0eb4 08       		.uleb128 0x8
 3910 0eb5 211C0000 		.4byte	.LASF445
 3911 0eb9 CE03     		.sleb128 462
 3912 0ebb 08       		.uleb128 0x8
 3913 0ebc AB060000 		.4byte	.LASF446
 3914 0ec0 CF03     		.sleb128 463
 3915 0ec2 08       		.uleb128 0x8
 3916 0ec3 730A0000 		.4byte	.LASF447
 3917 0ec7 D003     		.sleb128 464
 3918 0ec9 08       		.uleb128 0x8
 3919 0eca 401A0000 		.4byte	.LASF448
 3920 0ece D103     		.sleb128 465
 3921 0ed0 08       		.uleb128 0x8
 3922 0ed1 99330000 		.4byte	.LASF449
 3923 0ed5 D203     		.sleb128 466
 3924 0ed7 08       		.uleb128 0x8
 3925 0ed8 AB3E0000 		.4byte	.LASF450
 3926 0edc D303     		.sleb128 467
 3927 0ede 08       		.uleb128 0x8
 3928 0edf 191B0000 		.4byte	.LASF451
 3929 0ee3 D403     		.sleb128 468
 3930 0ee5 08       		.uleb128 0x8
 3931 0ee6 BC0E0000 		.4byte	.LASF452
 3932 0eea D503     		.sleb128 469
ARM GAS  C:\Users\mohammed\AppData\Local\Temp\cceuH2T0.s 			page 90


 3933 0eec 08       		.uleb128 0x8
 3934 0eed B7160000 		.4byte	.LASF453
 3935 0ef1 D603     		.sleb128 470
 3936 0ef3 08       		.uleb128 0x8
 3937 0ef4 D8290000 		.4byte	.LASF454
 3938 0ef8 D703     		.sleb128 471
 3939 0efa 08       		.uleb128 0x8
 3940 0efb 66040000 		.4byte	.LASF455
 3941 0eff D803     		.sleb128 472
 3942 0f01 08       		.uleb128 0x8
 3943 0f02 27320000 		.4byte	.LASF456
 3944 0f06 D903     		.sleb128 473
 3945 0f08 08       		.uleb128 0x8
 3946 0f09 830F0000 		.4byte	.LASF457
 3947 0f0d DA03     		.sleb128 474
 3948 0f0f 08       		.uleb128 0x8
 3949 0f10 8D1E0000 		.4byte	.LASF458
 3950 0f14 DB03     		.sleb128 475
 3951 0f16 08       		.uleb128 0x8
 3952 0f17 13160000 		.4byte	.LASF459
 3953 0f1b DC03     		.sleb128 476
 3954 0f1d 08       		.uleb128 0x8
 3955 0f1e 93390000 		.4byte	.LASF460
 3956 0f22 DD03     		.sleb128 477
 3957 0f24 08       		.uleb128 0x8
 3958 0f25 88030000 		.4byte	.LASF461
 3959 0f29 DE03     		.sleb128 478
 3960 0f2b 08       		.uleb128 0x8
 3961 0f2c F8000000 		.4byte	.LASF462
 3962 0f30 DF03     		.sleb128 479
 3963 0f32 08       		.uleb128 0x8
 3964 0f33 15130000 		.4byte	.LASF463
 3965 0f37 E003     		.sleb128 480
 3966 0f39 08       		.uleb128 0x8
 3967 0f3a AA100000 		.4byte	.LASF464
 3968 0f3e E103     		.sleb128 481
 3969 0f40 08       		.uleb128 0x8
 3970 0f41 B3250000 		.4byte	.LASF465
 3971 0f45 E203     		.sleb128 482
 3972 0f47 08       		.uleb128 0x8
 3973 0f48 BE370000 		.4byte	.LASF466
 3974 0f4c E303     		.sleb128 483
 3975 0f4e 08       		.uleb128 0x8
 3976 0f4f 3F230000 		.4byte	.LASF467
 3977 0f53 E403     		.sleb128 484
 3978 0f55 08       		.uleb128 0x8
 3979 0f56 27310000 		.4byte	.LASF468
 3980 0f5a E503     		.sleb128 485
 3981 0f5c 08       		.uleb128 0x8
 3982 0f5d 7F110000 		.4byte	.LASF469
 3983 0f61 E603     		.sleb128 486
 3984 0f63 08       		.uleb128 0x8
 3985 0f64 CA040000 		.4byte	.LASF470
 3986 0f68 E703     		.sleb128 487
 3987 0f6a 08       		.uleb128 0x8
 3988 0f6b 02310000 		.4byte	.LASF471
 3989 0f6f E803     		.sleb128 488
ARM GAS  C:\Users\mohammed\AppData\Local\Temp\cceuH2T0.s 			page 91


 3990 0f71 08       		.uleb128 0x8
 3991 0f72 B7110000 		.4byte	.LASF472
 3992 0f76 E903     		.sleb128 489
 3993 0f78 08       		.uleb128 0x8
 3994 0f79 B51F0000 		.4byte	.LASF473
 3995 0f7d EA03     		.sleb128 490
 3996 0f7f 08       		.uleb128 0x8
 3997 0f80 DE2F0000 		.4byte	.LASF474
 3998 0f84 EB03     		.sleb128 491
 3999 0f86 08       		.uleb128 0x8
 4000 0f87 49160000 		.4byte	.LASF475
 4001 0f8b EC03     		.sleb128 492
 4002 0f8d 08       		.uleb128 0x8
 4003 0f8e 52360000 		.4byte	.LASF476
 4004 0f92 ED03     		.sleb128 493
 4005 0f94 08       		.uleb128 0x8
 4006 0f95 1D140000 		.4byte	.LASF477
 4007 0f99 EE03     		.sleb128 494
 4008 0f9b 08       		.uleb128 0x8
 4009 0f9c 970A0000 		.4byte	.LASF478
 4010 0fa0 EF03     		.sleb128 495
 4011 0fa2 08       		.uleb128 0x8
 4012 0fa3 142B0000 		.4byte	.LASF479
 4013 0fa7 F003     		.sleb128 496
 4014 0fa9 08       		.uleb128 0x8
 4015 0faa FA180000 		.4byte	.LASF480
 4016 0fae F103     		.sleb128 497
 4017 0fb0 08       		.uleb128 0x8
 4018 0fb1 1F0C0000 		.4byte	.LASF481
 4019 0fb5 F203     		.sleb128 498
 4020 0fb7 08       		.uleb128 0x8
 4021 0fb8 44190000 		.4byte	.LASF482
 4022 0fbc F303     		.sleb128 499
 4023 0fbe 08       		.uleb128 0x8
 4024 0fbf 1A080000 		.4byte	.LASF483
 4025 0fc3 F403     		.sleb128 500
 4026 0fc5 08       		.uleb128 0x8
 4027 0fc6 72240000 		.4byte	.LASF484
 4028 0fca F503     		.sleb128 501
 4029 0fcc 08       		.uleb128 0x8
 4030 0fcd 00000000 		.4byte	.LASF485
 4031 0fd1 F603     		.sleb128 502
 4032 0fd3 08       		.uleb128 0x8
 4033 0fd4 C6270000 		.4byte	.LASF486
 4034 0fd8 F703     		.sleb128 503
 4035 0fda 08       		.uleb128 0x8
 4036 0fdb 34370000 		.4byte	.LASF487
 4037 0fdf F803     		.sleb128 504
 4038 0fe1 08       		.uleb128 0x8
 4039 0fe2 81040000 		.4byte	.LASF488
 4040 0fe6 F903     		.sleb128 505
 4041 0fe8 08       		.uleb128 0x8
 4042 0fe9 01300000 		.4byte	.LASF489
 4043 0fed FA03     		.sleb128 506
 4044 0fef 08       		.uleb128 0x8
 4045 0ff0 68210000 		.4byte	.LASF490
 4046 0ff4 FB03     		.sleb128 507
ARM GAS  C:\Users\mohammed\AppData\Local\Temp\cceuH2T0.s 			page 92


 4047 0ff6 08       		.uleb128 0x8
 4048 0ff7 F9140000 		.4byte	.LASF491
 4049 0ffb FC03     		.sleb128 508
 4050 0ffd 08       		.uleb128 0x8
 4051 0ffe 5A3A0000 		.4byte	.LASF492
 4052 1002 FD03     		.sleb128 509
 4053 1004 08       		.uleb128 0x8
 4054 1005 C10F0000 		.4byte	.LASF493
 4055 1009 FE03     		.sleb128 510
 4056 100b 08       		.uleb128 0x8
 4057 100c 583F0000 		.4byte	.LASF494
 4058 1010 FF03     		.sleb128 511
 4059 1012 08       		.uleb128 0x8
 4060 1013 DB160000 		.4byte	.LASF495
 4061 1017 8004     		.sleb128 512
 4062 1019 08       		.uleb128 0x8
 4063 101a 4B010000 		.4byte	.LASF496
 4064 101e 8104     		.sleb128 513
 4065 1020 08       		.uleb128 0x8
 4066 1021 E9270000 		.4byte	.LASF497
 4067 1025 8204     		.sleb128 514
 4068 1027 08       		.uleb128 0x8
 4069 1028 64030000 		.4byte	.LASF498
 4070 102c 8304     		.sleb128 515
 4071 102e 08       		.uleb128 0x8
 4072 102f 5B180000 		.4byte	.LASF499
 4073 1033 8404     		.sleb128 516
 4074 1035 08       		.uleb128 0x8
 4075 1036 AF320000 		.4byte	.LASF500
 4076 103a 8504     		.sleb128 517
 4077 103c 08       		.uleb128 0x8
 4078 103d 7D3A0000 		.4byte	.LASF501
 4079 1041 8604     		.sleb128 518
 4080 1043 08       		.uleb128 0x8
 4081 1044 B5010000 		.4byte	.LASF502
 4082 1048 8704     		.sleb128 519
 4083 104a 08       		.uleb128 0x8
 4084 104b 5C2B0000 		.4byte	.LASF503
 4085 104f 8804     		.sleb128 520
 4086 1051 08       		.uleb128 0x8
 4087 1052 B3130000 		.4byte	.LASF504
 4088 1056 8904     		.sleb128 521
 4089 1058 08       		.uleb128 0x8
 4090 1059 67150000 		.4byte	.LASF505
 4091 105d 8A04     		.sleb128 522
 4092 105f 08       		.uleb128 0x8
 4093 1060 673D0000 		.4byte	.LASF506
 4094 1064 8B04     		.sleb128 523
 4095 1066 08       		.uleb128 0x8
 4096 1067 9E0F0000 		.4byte	.LASF507
 4097 106b 8C04     		.sleb128 524
 4098 106d 08       		.uleb128 0x8
 4099 106e E90D0000 		.4byte	.LASF508
 4100 1072 8D04     		.sleb128 525
 4101 1074 08       		.uleb128 0x8
 4102 1075 2E290000 		.4byte	.LASF509
 4103 1079 80C003   		.sleb128 57344
ARM GAS  C:\Users\mohammed\AppData\Local\Temp\cceuH2T0.s 			page 93


 4104 107c 00       		.byte	0
 4105 107d 07       		.uleb128 0x7
 4106 107e 01       		.byte	0x1
 4107 107f 09       		.byte	0x9
 4108 1080 BF07     		.2byte	0x7bf
 4109 1082 A5100000 		.4byte	0x10a5
 4110 1086 08       		.uleb128 0x8
 4111 1087 A80E0000 		.4byte	.LASF510
 4112 108b 00       		.sleb128 0
 4113 108c 08       		.uleb128 0x8
 4114 108d 141E0000 		.4byte	.LASF511
 4115 1091 01       		.sleb128 1
 4116 1092 08       		.uleb128 0x8
 4117 1093 D63B0000 		.4byte	.LASF512
 4118 1097 02       		.sleb128 2
 4119 1098 08       		.uleb128 0x8
 4120 1099 922C0000 		.4byte	.LASF513
 4121 109d 03       		.sleb128 3
 4122 109e 08       		.uleb128 0x8
 4123 109f 721F0000 		.4byte	.LASF514
 4124 10a3 04       		.sleb128 4
 4125 10a4 00       		.byte	0
 4126 10a5 04       		.uleb128 0x4
 4127 10a6 E92B0000 		.4byte	.LASF515
 4128 10aa 09       		.byte	0x9
 4129 10ab CD07     		.2byte	0x7cd
 4130 10ad 7D100000 		.4byte	0x107d
 4131 10b1 17       		.uleb128 0x17
 4132 10b2 70070000 		.4byte	.LASF553
 4133 10b6 01       		.byte	0x1
 4134 10b7 7501     		.2byte	0x175
 4135 10b9 00000000 		.4byte	.LFB2
 4136 10bd 1C000000 		.4byte	.LFE2-.LFB2
 4137 10c1 01       		.uleb128 0x1
 4138 10c2 9C       		.byte	0x9c
 4139 10c3 18       		.uleb128 0x18
 4140 10c4 1E340000 		.4byte	.LASF529
 4141 10c8 01       		.byte	0x1
 4142 10c9 A101     		.2byte	0x1a1
 4143 10cb 00000000 		.4byte	.LFB3
 4144 10cf 18000000 		.4byte	.LFE3-.LFB3
 4145 10d3 01       		.uleb128 0x1
 4146 10d4 9C       		.byte	0x9c
 4147 10d5 E9100000 		.4byte	0x10e9
 4148 10d9 19       		.uleb128 0x19
 4149 10da 210B0000 		.4byte	.LASF516
 4150 10de 01       		.byte	0x1
 4151 10df A101     		.2byte	0x1a1
 4152 10e1 32070000 		.4byte	0x732
 4153 10e5 02       		.uleb128 0x2
 4154 10e6 91       		.byte	0x91
 4155 10e7 74       		.sleb128 -12
 4156 10e8 00       		.byte	0
 4157 10e9 1A       		.uleb128 0x1a
 4158 10ea 3D0F0000 		.4byte	.LASF521
 4159 10ee 01       		.byte	0x1
 4160 10ef BF01     		.2byte	0x1bf
ARM GAS  C:\Users\mohammed\AppData\Local\Temp\cceuH2T0.s 			page 94


 4161 10f1 3F030000 		.4byte	0x33f
 4162 10f5 00000000 		.4byte	.LFB4
 4163 10f9 A0000000 		.4byte	.LFE4-.LFB4
 4164 10fd 01       		.uleb128 0x1
 4165 10fe 9C       		.byte	0x9c
 4166 10ff 59110000 		.4byte	0x1159
 4167 1103 19       		.uleb128 0x19
 4168 1104 17010000 		.4byte	.LASF237
 4169 1108 01       		.byte	0x1
 4170 1109 BF01     		.2byte	0x1bf
 4171 110b 33080000 		.4byte	0x833
 4172 110f 02       		.uleb128 0x2
 4173 1110 91       		.byte	0x91
 4174 1111 67       		.sleb128 -25
 4175 1112 19       		.uleb128 0x19
 4176 1113 2E260000 		.4byte	.LASF517
 4177 1117 01       		.byte	0x1
 4178 1118 BF01     		.2byte	0x1bf
 4179 111a 6B000000 		.4byte	0x6b
 4180 111e 02       		.uleb128 0x2
 4181 111f 91       		.byte	0x91
 4182 1120 66       		.sleb128 -26
 4183 1121 19       		.uleb128 0x19
 4184 1122 A0170000 		.4byte	.LASF518
 4185 1126 01       		.byte	0x1
 4186 1127 BF01     		.2byte	0x1bf
 4187 1129 4B030000 		.4byte	0x34b
 4188 112d 02       		.uleb128 0x2
 4189 112e 91       		.byte	0x91
 4190 112f 60       		.sleb128 -32
 4191 1130 1B       		.uleb128 0x1b
 4192 1131 EC300000 		.4byte	.LASF519
 4193 1135 01       		.byte	0x1
 4194 1136 C101     		.2byte	0x1c1
 4195 1138 3F030000 		.4byte	0x33f
 4196 113c 02       		.uleb128 0x2
 4197 113d 91       		.byte	0x91
 4198 113e 76       		.sleb128 -10
 4199 113f 1C       		.uleb128 0x1c
 4200 1140 40000000 		.4byte	.LBB2
 4201 1144 4C000000 		.4byte	.LBE2-.LBB2
 4202 1148 1B       		.uleb128 0x1b
 4203 1149 E91B0000 		.4byte	.LASF520
 4204 114d 01       		.byte	0x1
 4205 114e CE01     		.2byte	0x1ce
 4206 1150 FB040000 		.4byte	0x4fb
 4207 1154 02       		.uleb128 0x2
 4208 1155 91       		.byte	0x91
 4209 1156 68       		.sleb128 -24
 4210 1157 00       		.byte	0
 4211 1158 00       		.byte	0
 4212 1159 1A       		.uleb128 0x1a
 4213 115a 2C330000 		.4byte	.LASF522
 4214 115e 01       		.byte	0x1
 4215 115f FA01     		.2byte	0x1fa
 4216 1161 3F030000 		.4byte	0x33f
 4217 1165 00000000 		.4byte	.LFB5
ARM GAS  C:\Users\mohammed\AppData\Local\Temp\cceuH2T0.s 			page 95


 4218 1169 9C000000 		.4byte	.LFE5-.LFB5
 4219 116d 01       		.uleb128 0x1
 4220 116e 9C       		.byte	0x9c
 4221 116f C9110000 		.4byte	0x11c9
 4222 1173 19       		.uleb128 0x19
 4223 1174 17010000 		.4byte	.LASF237
 4224 1178 01       		.byte	0x1
 4225 1179 FA01     		.2byte	0x1fa
 4226 117b 33080000 		.4byte	0x833
 4227 117f 02       		.uleb128 0x2
 4228 1180 91       		.byte	0x91
 4229 1181 67       		.sleb128 -25
 4230 1182 19       		.uleb128 0x19
 4231 1183 2E260000 		.4byte	.LASF517
 4232 1187 01       		.byte	0x1
 4233 1188 FA01     		.2byte	0x1fa
 4234 118a 6B000000 		.4byte	0x6b
 4235 118e 02       		.uleb128 0x2
 4236 118f 91       		.byte	0x91
 4237 1190 66       		.sleb128 -26
 4238 1191 19       		.uleb128 0x19
 4239 1192 A0170000 		.4byte	.LASF518
 4240 1196 01       		.byte	0x1
 4241 1197 FA01     		.2byte	0x1fa
 4242 1199 4B030000 		.4byte	0x34b
 4243 119d 02       		.uleb128 0x2
 4244 119e 91       		.byte	0x91
 4245 119f 60       		.sleb128 -32
 4246 11a0 1B       		.uleb128 0x1b
 4247 11a1 EC300000 		.4byte	.LASF519
 4248 11a5 01       		.byte	0x1
 4249 11a6 FC01     		.2byte	0x1fc
 4250 11a8 3F030000 		.4byte	0x33f
 4251 11ac 02       		.uleb128 0x2
 4252 11ad 91       		.byte	0x91
 4253 11ae 76       		.sleb128 -10
 4254 11af 1C       		.uleb128 0x1c
 4255 11b0 40000000 		.4byte	.LBB3
 4256 11b4 4A000000 		.4byte	.LBE3-.LBB3
 4257 11b8 1B       		.uleb128 0x1b
 4258 11b9 E91B0000 		.4byte	.LASF520
 4259 11bd 01       		.byte	0x1
 4260 11be 0902     		.2byte	0x209
 4261 11c0 FB040000 		.4byte	0x4fb
 4262 11c4 02       		.uleb128 0x2
 4263 11c5 91       		.byte	0x91
 4264 11c6 68       		.sleb128 -24
 4265 11c7 00       		.byte	0
 4266 11c8 00       		.byte	0
 4267 11c9 1A       		.uleb128 0x1a
 4268 11ca 57130000 		.4byte	.LASF523
 4269 11ce 01       		.byte	0x1
 4270 11cf 3502     		.2byte	0x235
 4271 11d1 3F030000 		.4byte	0x33f
 4272 11d5 00000000 		.4byte	.LFB6
 4273 11d9 B8000000 		.4byte	.LFE6-.LFB6
 4274 11dd 01       		.uleb128 0x1
ARM GAS  C:\Users\mohammed\AppData\Local\Temp\cceuH2T0.s 			page 96


 4275 11de 9C       		.byte	0x9c
 4276 11df 48120000 		.4byte	0x1248
 4277 11e3 19       		.uleb128 0x19
 4278 11e4 17010000 		.4byte	.LASF237
 4279 11e8 01       		.byte	0x1
 4280 11e9 3502     		.2byte	0x235
 4281 11eb 33080000 		.4byte	0x833
 4282 11ef 02       		.uleb128 0x2
 4283 11f0 91       		.byte	0x91
 4284 11f1 5F       		.sleb128 -33
 4285 11f2 19       		.uleb128 0x19
 4286 11f3 5C240000 		.4byte	.LASF524
 4287 11f7 01       		.byte	0x1
 4288 11f8 3602     		.2byte	0x236
 4289 11fa 53080000 		.4byte	0x853
 4290 11fe 02       		.uleb128 0x2
 4291 11ff 91       		.byte	0x91
 4292 1200 5E       		.sleb128 -34
 4293 1201 19       		.uleb128 0x19
 4294 1202 2E260000 		.4byte	.LASF517
 4295 1206 01       		.byte	0x1
 4296 1207 3702     		.2byte	0x237
 4297 1209 6B000000 		.4byte	0x6b
 4298 120d 02       		.uleb128 0x2
 4299 120e 91       		.byte	0x91
 4300 120f 5D       		.sleb128 -35
 4301 1210 19       		.uleb128 0x19
 4302 1211 A0170000 		.4byte	.LASF518
 4303 1215 01       		.byte	0x1
 4304 1216 3702     		.2byte	0x237
 4305 1218 4B030000 		.4byte	0x34b
 4306 121c 02       		.uleb128 0x2
 4307 121d 91       		.byte	0x91
 4308 121e 58       		.sleb128 -40
 4309 121f 1B       		.uleb128 0x1b
 4310 1220 EC300000 		.4byte	.LASF519
 4311 1224 01       		.byte	0x1
 4312 1225 3902     		.2byte	0x239
 4313 1227 3F030000 		.4byte	0x33f
 4314 122b 02       		.uleb128 0x2
 4315 122c 91       		.byte	0x91
 4316 122d 6E       		.sleb128 -18
 4317 122e 1C       		.uleb128 0x1c
 4318 122f 54000000 		.4byte	.LBB4
 4319 1233 52000000 		.4byte	.LBE4-.LBB4
 4320 1237 1B       		.uleb128 0x1b
 4321 1238 E91B0000 		.4byte	.LASF520
 4322 123c 01       		.byte	0x1
 4323 123d 4602     		.2byte	0x246
 4324 123f FB040000 		.4byte	0x4fb
 4325 1243 02       		.uleb128 0x2
 4326 1244 91       		.byte	0x91
 4327 1245 60       		.sleb128 -32
 4328 1246 00       		.byte	0
 4329 1247 00       		.byte	0
 4330 1248 1A       		.uleb128 0x1a
 4331 1249 AC050000 		.4byte	.LASF525
ARM GAS  C:\Users\mohammed\AppData\Local\Temp\cceuH2T0.s 			page 97


 4332 124d 01       		.byte	0x1
 4333 124e 7902     		.2byte	0x279
 4334 1250 3F030000 		.4byte	0x33f
 4335 1254 00000000 		.4byte	.LFB7
 4336 1258 04010000 		.4byte	.LFE7-.LFB7
 4337 125c 01       		.uleb128 0x1
 4338 125d 9C       		.byte	0x9c
 4339 125e C7120000 		.4byte	0x12c7
 4340 1262 19       		.uleb128 0x19
 4341 1263 772F0000 		.4byte	.LASF168
 4342 1267 01       		.byte	0x1
 4343 1268 7902     		.2byte	0x279
 4344 126a 8E040000 		.4byte	0x48e
 4345 126e 02       		.uleb128 0x2
 4346 126f 91       		.byte	0x91
 4347 1270 5C       		.sleb128 -36
 4348 1271 19       		.uleb128 0x19
 4349 1272 17010000 		.4byte	.LASF237
 4350 1276 01       		.byte	0x1
 4351 1277 7A02     		.2byte	0x27a
 4352 1279 33080000 		.4byte	0x833
 4353 127d 02       		.uleb128 0x2
 4354 127e 91       		.byte	0x91
 4355 127f 5B       		.sleb128 -37
 4356 1280 19       		.uleb128 0x19
 4357 1281 2E260000 		.4byte	.LASF517
 4358 1285 01       		.byte	0x1
 4359 1286 7A02     		.2byte	0x27a
 4360 1288 6B000000 		.4byte	0x6b
 4361 128c 02       		.uleb128 0x2
 4362 128d 91       		.byte	0x91
 4363 128e 5A       		.sleb128 -38
 4364 128f 19       		.uleb128 0x19
 4365 1290 A0170000 		.4byte	.LASF518
 4366 1294 01       		.byte	0x1
 4367 1295 7A02     		.2byte	0x27a
 4368 1297 4B030000 		.4byte	0x34b
 4369 129b 02       		.uleb128 0x2
 4370 129c 91       		.byte	0x91
 4371 129d 54       		.sleb128 -44
 4372 129e 1B       		.uleb128 0x1b
 4373 129f EC300000 		.4byte	.LASF519
 4374 12a3 01       		.byte	0x1
 4375 12a4 7C02     		.2byte	0x27c
 4376 12a6 3F030000 		.4byte	0x33f
 4377 12aa 02       		.uleb128 0x2
 4378 12ab 91       		.byte	0x91
 4379 12ac 6E       		.sleb128 -18
 4380 12ad 1C       		.uleb128 0x1c
 4381 12ae A6000000 		.4byte	.LBB5
 4382 12b2 42000000 		.4byte	.LBE5-.LBB5
 4383 12b6 1B       		.uleb128 0x1b
 4384 12b7 44380000 		.4byte	.LASF526
 4385 12bb 01       		.byte	0x1
 4386 12bc 9102     		.2byte	0x291
 4387 12be 37050000 		.4byte	0x537
 4388 12c2 02       		.uleb128 0x2
ARM GAS  C:\Users\mohammed\AppData\Local\Temp\cceuH2T0.s 			page 98


 4389 12c3 91       		.byte	0x91
 4390 12c4 60       		.sleb128 -32
 4391 12c5 00       		.byte	0
 4392 12c6 00       		.byte	0
 4393 12c7 1A       		.uleb128 0x1a
 4394 12c8 9D150000 		.4byte	.LASF527
 4395 12cc 01       		.byte	0x1
 4396 12cd C702     		.2byte	0x2c7
 4397 12cf 3F030000 		.4byte	0x33f
 4398 12d3 00000000 		.4byte	.LFB8
 4399 12d7 1C010000 		.4byte	.LFE8-.LFB8
 4400 12db 01       		.uleb128 0x1
 4401 12dc 9C       		.byte	0x9c
 4402 12dd 46130000 		.4byte	0x1346
 4403 12e1 19       		.uleb128 0x19
 4404 12e2 772F0000 		.4byte	.LASF168
 4405 12e6 01       		.byte	0x1
 4406 12e7 C702     		.2byte	0x2c7
 4407 12e9 8E040000 		.4byte	0x48e
 4408 12ed 02       		.uleb128 0x2
 4409 12ee 91       		.byte	0x91
 4410 12ef 5C       		.sleb128 -36
 4411 12f0 19       		.uleb128 0x19
 4412 12f1 17010000 		.4byte	.LASF237
 4413 12f5 01       		.byte	0x1
 4414 12f6 C802     		.2byte	0x2c8
 4415 12f8 33080000 		.4byte	0x833
 4416 12fc 02       		.uleb128 0x2
 4417 12fd 91       		.byte	0x91
 4418 12fe 5B       		.sleb128 -37
 4419 12ff 19       		.uleb128 0x19
 4420 1300 2E260000 		.4byte	.LASF517
 4421 1304 01       		.byte	0x1
 4422 1305 C802     		.2byte	0x2c8
 4423 1307 6B000000 		.4byte	0x6b
 4424 130b 02       		.uleb128 0x2
 4425 130c 91       		.byte	0x91
 4426 130d 5A       		.sleb128 -38
 4427 130e 19       		.uleb128 0x19
 4428 130f A0170000 		.4byte	.LASF518
 4429 1313 01       		.byte	0x1
 4430 1314 C802     		.2byte	0x2c8
 4431 1316 4B030000 		.4byte	0x34b
 4432 131a 02       		.uleb128 0x2
 4433 131b 91       		.byte	0x91
 4434 131c 54       		.sleb128 -44
 4435 131d 1B       		.uleb128 0x1b
 4436 131e EC300000 		.4byte	.LASF519
 4437 1322 01       		.byte	0x1
 4438 1323 CA02     		.2byte	0x2ca
 4439 1325 3F030000 		.4byte	0x33f
 4440 1329 02       		.uleb128 0x2
 4441 132a 91       		.byte	0x91
 4442 132b 6E       		.sleb128 -18
 4443 132c 1C       		.uleb128 0x1c
 4444 132d A6000000 		.4byte	.LBB6
 4445 1331 56000000 		.4byte	.LBE6-.LBB6
ARM GAS  C:\Users\mohammed\AppData\Local\Temp\cceuH2T0.s 			page 99


 4446 1335 1B       		.uleb128 0x1b
 4447 1336 18210000 		.4byte	.LASF528
 4448 133a 01       		.byte	0x1
 4449 133b DF02     		.2byte	0x2df
 4450 133d 42050000 		.4byte	0x542
 4451 1341 02       		.uleb128 0x2
 4452 1342 91       		.byte	0x91
 4453 1343 60       		.sleb128 -32
 4454 1344 00       		.byte	0
 4455 1345 00       		.byte	0
 4456 1346 1D       		.uleb128 0x1d
 4457 1347 500A0000 		.4byte	.LASF530
 4458 134b 01       		.byte	0x1
 4459 134c 0003     		.2byte	0x300
 4460 134e 00000000 		.4byte	.LFB9
 4461 1352 90000000 		.4byte	.LFE9-.LFB9
 4462 1356 01       		.uleb128 0x1
 4463 1357 9C       		.byte	0x9c
 4464 1358 85130000 		.4byte	0x1385
 4465 135c 19       		.uleb128 0x19
 4466 135d 89020000 		.4byte	.LASF531
 4467 1361 01       		.byte	0x1
 4468 1362 0003     		.2byte	0x300
 4469 1364 85130000 		.4byte	0x1385
 4470 1368 02       		.uleb128 0x2
 4471 1369 91       		.byte	0x91
 4472 136a 64       		.sleb128 -28
 4473 136b 1C       		.uleb128 0x1c
 4474 136c 1A000000 		.4byte	.LBB7
 4475 1370 5E000000 		.4byte	.LBE7-.LBB7
 4476 1374 1B       		.uleb128 0x1b
 4477 1375 072B0000 		.4byte	.LASF532
 4478 1379 01       		.byte	0x1
 4479 137a 0503     		.2byte	0x305
 4480 137c FF080000 		.4byte	0x8ff
 4481 1380 02       		.uleb128 0x2
 4482 1381 91       		.byte	0x91
 4483 1382 6C       		.sleb128 -20
 4484 1383 00       		.byte	0
 4485 1384 00       		.byte	0
 4486 1385 09       		.uleb128 0x9
 4487 1386 04       		.byte	0x4
 4488 1387 8B130000 		.4byte	0x138b
 4489 138b 1E       		.uleb128 0x1e
 4490 138c 8E040000 		.4byte	0x48e
 4491 1390 1D       		.uleb128 0x1d
 4492 1391 082D0000 		.4byte	.LASF533
 4493 1395 01       		.byte	0x1
 4494 1396 2103     		.2byte	0x321
 4495 1398 00000000 		.4byte	.LFB10
 4496 139c BC000000 		.4byte	.LFE10-.LFB10
 4497 13a0 01       		.uleb128 0x1
 4498 13a1 9C       		.byte	0x9c
 4499 13a2 CF130000 		.4byte	0x13cf
 4500 13a6 19       		.uleb128 0x19
 4501 13a7 89020000 		.4byte	.LASF531
 4502 13ab 01       		.byte	0x1
ARM GAS  C:\Users\mohammed\AppData\Local\Temp\cceuH2T0.s 			page 100


 4503 13ac 2103     		.2byte	0x321
 4504 13ae CF130000 		.4byte	0x13cf
 4505 13b2 02       		.uleb128 0x2
 4506 13b3 91       		.byte	0x91
 4507 13b4 64       		.sleb128 -28
 4508 13b5 1C       		.uleb128 0x1c
 4509 13b6 10000000 		.4byte	.LBB8
 4510 13ba 9A000000 		.4byte	.LBE8-.LBB8
 4511 13be 1B       		.uleb128 0x1b
 4512 13bf 580E0000 		.4byte	.LASF534
 4513 13c3 01       		.byte	0x1
 4514 13c4 2503     		.2byte	0x325
 4515 13c6 FF080000 		.4byte	0x8ff
 4516 13ca 02       		.uleb128 0x2
 4517 13cb 91       		.byte	0x91
 4518 13cc 6C       		.sleb128 -20
 4519 13cd 00       		.byte	0
 4520 13ce 00       		.byte	0
 4521 13cf 09       		.uleb128 0x9
 4522 13d0 04       		.byte	0x4
 4523 13d1 4C060000 		.4byte	0x64c
 4524 13d5 1A       		.uleb128 0x1a
 4525 13d6 8C0E0000 		.4byte	.LASF535
 4526 13da 01       		.byte	0x1
 4527 13db 5503     		.2byte	0x355
 4528 13dd 52040000 		.4byte	0x452
 4529 13e1 00000000 		.4byte	.LFB11
 4530 13e5 D0020000 		.4byte	.LFE11-.LFB11
 4531 13e9 01       		.uleb128 0x1
 4532 13ea 9C       		.byte	0x9c
 4533 13eb 40140000 		.4byte	0x1440
 4534 13ef 19       		.uleb128 0x19
 4535 13f0 89020000 		.4byte	.LASF531
 4536 13f4 01       		.byte	0x1
 4537 13f5 5503     		.2byte	0x355
 4538 13f7 40140000 		.4byte	0x1440
 4539 13fb 02       		.uleb128 0x2
 4540 13fc 91       		.byte	0x91
 4541 13fd 54       		.sleb128 -44
 4542 13fe 1B       		.uleb128 0x1b
 4543 13ff 043B0000 		.4byte	.LASF536
 4544 1403 01       		.byte	0x1
 4545 1404 5703     		.2byte	0x357
 4546 1406 52040000 		.4byte	0x452
 4547 140a 02       		.uleb128 0x2
 4548 140b 91       		.byte	0x91
 4549 140c 6F       		.sleb128 -17
 4550 140d 1C       		.uleb128 0x1c
 4551 140e 1A000000 		.4byte	.LBB9
 4552 1412 94020000 		.4byte	.LBE9-.LBB9
 4553 1416 1B       		.uleb128 0x1b
 4554 1417 580E0000 		.4byte	.LASF534
 4555 141b 01       		.byte	0x1
 4556 141c 5B03     		.2byte	0x35b
 4557 141e FF080000 		.4byte	0x8ff
 4558 1422 02       		.uleb128 0x2
 4559 1423 91       		.byte	0x91
ARM GAS  C:\Users\mohammed\AppData\Local\Temp\cceuH2T0.s 			page 101


 4560 1424 5C       		.sleb128 -36
 4561 1425 1C       		.uleb128 0x1c
 4562 1426 6C000000 		.4byte	.LBB10
 4563 142a 78000000 		.4byte	.LBE10-.LBB10
 4564 142e 1B       		.uleb128 0x1b
 4565 142f B7390000 		.4byte	.LASF537
 4566 1433 01       		.byte	0x1
 4567 1434 6803     		.2byte	0x368
 4568 1436 83000000 		.4byte	0x83
 4569 143a 02       		.uleb128 0x2
 4570 143b 91       		.byte	0x91
 4571 143c 68       		.sleb128 -24
 4572 143d 00       		.byte	0
 4573 143e 00       		.byte	0
 4574 143f 00       		.byte	0
 4575 1440 09       		.uleb128 0x9
 4576 1441 04       		.byte	0x4
 4577 1442 14060000 		.4byte	0x614
 4578 1446 1D       		.uleb128 0x1d
 4579 1447 21010000 		.4byte	.LASF538
 4580 144b 01       		.byte	0x1
 4581 144c EE03     		.2byte	0x3ee
 4582 144e 00000000 		.4byte	.LFB12
 4583 1452 D0000000 		.4byte	.LFE12-.LFB12
 4584 1456 01       		.uleb128 0x1
 4585 1457 9C       		.byte	0x9c
 4586 1458 8A140000 		.4byte	0x148a
 4587 145c 19       		.uleb128 0x19
 4588 145d 89020000 		.4byte	.LASF531
 4589 1461 01       		.byte	0x1
 4590 1462 EE03     		.2byte	0x3ee
 4591 1464 8A140000 		.4byte	0x148a
 4592 1468 02       		.uleb128 0x2
 4593 1469 91       		.byte	0x91
 4594 146a 6C       		.sleb128 -20
 4595 146b 1B       		.uleb128 0x1b
 4596 146c 072B0000 		.4byte	.LASF532
 4597 1470 01       		.byte	0x1
 4598 1471 F003     		.2byte	0x3f0
 4599 1473 33080000 		.4byte	0x833
 4600 1477 02       		.uleb128 0x2
 4601 1478 91       		.byte	0x91
 4602 1479 77       		.sleb128 -9
 4603 147a 1B       		.uleb128 0x1b
 4604 147b 66380000 		.4byte	.LASF539
 4605 147f 01       		.byte	0x1
 4606 1480 F103     		.2byte	0x3f1
 4607 1482 77000000 		.4byte	0x77
 4608 1486 02       		.uleb128 0x2
 4609 1487 91       		.byte	0x91
 4610 1488 74       		.sleb128 -12
 4611 1489 00       		.byte	0
 4612 148a 09       		.uleb128 0x9
 4613 148b 04       		.byte	0x4
 4614 148c 8C050000 		.4byte	0x58c
 4615 1490 1D       		.uleb128 0x1d
 4616 1491 89250000 		.4byte	.LASF540
ARM GAS  C:\Users\mohammed\AppData\Local\Temp\cceuH2T0.s 			page 102


 4617 1495 01       		.byte	0x1
 4618 1496 1A04     		.2byte	0x41a
 4619 1498 00000000 		.4byte	.LFB13
 4620 149c DC020000 		.4byte	.LFE13-.LFB13
 4621 14a0 01       		.uleb128 0x1
 4622 14a1 9C       		.byte	0x9c
 4623 14a2 F4140000 		.4byte	0x14f4
 4624 14a6 19       		.uleb128 0x19
 4625 14a7 89020000 		.4byte	.LASF531
 4626 14ab 01       		.byte	0x1
 4627 14ac 1A04     		.2byte	0x41a
 4628 14ae F4140000 		.4byte	0x14f4
 4629 14b2 03       		.uleb128 0x3
 4630 14b3 91       		.byte	0x91
 4631 14b4 AC7F     		.sleb128 -84
 4632 14b6 1B       		.uleb128 0x1b
 4633 14b7 883E0000 		.4byte	.LASF541
 4634 14bb 01       		.byte	0x1
 4635 14bc 1C04     		.2byte	0x41c
 4636 14be 6B000000 		.4byte	0x6b
 4637 14c2 02       		.uleb128 0x2
 4638 14c3 91       		.byte	0x91
 4639 14c4 6F       		.sleb128 -17
 4640 14c5 1B       		.uleb128 0x1b
 4641 14c6 580E0000 		.4byte	.LASF534
 4642 14ca 01       		.byte	0x1
 4643 14cb 1D04     		.2byte	0x41d
 4644 14cd FA140000 		.4byte	0x14fa
 4645 14d1 02       		.uleb128 0x2
 4646 14d2 91       		.byte	0x91
 4647 14d3 48       		.sleb128 -56
 4648 14d4 1B       		.uleb128 0x1b
 4649 14d5 1A120000 		.4byte	.LASF542
 4650 14d9 01       		.byte	0x1
 4651 14da 1E04     		.2byte	0x41e
 4652 14dc 0A150000 		.4byte	0x150a
 4653 14e0 03       		.uleb128 0x3
 4654 14e1 91       		.byte	0x91
 4655 14e2 B07F     		.sleb128 -80
 4656 14e4 1B       		.uleb128 0x1b
 4657 14e5 072B0000 		.4byte	.LASF532
 4658 14e9 01       		.byte	0x1
 4659 14ea 1F04     		.2byte	0x41f
 4660 14ec 33080000 		.4byte	0x833
 4661 14f0 02       		.uleb128 0x2
 4662 14f1 91       		.byte	0x91
 4663 14f2 6E       		.sleb128 -18
 4664 14f3 00       		.byte	0
 4665 14f4 09       		.uleb128 0x9
 4666 14f5 04       		.byte	0x4
 4667 14f6 E8050000 		.4byte	0x5e8
 4668 14fa 15       		.uleb128 0x15
 4669 14fb FF080000 		.4byte	0x8ff
 4670 14ff 0A150000 		.4byte	0x150a
 4671 1503 16       		.uleb128 0x16
 4672 1504 A9000000 		.4byte	0xa9
 4673 1508 02       		.byte	0x2
ARM GAS  C:\Users\mohammed\AppData\Local\Temp\cceuH2T0.s 			page 103


 4674 1509 00       		.byte	0
 4675 150a 15       		.uleb128 0x15
 4676 150b CB040000 		.4byte	0x4cb
 4677 150f 1A150000 		.4byte	0x151a
 4678 1513 16       		.uleb128 0x16
 4679 1514 A9000000 		.4byte	0xa9
 4680 1518 02       		.byte	0x2
 4681 1519 00       		.byte	0
 4682 151a 1F       		.uleb128 0x1f
 4683 151b 760B0000 		.4byte	.LASF543
 4684 151f 01       		.byte	0x1
 4685 1520 14       		.byte	0x14
 4686 1521 32070000 		.4byte	0x732
 4687 1525 05       		.uleb128 0x5
 4688 1526 03       		.byte	0x3
 4689 1527 00000000 		.4byte	CyBle_UdsApplCallback
 4690 152b 1B       		.uleb128 0x1b
 4691 152c 74360000 		.4byte	.LASF544
 4692 1530 01       		.byte	0x1
 4693 1531 5701     		.2byte	0x157
 4694 1533 5E040000 		.4byte	0x45e
 4695 1537 05       		.uleb128 0x5
 4696 1538 03       		.byte	0x3
 4697 1539 04000000 		.4byte	cyBle_udssReqHandle
 4698 153d 20       		.uleb128 0x20
 4699 153e E6370000 		.4byte	.LASF545
 4700 1542 07       		.byte	0x7
 4701 1543 8702     		.2byte	0x287
 4702 1545 A4000000 		.4byte	0xa4
 4703 1549 15       		.uleb128 0x15
 4704 154a 26070000 		.4byte	0x726
 4705 154e 59150000 		.4byte	0x1559
 4706 1552 16       		.uleb128 0x16
 4707 1553 A9000000 		.4byte	0xa9
 4708 1557 56       		.byte	0x56
 4709 1558 00       		.byte	0
 4710 1559 21       		.uleb128 0x21
 4711 155a B3220000 		.4byte	.LASF546
 4712 155e 0A       		.byte	0xa
 4713 155f EE       		.byte	0xee
 4714 1560 64150000 		.4byte	0x1564
 4715 1564 1E       		.uleb128 0x1e
 4716 1565 49150000 		.4byte	0x1549
 4717 1569 22       		.uleb128 0x22
 4718 156a 091E0000 		.4byte	.LASF547
 4719 156e 01       		.byte	0x1
 4720 156f 18       		.byte	0x18
 4721 1570 7A150000 		.4byte	0x157a
 4722 1574 05       		.uleb128 0x5
 4723 1575 03       		.byte	0x3
 4724 1576 00000000 		.4byte	cyBle_udss
 4725 157a 1E       		.uleb128 0x1e
 4726 157b BB080000 		.4byte	0x8bb
 4727 157f 23       		.uleb128 0x23
 4728 1580 39100000 		.4byte	.LASF548
 4729 1584 01       		.byte	0x1
 4730 1585 5501     		.2byte	0x155
ARM GAS  C:\Users\mohammed\AppData\Local\Temp\cceuH2T0.s 			page 104


 4731 1587 6B000000 		.4byte	0x6b
 4732 158b 05       		.uleb128 0x5
 4733 158c 03       		.byte	0x3
 4734 158d 00000000 		.4byte	cyBle_udsFlag
 4735 1591 20       		.uleb128 0x20
 4736 1592 F6300000 		.4byte	.LASF549
 4737 1596 09       		.byte	0x9
 4738 1597 DA09     		.2byte	0x9da
 4739 1599 A5100000 		.4byte	0x10a5
 4740 159d 00       		.byte	0
 4741              		.section	.debug_abbrev,"",%progbits
 4742              	.Ldebug_abbrev0:
 4743 0000 01       		.uleb128 0x1
 4744 0001 11       		.uleb128 0x11
 4745 0002 01       		.byte	0x1
 4746 0003 25       		.uleb128 0x25
 4747 0004 0E       		.uleb128 0xe
 4748 0005 13       		.uleb128 0x13
 4749 0006 0B       		.uleb128 0xb
 4750 0007 03       		.uleb128 0x3
 4751 0008 0E       		.uleb128 0xe
 4752 0009 1B       		.uleb128 0x1b
 4753 000a 0E       		.uleb128 0xe
 4754 000b 55       		.uleb128 0x55
 4755 000c 17       		.uleb128 0x17
 4756 000d 11       		.uleb128 0x11
 4757 000e 01       		.uleb128 0x1
 4758 000f 10       		.uleb128 0x10
 4759 0010 17       		.uleb128 0x17
 4760 0011 00       		.byte	0
 4761 0012 00       		.byte	0
 4762 0013 02       		.uleb128 0x2
 4763 0014 24       		.uleb128 0x24
 4764 0015 00       		.byte	0
 4765 0016 0B       		.uleb128 0xb
 4766 0017 0B       		.uleb128 0xb
 4767 0018 3E       		.uleb128 0x3e
 4768 0019 0B       		.uleb128 0xb
 4769 001a 03       		.uleb128 0x3
 4770 001b 0E       		.uleb128 0xe
 4771 001c 00       		.byte	0
 4772 001d 00       		.byte	0
 4773 001e 03       		.uleb128 0x3
 4774 001f 24       		.uleb128 0x24
 4775 0020 00       		.byte	0
 4776 0021 0B       		.uleb128 0xb
 4777 0022 0B       		.uleb128 0xb
 4778 0023 3E       		.uleb128 0x3e
 4779 0024 0B       		.uleb128 0xb
 4780 0025 03       		.uleb128 0x3
 4781 0026 08       		.uleb128 0x8
 4782 0027 00       		.byte	0
 4783 0028 00       		.byte	0
 4784 0029 04       		.uleb128 0x4
 4785 002a 16       		.uleb128 0x16
 4786 002b 00       		.byte	0
 4787 002c 03       		.uleb128 0x3
ARM GAS  C:\Users\mohammed\AppData\Local\Temp\cceuH2T0.s 			page 105


 4788 002d 0E       		.uleb128 0xe
 4789 002e 3A       		.uleb128 0x3a
 4790 002f 0B       		.uleb128 0xb
 4791 0030 3B       		.uleb128 0x3b
 4792 0031 05       		.uleb128 0x5
 4793 0032 49       		.uleb128 0x49
 4794 0033 13       		.uleb128 0x13
 4795 0034 00       		.byte	0
 4796 0035 00       		.byte	0
 4797 0036 05       		.uleb128 0x5
 4798 0037 35       		.uleb128 0x35
 4799 0038 00       		.byte	0
 4800 0039 49       		.uleb128 0x49
 4801 003a 13       		.uleb128 0x13
 4802 003b 00       		.byte	0
 4803 003c 00       		.byte	0
 4804 003d 06       		.uleb128 0x6
 4805 003e 0F       		.uleb128 0xf
 4806 003f 00       		.byte	0
 4807 0040 0B       		.uleb128 0xb
 4808 0041 0B       		.uleb128 0xb
 4809 0042 00       		.byte	0
 4810 0043 00       		.byte	0
 4811 0044 07       		.uleb128 0x7
 4812 0045 04       		.uleb128 0x4
 4813 0046 01       		.byte	0x1
 4814 0047 0B       		.uleb128 0xb
 4815 0048 0B       		.uleb128 0xb
 4816 0049 3A       		.uleb128 0x3a
 4817 004a 0B       		.uleb128 0xb
 4818 004b 3B       		.uleb128 0x3b
 4819 004c 05       		.uleb128 0x5
 4820 004d 01       		.uleb128 0x1
 4821 004e 13       		.uleb128 0x13
 4822 004f 00       		.byte	0
 4823 0050 00       		.byte	0
 4824 0051 08       		.uleb128 0x8
 4825 0052 28       		.uleb128 0x28
 4826 0053 00       		.byte	0
 4827 0054 03       		.uleb128 0x3
 4828 0055 0E       		.uleb128 0xe
 4829 0056 1C       		.uleb128 0x1c
 4830 0057 0D       		.uleb128 0xd
 4831 0058 00       		.byte	0
 4832 0059 00       		.byte	0
 4833 005a 09       		.uleb128 0x9
 4834 005b 0F       		.uleb128 0xf
 4835 005c 00       		.byte	0
 4836 005d 0B       		.uleb128 0xb
 4837 005e 0B       		.uleb128 0xb
 4838 005f 49       		.uleb128 0x49
 4839 0060 13       		.uleb128 0x13
 4840 0061 00       		.byte	0
 4841 0062 00       		.byte	0
 4842 0063 0A       		.uleb128 0xa
 4843 0064 04       		.uleb128 0x4
 4844 0065 01       		.byte	0x1
ARM GAS  C:\Users\mohammed\AppData\Local\Temp\cceuH2T0.s 			page 106


 4845 0066 0B       		.uleb128 0xb
 4846 0067 0B       		.uleb128 0xb
 4847 0068 3A       		.uleb128 0x3a
 4848 0069 0B       		.uleb128 0xb
 4849 006a 3B       		.uleb128 0x3b
 4850 006b 0B       		.uleb128 0xb
 4851 006c 01       		.uleb128 0x1
 4852 006d 13       		.uleb128 0x13
 4853 006e 00       		.byte	0
 4854 006f 00       		.byte	0
 4855 0070 0B       		.uleb128 0xb
 4856 0071 13       		.uleb128 0x13
 4857 0072 01       		.byte	0x1
 4858 0073 0B       		.uleb128 0xb
 4859 0074 0B       		.uleb128 0xb
 4860 0075 3A       		.uleb128 0x3a
 4861 0076 0B       		.uleb128 0xb
 4862 0077 3B       		.uleb128 0x3b
 4863 0078 05       		.uleb128 0x5
 4864 0079 01       		.uleb128 0x1
 4865 007a 13       		.uleb128 0x13
 4866 007b 00       		.byte	0
 4867 007c 00       		.byte	0
 4868 007d 0C       		.uleb128 0xc
 4869 007e 0D       		.uleb128 0xd
 4870 007f 00       		.byte	0
 4871 0080 03       		.uleb128 0x3
 4872 0081 0E       		.uleb128 0xe
 4873 0082 3A       		.uleb128 0x3a
 4874 0083 0B       		.uleb128 0xb
 4875 0084 3B       		.uleb128 0x3b
 4876 0085 05       		.uleb128 0x5
 4877 0086 49       		.uleb128 0x49
 4878 0087 13       		.uleb128 0x13
 4879 0088 38       		.uleb128 0x38
 4880 0089 0B       		.uleb128 0xb
 4881 008a 00       		.byte	0
 4882 008b 00       		.byte	0
 4883 008c 0D       		.uleb128 0xd
 4884 008d 0D       		.uleb128 0xd
 4885 008e 00       		.byte	0
 4886 008f 03       		.uleb128 0x3
 4887 0090 08       		.uleb128 0x8
 4888 0091 3A       		.uleb128 0x3a
 4889 0092 0B       		.uleb128 0xb
 4890 0093 3B       		.uleb128 0x3b
 4891 0094 05       		.uleb128 0x5
 4892 0095 49       		.uleb128 0x49
 4893 0096 13       		.uleb128 0x13
 4894 0097 38       		.uleb128 0x38
 4895 0098 0B       		.uleb128 0xb
 4896 0099 00       		.byte	0
 4897 009a 00       		.byte	0
 4898 009b 0E       		.uleb128 0xe
 4899 009c 16       		.uleb128 0x16
 4900 009d 00       		.byte	0
 4901 009e 03       		.uleb128 0x3
ARM GAS  C:\Users\mohammed\AppData\Local\Temp\cceuH2T0.s 			page 107


 4902 009f 0E       		.uleb128 0xe
 4903 00a0 3A       		.uleb128 0x3a
 4904 00a1 0B       		.uleb128 0xb
 4905 00a2 3B       		.uleb128 0x3b
 4906 00a3 0B       		.uleb128 0xb
 4907 00a4 49       		.uleb128 0x49
 4908 00a5 13       		.uleb128 0x13
 4909 00a6 00       		.byte	0
 4910 00a7 00       		.byte	0
 4911 00a8 0F       		.uleb128 0xf
 4912 00a9 13       		.uleb128 0x13
 4913 00aa 01       		.byte	0x1
 4914 00ab 0B       		.uleb128 0xb
 4915 00ac 0B       		.uleb128 0xb
 4916 00ad 3A       		.uleb128 0x3a
 4917 00ae 0B       		.uleb128 0xb
 4918 00af 3B       		.uleb128 0x3b
 4919 00b0 0B       		.uleb128 0xb
 4920 00b1 01       		.uleb128 0x1
 4921 00b2 13       		.uleb128 0x13
 4922 00b3 00       		.byte	0
 4923 00b4 00       		.byte	0
 4924 00b5 10       		.uleb128 0x10
 4925 00b6 0D       		.uleb128 0xd
 4926 00b7 00       		.byte	0
 4927 00b8 03       		.uleb128 0x3
 4928 00b9 0E       		.uleb128 0xe
 4929 00ba 3A       		.uleb128 0x3a
 4930 00bb 0B       		.uleb128 0xb
 4931 00bc 3B       		.uleb128 0x3b
 4932 00bd 0B       		.uleb128 0xb
 4933 00be 49       		.uleb128 0x49
 4934 00bf 13       		.uleb128 0x13
 4935 00c0 38       		.uleb128 0x38
 4936 00c1 0B       		.uleb128 0xb
 4937 00c2 00       		.byte	0
 4938 00c3 00       		.byte	0
 4939 00c4 11       		.uleb128 0x11
 4940 00c5 17       		.uleb128 0x17
 4941 00c6 01       		.byte	0x1
 4942 00c7 0B       		.uleb128 0xb
 4943 00c8 0B       		.uleb128 0xb
 4944 00c9 3A       		.uleb128 0x3a
 4945 00ca 0B       		.uleb128 0xb
 4946 00cb 3B       		.uleb128 0x3b
 4947 00cc 0B       		.uleb128 0xb
 4948 00cd 01       		.uleb128 0x1
 4949 00ce 13       		.uleb128 0x13
 4950 00cf 00       		.byte	0
 4951 00d0 00       		.byte	0
 4952 00d1 12       		.uleb128 0x12
 4953 00d2 0D       		.uleb128 0xd
 4954 00d3 00       		.byte	0
 4955 00d4 03       		.uleb128 0x3
 4956 00d5 0E       		.uleb128 0xe
 4957 00d6 3A       		.uleb128 0x3a
 4958 00d7 0B       		.uleb128 0xb
ARM GAS  C:\Users\mohammed\AppData\Local\Temp\cceuH2T0.s 			page 108


 4959 00d8 3B       		.uleb128 0x3b
 4960 00d9 0B       		.uleb128 0xb
 4961 00da 49       		.uleb128 0x49
 4962 00db 13       		.uleb128 0x13
 4963 00dc 00       		.byte	0
 4964 00dd 00       		.byte	0
 4965 00de 13       		.uleb128 0x13
 4966 00df 15       		.uleb128 0x15
 4967 00e0 01       		.byte	0x1
 4968 00e1 27       		.uleb128 0x27
 4969 00e2 19       		.uleb128 0x19
 4970 00e3 01       		.uleb128 0x1
 4971 00e4 13       		.uleb128 0x13
 4972 00e5 00       		.byte	0
 4973 00e6 00       		.byte	0
 4974 00e7 14       		.uleb128 0x14
 4975 00e8 05       		.uleb128 0x5
 4976 00e9 00       		.byte	0
 4977 00ea 49       		.uleb128 0x49
 4978 00eb 13       		.uleb128 0x13
 4979 00ec 00       		.byte	0
 4980 00ed 00       		.byte	0
 4981 00ee 15       		.uleb128 0x15
 4982 00ef 01       		.uleb128 0x1
 4983 00f0 01       		.byte	0x1
 4984 00f1 49       		.uleb128 0x49
 4985 00f2 13       		.uleb128 0x13
 4986 00f3 01       		.uleb128 0x1
 4987 00f4 13       		.uleb128 0x13
 4988 00f5 00       		.byte	0
 4989 00f6 00       		.byte	0
 4990 00f7 16       		.uleb128 0x16
 4991 00f8 21       		.uleb128 0x21
 4992 00f9 00       		.byte	0
 4993 00fa 49       		.uleb128 0x49
 4994 00fb 13       		.uleb128 0x13
 4995 00fc 2F       		.uleb128 0x2f
 4996 00fd 0B       		.uleb128 0xb
 4997 00fe 00       		.byte	0
 4998 00ff 00       		.byte	0
 4999 0100 17       		.uleb128 0x17
 5000 0101 2E       		.uleb128 0x2e
 5001 0102 00       		.byte	0
 5002 0103 3F       		.uleb128 0x3f
 5003 0104 19       		.uleb128 0x19
 5004 0105 03       		.uleb128 0x3
 5005 0106 0E       		.uleb128 0xe
 5006 0107 3A       		.uleb128 0x3a
 5007 0108 0B       		.uleb128 0xb
 5008 0109 3B       		.uleb128 0x3b
 5009 010a 05       		.uleb128 0x5
 5010 010b 27       		.uleb128 0x27
 5011 010c 19       		.uleb128 0x19
 5012 010d 11       		.uleb128 0x11
 5013 010e 01       		.uleb128 0x1
 5014 010f 12       		.uleb128 0x12
 5015 0110 06       		.uleb128 0x6
ARM GAS  C:\Users\mohammed\AppData\Local\Temp\cceuH2T0.s 			page 109


 5016 0111 40       		.uleb128 0x40
 5017 0112 18       		.uleb128 0x18
 5018 0113 9742     		.uleb128 0x2117
 5019 0115 19       		.uleb128 0x19
 5020 0116 00       		.byte	0
 5021 0117 00       		.byte	0
 5022 0118 18       		.uleb128 0x18
 5023 0119 2E       		.uleb128 0x2e
 5024 011a 01       		.byte	0x1
 5025 011b 3F       		.uleb128 0x3f
 5026 011c 19       		.uleb128 0x19
 5027 011d 03       		.uleb128 0x3
 5028 011e 0E       		.uleb128 0xe
 5029 011f 3A       		.uleb128 0x3a
 5030 0120 0B       		.uleb128 0xb
 5031 0121 3B       		.uleb128 0x3b
 5032 0122 05       		.uleb128 0x5
 5033 0123 27       		.uleb128 0x27
 5034 0124 19       		.uleb128 0x19
 5035 0125 11       		.uleb128 0x11
 5036 0126 01       		.uleb128 0x1
 5037 0127 12       		.uleb128 0x12
 5038 0128 06       		.uleb128 0x6
 5039 0129 40       		.uleb128 0x40
 5040 012a 18       		.uleb128 0x18
 5041 012b 9742     		.uleb128 0x2117
 5042 012d 19       		.uleb128 0x19
 5043 012e 01       		.uleb128 0x1
 5044 012f 13       		.uleb128 0x13
 5045 0130 00       		.byte	0
 5046 0131 00       		.byte	0
 5047 0132 19       		.uleb128 0x19
 5048 0133 05       		.uleb128 0x5
 5049 0134 00       		.byte	0
 5050 0135 03       		.uleb128 0x3
 5051 0136 0E       		.uleb128 0xe
 5052 0137 3A       		.uleb128 0x3a
 5053 0138 0B       		.uleb128 0xb
 5054 0139 3B       		.uleb128 0x3b
 5055 013a 05       		.uleb128 0x5
 5056 013b 49       		.uleb128 0x49
 5057 013c 13       		.uleb128 0x13
 5058 013d 02       		.uleb128 0x2
 5059 013e 18       		.uleb128 0x18
 5060 013f 00       		.byte	0
 5061 0140 00       		.byte	0
 5062 0141 1A       		.uleb128 0x1a
 5063 0142 2E       		.uleb128 0x2e
 5064 0143 01       		.byte	0x1
 5065 0144 3F       		.uleb128 0x3f
 5066 0145 19       		.uleb128 0x19
 5067 0146 03       		.uleb128 0x3
 5068 0147 0E       		.uleb128 0xe
 5069 0148 3A       		.uleb128 0x3a
 5070 0149 0B       		.uleb128 0xb
 5071 014a 3B       		.uleb128 0x3b
 5072 014b 05       		.uleb128 0x5
ARM GAS  C:\Users\mohammed\AppData\Local\Temp\cceuH2T0.s 			page 110


 5073 014c 27       		.uleb128 0x27
 5074 014d 19       		.uleb128 0x19
 5075 014e 49       		.uleb128 0x49
 5076 014f 13       		.uleb128 0x13
 5077 0150 11       		.uleb128 0x11
 5078 0151 01       		.uleb128 0x1
 5079 0152 12       		.uleb128 0x12
 5080 0153 06       		.uleb128 0x6
 5081 0154 40       		.uleb128 0x40
 5082 0155 18       		.uleb128 0x18
 5083 0156 9642     		.uleb128 0x2116
 5084 0158 19       		.uleb128 0x19
 5085 0159 01       		.uleb128 0x1
 5086 015a 13       		.uleb128 0x13
 5087 015b 00       		.byte	0
 5088 015c 00       		.byte	0
 5089 015d 1B       		.uleb128 0x1b
 5090 015e 34       		.uleb128 0x34
 5091 015f 00       		.byte	0
 5092 0160 03       		.uleb128 0x3
 5093 0161 0E       		.uleb128 0xe
 5094 0162 3A       		.uleb128 0x3a
 5095 0163 0B       		.uleb128 0xb
 5096 0164 3B       		.uleb128 0x3b
 5097 0165 05       		.uleb128 0x5
 5098 0166 49       		.uleb128 0x49
 5099 0167 13       		.uleb128 0x13
 5100 0168 02       		.uleb128 0x2
 5101 0169 18       		.uleb128 0x18
 5102 016a 00       		.byte	0
 5103 016b 00       		.byte	0
 5104 016c 1C       		.uleb128 0x1c
 5105 016d 0B       		.uleb128 0xb
 5106 016e 01       		.byte	0x1
 5107 016f 11       		.uleb128 0x11
 5108 0170 01       		.uleb128 0x1
 5109 0171 12       		.uleb128 0x12
 5110 0172 06       		.uleb128 0x6
 5111 0173 00       		.byte	0
 5112 0174 00       		.byte	0
 5113 0175 1D       		.uleb128 0x1d
 5114 0176 2E       		.uleb128 0x2e
 5115 0177 01       		.byte	0x1
 5116 0178 3F       		.uleb128 0x3f
 5117 0179 19       		.uleb128 0x19
 5118 017a 03       		.uleb128 0x3
 5119 017b 0E       		.uleb128 0xe
 5120 017c 3A       		.uleb128 0x3a
 5121 017d 0B       		.uleb128 0xb
 5122 017e 3B       		.uleb128 0x3b
 5123 017f 05       		.uleb128 0x5
 5124 0180 27       		.uleb128 0x27
 5125 0181 19       		.uleb128 0x19
 5126 0182 11       		.uleb128 0x11
 5127 0183 01       		.uleb128 0x1
 5128 0184 12       		.uleb128 0x12
 5129 0185 06       		.uleb128 0x6
ARM GAS  C:\Users\mohammed\AppData\Local\Temp\cceuH2T0.s 			page 111


 5130 0186 40       		.uleb128 0x40
 5131 0187 18       		.uleb128 0x18
 5132 0188 9642     		.uleb128 0x2116
 5133 018a 19       		.uleb128 0x19
 5134 018b 01       		.uleb128 0x1
 5135 018c 13       		.uleb128 0x13
 5136 018d 00       		.byte	0
 5137 018e 00       		.byte	0
 5138 018f 1E       		.uleb128 0x1e
 5139 0190 26       		.uleb128 0x26
 5140 0191 00       		.byte	0
 5141 0192 49       		.uleb128 0x49
 5142 0193 13       		.uleb128 0x13
 5143 0194 00       		.byte	0
 5144 0195 00       		.byte	0
 5145 0196 1F       		.uleb128 0x1f
 5146 0197 34       		.uleb128 0x34
 5147 0198 00       		.byte	0
 5148 0199 03       		.uleb128 0x3
 5149 019a 0E       		.uleb128 0xe
 5150 019b 3A       		.uleb128 0x3a
 5151 019c 0B       		.uleb128 0xb
 5152 019d 3B       		.uleb128 0x3b
 5153 019e 0B       		.uleb128 0xb
 5154 019f 49       		.uleb128 0x49
 5155 01a0 13       		.uleb128 0x13
 5156 01a1 02       		.uleb128 0x2
 5157 01a2 18       		.uleb128 0x18
 5158 01a3 00       		.byte	0
 5159 01a4 00       		.byte	0
 5160 01a5 20       		.uleb128 0x20
 5161 01a6 34       		.uleb128 0x34
 5162 01a7 00       		.byte	0
 5163 01a8 03       		.uleb128 0x3
 5164 01a9 0E       		.uleb128 0xe
 5165 01aa 3A       		.uleb128 0x3a
 5166 01ab 0B       		.uleb128 0xb
 5167 01ac 3B       		.uleb128 0x3b
 5168 01ad 05       		.uleb128 0x5
 5169 01ae 49       		.uleb128 0x49
 5170 01af 13       		.uleb128 0x13
 5171 01b0 3F       		.uleb128 0x3f
 5172 01b1 19       		.uleb128 0x19
 5173 01b2 3C       		.uleb128 0x3c
 5174 01b3 19       		.uleb128 0x19
 5175 01b4 00       		.byte	0
 5176 01b5 00       		.byte	0
 5177 01b6 21       		.uleb128 0x21
 5178 01b7 34       		.uleb128 0x34
 5179 01b8 00       		.byte	0
 5180 01b9 03       		.uleb128 0x3
 5181 01ba 0E       		.uleb128 0xe
 5182 01bb 3A       		.uleb128 0x3a
 5183 01bc 0B       		.uleb128 0xb
 5184 01bd 3B       		.uleb128 0x3b
 5185 01be 0B       		.uleb128 0xb
 5186 01bf 49       		.uleb128 0x49
ARM GAS  C:\Users\mohammed\AppData\Local\Temp\cceuH2T0.s 			page 112


 5187 01c0 13       		.uleb128 0x13
 5188 01c1 3F       		.uleb128 0x3f
 5189 01c2 19       		.uleb128 0x19
 5190 01c3 3C       		.uleb128 0x3c
 5191 01c4 19       		.uleb128 0x19
 5192 01c5 00       		.byte	0
 5193 01c6 00       		.byte	0
 5194 01c7 22       		.uleb128 0x22
 5195 01c8 34       		.uleb128 0x34
 5196 01c9 00       		.byte	0
 5197 01ca 03       		.uleb128 0x3
 5198 01cb 0E       		.uleb128 0xe
 5199 01cc 3A       		.uleb128 0x3a
 5200 01cd 0B       		.uleb128 0xb
 5201 01ce 3B       		.uleb128 0x3b
 5202 01cf 0B       		.uleb128 0xb
 5203 01d0 49       		.uleb128 0x49
 5204 01d1 13       		.uleb128 0x13
 5205 01d2 3F       		.uleb128 0x3f
 5206 01d3 19       		.uleb128 0x19
 5207 01d4 02       		.uleb128 0x2
 5208 01d5 18       		.uleb128 0x18
 5209 01d6 00       		.byte	0
 5210 01d7 00       		.byte	0
 5211 01d8 23       		.uleb128 0x23
 5212 01d9 34       		.uleb128 0x34
 5213 01da 00       		.byte	0
 5214 01db 03       		.uleb128 0x3
 5215 01dc 0E       		.uleb128 0xe
 5216 01dd 3A       		.uleb128 0x3a
 5217 01de 0B       		.uleb128 0xb
 5218 01df 3B       		.uleb128 0x3b
 5219 01e0 05       		.uleb128 0x5
 5220 01e1 49       		.uleb128 0x49
 5221 01e2 13       		.uleb128 0x13
 5222 01e3 3F       		.uleb128 0x3f
 5223 01e4 19       		.uleb128 0x19
 5224 01e5 02       		.uleb128 0x2
 5225 01e6 18       		.uleb128 0x18
 5226 01e7 00       		.byte	0
 5227 01e8 00       		.byte	0
 5228 01e9 00       		.byte	0
 5229              		.section	.debug_aranges,"",%progbits
 5230 0000 74000000 		.4byte	0x74
 5231 0004 0200     		.2byte	0x2
 5232 0006 00000000 		.4byte	.Ldebug_info0
 5233 000a 04       		.byte	0x4
 5234 000b 00       		.byte	0
 5235 000c 0000     		.2byte	0
 5236 000e 0000     		.2byte	0
 5237 0010 00000000 		.4byte	.LFB2
 5238 0014 1C000000 		.4byte	.LFE2-.LFB2
 5239 0018 00000000 		.4byte	.LFB3
 5240 001c 18000000 		.4byte	.LFE3-.LFB3
 5241 0020 00000000 		.4byte	.LFB4
 5242 0024 A0000000 		.4byte	.LFE4-.LFB4
 5243 0028 00000000 		.4byte	.LFB5
ARM GAS  C:\Users\mohammed\AppData\Local\Temp\cceuH2T0.s 			page 113


 5244 002c 9C000000 		.4byte	.LFE5-.LFB5
 5245 0030 00000000 		.4byte	.LFB6
 5246 0034 B8000000 		.4byte	.LFE6-.LFB6
 5247 0038 00000000 		.4byte	.LFB7
 5248 003c 04010000 		.4byte	.LFE7-.LFB7
 5249 0040 00000000 		.4byte	.LFB8
 5250 0044 1C010000 		.4byte	.LFE8-.LFB8
 5251 0048 00000000 		.4byte	.LFB9
 5252 004c 90000000 		.4byte	.LFE9-.LFB9
 5253 0050 00000000 		.4byte	.LFB10
 5254 0054 BC000000 		.4byte	.LFE10-.LFB10
 5255 0058 00000000 		.4byte	.LFB11
 5256 005c D0020000 		.4byte	.LFE11-.LFB11
 5257 0060 00000000 		.4byte	.LFB12
 5258 0064 D0000000 		.4byte	.LFE12-.LFB12
 5259 0068 00000000 		.4byte	.LFB13
 5260 006c DC020000 		.4byte	.LFE13-.LFB13
 5261 0070 00000000 		.4byte	0
 5262 0074 00000000 		.4byte	0
 5263              		.section	.debug_ranges,"",%progbits
 5264              	.Ldebug_ranges0:
 5265 0000 00000000 		.4byte	.LFB2
 5266 0004 1C000000 		.4byte	.LFE2
 5267 0008 00000000 		.4byte	.LFB3
 5268 000c 18000000 		.4byte	.LFE3
 5269 0010 00000000 		.4byte	.LFB4
 5270 0014 A0000000 		.4byte	.LFE4
 5271 0018 00000000 		.4byte	.LFB5
 5272 001c 9C000000 		.4byte	.LFE5
 5273 0020 00000000 		.4byte	.LFB6
 5274 0024 B8000000 		.4byte	.LFE6
 5275 0028 00000000 		.4byte	.LFB7
 5276 002c 04010000 		.4byte	.LFE7
 5277 0030 00000000 		.4byte	.LFB8
 5278 0034 1C010000 		.4byte	.LFE8
 5279 0038 00000000 		.4byte	.LFB9
 5280 003c 90000000 		.4byte	.LFE9
 5281 0040 00000000 		.4byte	.LFB10
 5282 0044 BC000000 		.4byte	.LFE10
 5283 0048 00000000 		.4byte	.LFB11
 5284 004c D0020000 		.4byte	.LFE11
 5285 0050 00000000 		.4byte	.LFB12
 5286 0054 D0000000 		.4byte	.LFE12
 5287 0058 00000000 		.4byte	.LFB13
 5288 005c DC020000 		.4byte	.LFE13
 5289 0060 00000000 		.4byte	0
 5290 0064 00000000 		.4byte	0
 5291              		.section	.debug_line,"",%progbits
 5292              	.Ldebug_line0:
 5293 0000 01030000 		.section	.debug_str,"MS",%progbits,1
 5293      0200E200 
 5293      00000201 
 5293      FB0E0D00 
 5293      01010101 
 5294              	.LASF485:
 5295 0000 4359424C 		.ascii	"CYBLE_EVT_UDSC_READ_CHAR_RESPONSE\000"
 5295      455F4556 
ARM GAS  C:\Users\mohammed\AppData\Local\Temp\cceuH2T0.s 			page 114


 5295      545F5544 
 5295      53435F52 
 5295      4541445F 
 5296              	.LASF404:
 5297 0022 4359424C 		.ascii	"CYBLE_EVT_HTSS_NOTIFICATION_DISABLED\000"
 5297      455F4556 
 5297      545F4854 
 5297      53535F4E 
 5297      4F544946 
 5298              	.LASF142:
 5299 0047 4359424C 		.ascii	"CYBLE_GATT_ERR_INVALID_CRC\000"
 5299      455F4741 
 5299      54545F45 
 5299      52525F49 
 5299      4E56414C 
 5300              	.LASF209:
 5301 0062 4359424C 		.ascii	"CYBLE_UDS_STP\000"
 5301      455F5544 
 5301      535F5354 
 5301      5000
 5302              	.LASF15:
 5303 0070 73697A65 		.ascii	"sizetype\000"
 5303      74797065 
 5303      00
 5304              	.LASF284:
 5305 0079 4359424C 		.ascii	"CYBLE_EVT_BCSC_READ_CHAR_RESPONSE\000"
 5305      455F4556 
 5305      545F4243 
 5305      53435F52 
 5305      4541445F 
 5306              	.LASF166:
 5307 009b 4359424C 		.ascii	"CYBLE_GATTS_HANDLE_VALUE_NTF_T\000"
 5307      455F4741 
 5307      5454535F 
 5307      48414E44 
 5307      4C455F56 
 5308              	.LASF307:
 5309 00ba 4359424C 		.ascii	"CYBLE_EVT_CGMSC_INDICATION\000"
 5309      455F4556 
 5309      545F4347 
 5309      4D53435F 
 5309      494E4449 
 5310              	.LASF325:
 5311 00d5 4359424C 		.ascii	"CYBLE_EVT_CPSC_READ_DESCR_RESPONSE\000"
 5311      455F4556 
 5311      545F4350 
 5311      53435F52 
 5311      4541445F 
 5312              	.LASF462:
 5313 00f8 4359424C 		.ascii	"CYBLE_EVT_RTUSS_WRITE_CHAR_CMD\000"
 5313      455F4556 
 5313      545F5254 
 5313      5553535F 
 5313      57524954 
 5314              	.LASF237:
 5315 0117 63686172 		.ascii	"charIndex\000"
 5315      496E6465 
ARM GAS  C:\Users\mohammed\AppData\Local\Temp\cceuH2T0.s 			page 115


 5315      7800
 5316              	.LASF538:
 5317 0121 4379426C 		.ascii	"CyBle_UdssPrepareWriteRequestEventHandler\000"
 5317      655F5564 
 5317      73735072 
 5317      65706172 
 5317      65577269 
 5318              	.LASF496:
 5319 014b 4359424C 		.ascii	"CYBLE_EVT_WPTSC_NOTIFICATION\000"
 5319      455F4556 
 5319      545F5750 
 5319      5453435F 
 5319      4E4F5449 
 5320              	.LASF374:
 5321 0168 4359424C 		.ascii	"CYBLE_EVT_GLSC_WRITE_DESCR_RESPONSE\000"
 5321      455F4556 
 5321      545F474C 
 5321      53435F57 
 5321      52495445 
 5322              	.LASF36:
 5323 018c 4359424C 		.ascii	"CYBLE_EVT_GAP_NUMERIC_COMPARISON_REQUEST\000"
 5323      455F4556 
 5323      545F4741 
 5323      505F4E55 
 5323      4D455249 
 5324              	.LASF502:
 5325 01b5 4359424C 		.ascii	"CYBLE_EVT_WSSS_INDICATION_ENABLED\000"
 5325      455F4556 
 5325      545F5753 
 5325      53535F49 
 5325      4E444943 
 5326              	.LASF323:
 5327 01d7 4359424C 		.ascii	"CYBLE_EVT_CPSC_READ_CHAR_RESPONSE\000"
 5327      455F4556 
 5327      545F4350 
 5327      53435F52 
 5327      4541445F 
 5328              	.LASF336:
 5329 01f9 4359424C 		.ascii	"CYBLE_EVT_CSCSC_READ_CHAR_RESPONSE\000"
 5329      455F4556 
 5329      545F4353 
 5329      4353435F 
 5329      52454144 
 5330              	.LASF172:
 5331 021c 4359424C 		.ascii	"CYBLE_GATTS_PREP_WRITE_REQ_PARAM_T\000"
 5331      455F4741 
 5331      5454535F 
 5331      50524550 
 5331      5F575249 
 5332              	.LASF312:
 5333 023f 4359424C 		.ascii	"CYBLE_EVT_CGMSC_WRITE_DESCR_RESPONSE\000"
 5333      455F4556 
 5333      545F4347 
 5333      4D53435F 
 5333      57524954 
 5334              	.LASF367:
 5335 0264 4359424C 		.ascii	"CYBLE_EVT_GLSS_NOTIFICATION_DISABLED\000"
ARM GAS  C:\Users\mohammed\AppData\Local\Temp\cceuH2T0.s 			page 116


 5335      455F4556 
 5335      545F474C 
 5335      53535F4E 
 5335      4F544946 
 5336              	.LASF531:
 5337 0289 6576656E 		.ascii	"eventParam\000"
 5337      74506172 
 5337      616D00
 5338              	.LASF294:
 5339 0294 4359424C 		.ascii	"CYBLE_EVT_BLSC_READ_CHAR_RESPONSE\000"
 5339      455F4556 
 5339      545F424C 
 5339      53435F52 
 5339      4541445F 
 5340              	.LASF30:
 5341 02b6 4359424C 		.ascii	"CYBLE_EVT_GAP_DEVICE_CONNECTED\000"
 5341      455F4556 
 5341      545F4741 
 5341      505F4445 
 5341      56494345 
 5342              	.LASF428:
 5343 02d5 4359424C 		.ascii	"CYBLE_EVT_LLSC_WRITE_CHAR_RESPONSE\000"
 5343      455F4556 
 5343      545F4C4C 
 5343      53435F57 
 5343      52495445 
 5344              	.LASF44:
 5345 02f8 4359424C 		.ascii	"CYBLE_EVT_GATT_CONNECT_IND\000"
 5345      455F4556 
 5345      545F4741 
 5345      54545F43 
 5345      4F4E4E45 
 5346              	.LASF372:
 5347 0313 4359424C 		.ascii	"CYBLE_EVT_GLSC_WRITE_CHAR_RESPONSE\000"
 5347      455F4556 
 5347      545F474C 
 5347      53435F57 
 5347      52495445 
 5348              	.LASF11:
 5349 0336 75696E74 		.ascii	"uint32\000"
 5349      333200
 5350              	.LASF249:
 5351 033d 4359424C 		.ascii	"CYBLE_EVT_GATTC_DESCR_DISCOVERY_FAILED\000"
 5351      455F4556 
 5351      545F4741 
 5351      5454435F 
 5351      44455343 
 5352              	.LASF498:
 5353 0364 4359424C 		.ascii	"CYBLE_EVT_WPTSC_WRITE_CHAR_RESPONSE\000"
 5353      455F4556 
 5353      545F5750 
 5353      5453435F 
 5353      57524954 
 5354              	.LASF461:
 5355 0388 4359424C 		.ascii	"CYBLE_EVT_RSCSC_WRITE_DESCR_RESPONSE\000"
 5355      455F4556 
 5355      545F5253 
ARM GAS  C:\Users\mohammed\AppData\Local\Temp\cceuH2T0.s 			page 117


 5355      4353435F 
 5355      57524954 
 5356              	.LASF282:
 5357 03ad 4359424C 		.ascii	"CYBLE_EVT_BCSS_INDICATION_CONFIRMED\000"
 5357      455F4556 
 5357      545F4243 
 5357      53535F49 
 5357      4E444943 
 5358              	.LASF283:
 5359 03d1 4359424C 		.ascii	"CYBLE_EVT_BCSC_INDICATION\000"
 5359      455F4556 
 5359      545F4243 
 5359      53435F49 
 5359      4E444943 
 5360              	.LASF223:
 5361 03eb 4359424C 		.ascii	"CYBLE_UDS_UIX\000"
 5361      455F5544 
 5361      535F5549 
 5361      5800
 5362              	.LASF430:
 5363 03f9 4359424C 		.ascii	"CYBLE_EVT_LNSS_INDICATION_DISABLED\000"
 5363      455F4556 
 5363      545F4C4E 
 5363      53535F49 
 5363      4E444943 
 5364              	.LASF344:
 5365 041c 4359424C 		.ascii	"CYBLE_EVT_CTSC_READ_CHAR_RESPONSE\000"
 5365      455F4556 
 5365      545F4354 
 5365      53435F52 
 5365      4541445F 
 5366              	.LASF253:
 5367 043e 4359424C 		.ascii	"CYBLE_EVT_GATTC_SRVC_DISCOVERY_COMPLETE\000"
 5367      455F4556 
 5367      545F4741 
 5367      5454435F 
 5367      53525643 
 5368              	.LASF455:
 5369 0466 4359424C 		.ascii	"CYBLE_EVT_RSCSS_CHAR_WRITE\000"
 5369      455F4556 
 5369      545F5253 
 5369      4353535F 
 5369      43484152 
 5370              	.LASF488:
 5371 0481 4359424C 		.ascii	"CYBLE_EVT_UDSC_WRITE_DESCR_RESPONSE\000"
 5371      455F4556 
 5371      545F5544 
 5371      53435F57 
 5371      52495445 
 5372              	.LASF386:
 5373 04a5 4359424C 		.ascii	"CYBLE_EVT_HIDSC_WRITE_DESCR_RESPONSE\000"
 5373      455F4556 
 5373      545F4849 
 5373      4453435F 
 5373      57524954 
 5374              	.LASF470:
 5375 04ca 4359424C 		.ascii	"CYBLE_EVT_TPSS_NOTIFICATION_ENABLED\000"
ARM GAS  C:\Users\mohammed\AppData\Local\Temp\cceuH2T0.s 			page 118


 5375      455F4556 
 5375      545F5450 
 5375      53535F4E 
 5375      4F544946 
 5376              	.LASF272:
 5377 04ee 4359424C 		.ascii	"CYBLE_EVT_ANSC_READ_DESCR_RESPONSE\000"
 5377      455F4556 
 5377      545F414E 
 5377      53435F52 
 5377      4541445F 
 5378              	.LASF117:
 5379 0511 4359424C 		.ascii	"CYBLE_GATT_ERR_READ_NOT_PERMITTED\000"
 5379      455F4741 
 5379      54545F45 
 5379      52525F52 
 5379      4541445F 
 5380              	.LASF132:
 5381 0533 4359424C 		.ascii	"CYBLE_GATT_ERR_INSUFFICIENT_RESOURCE\000"
 5381      455F4741 
 5381      54545F45 
 5381      52525F49 
 5381      4E535546 
 5382              	.LASF131:
 5383 0558 4359424C 		.ascii	"CYBLE_GATT_ERR_UNSUPPORTED_GROUP_TYPE\000"
 5383      455F4741 
 5383      54545F45 
 5383      52525F55 
 5383      4E535550 
 5384              	.LASF98:
 5385 057e 4359424C 		.ascii	"CYBLE_ERROR_L2CAP_CONNECTION_ENTITY_NOT_FOUND\000"
 5385      455F4552 
 5385      524F525F 
 5385      4C324341 
 5385      505F434F 
 5386              	.LASF525:
 5387 05ac 4379426C 		.ascii	"CyBle_UdssSendNotification\000"
 5387      655F5564 
 5387      73735365 
 5387      6E644E6F 
 5387      74696669 
 5388              	.LASF104:
 5389 05c7 4359424C 		.ascii	"CYBLE_ERROR_MIC_AUTH_FAILED\000"
 5389      455F4552 
 5389      524F525F 
 5389      4D49435F 
 5389      41555448 
 5390              	.LASF248:
 5391 05e3 4359424C 		.ascii	"CYBLE_EVT_GATTC_CHAR_DISCOVERY_FAILED\000"
 5391      455F4556 
 5391      545F4741 
 5391      5454435F 
 5391      43484152 
 5392              	.LASF64:
 5393 0609 4359424C 		.ascii	"CYBLE_EVT_GATTS_DATA_SIGNED_CMD_REQ\000"
 5393      455F4556 
 5393      545F4741 
 5393      5454535F 
ARM GAS  C:\Users\mohammed\AppData\Local\Temp\cceuH2T0.s 			page 119


 5393      44415441 
 5394              	.LASF76:
 5395 062d 4359424C 		.ascii	"CYBLE_EVT_L2CAP_CBFC_RX_CREDIT_IND\000"
 5395      455F4556 
 5395      545F4C32 
 5395      4341505F 
 5395      43424643 
 5396              	.LASF159:
 5397 0650 4359424C 		.ascii	"CYBLE_GATT_VALUE_T\000"
 5397      455F4741 
 5397      54545F56 
 5397      414C5545 
 5397      5F5400
 5398              	.LASF330:
 5399 0663 4359424C 		.ascii	"CYBLE_EVT_CSCSS_INDICATION_ENABLED\000"
 5399      455F4556 
 5399      545F4353 
 5399      4353535F 
 5399      494E4449 
 5400              	.LASF190:
 5401 0686 7065726D 		.ascii	"permission\000"
 5401      69737369 
 5401      6F6E00
 5402              	.LASF435:
 5403 0691 4359424C 		.ascii	"CYBLE_EVT_LNSC_INDICATION\000"
 5403      455F4556 
 5403      545F4C4E 
 5403      53435F49 
 5403      4E444943 
 5404              	.LASF446:
 5405 06ab 4359424C 		.ascii	"CYBLE_EVT_PASSC_READ_CHAR_RESPONSE\000"
 5405      455F4556 
 5405      545F5041 
 5405      5353435F 
 5405      52454144 
 5406              	.LASF287:
 5407 06ce 4359424C 		.ascii	"CYBLE_EVT_BLSS_INDICATION_ENABLED\000"
 5407      455F4556 
 5407      545F424C 
 5407      53535F49 
 5407      4E444943 
 5408              	.LASF293:
 5409 06f0 4359424C 		.ascii	"CYBLE_EVT_BLSC_NOTIFICATION\000"
 5409      455F4556 
 5409      545F424C 
 5409      53435F4E 
 5409      4F544946 
 5410              	.LASF194:
 5411 070c 4359424C 		.ascii	"CYBLE_CALLBACK_T\000"
 5411      455F4341 
 5411      4C4C4241 
 5411      434B5F54 
 5411      00
 5412              	.LASF335:
 5413 071d 4359424C 		.ascii	"CYBLE_EVT_CSCSC_INDICATION\000"
 5413      455F4556 
 5413      545F4353 
ARM GAS  C:\Users\mohammed\AppData\Local\Temp\cceuH2T0.s 			page 120


 5413      4353435F 
 5413      494E4449 
 5414              	.LASF61:
 5415 0738 4359424C 		.ascii	"CYBLE_EVT_GATTC_HANDLE_VALUE_NTF\000"
 5415      455F4556 
 5415      545F4741 
 5415      5454435F 
 5415      48414E44 
 5416              	.LASF24:
 5417 0759 4359424C 		.ascii	"CYBLE_EVT_GAP_AUTH_REQ\000"
 5417      455F4556 
 5417      545F4741 
 5417      505F4155 
 5417      54485F52 
 5418              	.LASF553:
 5419 0770 4379426C 		.ascii	"CyBle_UdsInit\000"
 5419      655F5564 
 5419      73496E69 
 5419      7400
 5420              	.LASF255:
 5421 077e 4359424C 		.ascii	"CYBLE_EVT_GATTC_CHAR_DISCOVERY_COMPLETE\000"
 5421      455F4556 
 5421      545F4741 
 5421      5454435F 
 5421      43484152 
 5422              	.LASF157:
 5423 07a6 4359424C 		.ascii	"CYBLE_CONN_HANDLE_T\000"
 5423      455F434F 
 5423      4E4E5F48 
 5423      414E444C 
 5423      455F5400 
 5424              	.LASF400:
 5425 07ba 4359424C 		.ascii	"CYBLE_EVT_HRSC_WRITE_CHAR_RESPONSE\000"
 5425      455F4556 
 5425      545F4852 
 5425      53435F57 
 5425      52495445 
 5426              	.LASF93:
 5427 07dd 4359424C 		.ascii	"CYBLE_ERROR_BT_ON_NOT_COMPLETED\000"
 5427      455F4552 
 5427      524F525F 
 5427      42545F4F 
 5427      4E5F4E4F 
 5428              	.LASF334:
 5429 07fd 4359424C 		.ascii	"CYBLE_EVT_CSCSC_NOTIFICATION\000"
 5429      455F4556 
 5429      545F4353 
 5429      4353435F 
 5429      4E4F5449 
 5430              	.LASF483:
 5431 081a 4359424C 		.ascii	"CYBLE_EVT_UDSC_INDICATION\000"
 5431      455F4556 
 5431      545F5544 
 5431      53435F49 
 5431      4E444943 
 5432              	.LASF417:
 5433 0834 4359424C 		.ascii	"CYBLE_EVT_IPSS_WRITE_CHAR\000"
ARM GAS  C:\Users\mohammed\AppData\Local\Temp\cceuH2T0.s 			page 121


 5433      455F4556 
 5433      545F4950 
 5433      53535F57 
 5433      52495445 
 5434              	.LASF298:
 5435 084e 4359424C 		.ascii	"CYBLE_EVT_BMSC_READ_CHAR_RESPONSE\000"
 5435      455F4556 
 5435      545F424D 
 5435      53435F52 
 5435      4541445F 
 5436              	.LASF420:
 5437 0870 4359424C 		.ascii	"CYBLE_EVT_IPSC_READ_MULTIPLE_CHAR_RESPONSE\000"
 5437      455F4556 
 5437      545F4950 
 5437      53435F52 
 5437      4541445F 
 5438              	.LASF38:
 5439 089b 4359424C 		.ascii	"CYBLE_EVT_GAP_OOB_GENERATED_NOTIFICATION\000"
 5439      455F4556 
 5439      545F4741 
 5439      505F4F4F 
 5439      425F4745 
 5440              	.LASF232:
 5441 08c4 64657363 		.ascii	"descrHandle\000"
 5441      7248616E 
 5441      646C6500 
 5442              	.LASF155:
 5443 08d0 62644861 		.ascii	"bdHandle\000"
 5443      6E646C65 
 5443      00
 5444              	.LASF144:
 5445 08d9 4359424C 		.ascii	"CYBLE_GATTS_ERR_NETWORK_NOT_AVAILABLE\000"
 5445      455F4741 
 5445      5454535F 
 5445      4552525F 
 5445      4E455457 
 5446              	.LASF174:
 5447 08ff 65786563 		.ascii	"execWriteFlag\000"
 5447      57726974 
 5447      65466C61 
 5447      6700
 5448              	.LASF147:
 5449 090d 4359424C 		.ascii	"CYBLE_GATT_ERR_ANCS_INVALID_COMMAND\000"
 5449      455F4741 
 5449      54545F45 
 5449      52525F41 
 5449      4E43535F 
 5450              	.LASF295:
 5451 0931 4359424C 		.ascii	"CYBLE_EVT_BLSC_READ_DESCR_RESPONSE\000"
 5451      455F4556 
 5451      545F424C 
 5451      53435F52 
 5451      4541445F 
 5452              	.LASF316:
 5453 0954 4359424C 		.ascii	"CYBLE_EVT_CPSS_INDICATION_DISABLED\000"
 5453      455F4556 
 5453      545F4350 
ARM GAS  C:\Users\mohammed\AppData\Local\Temp\cceuH2T0.s 			page 122


 5453      53535F49 
 5453      4E444943 
 5454              	.LASF315:
 5455 0977 4359424C 		.ascii	"CYBLE_EVT_CPSS_INDICATION_ENABLED\000"
 5455      455F4556 
 5455      545F4350 
 5455      53535F49 
 5455      4E444943 
 5456              	.LASF432:
 5457 0999 4359424C 		.ascii	"CYBLE_EVT_LNSS_NOTIFICATION_ENABLED\000"
 5457      455F4556 
 5457      545F4C4E 
 5457      53535F4E 
 5457      4F544946 
 5458              	.LASF57:
 5459 09bd 4359424C 		.ascii	"CYBLE_EVT_GATTS_WRITE_CMD_REQ\000"
 5459      455F4556 
 5459      545F4741 
 5459      5454535F 
 5459      57524954 
 5460              	.LASF326:
 5461 09db 4359424C 		.ascii	"CYBLE_EVT_CPSC_WRITE_DESCR_RESPONSE\000"
 5461      455F4556 
 5461      545F4350 
 5461      53435F57 
 5461      52495445 
 5462              	.LASF4:
 5463 09ff 6C6F6E67 		.ascii	"long int\000"
 5463      20696E74 
 5463      00
 5464              	.LASF433:
 5465 0a08 4359424C 		.ascii	"CYBLE_EVT_LNSS_NOTIFICATION_DISABLED\000"
 5465      455F4556 
 5465      545F4C4E 
 5465      53535F4E 
 5465      4F544946 
 5466              	.LASF261:
 5467 0a2d 4359424C 		.ascii	"CYBLE_EVT_ANCSC_READ_CHAR_RESPONSE\000"
 5467      455F4556 
 5467      545F414E 
 5467      4353435F 
 5467      52454144 
 5468              	.LASF530:
 5469 0a50 4379426C 		.ascii	"CyBle_UdssConfirmationEventHandler\000"
 5469      655F5564 
 5469      7373436F 
 5469      6E666972 
 5469      6D617469 
 5470              	.LASF447:
 5471 0a73 4359424C 		.ascii	"CYBLE_EVT_PASSC_WRITE_CHAR_RESPONSE\000"
 5471      455F4556 
 5471      545F5041 
 5471      5353435F 
 5471      57524954 
 5472              	.LASF478:
 5473 0a97 4359424C 		.ascii	"CYBLE_EVT_UDSS_INDICATION_CONFIRMED\000"
 5473      455F4556 
ARM GAS  C:\Users\mohammed\AppData\Local\Temp\cceuH2T0.s 			page 123


 5473      545F5544 
 5473      53535F49 
 5473      4E444943 
 5474              	.LASF219:
 5475 0abb 4359424C 		.ascii	"CYBLE_UDS_5ZL\000"
 5475      455F5544 
 5475      535F355A 
 5475      4C00
 5476              	.LASF241:
 5477 0ac9 4359424C 		.ascii	"CYBLE_LONG_TERM_KEY_REQUEST_REPLY\000"
 5477      455F4C4F 
 5477      4E475F54 
 5477      45524D5F 
 5477      4B45595F 
 5478              	.LASF17:
 5479 0aeb 4359424C 		.ascii	"CYBLE_EVT_STACK_ON\000"
 5479      455F4556 
 5479      545F5354 
 5479      41434B5F 
 5479      4F4E00
 5480              	.LASF100:
 5481 0afe 4359424C 		.ascii	"CYBLE_ERROR_L2CAP_PSM_NOT_IN_RANGE\000"
 5481      455F4552 
 5481      524F525F 
 5481      4C324341 
 5481      505F5053 
 5482              	.LASF516:
 5483 0b21 63616C6C 		.ascii	"callbackFunc\000"
 5483      6261636B 
 5483      46756E63 
 5483      00
 5484              	.LASF362:
 5485 0b2e 4359424C 		.ascii	"CYBLE_EVT_ESSC_WRITE_DESCR_RESPONSE\000"
 5485      455F4556 
 5485      545F4553 
 5485      53435F57 
 5485      52495445 
 5486              	.LASF143:
 5487 0b52 4359424C 		.ascii	"CYBLE_GATTS_ERR_HPS_INVALID_REQUEST\000"
 5487      455F4741 
 5487      5454535F 
 5487      4552525F 
 5487      4850535F 
 5488              	.LASF543:
 5489 0b76 4379426C 		.ascii	"CyBle_UdsApplCallback\000"
 5489      655F5564 
 5489      73417070 
 5489      6C43616C 
 5489      6C626163 
 5490              	.LASF421:
 5491 0b8c 4359424C 		.ascii	"CYBLE_EVT_IPSC_WRITE_CHAR_RESPONSE\000"
 5491      455F4556 
 5491      545F4950 
 5491      53435F57 
 5491      52495445 
 5492              	.LASF234:
 5493 0baf 73657276 		.ascii	"serviceHandle\000"
ARM GAS  C:\Users\mohammed\AppData\Local\Temp\cceuH2T0.s 			page 124


 5493      69636548 
 5493      616E646C 
 5493      6500
 5494              	.LASF403:
 5495 0bbd 4359424C 		.ascii	"CYBLE_EVT_HTSS_NOTIFICATION_ENABLED\000"
 5495      455F4556 
 5495      545F4854 
 5495      53535F4E 
 5495      4F544946 
 5496              	.LASF119:
 5497 0be1 4359424C 		.ascii	"CYBLE_GATT_ERR_INVALID_PDU\000"
 5497      455F4741 
 5497      54545F45 
 5497      52525F49 
 5497      4E56414C 
 5498              	.LASF112:
 5499 0bfc 4359424C 		.ascii	"CYBLE_ERROR_CHAR_IS_NOT_DISCOVERED\000"
 5499      455F4552 
 5499      524F525F 
 5499      43484152 
 5499      5F49535F 
 5500              	.LASF481:
 5501 0c1f 4359424C 		.ascii	"CYBLE_EVT_UDSS_READ_CHAR\000"
 5501      455F4556 
 5501      545F5544 
 5501      53535F52 
 5501      4541445F 
 5502              	.LASF217:
 5503 0c38 4359424C 		.ascii	"CYBLE_UDS_ANL\000"
 5503      455F5544 
 5503      535F414E 
 5503      4C00
 5504              	.LASF162:
 5505 0c46 4359424C 		.ascii	"CYBLE_GATT_HANDLE_VALUE_PAIR_T\000"
 5505      455F4741 
 5505      54545F48 
 5505      414E444C 
 5505      455F5641 
 5506              	.LASF189:
 5507 0c65 61747454 		.ascii	"attType\000"
 5507      79706500 
 5508              	.LASF208:
 5509 0c6d 4359424C 		.ascii	"CYBLE_UDS_ANT\000"
 5509      455F5544 
 5509      535F414E 
 5509      5400
 5510              	.LASF218:
 5511 0c7b 4359424C 		.ascii	"CYBLE_UDS_ANU\000"
 5511      455F5544 
 5511      535F414E 
 5511      5500
 5512              	.LASF359:
 5513 0c89 4359424C 		.ascii	"CYBLE_EVT_ESSC_READ_CHAR_RESPONSE\000"
 5513      455F4556 
 5513      545F4553 
 5513      53435F52 
 5513      4541445F 
ARM GAS  C:\Users\mohammed\AppData\Local\Temp\cceuH2T0.s 			page 125


 5514              	.LASF195:
 5515 0cab 4359424C 		.ascii	"CYBLE_UDS_FNM\000"
 5515      455F5544 
 5515      535F464E 
 5515      4D00
 5516              	.LASF128:
 5517 0cb9 4359424C 		.ascii	"CYBLE_GATT_ERR_INVALID_ATTRIBUTE_LEN\000"
 5517      455F4741 
 5517      54545F45 
 5517      52525F49 
 5517      4E56414C 
 5518              	.LASF382:
 5519 0cde 4359424C 		.ascii	"CYBLE_EVT_HIDSC_NOTIFICATION\000"
 5519      455F4556 
 5519      545F4849 
 5519      4453435F 
 5519      4E4F5449 
 5520              	.LASF70:
 5521 0cfb 4359424C 		.ascii	"CYBLE_EVT_L2CAP_COMMAND_REJ\000"
 5521      455F4556 
 5521      545F4C32 
 5521      4341505F 
 5521      434F4D4D 
 5522              	.LASF416:
 5523 0d17 4359424C 		.ascii	"CYBLE_EVT_IPSS_READ_CHAR\000"
 5523      455F4556 
 5523      545F4950 
 5523      53535F52 
 5523      4541445F 
 5524              	.LASF552:
 5525 0d30 443A5C49 		.ascii	"D:\\IoT\\ProximityEvents\\Cypress PSoC\\BLE_Proximi"
 5525      6F545C50 
 5525      726F7869 
 5525      6D697479 
 5525      4576656E 
 5526 0d5f 74793032 		.ascii	"ty02\\BLE_Proximity01.cydsn\000"
 5526      5C424C45 
 5526      5F50726F 
 5526      78696D69 
 5526      74793031 
 5527              	.LASF379:
 5528 0d7a 4359424C 		.ascii	"CYBLE_EVT_HIDSS_SUSPEND\000"
 5528      455F4556 
 5528      545F4849 
 5528      4453535F 
 5528      53555350 
 5529              	.LASF101:
 5530 0d92 4359424C 		.ascii	"CYBLE_ERROR_GATT_DB_INVALID_ATTR_HANDLE\000"
 5530      455F4552 
 5530      524F525F 
 5530      47415454 
 5530      5F44425F 
 5531              	.LASF0:
 5532 0dba 7369676E 		.ascii	"signed char\000"
 5532      65642063 
 5532      68617200 
 5533              	.LASF285:
ARM GAS  C:\Users\mohammed\AppData\Local\Temp\cceuH2T0.s 			page 126


 5534 0dc6 4359424C 		.ascii	"CYBLE_EVT_BCSC_READ_DESCR_RESPONSE\000"
 5534      455F4556 
 5534      545F4243 
 5534      53435F52 
 5534      4541445F 
 5535              	.LASF508:
 5536 0de9 4359424C 		.ascii	"CYBLE_EVT_WSSC_WRITE_DESCR_RESPONSE\000"
 5536      455F4556 
 5536      545F5753 
 5536      53435F57 
 5536      52495445 
 5537              	.LASF278:
 5538 0e0d 4359424C 		.ascii	"CYBLE_EVT_BASC_READ_DESCR_RESPONSE\000"
 5538      455F4556 
 5538      545F4241 
 5538      53435F52 
 5538      4541445F 
 5539              	.LASF19:
 5540 0e30 4359424C 		.ascii	"CYBLE_EVT_HARDWARE_ERROR\000"
 5540      455F4556 
 5540      545F4841 
 5540      52445741 
 5540      52455F45 
 5541              	.LASF82:
 5542 0e49 4359424C 		.ascii	"CYBLE_ERROR_OK\000"
 5542      455F4552 
 5542      524F525F 
 5542      4F4B00
 5543              	.LASF534:
 5544 0e58 6C6F6343 		.ascii	"locCharValue\000"
 5544      68617256 
 5544      616C7565 
 5544      00
 5545              	.LASF48:
 5546 0e65 4359424C 		.ascii	"CYBLE_EVT_GATTC_READ_BY_GROUP_TYPE_RSP\000"
 5546      455F4556 
 5546      545F4741 
 5546      5454435F 
 5546      52454144 
 5547              	.LASF535:
 5548 0e8c 4379426C 		.ascii	"CyBle_UdssWriteEventHandler\000"
 5548      655F5564 
 5548      73735772 
 5548      69746545 
 5548      76656E74 
 5549              	.LASF510:
 5550 0ea8 4359424C 		.ascii	"CYBLE_STATE_STOPPED\000"
 5550      455F5354 
 5550      4154455F 
 5550      53544F50 
 5550      50454400 
 5551              	.LASF452:
 5552 0ebc 4359424C 		.ascii	"CYBLE_EVT_RSCSS_INDICATION_ENABLED\000"
 5552      455F4556 
 5552      545F5253 
 5552      4353535F 
 5552      494E4449 
ARM GAS  C:\Users\mohammed\AppData\Local\Temp\cceuH2T0.s 			page 127


 5553              	.LASF1:
 5554 0edf 756E7369 		.ascii	"unsigned char\000"
 5554      676E6564 
 5554      20636861 
 5554      7200
 5555              	.LASF47:
 5556 0eed 4359424C 		.ascii	"CYBLE_EVT_GATTC_XCHNG_MTU_RSP\000"
 5556      455F4556 
 5556      545F4741 
 5556      5454435F 
 5556      5843484E 
 5557              	.LASF317:
 5558 0f0b 4359424C 		.ascii	"CYBLE_EVT_CPSS_INDICATION_CONFIRMED\000"
 5558      455F4556 
 5558      545F4350 
 5558      53535F49 
 5558      4E444943 
 5559              	.LASF212:
 5560 0f2f 4359424C 		.ascii	"CYBLE_UDS_HCC\000"
 5560      455F5544 
 5560      535F4843 
 5560      4300
 5561              	.LASF521:
 5562 0f3d 4379426C 		.ascii	"CyBle_UdssSetCharacteristicValue\000"
 5562      655F5564 
 5562      73735365 
 5562      74436861 
 5562      72616374 
 5563              	.LASF314:
 5564 0f5e 4359424C 		.ascii	"CYBLE_EVT_CPSS_NOTIFICATION_DISABLED\000"
 5564      455F4556 
 5564      545F4350 
 5564      53535F4E 
 5564      4F544946 
 5565              	.LASF457:
 5566 0f83 4359424C 		.ascii	"CYBLE_EVT_RSCSC_INDICATION\000"
 5566      455F4556 
 5566      545F5253 
 5566      4353435F 
 5566      494E4449 
 5567              	.LASF507:
 5568 0f9e 4359424C 		.ascii	"CYBLE_EVT_WSSC_READ_DESCR_RESPONSE\000"
 5568      455F4556 
 5568      545F5753 
 5568      53435F52 
 5568      4541445F 
 5569              	.LASF493:
 5570 0fc1 4359424C 		.ascii	"CYBLE_EVT_WPTSS_INDICATION_DISABLED\000"
 5570      455F4556 
 5570      545F5750 
 5570      5453535F 
 5570      494E4449 
 5571              	.LASF42:
 5572 0fe5 4359424C 		.ascii	"CYBLE_EVT_GAP_SMP_NEGOTIATED_AUTH_INFO\000"
 5572      455F4556 
 5572      545F4741 
 5572      505F534D 
ARM GAS  C:\Users\mohammed\AppData\Local\Temp\cceuH2T0.s 			page 128


 5572      505F4E45 
 5573              	.LASF77:
 5574 100c 4359424C 		.ascii	"CYBLE_EVT_L2CAP_CBFC_TX_CREDIT_IND\000"
 5574      455F4556 
 5574      545F4C32 
 5574      4341505F 
 5574      43424643 
 5575              	.LASF188:
 5576 102f 61747448 		.ascii	"attHandle\000"
 5576      616E646C 
 5576      6500
 5577              	.LASF548:
 5578 1039 6379426C 		.ascii	"cyBle_udsFlag\000"
 5578      655F7564 
 5578      73466C61 
 5578      6700
 5579              	.LASF245:
 5580 1047 4359424C 		.ascii	"CYBLE_EVT_GATTC_INDICATION\000"
 5580      455F4556 
 5580      545F4741 
 5580      5454435F 
 5580      494E4449 
 5581              	.LASF229:
 5582 1062 4359424C 		.ascii	"CYBLE_UDS_DESCR_COUNT\000"
 5582      455F5544 
 5582      535F4445 
 5582      5343525F 
 5582      434F554E 
 5583              	.LASF211:
 5584 1078 4359424C 		.ascii	"CYBLE_UDS_WCC\000"
 5584      455F5544 
 5584      535F5743 
 5584      4300
 5585              	.LASF387:
 5586 1086 4359424C 		.ascii	"CYBLE_EVT_HPSS_NOTIFICATION_ENABLED\000"
 5586      455F4556 
 5586      545F4850 
 5586      53535F4E 
 5586      4F544946 
 5587              	.LASF464:
 5588 10aa 4359424C 		.ascii	"CYBLE_EVT_SCPSS_NOTIFICATION_ENABLED\000"
 5588      455F4556 
 5588      545F5343 
 5588      5053535F 
 5588      4E4F5449 
 5589              	.LASF419:
 5590 10cf 4359424C 		.ascii	"CYBLE_EVT_IPSC_READ_CHAR_RESPONSE\000"
 5590      455F4556 
 5590      545F4950 
 5590      53435F52 
 5590      4541445F 
 5591              	.LASF74:
 5592 10f1 4359424C 		.ascii	"CYBLE_EVT_L2CAP_CBFC_DISCONN_CNF\000"
 5592      455F4556 
 5592      545F4C32 
 5592      4341505F 
 5592      43424643 
ARM GAS  C:\Users\mohammed\AppData\Local\Temp\cceuH2T0.s 			page 129


 5593              	.LASF51:
 5594 1112 4359424C 		.ascii	"CYBLE_EVT_GATTC_FIND_BY_TYPE_VALUE_RSP\000"
 5594      455F4556 
 5594      545F4741 
 5594      5454435F 
 5594      46494E44 
 5595              	.LASF257:
 5596 1139 4359424C 		.ascii	"CYBLE_EVT_ANCSS_NOTIFICATION_ENABLED\000"
 5596      455F4556 
 5596      545F414E 
 5596      4353535F 
 5596      4E4F5449 
 5597              	.LASF39:
 5598 115e 4359424C 		.ascii	"CYBLE_EVT_GAP_DATA_LENGTH_CHANGE\000"
 5598      455F4556 
 5598      545F4741 
 5598      505F4441 
 5598      54415F4C 
 5599              	.LASF469:
 5600 117f 4359424C 		.ascii	"CYBLE_EVT_SCPSC_WRITE_DESCR_RESPONSE\000"
 5600      455F4556 
 5600      545F5343 
 5600      5053435F 
 5600      57524954 
 5601              	.LASF14:
 5602 11a4 63686172 		.ascii	"char\000"
 5602      00
 5603              	.LASF182:
 5604 11a9 6D617841 		.ascii	"maxAttrLength\000"
 5604      7474724C 
 5604      656E6774 
 5604      6800
 5605              	.LASF472:
 5606 11b7 4359424C 		.ascii	"CYBLE_EVT_TPSC_NOTIFICATION\000"
 5606      455F4556 
 5606      545F5450 
 5606      53435F4E 
 5606      4F544946 
 5607              	.LASF254:
 5608 11d3 4359424C 		.ascii	"CYBLE_EVT_GATTC_INCL_DISCOVERY_COMPLETE\000"
 5608      455F4556 
 5608      545F4741 
 5608      5454435F 
 5608      494E434C 
 5609              	.LASF54:
 5610 11fb 4359424C 		.ascii	"CYBLE_EVT_GATTC_READ_MULTI_RSP\000"
 5610      455F4556 
 5610      545F4741 
 5610      5454435F 
 5610      52454144 
 5611              	.LASF542:
 5612 121a 6C6F6347 		.ascii	"locGattValue\000"
 5612      61747456 
 5612      616C7565 
 5612      00
 5613              	.LASF238:
 5614 1227 4359424C 		.ascii	"CYBLE_UDS_CHAR_VALUE_T\000"
ARM GAS  C:\Users\mohammed\AppData\Local\Temp\cceuH2T0.s 			page 130


 5614      455F5544 
 5614      535F4348 
 5614      41525F56 
 5614      414C5545 
 5615              	.LASF16:
 5616 123e 4359424C 		.ascii	"CYBLE_EVT_HOST_INVALID\000"
 5616      455F4556 
 5616      545F484F 
 5616      53545F49 
 5616      4E56414C 
 5617              	.LASF129:
 5618 1255 4359424C 		.ascii	"CYBLE_GATT_ERR_UNLIKELY_ERROR\000"
 5618      455F4741 
 5618      54545F45 
 5618      52525F55 
 5618      4E4C494B 
 5619              	.LASF41:
 5620 1273 4359424C 		.ascii	"CYBLE_EVT_GAPC_DIRECT_ADV_REPORT\000"
 5620      455F4556 
 5620      545F4741 
 5620      50435F44 
 5620      49524543 
 5621              	.LASF373:
 5622 1294 4359424C 		.ascii	"CYBLE_EVT_GLSC_READ_DESCR_RESPONSE\000"
 5622      455F4556 
 5622      545F474C 
 5622      53435F52 
 5622      4541445F 
 5623              	.LASF89:
 5624 12b7 4359424C 		.ascii	"CYBLE_ERROR_NO_DEVICE_ENTITY\000"
 5624      455F4552 
 5624      524F525F 
 5624      4E4F5F44 
 5624      45564943 
 5625              	.LASF53:
 5626 12d4 4359424C 		.ascii	"CYBLE_EVT_GATTC_READ_BLOB_RSP\000"
 5626      455F4556 
 5626      545F4741 
 5626      5454435F 
 5626      52454144 
 5627              	.LASF406:
 5628 12f2 4359424C 		.ascii	"CYBLE_EVT_HTSS_INDICATION_DISABLED\000"
 5628      455F4556 
 5628      545F4854 
 5628      53535F49 
 5628      4E444943 
 5629              	.LASF463:
 5630 1315 4359424C 		.ascii	"CYBLE_EVT_RTUSC_READ_CHAR_RESPONSE\000"
 5630      455F4556 
 5630      545F5254 
 5630      5553435F 
 5630      52454144 
 5631              	.LASF60:
 5632 1338 4359424C 		.ascii	"CYBLE_EVT_GATTC_EXEC_WRITE_RSP\000"
 5632      455F4556 
 5632      545F4741 
 5632      5454435F 
ARM GAS  C:\Users\mohammed\AppData\Local\Temp\cceuH2T0.s 			page 131


 5632      45584543 
 5633              	.LASF523:
 5634 1357 4379426C 		.ascii	"CyBle_UdssGetCharacteristicDescriptor\000"
 5634      655F5564 
 5634      73734765 
 5634      74436861 
 5634      72616374 
 5635              	.LASF133:
 5636 137d 4359424C 		.ascii	"CYBLE_GATT_ERR_HEART_RATE_CONTROL_POINT_NOT_SUPPORT"
 5636      455F4741 
 5636      54545F45 
 5636      52525F48 
 5636      45415254 
 5637 13b0 454400   		.ascii	"ED\000"
 5638              	.LASF504:
 5639 13b3 4359424C 		.ascii	"CYBLE_EVT_WSSS_INDICATION_CONFIRMED\000"
 5639      455F4556 
 5639      545F5753 
 5639      53535F49 
 5639      4E444943 
 5640              	.LASF126:
 5641 13d7 4359424C 		.ascii	"CYBLE_GATT_ERR_ATTRIBUTE_NOT_LONG\000"
 5641      455F4741 
 5641      54545F45 
 5641      52525F41 
 5641      54545249 
 5642              	.LASF346:
 5643 13f9 4359424C 		.ascii	"CYBLE_EVT_CTSC_WRITE_DESCR_RESPONSE\000"
 5643      455F4556 
 5643      545F4354 
 5643      53435F57 
 5643      52495445 
 5644              	.LASF477:
 5645 141d 4359424C 		.ascii	"CYBLE_EVT_UDSS_INDICATION_DISABLED\000"
 5645      455F4556 
 5645      545F5544 
 5645      53535F49 
 5645      4E444943 
 5646              	.LASF65:
 5647 1440 4359424C 		.ascii	"CYBLE_EVT_GATTC_STOP_CMD_COMPLETE\000"
 5647      455F4556 
 5647      545F4741 
 5647      5454435F 
 5647      53544F50 
 5648              	.LASF320:
 5649 1462 4359424C 		.ascii	"CYBLE_EVT_CPSS_CHAR_WRITE\000"
 5649      455F4556 
 5649      545F4350 
 5649      53535F43 
 5649      4841525F 
 5650              	.LASF395:
 5651 147c 4359424C 		.ascii	"CYBLE_EVT_HRSS_ENERGY_EXPENDED_RESET\000"
 5651      455F4556 
 5651      545F4852 
 5651      53535F45 
 5651      4E455247 
 5652              	.LASF149:
ARM GAS  C:\Users\mohammed\AppData\Local\Temp\cceuH2T0.s 			page 132


 5653 14a1 4359424C 		.ascii	"CYBLE_GATT_ERR_ANCS_ACTION_FAILED\000"
 5653      455F4741 
 5653      54545F45 
 5653      52525F41 
 5653      4E43535F 
 5654              	.LASF350:
 5655 14c3 4359424C 		.ascii	"CYBLE_EVT_ESSS_NOTIFICATION_DISABLED\000"
 5655      455F4556 
 5655      545F4553 
 5655      53535F4E 
 5655      4F544946 
 5656              	.LASF193:
 5657 14e8 4359424C 		.ascii	"CYBLE_GATTS_DB_T\000"
 5657      455F4741 
 5657      5454535F 
 5657      44425F54 
 5657      00
 5658              	.LASF491:
 5659 14f9 4359424C 		.ascii	"CYBLE_EVT_WPTSS_NOTIFICATION_DISABLED\000"
 5659      455F4556 
 5659      545F5750 
 5659      5453535F 
 5659      4E4F5449 
 5660              	.LASF290:
 5661 151f 4359424C 		.ascii	"CYBLE_EVT_BLSS_NOTIFICATION_ENABLED\000"
 5661      455F4556 
 5661      545F424C 
 5661      53535F4E 
 5661      4F544946 
 5662              	.LASF393:
 5663 1543 4359424C 		.ascii	"CYBLE_EVT_HPSC_WRITE_DESCR_RESPONSE\000"
 5663      455F4556 
 5663      545F4850 
 5663      53435F57 
 5663      52495445 
 5664              	.LASF505:
 5665 1567 4359424C 		.ascii	"CYBLE_EVT_WSSC_INDICATION\000"
 5665      455F4556 
 5665      545F5753 
 5665      53435F49 
 5665      4E444943 
 5666              	.LASF108:
 5667 1581 4359424C 		.ascii	"CYBLE_ERROR_CONTROLLER_BUSY\000"
 5667      455F4552 
 5667      524F525F 
 5667      434F4E54 
 5667      524F4C4C 
 5668              	.LASF527:
 5669 159d 4379426C 		.ascii	"CyBle_UdssSendIndication\000"
 5669      655F5564 
 5669      73735365 
 5669      6E64496E 
 5669      64696361 
 5670              	.LASF83:
 5671 15b6 4359424C 		.ascii	"CYBLE_ERROR_INVALID_PARAMETER\000"
 5671      455F4552 
 5671      524F525F 
ARM GAS  C:\Users\mohammed\AppData\Local\Temp\cceuH2T0.s 			page 133


 5671      494E5641 
 5671      4C49445F 
 5672              	.LASF358:
 5673 15d4 4359424C 		.ascii	"CYBLE_EVT_ESSC_INDICATION\000"
 5673      455F4556 
 5673      545F4553 
 5673      53435F49 
 5673      4E444943 
 5674              	.LASF264:
 5675 15ee 4359424C 		.ascii	"CYBLE_EVT_ANCSC_WRITE_DESCR_RESPONSE\000"
 5675      455F4556 
 5675      545F414E 
 5675      4353435F 
 5675      57524954 
 5676              	.LASF459:
 5677 1613 4359424C 		.ascii	"CYBLE_EVT_RSCSC_WRITE_CHAR_RESPONSE\000"
 5677      455F4556 
 5677      545F5253 
 5677      4353435F 
 5677      57524954 
 5678              	.LASF173:
 5679 1637 70726570 		.ascii	"prepWriteReqCount\000"
 5679      57726974 
 5679      65526571 
 5679      436F756E 
 5679      7400
 5680              	.LASF475:
 5681 1649 4359424C 		.ascii	"CYBLE_EVT_TPSC_WRITE_DESCR_RESPONSE\000"
 5681      455F4556 
 5681      545F5450 
 5681      53435F57 
 5681      52495445 
 5682              	.LASF329:
 5683 166d 4359424C 		.ascii	"CYBLE_EVT_CSCSS_NOTIFICATION_DISABLED\000"
 5683      455F4556 
 5683      545F4353 
 5683      4353535F 
 5683      4E4F5449 
 5684              	.LASF340:
 5685 1693 4359424C 		.ascii	"CYBLE_EVT_CTSS_NOTIFICATION_ENABLED\000"
 5685      455F4556 
 5685      545F4354 
 5685      53535F4E 
 5685      4F544946 
 5686              	.LASF453:
 5687 16b7 4359424C 		.ascii	"CYBLE_EVT_RSCSS_INDICATION_DISABLED\000"
 5687      455F4556 
 5687      545F5253 
 5687      4353535F 
 5687      494E4449 
 5688              	.LASF495:
 5689 16db 4359424C 		.ascii	"CYBLE_EVT_WPTSS_WRITE_CHAR\000"
 5689      455F4556 
 5689      545F5750 
 5689      5453535F 
 5689      57524954 
 5690              	.LASF426:
ARM GAS  C:\Users\mohammed\AppData\Local\Temp\cceuH2T0.s 			page 134


 5691 16f6 4359424C 		.ascii	"CYBLE_EVT_LLSS_WRITE_CHAR_REQ\000"
 5691      455F4556 
 5691      545F4C4C 
 5691      53535F57 
 5691      52495445 
 5692              	.LASF85:
 5693 1714 4359424C 		.ascii	"CYBLE_ERROR_MEMORY_ALLOCATION_FAILED\000"
 5693      455F4552 
 5693      524F525F 
 5693      4D454D4F 
 5693      52595F41 
 5694              	.LASF401:
 5695 1739 4359424C 		.ascii	"CYBLE_EVT_HRSC_READ_DESCR_RESPONSE\000"
 5695      455F4556 
 5695      545F4852 
 5695      53435F52 
 5695      4541445F 
 5696              	.LASF328:
 5697 175c 4359424C 		.ascii	"CYBLE_EVT_CSCSS_NOTIFICATION_ENABLED\000"
 5697      455F4556 
 5697      545F4353 
 5697      4353535F 
 5697      4E4F5449 
 5698              	.LASF167:
 5699 1781 4359424C 		.ascii	"CYBLE_GATTS_HANDLE_VALUE_IND_T\000"
 5699      455F4741 
 5699      5454535F 
 5699      48414E44 
 5699      4C455F56 
 5700              	.LASF518:
 5701 17a0 61747472 		.ascii	"attrValue\000"
 5701      56616C75 
 5701      6500
 5702              	.LASF292:
 5703 17aa 4359424C 		.ascii	"CYBLE_EVT_BLSC_INDICATION\000"
 5703      455F4556 
 5703      545F424C 
 5703      53435F49 
 5703      4E444943 
 5704              	.LASF389:
 5705 17c4 4359424C 		.ascii	"CYBLE_EVT_HPSS_CHAR_WRITE\000"
 5705      455F4556 
 5705      545F4850 
 5705      53535F43 
 5705      4841525F 
 5706              	.LASF381:
 5707 17de 4359424C 		.ascii	"CYBLE_EVT_HIDSS_REPORT_CHAR_WRITE\000"
 5707      455F4556 
 5707      545F4849 
 5707      4453535F 
 5707      5245504F 
 5708              	.LASF280:
 5709 1800 4359424C 		.ascii	"CYBLE_EVT_BCSS_INDICATION_ENABLED\000"
 5709      455F4556 
 5709      545F4243 
 5709      53535F49 
 5709      4E444943 
ARM GAS  C:\Users\mohammed\AppData\Local\Temp\cceuH2T0.s 			page 135


 5710              	.LASF140:
 5711 1822 4359424C 		.ascii	"CYBLE_GATTS_ERR_CCCD_IMPROPERLY_CONFIGURED\000"
 5711      455F4741 
 5711      5454535F 
 5711      4552525F 
 5711      43434344 
 5712              	.LASF202:
 5713 184d 4359424C 		.ascii	"CYBLE_UDS_HGT\000"
 5713      455F5544 
 5713      535F4847 
 5713      5400
 5714              	.LASF499:
 5715 185b 4359424C 		.ascii	"CYBLE_EVT_WPTSC_READ_CHAR_RESPONSE\000"
 5715      455F4556 
 5715      545F5750 
 5715      5453435F 
 5715      52454144 
 5716              	.LASF109:
 5717 187e 4359424C 		.ascii	"CYBLE_ERROR_MAX\000"
 5717      455F4552 
 5717      524F525F 
 5717      4D415800 
 5718              	.LASF438:
 5719 188e 4359424C 		.ascii	"CYBLE_EVT_LNSC_WRITE_CHAR_RESPONSE\000"
 5719      455F4556 
 5719      545F4C4E 
 5719      53435F57 
 5719      52495445 
 5720              	.LASF69:
 5721 18b1 4359424C 		.ascii	"CYBLE_EVT_L2CAP_CONN_PARAM_UPDATE_RSP\000"
 5721      455F4556 
 5721      545F4C32 
 5721      4341505F 
 5721      434F4E4E 
 5722              	.LASF271:
 5723 18d7 4359424C 		.ascii	"CYBLE_EVT_ANSC_WRITE_CHAR_RESPONSE\000"
 5723      455F4556 
 5723      545F414E 
 5723      53435F57 
 5723      52495445 
 5724              	.LASF480:
 5725 18fa 4359424C 		.ascii	"CYBLE_EVT_UDSS_NOTIFICATION_DISABLED\000"
 5725      455F4556 
 5725      545F5544 
 5725      53535F4E 
 5725      4F544946 
 5726              	.LASF339:
 5727 191f 4359424C 		.ascii	"CYBLE_EVT_CSCSC_WRITE_DESCR_RESPONSE\000"
 5727      455F4556 
 5727      545F4353 
 5727      4353435F 
 5727      57524954 
 5728              	.LASF482:
 5729 1944 4359424C 		.ascii	"CYBLE_EVT_UDSS_WRITE_CHAR\000"
 5729      455F4556 
 5729      545F5544 
 5729      53535F57 
ARM GAS  C:\Users\mohammed\AppData\Local\Temp\cceuH2T0.s 			page 136


 5729      52495445 
 5730              	.LASF281:
 5731 195e 4359424C 		.ascii	"CYBLE_EVT_BCSS_INDICATION_DISABLED\000"
 5731      455F4556 
 5731      545F4243 
 5731      53535F49 
 5731      4E444943 
 5732              	.LASF396:
 5733 1981 4359424C 		.ascii	"CYBLE_EVT_HRSS_NOTIFICATION_ENABLED\000"
 5733      455F4556 
 5733      545F4852 
 5733      53535F4E 
 5733      4F544946 
 5734              	.LASF200:
 5735 19a5 4359424C 		.ascii	"CYBLE_UDS_GND\000"
 5735      455F5544 
 5735      535F474E 
 5735      4400
 5736              	.LASF134:
 5737 19b3 4359424C 		.ascii	"CYBLE_GATT_ERR_USER_DATA_ACCESS_NOT_PERMITTED\000"
 5737      455F4741 
 5737      54545F45 
 5737      52525F55 
 5737      5345525F 
 5738              	.LASF201:
 5739 19e1 4359424C 		.ascii	"CYBLE_UDS_WGT\000"
 5739      455F5544 
 5739      535F5747 
 5739      5400
 5740              	.LASF230:
 5741 19ef 4359424C 		.ascii	"CYBLE_UDS_DESCR_INDEX_T\000"
 5741      455F5544 
 5741      535F4445 
 5741      5343525F 
 5741      494E4445 
 5742              	.LASF27:
 5743 1a07 4359424C 		.ascii	"CYBLE_EVT_GAP_AUTH_COMPLETE\000"
 5743      455F4556 
 5743      545F4741 
 5743      505F4155 
 5743      54485F43 
 5744              	.LASF425:
 5745 1a23 4359424C 		.ascii	"CYBLE_EVT_IPSC_READ_BLOB_RSP\000"
 5745      455F4556 
 5745      545F4950 
 5745      53435F52 
 5745      4541445F 
 5746              	.LASF448:
 5747 1a40 4359424C 		.ascii	"CYBLE_EVT_PASSC_READ_DESCR_RESPONSE\000"
 5747      455F4556 
 5747      545F5041 
 5747      5353435F 
 5747      52454144 
 5748              	.LASF361:
 5749 1a64 4359424C 		.ascii	"CYBLE_EVT_ESSC_READ_DESCR_RESPONSE\000"
 5749      455F4556 
 5749      545F4553 
ARM GAS  C:\Users\mohammed\AppData\Local\Temp\cceuH2T0.s 			page 137


 5749      53435F52 
 5749      4541445F 
 5750              	.LASF28:
 5751 1a87 4359424C 		.ascii	"CYBLE_EVT_GAP_AUTH_FAILED\000"
 5751      455F4556 
 5751      545F4741 
 5751      505F4155 
 5751      54485F46 
 5752              	.LASF380:
 5753 1aa1 4359424C 		.ascii	"CYBLE_EVT_HIDSS_EXIT_SUSPEND\000"
 5753      455F4556 
 5753      545F4849 
 5753      4453535F 
 5753      45584954 
 5754              	.LASF196:
 5755 1abe 4359424C 		.ascii	"CYBLE_UDS_LNM\000"
 5755      455F5544 
 5755      535F4C4E 
 5755      4D00
 5756              	.LASF150:
 5757 1acc 4359424C 		.ascii	"CYBLE_GATT_ERR_CCCD_IMPROPERLY_CONFIGURED\000"
 5757      455F4741 
 5757      54545F45 
 5757      52525F43 
 5757      4343445F 
 5758              	.LASF86:
 5759 1af6 4359424C 		.ascii	"CYBLE_ERROR_INSUFFICIENT_RESOURCES\000"
 5759      455F4552 
 5759      524F525F 
 5759      494E5355 
 5759      46464943 
 5760              	.LASF451:
 5761 1b19 4359424C 		.ascii	"CYBLE_EVT_RSCSS_NOTIFICATION_DISABLED\000"
 5761      455F4556 
 5761      545F5253 
 5761      4353535F 
 5761      4E4F5449 
 5762              	.LASF138:
 5763 1b3f 4359424C 		.ascii	"CYBLE_GATT_ERR_OP_CODE_NOT_SUPPORTED\000"
 5763      455F4741 
 5763      54545F45 
 5763      52525F4F 
 5763      505F434F 
 5764              	.LASF384:
 5765 1b64 4359424C 		.ascii	"CYBLE_EVT_HIDSC_WRITE_CHAR_RESPONSE\000"
 5765      455F4556 
 5765      545F4849 
 5765      4453435F 
 5765      57524954 
 5766              	.LASF5:
 5767 1b88 6C6F6E67 		.ascii	"long unsigned int\000"
 5767      20756E73 
 5767      69676E65 
 5767      6420696E 
 5767      7400
 5768              	.LASF422:
 5769 1b9a 4359424C 		.ascii	"CYBLE_EVT_IPSC_READ_DESCR_RESPONSE\000"
ARM GAS  C:\Users\mohammed\AppData\Local\Temp\cceuH2T0.s 			page 138


 5769      455F4556 
 5769      545F4950 
 5769      53435F52 
 5769      4541445F 
 5770              	.LASF205:
 5771 1bbd 4359424C 		.ascii	"CYBLE_UDS_RHR\000"
 5771      455F5544 
 5771      535F5248 
 5771      5200
 5772              	.LASF415:
 5773 1bcb 4359424C 		.ascii	"CYBLE_EVT_IASS_WRITE_CHAR_CMD\000"
 5773      455F4556 
 5773      545F4941 
 5773      53535F57 
 5773      52495445 
 5774              	.LASF520:
 5775 1be9 6C6F6348 		.ascii	"locHandleValuePair\000"
 5775      616E646C 
 5775      6556616C 
 5775      75655061 
 5775      697200
 5776              	.LASF442:
 5777 1bfc 4359424C 		.ascii	"CYBLE_EVT_PASSS_NOTIFICATION_ENABLED\000"
 5777      455F4556 
 5777      545F5041 
 5777      5353535F 
 5777      4E4F5449 
 5778              	.LASF445:
 5779 1c21 4359424C 		.ascii	"CYBLE_EVT_PASSC_NOTIFICATION\000"
 5779      455F4556 
 5779      545F5041 
 5779      5353435F 
 5779      4E4F5449 
 5780              	.LASF106:
 5781 1c3e 4359424C 		.ascii	"CYBLE_ERROR_UNSUPPORTED_FEATURE_OR_PARAMETER_VALUE\000"
 5781      455F4552 
 5781      524F525F 
 5781      554E5355 
 5781      50504F52 
 5782              	.LASF226:
 5783 1c71 4359424C 		.ascii	"CYBLE_UDS_CHAR_COUNT\000"
 5783      455F5544 
 5783      535F4348 
 5783      41525F43 
 5783      4F554E54 
 5784              	.LASF222:
 5785 1c86 4359424C 		.ascii	"CYBLE_UDS_DCI\000"
 5785      455F5544 
 5785      535F4443 
 5785      4900
 5786              	.LASF270:
 5787 1c94 4359424C 		.ascii	"CYBLE_EVT_ANSC_READ_CHAR_RESPONSE\000"
 5787      455F4556 
 5787      545F414E 
 5787      53435F52 
 5787      4541445F 
 5788              	.LASF203:
ARM GAS  C:\Users\mohammed\AppData\Local\Temp\cceuH2T0.s 			page 139


 5789 1cb6 4359424C 		.ascii	"CYBLE_UDS_VO2\000"
 5789      455F5544 
 5789      535F564F 
 5789      3200
 5790              	.LASF96:
 5791 1cc4 4359424C 		.ascii	"CYBLE_ERROR_L2CAP_PSM_ALREADY_REGISTERED\000"
 5791      455F4552 
 5791      524F525F 
 5791      4C324341 
 5791      505F5053 
 5792              	.LASF408:
 5793 1ced 4359424C 		.ascii	"CYBLE_EVT_HTSS_CHAR_WRITE\000"
 5793      455F4556 
 5793      545F4854 
 5793      53535F43 
 5793      4841525F 
 5794              	.LASF186:
 5795 1d07 61747456 		.ascii	"attValueUuid\000"
 5795      616C7565 
 5795      55756964 
 5795      00
 5796              	.LASF146:
 5797 1d14 4359424C 		.ascii	"CYBLE_GATT_ERR_ANCS_UNKNOWN_COMMAND\000"
 5797      455F4741 
 5797      54545F45 
 5797      52525F41 
 5797      4E43535F 
 5798              	.LASF274:
 5799 1d38 4359424C 		.ascii	"CYBLE_EVT_BASS_NOTIFICATION_ENABLED\000"
 5799      455F4556 
 5799      545F4241 
 5799      53535F4E 
 5799      4F544946 
 5800              	.LASF347:
 5801 1d5c 4359424C 		.ascii	"CYBLE_EVT_CTSC_WRITE_CHAR_RESPONSE\000"
 5801      455F4556 
 5801      545F4354 
 5801      53435F57 
 5801      52495445 
 5802              	.LASF444:
 5803 1d7f 4359424C 		.ascii	"CYBLE_EVT_PASSS_WRITE_CHAR\000"
 5803      455F4556 
 5803      545F5041 
 5803      5353535F 
 5803      57524954 
 5804              	.LASF324:
 5805 1d9a 4359424C 		.ascii	"CYBLE_EVT_CPSC_WRITE_CHAR_RESPONSE\000"
 5805      455F4556 
 5805      545F4350 
 5805      53435F57 
 5805      52495445 
 5806              	.LASF33:
 5807 1dbd 4359424C 		.ascii	"CYBLE_EVT_GAP_CONNECTION_UPDATE_COMPLETE\000"
 5807      455F4556 
 5807      545F4741 
 5807      505F434F 
 5807      4E4E4543 
ARM GAS  C:\Users\mohammed\AppData\Local\Temp\cceuH2T0.s 			page 140


 5808              	.LASF309:
 5809 1de6 4359424C 		.ascii	"CYBLE_EVT_CGMSC_READ_CHAR_RESPONSE\000"
 5809      455F4556 
 5809      545F4347 
 5809      4D53435F 
 5809      52454144 
 5810              	.LASF547:
 5811 1e09 6379426C 		.ascii	"cyBle_udss\000"
 5811      655F7564 
 5811      737300
 5812              	.LASF511:
 5813 1e14 4359424C 		.ascii	"CYBLE_STATE_INITIALIZING\000"
 5813      455F5354 
 5813      4154455F 
 5813      494E4954 
 5813      49414C49 
 5814              	.LASF337:
 5815 1e2d 4359424C 		.ascii	"CYBLE_EVT_CSCSC_WRITE_CHAR_RESPONSE\000"
 5815      455F4556 
 5815      545F4353 
 5815      4353435F 
 5815      57524954 
 5816              	.LASF73:
 5817 1e51 4359424C 		.ascii	"CYBLE_EVT_L2CAP_CBFC_DISCONN_IND\000"
 5817      455F4556 
 5817      545F4C32 
 5817      4341505F 
 5817      43424643 
 5818              	.LASF333:
 5819 1e72 4359424C 		.ascii	"CYBLE_EVT_CSCSS_CHAR_WRITE\000"
 5819      455F4556 
 5819      545F4353 
 5819      4353535F 
 5819      43484152 
 5820              	.LASF458:
 5821 1e8d 4359424C 		.ascii	"CYBLE_EVT_RSCSC_READ_CHAR_RESPONSE\000"
 5821      455F4556 
 5821      545F5253 
 5821      4353435F 
 5821      52454144 
 5822              	.LASF25:
 5823 1eb0 4359424C 		.ascii	"CYBLE_EVT_GAP_PASSKEY_ENTRY_REQUEST\000"
 5823      455F4556 
 5823      545F4741 
 5823      505F5041 
 5823      53534B45 
 5824              	.LASF171:
 5825 1ed4 67617474 		.ascii	"gattErrorCode\000"
 5825      4572726F 
 5825      72436F64 
 5825      6500
 5826              	.LASF178:
 5827 1ee2 4359424C 		.ascii	"CYBLE_GATTS_CHAR_VAL_READ_REQ_T\000"
 5827      455F4741 
 5827      5454535F 
 5827      43484152 
 5827      5F56414C 
ARM GAS  C:\Users\mohammed\AppData\Local\Temp\cceuH2T0.s 			page 141


 5828              	.LASF318:
 5829 1f02 4359424C 		.ascii	"CYBLE_EVT_CPSS_BROADCAST_ENABLED\000"
 5829      455F4556 
 5829      545F4350 
 5829      53535F42 
 5829      524F4144 
 5830              	.LASF169:
 5831 1f23 62617365 		.ascii	"baseAddr\000"
 5831      41646472 
 5831      00
 5832              	.LASF423:
 5833 1f2c 4359424C 		.ascii	"CYBLE_EVT_IPSC_WRITE_DESCR_RESPONSE\000"
 5833      455F4556 
 5833      545F4950 
 5833      53435F57 
 5833      52495445 
 5834              	.LASF371:
 5835 1f50 4359424C 		.ascii	"CYBLE_EVT_GLSC_READ_CHAR_RESPONSE\000"
 5835      455F4556 
 5835      545F474C 
 5835      53435F52 
 5835      4541445F 
 5836              	.LASF514:
 5837 1f72 4359424C 		.ascii	"CYBLE_STATE_DISCONNECTED\000"
 5837      455F5354 
 5837      4154455F 
 5837      44495343 
 5837      4F4E4E45 
 5838              	.LASF409:
 5839 1f8b 4359424C 		.ascii	"CYBLE_EVT_HTSC_NOTIFICATION\000"
 5839      455F4556 
 5839      545F4854 
 5839      53435F4E 
 5839      4F544946 
 5840              	.LASF6:
 5841 1fa7 6C6F6E67 		.ascii	"long long int\000"
 5841      206C6F6E 
 5841      6720696E 
 5841      7400
 5842              	.LASF473:
 5843 1fb5 4359424C 		.ascii	"CYBLE_EVT_TPSC_READ_CHAR_RESPONSE\000"
 5843      455F4556 
 5843      545F5450 
 5843      53435F52 
 5843      4541445F 
 5844              	.LASF251:
 5845 1fd7 4359424C 		.ascii	"CYBLE_EVT_GATTC_CHAR_DUPLICATION\000"
 5845      455F4556 
 5845      545F4741 
 5845      5454435F 
 5845      43484152 
 5846              	.LASF366:
 5847 1ff8 4359424C 		.ascii	"CYBLE_EVT_GLSS_NOTIFICATION_ENABLED\000"
 5847      455F4556 
 5847      545F474C 
 5847      53535F4E 
 5847      4F544946 
ARM GAS  C:\Users\mohammed\AppData\Local\Temp\cceuH2T0.s 			page 142


 5848              	.LASF124:
 5849 201c 4359424C 		.ascii	"CYBLE_GATT_ERR_PREPARE_WRITE_QUEUE_FULL\000"
 5849      455F4741 
 5849      54545F45 
 5849      52525F50 
 5849      52455041 
 5850              	.LASF391:
 5851 2044 4359424C 		.ascii	"CYBLE_EVT_HPSC_READ_CHAR_RESPONSE\000"
 5851      455F4556 
 5851      545F4850 
 5851      53435F52 
 5851      4541445F 
 5852              	.LASF97:
 5853 2066 4359424C 		.ascii	"CYBLE_ERROR_L2CAP_PSM_NOT_REGISTERED\000"
 5853      455F4552 
 5853      524F525F 
 5853      4C324341 
 5853      505F5053 
 5854              	.LASF87:
 5855 208b 4359424C 		.ascii	"CYBLE_ERROR_OOB_NOT_AVAILABLE\000"
 5855      455F4552 
 5855      524F525F 
 5855      4F4F425F 
 5855      4E4F545F 
 5856              	.LASF301:
 5857 20a9 4359424C 		.ascii	"CYBLE_EVT_CGMSS_INDICATION_ENABLED\000"
 5857      455F4556 
 5857      545F4347 
 5857      4D53535F 
 5857      494E4449 
 5858              	.LASF13:
 5859 20cc 646F7562 		.ascii	"double\000"
 5859      6C6500
 5860              	.LASF102:
 5861 20d3 4359424C 		.ascii	"CYBLE_ERROR_DEVICE_ALREADY_EXISTS\000"
 5861      455F4552 
 5861      524F525F 
 5861      44455649 
 5861      43455F41 
 5862              	.LASF352:
 5863 20f5 4359424C 		.ascii	"CYBLE_EVT_ESSS_INDICATION_DISABLED\000"
 5863      455F4556 
 5863      545F4553 
 5863      53535F49 
 5863      4E444943 
 5864              	.LASF528:
 5865 2118 696E6450 		.ascii	"indParam\000"
 5865      6172616D 
 5865      00
 5866              	.LASF79:
 5867 2121 4359424C 		.ascii	"CYBLE_EVT_PENDING_FLASH_WRITE\000"
 5867      455F4556 
 5867      545F5045 
 5867      4E44494E 
 5867      475F464C 
 5868              	.LASF127:
 5869 213f 4359424C 		.ascii	"CYBLE_GATT_ERR_INSUFFICIENT_ENC_KEY_SIZE\000"
ARM GAS  C:\Users\mohammed\AppData\Local\Temp\cceuH2T0.s 			page 143


 5869      455F4741 
 5869      54545F45 
 5869      52525F49 
 5869      4E535546 
 5870              	.LASF490:
 5871 2168 4359424C 		.ascii	"CYBLE_EVT_WPTSS_NOTIFICATION_ENABLED\000"
 5871      455F4556 
 5871      545F5750 
 5871      5453535F 
 5871      4E4F5449 
 5872              	.LASF260:
 5873 218d 4359424C 		.ascii	"CYBLE_EVT_ANCSC_NOTIFICATION\000"
 5873      455F4556 
 5873      545F414E 
 5873      4353435F 
 5873      4E4F5449 
 5874              	.LASF68:
 5875 21aa 4359424C 		.ascii	"CYBLE_EVT_L2CAP_CONN_PARAM_UPDATE_REQ\000"
 5875      455F4556 
 5875      545F4C32 
 5875      4341505F 
 5875      434F4E4E 
 5876              	.LASF151:
 5877 21d0 4359424C 		.ascii	"CYBLE_GATT_ERR_PROCEDURE_ALREADY_IN_PROGRESS\000"
 5877      455F4741 
 5877      54545F45 
 5877      52525F50 
 5877      524F4345 
 5878              	.LASF440:
 5879 21fd 4359424C 		.ascii	"CYBLE_EVT_LNSC_WRITE_DESCR_RESPONSE\000"
 5879      455F4556 
 5879      545F4C4E 
 5879      53435F57 
 5879      52495445 
 5880              	.LASF40:
 5881 2221 4359424C 		.ascii	"CYBLE_EVT_GAP_ENHANCE_CONN_COMPLETE\000"
 5881      455F4556 
 5881      545F4741 
 5881      505F454E 
 5881      48414E43 
 5882              	.LASF427:
 5883 2245 4359424C 		.ascii	"CYBLE_EVT_LLSC_READ_CHAR_RESPONSE\000"
 5883      455F4556 
 5883      545F4C4C 
 5883      53435F52 
 5883      4541445F 
 5884              	.LASF332:
 5885 2267 4359424C 		.ascii	"CYBLE_EVT_CSCSS_INDICATION_CONFIRMATION\000"
 5885      455F4556 
 5885      545F4353 
 5885      4353535F 
 5885      494E4449 
 5886              	.LASF99:
 5887 228f 4359424C 		.ascii	"CYBLE_ERROR_L2CAP_CHANNEL_NOT_FOUND\000"
 5887      455F4552 
 5887      524F525F 
 5887      4C324341 
ARM GAS  C:\Users\mohammed\AppData\Local\Temp\cceuH2T0.s 			page 144


 5887      505F4348 
 5888              	.LASF546:
 5889 22b3 6379426C 		.ascii	"cyBle_gattDB\000"
 5889      655F6761 
 5889      74744442 
 5889      00
 5890              	.LASF90:
 5891 22c0 4359424C 		.ascii	"CYBLE_ERROR_REPEATED_ATTEMPTS\000"
 5891      455F4552 
 5891      524F525F 
 5891      52455045 
 5891      41544544 
 5892              	.LASF356:
 5893 22de 4359424C 		.ascii	"CYBLE_EVT_ESSS_DESCR_WRITE\000"
 5893      455F4556 
 5893      545F4553 
 5893      53535F44 
 5893      45534352 
 5894              	.LASF351:
 5895 22f9 4359424C 		.ascii	"CYBLE_EVT_ESSS_INDICATION_ENABLED\000"
 5895      455F4556 
 5895      545F4553 
 5895      53535F49 
 5895      4E444943 
 5896              	.LASF355:
 5897 231b 4359424C 		.ascii	"CYBLE_EVT_ESSS_EXEC_WRITE_REQ\000"
 5897      455F4556 
 5897      545F4553 
 5897      53535F45 
 5897      5845435F 
 5898              	.LASF12:
 5899 2339 666C6F61 		.ascii	"float\000"
 5899      7400
 5900              	.LASF467:
 5901 233f 4359424C 		.ascii	"CYBLE_EVT_SCPSC_NOTIFICATION\000"
 5901      455F4556 
 5901      545F5343 
 5901      5053435F 
 5901      4E4F5449 
 5902              	.LASF378:
 5903 235c 4359424C 		.ascii	"CYBLE_EVT_HIDSS_REPORT_MODE_ENTER\000"
 5903      455F4556 
 5903      545F4849 
 5903      4453535F 
 5903      5245504F 
 5904              	.LASF357:
 5905 237e 4359424C 		.ascii	"CYBLE_EVT_ESSC_NOTIFICATION\000"
 5905      455F4556 
 5905      545F4553 
 5905      53435F4E 
 5905      4F544946 
 5906              	.LASF103:
 5907 239a 4359424C 		.ascii	"CYBLE_ERROR_FLASH_WRITE_NOT_PERMITED\000"
 5907      455F4552 
 5907      524F525F 
 5907      464C4153 
 5907      485F5752 
ARM GAS  C:\Users\mohammed\AppData\Local\Temp\cceuH2T0.s 			page 145


 5908              	.LASF376:
 5909 23bf 4359424C 		.ascii	"CYBLE_EVT_HIDSS_NOTIFICATION_DISABLED\000"
 5909      455F4556 
 5909      545F4849 
 5909      4453535F 
 5909      4E4F5449 
 5910              	.LASF66:
 5911 23e5 4359424C 		.ascii	"CYBLE_EVT_GATTS_READ_CHAR_VAL_ACCESS_REQ\000"
 5911      455F4556 
 5911      545F4741 
 5911      5454535F 
 5911      52454144 
 5912              	.LASF263:
 5913 240e 4359424C 		.ascii	"CYBLE_EVT_ANCSC_READ_DESCR_RESPONSE\000"
 5913      455F4556 
 5913      545F414E 
 5913      4353435F 
 5913      52454144 
 5914              	.LASF123:
 5915 2432 4359424C 		.ascii	"CYBLE_GATT_ERR_INSUFFICIENT_AUTHORIZATION\000"
 5915      455F4741 
 5915      54545F45 
 5915      52525F49 
 5915      4E535546 
 5916              	.LASF524:
 5917 245c 64657363 		.ascii	"descrIndex\000"
 5917      72496E64 
 5917      657800
 5918              	.LASF161:
 5919 2467 61747472 		.ascii	"attrHandle\000"
 5919      48616E64 
 5919      6C6500
 5920              	.LASF484:
 5921 2472 4359424C 		.ascii	"CYBLE_EVT_UDSC_NOTIFICATION\000"
 5921      455F4556 
 5921      545F5544 
 5921      53435F4E 
 5921      4F544946 
 5922              	.LASF221:
 5923 248e 4359424C 		.ascii	"CYBLE_UDS_2ZL\000"
 5923      455F5544 
 5923      535F325A 
 5923      4C00
 5924              	.LASF177:
 5925 249c 4359424C 		.ascii	"CYBLE_GATTS_WRITE_REQ_PARAM_T\000"
 5925      455F4741 
 5925      5454535F 
 5925      57524954 
 5925      455F5245 
 5926              	.LASF8:
 5927 24ba 756E7369 		.ascii	"unsigned int\000"
 5927      676E6564 
 5927      20696E74 
 5927      00
 5928              	.LASF58:
 5929 24c7 4359424C 		.ascii	"CYBLE_EVT_GATTS_PREP_WRITE_REQ\000"
 5929      455F4556 
ARM GAS  C:\Users\mohammed\AppData\Local\Temp\cceuH2T0.s 			page 146


 5929      545F4741 
 5929      5454535F 
 5929      50524550 
 5930              	.LASF191:
 5931 24e6 61747445 		.ascii	"attEndHandle\000"
 5931      6E644861 
 5931      6E646C65 
 5931      00
 5932              	.LASF120:
 5933 24f3 4359424C 		.ascii	"CYBLE_GATT_ERR_INSUFFICIENT_AUTHENTICATION\000"
 5933      455F4741 
 5933      54545F45 
 5933      52525F49 
 5933      4E535546 
 5934              	.LASF299:
 5935 251e 4359424C 		.ascii	"CYBLE_EVT_BMSC_WRITE_CHAR_RESPONSE\000"
 5935      455F4556 
 5935      545F424D 
 5935      53435F57 
 5935      52495445 
 5936              	.LASF341:
 5937 2541 4359424C 		.ascii	"CYBLE_EVT_CTSS_NOTIFICATION_DISABLED\000"
 5937      455F4556 
 5937      545F4354 
 5937      53535F4E 
 5937      4F544946 
 5938              	.LASF288:
 5939 2566 4359424C 		.ascii	"CYBLE_EVT_BLSS_INDICATION_DISABLED\000"
 5939      455F4556 
 5939      545F424C 
 5939      53535F49 
 5939      4E444943 
 5940              	.LASF540:
 5941 2589 4379426C 		.ascii	"CyBle_UdssExecuteWriteRequestEventHandler\000"
 5941      655F5564 
 5941      73734578 
 5941      65637574 
 5941      65577269 
 5942              	.LASF465:
 5943 25b3 4359424C 		.ascii	"CYBLE_EVT_SCPSS_NOTIFICATION_DISABLED\000"
 5943      455F4556 
 5943      545F5343 
 5943      5053535F 
 5943      4E4F5449 
 5944              	.LASF353:
 5945 25d9 4359424C 		.ascii	"CYBLE_EVT_ESSS_INDICATION_CONFIRMATION\000"
 5945      455F4556 
 5945      545F4553 
 5945      53535F49 
 5945      4E444943 
 5946              	.LASF137:
 5947 2600 4359424C 		.ascii	"CYBLE_GATTS_ERR_PROCEDURE_ALREADY_IN_PROGRESS\000"
 5947      455F4741 
 5947      5454535F 
 5947      4552525F 
 5947      50524F43 
 5948              	.LASF517:
ARM GAS  C:\Users\mohammed\AppData\Local\Temp\cceuH2T0.s 			page 147


 5949 262e 61747472 		.ascii	"attrSize\000"
 5949      53697A65 
 5949      00
 5950              	.LASF225:
 5951 2637 4359424C 		.ascii	"CYBLE_UDS_LNG\000"
 5951      455F5544 
 5951      535F4C4E 
 5951      4700
 5952              	.LASF233:
 5953 2645 4359424C 		.ascii	"CYBLE_UDSS_CHAR_T\000"
 5953      455F5544 
 5953      53535F43 
 5953      4841525F 
 5953      5400
 5954              	.LASF239:
 5955 2657 4359424C 		.ascii	"CYBLE_AUTHENTICATION_REQUEST_REPLY\000"
 5955      455F4155 
 5955      5448454E 
 5955      54494341 
 5955      54494F4E 
 5956              	.LASF95:
 5957 267a 4359424C 		.ascii	"CYBLE_ERROR_L2CAP_PSM_WRONG_ENCODING\000"
 5957      455F4552 
 5957      524F525F 
 5957      4C324341 
 5957      505F5053 
 5958              	.LASF291:
 5959 269f 4359424C 		.ascii	"CYBLE_EVT_BLSS_NOTIFICATION_DISABLED\000"
 5959      455F4556 
 5959      545F424C 
 5959      53535F4E 
 5959      4F544946 
 5960              	.LASF165:
 5961 26c4 4359424C 		.ascii	"CYBLE_GATT_HANDLE_VALUE_OFFSET_PARAM_T\000"
 5961      455F4741 
 5961      54545F48 
 5961      414E444C 
 5961      455F5641 
 5962              	.LASF125:
 5963 26eb 4359424C 		.ascii	"CYBLE_GATT_ERR_ATTRIBUTE_NOT_FOUND\000"
 5963      455F4741 
 5963      54545F45 
 5963      52525F41 
 5963      54545249 
 5964              	.LASF164:
 5965 270e 6F666673 		.ascii	"offset\000"
 5965      657400
 5966              	.LASF412:
 5967 2715 4359424C 		.ascii	"CYBLE_EVT_HTSC_WRITE_CHAR_RESPONSE\000"
 5967      455F4556 
 5967      545F4854 
 5967      53435F57 
 5967      52495445 
 5968              	.LASF394:
 5969 2738 4359424C 		.ascii	"CYBLE_EVT_HPSC_WRITE_CHAR_RESPONSE\000"
 5969      455F4556 
 5969      545F4850 
ARM GAS  C:\Users\mohammed\AppData\Local\Temp\cceuH2T0.s 			page 148


 5969      53435F57 
 5969      52495445 
 5970              	.LASF81:
 5971 275b 4359424C 		.ascii	"CYBLE_EVT_MAX\000"
 5971      455F4556 
 5971      545F4D41 
 5971      5800
 5972              	.LASF34:
 5973 2769 4359424C 		.ascii	"CYBLE_EVT_GAPC_SCAN_START_STOP\000"
 5973      455F4556 
 5973      545F4741 
 5973      50435F53 
 5973      43414E5F 
 5974              	.LASF266:
 5975 2788 4359424C 		.ascii	"CYBLE_EVT_ANSS_NOTIFICATION_ENABLED\000"
 5975      455F4556 
 5975      545F414E 
 5975      53535F4E 
 5975      4F544946 
 5976              	.LASF55:
 5977 27ac 4359424C 		.ascii	"CYBLE_EVT_GATTS_WRITE_REQ\000"
 5977      455F4556 
 5977      545F4741 
 5977      5454535F 
 5977      57524954 
 5978              	.LASF486:
 5979 27c6 4359424C 		.ascii	"CYBLE_EVT_UDSC_WRITE_CHAR_RESPONSE\000"
 5979      455F4556 
 5979      545F5544 
 5979      53435F57 
 5979      52495445 
 5980              	.LASF497:
 5981 27e9 4359424C 		.ascii	"CYBLE_EVT_WPTSC_INDICATION\000"
 5981      455F4556 
 5981      545F5750 
 5981      5453435F 
 5981      494E4449 
 5982              	.LASF26:
 5983 2804 4359424C 		.ascii	"CYBLE_EVT_GAP_PASSKEY_DISPLAY_REQUEST\000"
 5983      455F4556 
 5983      545F4741 
 5983      505F5041 
 5983      53534B45 
 5984              	.LASF111:
 5985 282a 4359424C 		.ascii	"CYBLE_ERROR_IND_DISABLED\000"
 5985      455F4552 
 5985      524F525F 
 5985      494E445F 
 5985      44495341 
 5986              	.LASF110:
 5987 2843 4359424C 		.ascii	"CYBLE_ERROR_NTF_DISABLED\000"
 5987      455F4552 
 5987      524F525F 
 5987      4E54465F 
 5987      44495341 
 5988              	.LASF52:
 5989 285c 4359424C 		.ascii	"CYBLE_EVT_GATTC_READ_RSP\000"
ARM GAS  C:\Users\mohammed\AppData\Local\Temp\cceuH2T0.s 			page 149


 5989      455F4556 
 5989      545F4741 
 5989      5454435F 
 5989      52454144 
 5990              	.LASF322:
 5991 2875 4359424C 		.ascii	"CYBLE_EVT_CPSC_INDICATION\000"
 5991      455F4556 
 5991      545F4350 
 5991      53435F49 
 5991      4E444943 
 5992              	.LASF122:
 5993 288f 4359424C 		.ascii	"CYBLE_GATT_ERR_INVALID_OFFSET\000"
 5993      455F4741 
 5993      54545F45 
 5993      52525F49 
 5993      4E56414C 
 5994              	.LASF348:
 5995 28ad 4359424C 		.ascii	"CYBLE_EVT_DISC_READ_CHAR_RESPONSE\000"
 5995      455F4556 
 5995      545F4449 
 5995      53435F52 
 5995      4541445F 
 5996              	.LASF72:
 5997 28cf 4359424C 		.ascii	"CYBLE_EVT_L2CAP_CBFC_CONN_CNF\000"
 5997      455F4556 
 5997      545F4C32 
 5997      4341505F 
 5997      43424643 
 5998              	.LASF181:
 5999 28ed 4359424C 		.ascii	"CYBLE_GATTS_ATT_GEN_VAL_LEN_T\000"
 5999      455F4741 
 5999      5454535F 
 5999      4154545F 
 5999      47454E5F 
 6000              	.LASF413:
 6001 290b 4359424C 		.ascii	"CYBLE_EVT_HTSC_READ_DESCR_RESPONSE\000"
 6001      455F4556 
 6001      545F4854 
 6001      53435F52 
 6001      4541445F 
 6002              	.LASF509:
 6003 292e 4359424C 		.ascii	"CYBLE_DEBUG_EVT_BLESS_INT\000"
 6003      455F4445 
 6003      4255475F 
 6003      4556545F 
 6003      424C4553 
 6004              	.LASF152:
 6005 2948 4359424C 		.ascii	"CYBLE_GATT_ERR_OUT_OF_RANGE\000"
 6005      455F4741 
 6005      54545F45 
 6005      52525F4F 
 6005      55545F4F 
 6006              	.LASF368:
 6007 2964 4359424C 		.ascii	"CYBLE_EVT_GLSS_WRITE_CHAR\000"
 6007      455F4556 
 6007      545F474C 
 6007      53535F57 
ARM GAS  C:\Users\mohammed\AppData\Local\Temp\cceuH2T0.s 			page 150


 6007      52495445 
 6008              	.LASF304:
 6009 297e 4359424C 		.ascii	"CYBLE_EVT_CGMSS_NOTIFICATION_ENABLED\000"
 6009      455F4556 
 6009      545F4347 
 6009      4D53535F 
 6009      4E4F5449 
 6010              	.LASF398:
 6011 29a3 4359424C 		.ascii	"CYBLE_EVT_HRSC_NOTIFICATION\000"
 6011      455F4556 
 6011      545F4852 
 6011      53435F4E 
 6011      4F544946 
 6012              	.LASF22:
 6013 29bf 4359424C 		.ascii	"CYBLE_EVT_MEMORY_REQUEST\000"
 6013      455F4556 
 6013      545F4D45 
 6013      4D4F5259 
 6013      5F524551 
 6014              	.LASF454:
 6015 29d8 4359424C 		.ascii	"CYBLE_EVT_RSCSS_INDICATION_CONFIRMATION\000"
 6015      455F4556 
 6015      545F5253 
 6015      4353535F 
 6015      494E4449 
 6016              	.LASF385:
 6017 2a00 4359424C 		.ascii	"CYBLE_EVT_HIDSC_READ_DESCR_RESPONSE\000"
 6017      455F4556 
 6017      545F4849 
 6017      4453435F 
 6017      52454144 
 6018              	.LASF399:
 6019 2a24 4359424C 		.ascii	"CYBLE_EVT_HRSC_READ_CHAR_RESPONSE\000"
 6019      455F4556 
 6019      545F4852 
 6019      53435F52 
 6019      4541445F 
 6020              	.LASF276:
 6021 2a46 4359424C 		.ascii	"CYBLE_EVT_BASC_NOTIFICATION\000"
 6021      455F4556 
 6021      545F4241 
 6021      53435F4E 
 6021      4F544946 
 6022              	.LASF32:
 6023 2a62 4359424C 		.ascii	"CYBLE_EVT_GAP_ENCRYPT_CHANGE\000"
 6023      455F4556 
 6023      545F4741 
 6023      505F454E 
 6023      43525950 
 6024              	.LASF441:
 6025 2a7f 4359424C 		.ascii	"CYBLE_EVT_NDCSC_READ_CHAR_RESPONSE\000"
 6025      455F4556 
 6025      545F4E44 
 6025      4353435F 
 6025      52454144 
 6026              	.LASF252:
 6027 2aa2 4359424C 		.ascii	"CYBLE_EVT_GATTC_DESCR_DUPLICATION\000"
ARM GAS  C:\Users\mohammed\AppData\Local\Temp\cceuH2T0.s 			page 151


 6027      455F4556 
 6027      545F4741 
 6027      5454435F 
 6027      44455343 
 6028              	.LASF46:
 6029 2ac4 4359424C 		.ascii	"CYBLE_EVT_GATTS_XCNHG_MTU_REQ\000"
 6029      455F4556 
 6029      545F4741 
 6029      5454535F 
 6029      58434E48 
 6030              	.LASF388:
 6031 2ae2 4359424C 		.ascii	"CYBLE_EVT_HPSS_NOTIFICATION_DISABLED\000"
 6031      455F4556 
 6031      545F4850 
 6031      53535F4E 
 6031      4F544946 
 6032              	.LASF532:
 6033 2b07 6C6F6343 		.ascii	"locCharIndex\000"
 6033      68617249 
 6033      6E646578 
 6033      00
 6034              	.LASF479:
 6035 2b14 4359424C 		.ascii	"CYBLE_EVT_UDSS_NOTIFICATION_ENABLED\000"
 6035      455F4556 
 6035      545F5544 
 6035      53535F4E 
 6035      4F544946 
 6036              	.LASF431:
 6037 2b38 4359424C 		.ascii	"CYBLE_EVT_LNSS_INDICATION_CONFIRMED\000"
 6037      455F4556 
 6037      545F4C4E 
 6037      53535F49 
 6037      4E444943 
 6038              	.LASF503:
 6039 2b5c 4359424C 		.ascii	"CYBLE_EVT_WSSS_INDICATION_DISABLED\000"
 6039      455F4556 
 6039      545F5753 
 6039      53535F49 
 6039      4E444943 
 6040              	.LASF273:
 6041 2b7f 4359424C 		.ascii	"CYBLE_EVT_ANSC_WRITE_DESCR_RESPONSE\000"
 6041      455F4556 
 6041      545F414E 
 6041      53435F57 
 6041      52495445 
 6042              	.LASF437:
 6043 2ba3 4359424C 		.ascii	"CYBLE_EVT_LNSC_READ_CHAR_RESPONSE\000"
 6043      455F4556 
 6043      545F4C4E 
 6043      53435F52 
 6043      4541445F 
 6044              	.LASF365:
 6045 2bc5 4359424C 		.ascii	"CYBLE_EVT_GLSS_INDICATION_CONFIRMED\000"
 6045      455F4556 
 6045      545F474C 
 6045      53535F49 
 6045      4E444943 
ARM GAS  C:\Users\mohammed\AppData\Local\Temp\cceuH2T0.s 			page 152


 6046              	.LASF515:
 6047 2be9 4359424C 		.ascii	"CYBLE_STATE_T\000"
 6047      455F5354 
 6047      4154455F 
 6047      5400
 6048              	.LASF243:
 6049 2bf7 4359424C 		.ascii	"CYBLE_EVT_GATTS_INDICATION_ENABLED\000"
 6049      455F4556 
 6049      545F4741 
 6049      5454535F 
 6049      494E4449 
 6050              	.LASF7:
 6051 2c1a 6C6F6E67 		.ascii	"long long unsigned int\000"
 6051      206C6F6E 
 6051      6720756E 
 6051      7369676E 
 6051      65642069 
 6052              	.LASF197:
 6053 2c31 4359424C 		.ascii	"CYBLE_UDS_EML\000"
 6053      455F5544 
 6053      535F454D 
 6053      4C00
 6054              	.LASF116:
 6055 2c3f 4359424C 		.ascii	"CYBLE_GATT_ERR_INVALID_HANDLE\000"
 6055      455F4741 
 6055      54545F45 
 6055      52525F49 
 6055      4E56414C 
 6056              	.LASF18:
 6057 2c5d 4359424C 		.ascii	"CYBLE_EVT_TIMEOUT\000"
 6057      455F4556 
 6057      545F5449 
 6057      4D454F55 
 6057      5400
 6058              	.LASF345:
 6059 2c6f 4359424C 		.ascii	"CYBLE_EVT_CTSC_READ_DESCR_RESPONSE\000"
 6059      455F4556 
 6059      545F4354 
 6059      53435F52 
 6059      4541445F 
 6060              	.LASF513:
 6061 2c92 4359424C 		.ascii	"CYBLE_STATE_ADVERTISING\000"
 6061      455F5354 
 6061      4154455F 
 6061      41445645 
 6061      52544953 
 6062              	.LASF236:
 6063 2caa 4359424C 		.ascii	"CYBLE_UDSS_T\000"
 6063      455F5544 
 6063      53535F54 
 6063      00
 6064              	.LASF139:
 6065 2cb7 4359424C 		.ascii	"CYBLE_GATT_ERR_MISSING_CRC\000"
 6065      455F4741 
 6065      54545F45 
 6065      52525F4D 
 6065      49535349 
ARM GAS  C:\Users\mohammed\AppData\Local\Temp\cceuH2T0.s 			page 153


 6066              	.LASF113:
 6067 2cd2 4359424C 		.ascii	"CYBLE_ERROR_INVALID_STATE\000"
 6067      455F4552 
 6067      524F525F 
 6067      494E5641 
 6067      4C49445F 
 6068              	.LASF154:
 6069 2cec 4359424C 		.ascii	"CYBLE_GATT_DB_ATTR_HANDLE_T\000"
 6069      455F4741 
 6069      54545F44 
 6069      425F4154 
 6069      54525F48 
 6070              	.LASF533:
 6071 2d08 4379426C 		.ascii	"CyBle_UdssReadRequestEventHandler\000"
 6071      655F5564 
 6071      73735265 
 6071      61645265 
 6071      71756573 
 6072              	.LASF75:
 6073 2d2a 4359424C 		.ascii	"CYBLE_EVT_L2CAP_CBFC_DATA_READ\000"
 6073      455F4556 
 6073      545F4C32 
 6073      4341505F 
 6073      43424643 
 6074              	.LASF115:
 6075 2d49 4359424C 		.ascii	"CYBLE_GATT_ERR_NONE\000"
 6075      455F4741 
 6075      54545F45 
 6075      52525F4E 
 6075      4F4E4500 
 6076              	.LASF160:
 6077 2d5d 76616C75 		.ascii	"value\000"
 6077      6500
 6078              	.LASF321:
 6079 2d63 4359424C 		.ascii	"CYBLE_EVT_CPSC_NOTIFICATION\000"
 6079      455F4556 
 6079      545F4350 
 6079      53435F4E 
 6079      4F544946 
 6080              	.LASF296:
 6081 2d7f 4359424C 		.ascii	"CYBLE_EVT_BLSC_WRITE_DESCR_RESPONSE\000"
 6081      455F4556 
 6081      545F424C 
 6081      53435F57 
 6081      52495445 
 6082              	.LASF192:
 6083 2da3 61747456 		.ascii	"attValue\000"
 6083      616C7565 
 6083      00
 6084              	.LASF436:
 6085 2dac 4359424C 		.ascii	"CYBLE_EVT_LNSC_NOTIFICATION\000"
 6085      455F4556 
 6085      545F4C4E 
 6085      53435F4E 
 6085      4F544946 
 6086              	.LASF343:
 6087 2dc8 4359424C 		.ascii	"CYBLE_EVT_CTSC_NOTIFICATION\000"
ARM GAS  C:\Users\mohammed\AppData\Local\Temp\cceuH2T0.s 			page 154


 6087      455F4556 
 6087      545F4354 
 6087      53435F4E 
 6087      4F544946 
 6088              	.LASF107:
 6089 2de4 4359424C 		.ascii	"CYBLE_ERROR_FLASH_WRITE\000"
 6089      455F4552 
 6089      524F525F 
 6089      464C4153 
 6089      485F5752 
 6090              	.LASF364:
 6091 2dfc 4359424C 		.ascii	"CYBLE_EVT_GLSS_INDICATION_DISABLED\000"
 6091      455F4556 
 6091      545F474C 
 6091      53535F49 
 6091      4E444943 
 6092              	.LASF204:
 6093 2e1f 4359424C 		.ascii	"CYBLE_UDS_HRM\000"
 6093      455F5544 
 6093      535F4852 
 6093      4D00
 6094              	.LASF136:
 6095 2e2d 4359424C 		.ascii	"CYBLE_GATT_ERR_HTS_OUT_OF_RANGE\000"
 6095      455F4741 
 6095      54545F45 
 6095      52525F48 
 6095      54535F4F 
 6096              	.LASF250:
 6097 2e4d 4359424C 		.ascii	"CYBLE_EVT_GATTC_SRVC_DUPLICATION\000"
 6097      455F4556 
 6097      545F4741 
 6097      5454435F 
 6097      53525643 
 6098              	.LASF206:
 6099 2e6e 4359424C 		.ascii	"CYBLE_UDS_MRH\000"
 6099      455F5544 
 6099      535F4D52 
 6099      4800
 6100              	.LASF429:
 6101 2e7c 4359424C 		.ascii	"CYBLE_EVT_LNSS_INDICATION_ENABLED\000"
 6101      455F4556 
 6101      545F4C4E 
 6101      53535F49 
 6101      4E444943 
 6102              	.LASF303:
 6103 2e9e 4359424C 		.ascii	"CYBLE_EVT_CGMSS_INDICATION_CONFIRMED\000"
 6103      455F4556 
 6103      545F4347 
 6103      4D53535F 
 6103      494E4449 
 6104              	.LASF550:
 6105 2ec3 474E5520 		.ascii	"GNU C 4.9.3 20150303 (release) [ARM/embedded-4_9-br"
 6105      4320342E 
 6105      392E3320 
 6105      32303135 
 6105      30333033 
 6106 2ef6 616E6368 		.ascii	"anch revision 221220] -mcpu=cortex-m0 -mthumb -g -O"
ARM GAS  C:\Users\mohammed\AppData\Local\Temp\cceuH2T0.s 			page 155


 6106      20726576 
 6106      6973696F 
 6106      6E203232 
 6106      31323230 
 6107 2f29 30202D66 		.ascii	"0 -ffunction-sections -ffat-lto-objects\000"
 6107      66756E63 
 6107      74696F6E 
 6107      2D736563 
 6107      74696F6E 
 6108              	.LASF258:
 6109 2f51 4359424C 		.ascii	"CYBLE_EVT_ANCSS_NOTIFICATION_DISABLED\000"
 6109      455F4556 
 6109      545F414E 
 6109      4353535F 
 6109      4E4F5449 
 6110              	.LASF168:
 6111 2f77 636F6E6E 		.ascii	"connHandle\000"
 6111      48616E64 
 6111      6C6500
 6112              	.LASF179:
 6113 2f82 61637475 		.ascii	"actualLength\000"
 6113      616C4C65 
 6113      6E677468 
 6113      00
 6114              	.LASF175:
 6115 2f8f 4359424C 		.ascii	"CYBLE_GATTS_EXEC_WRITE_REQ_T\000"
 6115      455F4741 
 6115      5454535F 
 6115      45584543 
 6115      5F575249 
 6116              	.LASF313:
 6117 2fac 4359424C 		.ascii	"CYBLE_EVT_CPSS_NOTIFICATION_ENABLED\000"
 6117      455F4556 
 6117      545F4350 
 6117      53535F4E 
 6117      4F544946 
 6118              	.LASF220:
 6119 2fd0 4359424C 		.ascii	"CYBLE_UDS_3ZL\000"
 6119      455F5544 
 6119      535F335A 
 6119      4C00
 6120              	.LASF474:
 6121 2fde 4359424C 		.ascii	"CYBLE_EVT_TPSC_READ_DESCR_RESPONSE\000"
 6121      455F4556 
 6121      545F5450 
 6121      53435F52 
 6121      4541445F 
 6122              	.LASF489:
 6123 3001 4359424C 		.ascii	"CYBLE_EVT_UDSC_ERROR_RESPONSE\000"
 6123      455F4556 
 6123      545F5544 
 6123      53435F45 
 6123      52524F52 
 6124              	.LASF50:
 6125 301f 4359424C 		.ascii	"CYBLE_EVT_GATTC_FIND_INFO_RSP\000"
 6125      455F4556 
 6125      545F4741 
ARM GAS  C:\Users\mohammed\AppData\Local\Temp\cceuH2T0.s 			page 156


 6125      5454435F 
 6125      46494E44 
 6126              	.LASF49:
 6127 303d 4359424C 		.ascii	"CYBLE_EVT_GATTC_READ_BY_TYPE_RSP\000"
 6127      455F4556 
 6127      545F4741 
 6127      5454435F 
 6127      52454144 
 6128              	.LASF443:
 6129 305e 4359424C 		.ascii	"CYBLE_EVT_PASSS_NOTIFICATION_DISABLED\000"
 6129      455F4556 
 6129      545F5041 
 6129      5353535F 
 6129      4E4F5449 
 6130              	.LASF311:
 6131 3084 4359424C 		.ascii	"CYBLE_EVT_CGMSC_READ_DESCR_RESPONSE\000"
 6131      455F4556 
 6131      545F4347 
 6131      4D53435F 
 6131      52454144 
 6132              	.LASF383:
 6133 30a8 4359424C 		.ascii	"CYBLE_EVT_HIDSC_READ_CHAR_RESPONSE\000"
 6133      455F4556 
 6133      545F4849 
 6133      4453435F 
 6133      52454144 
 6134              	.LASF141:
 6135 30cb 4359424C 		.ascii	"CYBLE_GATTS_ERR_OPERATION_FAILED\000"
 6135      455F4741 
 6135      5454535F 
 6135      4552525F 
 6135      4F504552 
 6136              	.LASF519:
 6137 30ec 61706952 		.ascii	"apiResult\000"
 6137      6573756C 
 6137      7400
 6138              	.LASF549:
 6139 30f6 6379426C 		.ascii	"cyBle_state\000"
 6139      655F7374 
 6139      61746500 
 6140              	.LASF471:
 6141 3102 4359424C 		.ascii	"CYBLE_EVT_TPSS_NOTIFICATION_DISABLED\000"
 6141      455F4556 
 6141      545F5450 
 6141      53535F4E 
 6141      4F544946 
 6142              	.LASF468:
 6143 3127 4359424C 		.ascii	"CYBLE_EVT_SCPSC_READ_DESCR_RESPONSE\000"
 6143      455F4556 
 6143      545F5343 
 6143      5053435F 
 6143      52454144 
 6144              	.LASF402:
 6145 314b 4359424C 		.ascii	"CYBLE_EVT_HRSC_WRITE_DESCR_RESPONSE\000"
 6145      455F4556 
 6145      545F4852 
 6145      53435F57 
ARM GAS  C:\Users\mohammed\AppData\Local\Temp\cceuH2T0.s 			page 157


 6145      52495445 
 6146              	.LASF434:
 6147 316f 4359424C 		.ascii	"CYBLE_EVT_LNSS_WRITE_CHAR\000"
 6147      455F4556 
 6147      545F4C4E 
 6147      53535F57 
 6147      52495445 
 6148              	.LASF163:
 6149 3189 68616E64 		.ascii	"handleValuePair\000"
 6149      6C655661 
 6149      6C756550 
 6149      61697200 
 6150              	.LASF354:
 6151 3199 4359424C 		.ascii	"CYBLE_EVT_ESSS_CHAR_WRITE\000"
 6151      455F4556 
 6151      545F4553 
 6151      53535F43 
 6151      4841525F 
 6152              	.LASF56:
 6153 31b3 4359424C 		.ascii	"CYBLE_EVT_GATTC_WRITE_RSP\000"
 6153      455F4556 
 6153      545F4741 
 6153      5454435F 
 6153      57524954 
 6154              	.LASF349:
 6155 31cd 4359424C 		.ascii	"CYBLE_EVT_ESSS_NOTIFICATION_ENABLED\000"
 6155      455F4556 
 6155      545F4553 
 6155      53535F4E 
 6155      4F544946 
 6156              	.LASF418:
 6157 31f1 4359424C 		.ascii	"CYBLE_EVT_IPSS_WRITE_CHAR_CMD\000"
 6157      455F4556 
 6157      545F4950 
 6157      53535F57 
 6157      52495445 
 6158              	.LASF187:
 6159 320f 4359424C 		.ascii	"CYBLE_GATTS_ATT_VALUE_T\000"
 6159      455F4741 
 6159      5454535F 
 6159      4154545F 
 6159      56414C55 
 6160              	.LASF456:
 6161 3227 4359424C 		.ascii	"CYBLE_EVT_RSCSC_NOTIFICATION\000"
 6161      455F4556 
 6161      545F5253 
 6161      4353435F 
 6161      4E4F5449 
 6162              	.LASF184:
 6163 3244 4359424C 		.ascii	"CYBLE_GATTS_ATT_PACK_VAL_LEN_T\000"
 6163      455F4741 
 6163      5454535F 
 6163      4154545F 
 6163      5041434B 
 6164              	.LASF29:
 6165 3263 4359424C 		.ascii	"CYBLE_EVT_GAPP_ADVERTISEMENT_START_STOP\000"
 6165      455F4556 
ARM GAS  C:\Users\mohammed\AppData\Local\Temp\cceuH2T0.s 			page 158


 6165      545F4741 
 6165      50505F41 
 6165      44564552 
 6166              	.LASF289:
 6167 328b 4359424C 		.ascii	"CYBLE_EVT_BLSS_INDICATION_CONFIRMED\000"
 6167      455F4556 
 6167      545F424C 
 6167      53535F49 
 6167      4E444943 
 6168              	.LASF500:
 6169 32af 4359424C 		.ascii	"CYBLE_EVT_WPTSC_READ_DESCR_RESPONSE\000"
 6169      455F4556 
 6169      545F5750 
 6169      5453435F 
 6169      52454144 
 6170              	.LASF213:
 6171 32d3 4359424C 		.ascii	"CYBLE_UDS_FBL\000"
 6171      455F5544 
 6171      535F4642 
 6171      4C00
 6172              	.LASF180:
 6173 32e1 61747447 		.ascii	"attGenericVal\000"
 6173      656E6572 
 6173      69635661 
 6173      6C00
 6174              	.LASF231:
 6175 32ef 63686172 		.ascii	"charHandle\000"
 6175      48616E64 
 6175      6C6500
 6176              	.LASF214:
 6177 32fa 4359424C 		.ascii	"CYBLE_UDS_FBU\000"
 6177      455F5544 
 6177      535F4642 
 6177      5500
 6178              	.LASF310:
 6179 3308 4359424C 		.ascii	"CYBLE_EVT_CGMSC_WRITE_CHAR_RESPONSE\000"
 6179      455F4556 
 6179      545F4347 
 6179      4D53435F 
 6179      57524954 
 6180              	.LASF522:
 6181 332c 4379426C 		.ascii	"CyBle_UdssGetCharacteristicValue\000"
 6181      655F5564 
 6181      73734765 
 6181      74436861 
 6181      72616374 
 6182              	.LASF9:
 6183 334d 75696E74 		.ascii	"uint8\000"
 6183      3800
 6184              	.LASF411:
 6185 3353 4359424C 		.ascii	"CYBLE_EVT_HTSC_READ_CHAR_RESPONSE\000"
 6185      455F4556 
 6185      545F4854 
 6185      53435F52 
 6185      4541445F 
 6186              	.LASF37:
 6187 3375 4359424C 		.ascii	"CYBLE_EVT_GAP_KEYPRESS_NOTIFICATION\000"
ARM GAS  C:\Users\mohammed\AppData\Local\Temp\cceuH2T0.s 			page 159


 6187      455F4556 
 6187      545F4741 
 6187      505F4B45 
 6187      59505245 
 6188              	.LASF449:
 6189 3399 4359424C 		.ascii	"CYBLE_EVT_PASSC_WRITE_DESCR_RESPONSE\000"
 6189      455F4556 
 6189      545F5041 
 6189      5353435F 
 6189      57524954 
 6190              	.LASF2:
 6191 33be 73686F72 		.ascii	"short int\000"
 6191      7420696E 
 6191      7400
 6192              	.LASF199:
 6193 33c8 4359424C 		.ascii	"CYBLE_UDS_DOB\000"
 6193      455F5544 
 6193      535F444F 
 6193      4200
 6194              	.LASF176:
 6195 33d6 68616E64 		.ascii	"handleValPair\000"
 6195      6C655661 
 6195      6C506169 
 6195      7200
 6196              	.LASF297:
 6197 33e4 4359424C 		.ascii	"CYBLE_EVT_BMSS_WRITE_CHAR\000"
 6197      455F4556 
 6197      545F424D 
 6197      53535F57 
 6197      52495445 
 6198              	.LASF183:
 6199 33fe 61747447 		.ascii	"attGenericValLen\000"
 6199      656E6572 
 6199      69635661 
 6199      6C4C656E 
 6199      00
 6200              	.LASF185:
 6201 340f 61747446 		.ascii	"attFormatValue\000"
 6201      6F726D61 
 6201      7456616C 
 6201      756500
 6202              	.LASF529:
 6203 341e 4379426C 		.ascii	"CyBle_UdsRegisterAttrCallback\000"
 6203      655F5564 
 6203      73526567 
 6203      69737465 
 6203      72417474 
 6204              	.LASF105:
 6205 343c 4359424C 		.ascii	"CYBLE_ERROR_HARDWARE_FAILURE\000"
 6205      455F4552 
 6205      524F525F 
 6205      48415244 
 6205      57415245 
 6206              	.LASF135:
 6207 3459 4359424C 		.ascii	"CYBLE_GATT_ERR_CPS_INAPPROPRIATE_CONNECTION_PARAMET"
 6207      455F4741 
 6207      54545F45 
ARM GAS  C:\Users\mohammed\AppData\Local\Temp\cceuH2T0.s 			page 160


 6207      52525F43 
 6207      50535F49 
 6208 348c 45525300 		.ascii	"ERS\000"
 6209              	.LASF308:
 6210 3490 4359424C 		.ascii	"CYBLE_EVT_CGMSC_NOTIFICATION\000"
 6210      455F4556 
 6210      545F4347 
 6210      4D53435F 
 6210      4E4F5449 
 6211              	.LASF121:
 6212 34ad 4359424C 		.ascii	"CYBLE_GATT_ERR_REQUEST_NOT_SUPPORTED\000"
 6212      455F4741 
 6212      54545F45 
 6212      52525F52 
 6212      45515545 
 6213              	.LASF43:
 6214 34d2 4359424C 		.ascii	"CYBLE_EVT_GATTC_ERROR_RSP\000"
 6214      455F4556 
 6214      545F4741 
 6214      5454435F 
 6214      4552524F 
 6215              	.LASF360:
 6216 34ec 4359424C 		.ascii	"CYBLE_EVT_ESSC_WRITE_CHAR_RESPONSE\000"
 6216      455F4556 
 6216      545F4553 
 6216      53435F57 
 6216      52495445 
 6217              	.LASF265:
 6218 350f 4359424C 		.ascii	"CYBLE_EVT_ANCSC_ERROR_RESPONSE\000"
 6218      455F4556 
 6218      545F414E 
 6218      4353435F 
 6218      4552524F 
 6219              	.LASF279:
 6220 352e 4359424C 		.ascii	"CYBLE_EVT_BASC_WRITE_DESCR_RESPONSE\000"
 6220      455F4556 
 6220      545F4241 
 6220      53435F57 
 6220      52495445 
 6221              	.LASF246:
 6222 3552 4359424C 		.ascii	"CYBLE_EVT_GATTC_SRVC_DISCOVERY_FAILED\000"
 6222      455F4556 
 6222      545F4741 
 6222      5454435F 
 6222      53525643 
 6223              	.LASF363:
 6224 3578 4359424C 		.ascii	"CYBLE_EVT_GLSS_INDICATION_ENABLED\000"
 6224      455F4556 
 6224      545F474C 
 6224      53535F49 
 6224      4E444943 
 6225              	.LASF268:
 6226 359a 4359424C 		.ascii	"CYBLE_EVT_ANSS_CHAR_WRITE\000"
 6226      455F4556 
 6226      545F414E 
 6226      53535F43 
 6226      4841525F 
ARM GAS  C:\Users\mohammed\AppData\Local\Temp\cceuH2T0.s 			page 161


 6227              	.LASF71:
 6228 35b4 4359424C 		.ascii	"CYBLE_EVT_L2CAP_CBFC_CONN_IND\000"
 6228      455F4556 
 6228      545F4C32 
 6228      4341505F 
 6228      43424643 
 6229              	.LASF59:
 6230 35d2 4359424C 		.ascii	"CYBLE_EVT_GATTS_EXEC_WRITE_REQ\000"
 6230      455F4556 
 6230      545F4741 
 6230      5454535F 
 6230      45584543 
 6231              	.LASF23:
 6232 35f1 4359424C 		.ascii	"CYBLE_EVT_GAPC_SCAN_PROGRESS_RESULT\000"
 6232      455F4556 
 6232      545F4741 
 6232      50435F53 
 6232      43414E5F 
 6233              	.LASF392:
 6234 3615 4359424C 		.ascii	"CYBLE_EVT_HPSC_READ_DESCR_RESPONSE\000"
 6234      455F4556 
 6234      545F4850 
 6234      53435F52 
 6234      4541445F 
 6235              	.LASF342:
 6236 3638 4359424C 		.ascii	"CYBLE_EVT_CTSS_CHAR_WRITE\000"
 6236      455F4556 
 6236      545F4354 
 6236      53535F43 
 6236      4841525F 
 6237              	.LASF476:
 6238 3652 4359424C 		.ascii	"CYBLE_EVT_UDSS_INDICATION_ENABLED\000"
 6238      455F4556 
 6238      545F5544 
 6238      53535F49 
 6238      4E444943 
 6239              	.LASF544:
 6240 3674 6379426C 		.ascii	"cyBle_udssReqHandle\000"
 6240      655F7564 
 6240      73735265 
 6240      7148616E 
 6240      646C6500 
 6241              	.LASF390:
 6242 3688 4359424C 		.ascii	"CYBLE_EVT_HPSC_NOTIFICATION\000"
 6242      455F4556 
 6242      545F4850 
 6242      53435F4E 
 6242      4F544946 
 6243              	.LASF153:
 6244 36a4 4359424C 		.ascii	"CYBLE_GATT_ERR_CODE_T\000"
 6244      455F4741 
 6244      54545F45 
 6244      52525F43 
 6244      4F44455F 
 6245              	.LASF148:
 6246 36ba 4359424C 		.ascii	"CYBLE_GATT_ERR_ANCS_INVALID_PARAMETER\000"
 6246      455F4741 
ARM GAS  C:\Users\mohammed\AppData\Local\Temp\cceuH2T0.s 			page 162


 6246      54545F45 
 6246      52525F41 
 6246      4E43535F 
 6247              	.LASF224:
 6248 36e0 4359424C 		.ascii	"CYBLE_UDS_UCP\000"
 6248      455F5544 
 6248      535F5543 
 6248      5000
 6249              	.LASF91:
 6250 36ee 4359424C 		.ascii	"CYBLE_ERROR_GAP_ROLE\000"
 6250      455F4552 
 6250      524F525F 
 6250      4741505F 
 6250      524F4C45 
 6251              	.LASF405:
 6252 3703 4359424C 		.ascii	"CYBLE_EVT_HTSS_INDICATION_ENABLED\000"
 6252      455F4556 
 6252      545F4854 
 6252      53535F49 
 6252      4E444943 
 6253              	.LASF228:
 6254 3725 4359424C 		.ascii	"CYBLE_UDS_CCCD\000"
 6254      455F5544 
 6254      535F4343 
 6254      434400
 6255              	.LASF487:
 6256 3734 4359424C 		.ascii	"CYBLE_EVT_UDSC_READ_DESCR_RESPONSE\000"
 6256      455F4556 
 6256      545F5544 
 6256      53435F52 
 6256      4541445F 
 6257              	.LASF277:
 6258 3757 4359424C 		.ascii	"CYBLE_EVT_BASC_READ_CHAR_RESPONSE\000"
 6258      455F4556 
 6258      545F4241 
 6258      53435F52 
 6258      4541445F 
 6259              	.LASF370:
 6260 3779 4359424C 		.ascii	"CYBLE_EVT_GLSC_NOTIFICATION\000"
 6260      455F4556 
 6260      545F474C 
 6260      53435F4E 
 6260      4F544946 
 6261              	.LASF145:
 6262 3795 4359424C 		.ascii	"CYBLE_GATT_ERR_ANS_COMMAND_NOT_SUPPORTED\000"
 6262      455F4741 
 6262      54545F45 
 6262      52525F41 
 6262      4E535F43 
 6263              	.LASF466:
 6264 37be 4359424C 		.ascii	"CYBLE_EVT_SCPSS_SCAN_INT_WIN_CHAR_WRITE\000"
 6264      455F4556 
 6264      545F5343 
 6264      5053535F 
 6264      5343414E 
 6265              	.LASF545:
 6266 37e6 6379426C 		.ascii	"cyBle_eventHandlerFlag\000"
ARM GAS  C:\Users\mohammed\AppData\Local\Temp\cceuH2T0.s 			page 163


 6266      655F6576 
 6266      656E7448 
 6266      616E646C 
 6266      6572466C 
 6267              	.LASF235:
 6268 37fd 63686172 		.ascii	"charInfo\000"
 6268      496E666F 
 6268      00
 6269              	.LASF88:
 6270 3806 4359424C 		.ascii	"CYBLE_ERROR_NO_CONNECTION\000"
 6270      455F4552 
 6270      524F525F 
 6270      4E4F5F43 
 6270      4F4E4E45 
 6271              	.LASF331:
 6272 3820 4359424C 		.ascii	"CYBLE_EVT_CSCSS_INDICATION_DISABLED\000"
 6272      455F4556 
 6272      545F4353 
 6272      4353535F 
 6272      494E4449 
 6273              	.LASF526:
 6274 3844 6E746650 		.ascii	"ntfParam\000"
 6274      6172616D 
 6274      00
 6275              	.LASF170:
 6276 384d 63757272 		.ascii	"currentPrepWriteReqCount\000"
 6276      656E7450 
 6276      72657057 
 6276      72697465 
 6276      52657143 
 6277              	.LASF539:
 6278 3866 6C6F634D 		.ascii	"locMtu\000"
 6278      747500
 6279              	.LASF300:
 6280 386d 4359424C 		.ascii	"CYBLE_EVT_BMSC_READ_DESCR_RESPONSE\000"
 6280      455F4556 
 6280      545F424D 
 6280      53435F52 
 6280      4541445F 
 6281              	.LASF80:
 6282 3890 4359424C 		.ascii	"CYBLE_EVT_LE_PING_AUTH_TIMEOUT\000"
 6282      455F4556 
 6282      545F4C45 
 6282      5F50494E 
 6282      475F4155 
 6283              	.LASF114:
 6284 38af 4359424C 		.ascii	"CYBLE_API_RESULT_T\000"
 6284      455F4150 
 6284      495F5245 
 6284      53554C54 
 6284      5F5400
 6285              	.LASF302:
 6286 38c2 4359424C 		.ascii	"CYBLE_EVT_CGMSS_INDICATION_DISABLED\000"
 6286      455F4556 
 6286      545F4347 
 6286      4D53535F 
 6286      494E4449 
ARM GAS  C:\Users\mohammed\AppData\Local\Temp\cceuH2T0.s 			page 164


 6287              	.LASF215:
 6288 38e6 4359424C 		.ascii	"CYBLE_UDS_AEL\000"
 6288      455F5544 
 6288      535F4145 
 6288      4C00
 6289              	.LASF256:
 6290 38f4 4359424C 		.ascii	"CYBLE_EVT_GATTC_DISCOVERY_COMPLETE\000"
 6290      455F4556 
 6290      545F4741 
 6290      5454435F 
 6290      44495343 
 6291              	.LASF306:
 6292 3917 4359424C 		.ascii	"CYBLE_EVT_CGMSS_WRITE_CHAR\000"
 6292      455F4556 
 6292      545F4347 
 6292      4D53535F 
 6292      57524954 
 6293              	.LASF207:
 6294 3932 4359424C 		.ascii	"CYBLE_UDS_AET\000"
 6294      455F5544 
 6294      535F4145 
 6294      5400
 6295              	.LASF216:
 6296 3940 4359424C 		.ascii	"CYBLE_UDS_AEU\000"
 6296      455F5544 
 6296      535F4145 
 6296      5500
 6297              	.LASF62:
 6298 394e 4359424C 		.ascii	"CYBLE_EVT_GATTC_HANDLE_VALUE_IND\000"
 6298      455F4556 
 6298      545F4741 
 6298      5454435F 
 6298      48414E44 
 6299              	.LASF327:
 6300 396f 4359424C 		.ascii	"CYBLE_EVT_CPSC_SCAN_PROGRESS_RESULT\000"
 6300      455F4556 
 6300      545F4350 
 6300      53435F53 
 6300      43414E5F 
 6301              	.LASF460:
 6302 3993 4359424C 		.ascii	"CYBLE_EVT_RSCSC_READ_DESCR_RESPONSE\000"
 6302      455F4556 
 6302      545F5253 
 6302      4353435F 
 6302      52454144 
 6303              	.LASF537:
 6304 39b7 6576656E 		.ascii	"eventCode\000"
 6304      74436F64 
 6304      6500
 6305              	.LASF94:
 6306 39c1 4359424C 		.ascii	"CYBLE_ERROR_SEC_FAILED\000"
 6306      455F4552 
 6306      524F525F 
 6306      5345435F 
 6306      4641494C 
 6307              	.LASF21:
 6308 39d8 4359424C 		.ascii	"CYBLE_EVT_STACK_BUSY_STATUS\000"
ARM GAS  C:\Users\mohammed\AppData\Local\Temp\cceuH2T0.s 			page 165


 6308      455F4556 
 6308      545F5354 
 6308      41434B5F 
 6308      42555359 
 6309              	.LASF424:
 6310 39f4 4359424C 		.ascii	"CYBLE_EVT_IPSC_ERROR_RESPONSE\000"
 6310      455F4556 
 6310      545F4950 
 6310      53435F45 
 6310      52524F52 
 6311              	.LASF414:
 6312 3a12 4359424C 		.ascii	"CYBLE_EVT_HTSC_WRITE_DESCR_RESPONSE\000"
 6312      455F4556 
 6312      545F4854 
 6312      53435F57 
 6312      52495445 
 6313              	.LASF35:
 6314 3a36 4359424C 		.ascii	"CYBLE_EVT_GAP_KEYINFO_EXCHNGE_CMPLT\000"
 6314      455F4556 
 6314      545F4741 
 6314      505F4B45 
 6314      59494E46 
 6315              	.LASF492:
 6316 3a5a 4359424C 		.ascii	"CYBLE_EVT_WPTSS_INDICATION_ENABLED\000"
 6316      455F4556 
 6316      545F5750 
 6316      5453535F 
 6316      494E4449 
 6317              	.LASF501:
 6318 3a7d 4359424C 		.ascii	"CYBLE_EVT_WPTSC_WRITE_DESCR_RESPONSE\000"
 6318      455F4556 
 6318      545F5750 
 6318      5453435F 
 6318      57524954 
 6319              	.LASF227:
 6320 3aa2 4359424C 		.ascii	"CYBLE_UDS_CHAR_INDEX_T\000"
 6320      455F5544 
 6320      535F4348 
 6320      41525F49 
 6320      4E444558 
 6321              	.LASF551:
 6322 3ab9 2E5C4765 		.ascii	".\\Generated_Source\\PSoC4\\CYBLE_uds.c\000"
 6322      6E657261 
 6322      7465645F 
 6322      536F7572 
 6322      63655C50 
 6323              	.LASF305:
 6324 3ade 4359424C 		.ascii	"CYBLE_EVT_CGMSS_NOTIFICATION_DISABLED\000"
 6324      455F4556 
 6324      545F4347 
 6324      4D53535F 
 6324      4E4F5449 
 6325              	.LASF536:
 6326 3b04 67617474 		.ascii	"gattErr\000"
 6326      45727200 
 6327              	.LASF247:
 6328 3b0c 4359424C 		.ascii	"CYBLE_EVT_GATTC_INCL_DISCOVERY_FAILED\000"
ARM GAS  C:\Users\mohammed\AppData\Local\Temp\cceuH2T0.s 			page 166


 6328      455F4556 
 6328      545F4741 
 6328      5454435F 
 6328      494E434C 
 6329              	.LASF118:
 6330 3b32 4359424C 		.ascii	"CYBLE_GATT_ERR_WRITE_NOT_PERMITTED\000"
 6330      455F4741 
 6330      54545F45 
 6330      52525F57 
 6330      52495445 
 6331              	.LASF244:
 6332 3b55 4359424C 		.ascii	"CYBLE_EVT_GATTS_INDICATION_DISABLED\000"
 6332      455F4556 
 6332      545F4741 
 6332      5454535F 
 6332      494E4449 
 6333              	.LASF3:
 6334 3b79 73686F72 		.ascii	"short unsigned int\000"
 6334      7420756E 
 6334      7369676E 
 6334      65642069 
 6334      6E7400
 6335              	.LASF130:
 6336 3b8c 4359424C 		.ascii	"CYBLE_GATT_ERR_INSUFFICIENT_ENCRYPTION\000"
 6336      455F4741 
 6336      54545F45 
 6336      52525F49 
 6336      4E535546 
 6337              	.LASF439:
 6338 3bb3 4359424C 		.ascii	"CYBLE_EVT_LNSC_READ_DESCR_RESPONSE\000"
 6338      455F4556 
 6338      545F4C4E 
 6338      53435F52 
 6338      4541445F 
 6339              	.LASF512:
 6340 3bd6 4359424C 		.ascii	"CYBLE_STATE_CONNECTED\000"
 6340      455F5354 
 6340      4154455F 
 6340      434F4E4E 
 6340      45435445 
 6341              	.LASF275:
 6342 3bec 4359424C 		.ascii	"CYBLE_EVT_BASS_NOTIFICATION_DISABLED\000"
 6342      455F4556 
 6342      545F4241 
 6342      53535F4E 
 6342      4F544946 
 6343              	.LASF158:
 6344 3c11 61637475 		.ascii	"actualLen\000"
 6344      616C4C65 
 6344      6E00
 6345              	.LASF259:
 6346 3c1b 4359424C 		.ascii	"CYBLE_EVT_ANCSS_WRITE_CHAR\000"
 6346      455F4556 
 6346      545F414E 
 6346      4353535F 
 6346      57524954 
 6347              	.LASF198:
ARM GAS  C:\Users\mohammed\AppData\Local\Temp\cceuH2T0.s 			page 167


 6348 3c36 4359424C 		.ascii	"CYBLE_UDS_AGE\000"
 6348      455F5544 
 6348      535F4147 
 6348      4500
 6349              	.LASF369:
 6350 3c44 4359424C 		.ascii	"CYBLE_EVT_GLSC_INDICATION\000"
 6350      455F4556 
 6350      545F474C 
 6350      53435F49 
 6350      4E444943 
 6351              	.LASF319:
 6352 3c5e 4359424C 		.ascii	"CYBLE_EVT_CPSS_BROADCAST_DISABLED\000"
 6352      455F4556 
 6352      545F4350 
 6352      53535F42 
 6352      524F4144 
 6353              	.LASF156:
 6354 3c80 61747449 		.ascii	"attId\000"
 6354      6400
 6355              	.LASF84:
 6356 3c86 4359424C 		.ascii	"CYBLE_ERROR_INVALID_OPERATION\000"
 6356      455F4552 
 6356      524F525F 
 6356      494E5641 
 6356      4C49445F 
 6357              	.LASF20:
 6358 3ca4 4359424C 		.ascii	"CYBLE_EVT_HCI_STATUS\000"
 6358      455F4556 
 6358      545F4843 
 6358      495F5354 
 6358      41545553 
 6359              	.LASF45:
 6360 3cb9 4359424C 		.ascii	"CYBLE_EVT_GATT_DISCONNECT_IND\000"
 6360      455F4556 
 6360      545F4741 
 6360      54545F44 
 6360      4953434F 
 6361              	.LASF242:
 6362 3cd7 4359424C 		.ascii	"CYBLE_KEY_EXCHANGE_INFO_REQUEST_REPLY\000"
 6362      455F4B45 
 6362      595F4558 
 6362      4348414E 
 6362      47455F49 
 6363              	.LASF78:
 6364 3cfd 4359424C 		.ascii	"CYBLE_EVT_L2CAP_CBFC_DATA_WRITE_IND\000"
 6364      455F4556 
 6364      545F4C32 
 6364      4341505F 
 6364      43424643 
 6365              	.LASF240:
 6366 3d21 4359424C 		.ascii	"CYBLE_PASSKEY_ENTRY_REQUEST_REPLY\000"
 6366      455F5041 
 6366      53534B45 
 6366      595F454E 
 6366      5452595F 
 6367              	.LASF286:
 6368 3d43 4359424C 		.ascii	"CYBLE_EVT_BCSC_WRITE_DESCR_RESPONSE\000"
ARM GAS  C:\Users\mohammed\AppData\Local\Temp\cceuH2T0.s 			page 168


 6368      455F4556 
 6368      545F4243 
 6368      53435F57 
 6368      52495445 
 6369              	.LASF506:
 6370 3d67 4359424C 		.ascii	"CYBLE_EVT_WSSC_READ_CHAR_RESPONSE\000"
 6370      455F4556 
 6370      545F5753 
 6370      53435F52 
 6370      4541445F 
 6371              	.LASF67:
 6372 3d89 4359424C 		.ascii	"CYBLE_EVT_GATTC_LONG_PROCEDURE_END\000"
 6372      455F4556 
 6372      545F4741 
 6372      5454435F 
 6372      4C4F4E47 
 6373              	.LASF269:
 6374 3dac 4359424C 		.ascii	"CYBLE_EVT_ANSC_NOTIFICATION\000"
 6374      455F4556 
 6374      545F414E 
 6374      53435F4E 
 6374      4F544946 
 6375              	.LASF31:
 6376 3dc8 4359424C 		.ascii	"CYBLE_EVT_GAP_DEVICE_DISCONNECTED\000"
 6376      455F4556 
 6376      545F4741 
 6376      505F4445 
 6376      56494345 
 6377              	.LASF377:
 6378 3dea 4359424C 		.ascii	"CYBLE_EVT_HIDSS_BOOT_MODE_ENTER\000"
 6378      455F4556 
 6378      545F4849 
 6378      4453535F 
 6378      424F4F54 
 6379              	.LASF63:
 6380 3e0a 4359424C 		.ascii	"CYBLE_EVT_GATTS_HANDLE_VALUE_CNF\000"
 6380      455F4556 
 6380      545F4741 
 6380      5454535F 
 6380      48414E44 
 6381              	.LASF210:
 6382 3e2b 4359424C 		.ascii	"CYBLE_UDS_DTA\000"
 6382      455F5544 
 6382      535F4454 
 6382      4100
 6383              	.LASF338:
 6384 3e39 4359424C 		.ascii	"CYBLE_EVT_CSCSC_READ_DESCR_RESPONSE\000"
 6384      455F4556 
 6384      545F4353 
 6384      4353435F 
 6384      52454144 
 6385              	.LASF10:
 6386 3e5d 75696E74 		.ascii	"uint16\000"
 6386      313600
 6387              	.LASF262:
 6388 3e64 4359424C 		.ascii	"CYBLE_EVT_ANCSC_WRITE_CHAR_RESPONSE\000"
 6388      455F4556 
ARM GAS  C:\Users\mohammed\AppData\Local\Temp\cceuH2T0.s 			page 169


 6388      545F414E 
 6388      4353435F 
 6388      57524954 
 6389              	.LASF541:
 6390 3e88 6C6F6343 		.ascii	"locCount\000"
 6390      6F756E74 
 6390      00
 6391              	.LASF92:
 6392 3e91 4359424C 		.ascii	"CYBLE_ERROR_TX_POWER_READ\000"
 6392      455F4552 
 6392      524F525F 
 6392      54585F50 
 6392      4F574552 
 6393              	.LASF450:
 6394 3eab 4359424C 		.ascii	"CYBLE_EVT_RSCSS_NOTIFICATION_ENABLED\000"
 6394      455F4556 
 6394      545F5253 
 6394      4353535F 
 6394      4E4F5449 
 6395              	.LASF267:
 6396 3ed0 4359424C 		.ascii	"CYBLE_EVT_ANSS_NOTIFICATION_DISABLED\000"
 6396      455F4556 
 6396      545F414E 
 6396      53535F4E 
 6396      4F544946 
 6397              	.LASF410:
 6398 3ef5 4359424C 		.ascii	"CYBLE_EVT_HTSC_INDICATION\000"
 6398      455F4556 
 6398      545F4854 
 6398      53435F49 
 6398      4E444943 
 6399              	.LASF375:
 6400 3f0f 4359424C 		.ascii	"CYBLE_EVT_HIDSS_NOTIFICATION_ENABLED\000"
 6400      455F4556 
 6400      545F4849 
 6400      4453535F 
 6400      4E4F5449 
 6401              	.LASF407:
 6402 3f34 4359424C 		.ascii	"CYBLE_EVT_HTSS_INDICATION_CONFIRMED\000"
 6402      455F4556 
 6402      545F4854 
 6402      53535F49 
 6402      4E444943 
 6403              	.LASF494:
 6404 3f58 4359424C 		.ascii	"CYBLE_EVT_WPTSS_INDICATION_CONFIRMED\000"
 6404      455F4556 
 6404      545F5750 
 6404      5453535F 
 6404      494E4449 
 6405              	.LASF397:
 6406 3f7d 4359424C 		.ascii	"CYBLE_EVT_HRSS_NOTIFICATION_DISABLED\000"
 6406      455F4556 
 6406      545F4852 
 6406      53535F4E 
 6406      4F544946 
 6407              		.ident	"GCC: (GNU Tools for ARM Embedded Processors) 4.9.3 20150303 (release) [ARM/embedded-4_9-br
