ARM GAS  C:\Users\mohammed\AppData\Local\Temp\cc7OMC6b.s 			page 1


   1              		.cpu cortex-m0
   2              		.fpu softvfp
   3              		.eabi_attribute 20, 1
   4              		.eabi_attribute 21, 1
   5              		.eabi_attribute 23, 3
   6              		.eabi_attribute 24, 1
   7              		.eabi_attribute 25, 1
   8              		.eabi_attribute 26, 1
   9              		.eabi_attribute 30, 6
  10              		.eabi_attribute 34, 0
  11              		.eabi_attribute 18, 4
  12              		.code	16
  13              		.file	"lls.c"
  14              		.text
  15              	.Ltext0:
  16              		.cfi_sections	.debug_frame
  17              		.comm	llsAlertTOCounter,1,1
  18              		.comm	alertLevel,1,1
  19              		.comm	countOfLed,1,1
  20              		.section	.rodata
  21              		.align	2
  22              	.LC0:
  23 0000 57726974 		.ascii	"Write LLS Alert Level request received \015\000"
  23      65204C4C 
  23      5320416C 
  23      65727420 
  23      4C657665 
  24 0029 000000   		.align	2
  25              	.LC3:
  26 002c 416C6572 		.ascii	"Alert Level for LLS is set to \"No Alert\" \015\000"
  26      74204C65 
  26      76656C20 
  26      666F7220 
  26      4C4C5320 
  27 0057 00       		.align	2
  28              	.LC5:
  29 0058 416C6572 		.ascii	"Alert Level for LLS is set to \"Mild Alert\" \015\000"
  29      74204C65 
  29      76656C20 
  29      666F7220 
  29      4C4C5320 
  30 0085 000000   		.align	2
  31              	.LC7:
  32 0088 416C6572 		.ascii	"Alert Level for LLS is set to \"High Alert\" \015\000"
  32      74204C65 
  32      76656C20 
  32      666F7220 
  32      4C4C5320 
  33 00b5 000000   		.align	2
  34              	.LC9:
  35 00b8 496E636F 		.ascii	"Incorrect value of Alert Level for LLS was received"
  35      72726563 
  35      74207661 
  35      6C756520 
  35      6F662041 
  36 00eb 0D00     		.ascii	"\015\000"
  37 00ed 000000   		.section	.text.LlsServiceAppEventHandler,"ax",%progbits
ARM GAS  C:\Users\mohammed\AppData\Local\Temp\cc7OMC6b.s 			page 2


  38              		.align	2
  39              		.global	LlsServiceAppEventHandler
  40              		.code	16
  41              		.thumb_func
  42              		.type	LlsServiceAppEventHandler, %function
  43              	LlsServiceAppEventHandler:
  44              	.LFB37:
  45              		.file 1 ".\\lls.c"
   1:.\lls.c       **** /*******************************************************************************
   2:.\lls.c       **** * File Name: lls.c
   3:.\lls.c       **** *
   4:.\lls.c       **** * Description:
   5:.\lls.c       **** *  This file contains Link Loss Service callback handler function.
   6:.\lls.c       **** * 
   7:.\lls.c       **** ********************************************************************************
   8:.\lls.c       **** * Copyright 2015, Cypress Semiconductor Corporation.  All rights reserved.
   9:.\lls.c       **** * You may use this file only in accordance with the license, terms, conditions,
  10:.\lls.c       **** * disclaimers, and limitations in the end user license agreement accompanying
  11:.\lls.c       **** * the software package with which this file was provided.
  12:.\lls.c       **** *******************************************************************************/
  13:.\lls.c       **** 
  14:.\lls.c       **** #include <common.h>
  15:.\lls.c       **** #include "lls.h"
  16:.\lls.c       **** 
  17:.\lls.c       **** 
  18:.\lls.c       **** /***************************************
  19:.\lls.c       **** *        Global Variables
  20:.\lls.c       **** ***************************************/
  21:.\lls.c       **** uint8                llsAlertTOCounter;
  22:.\lls.c       **** uint8                alertLevel;
  23:.\lls.c       **** uint8                countOfLed;
  24:.\lls.c       **** 
  25:.\lls.c       **** 
  26:.\lls.c       **** /*******************************************************************************
  27:.\lls.c       **** * Function Name: LlsServiceAppEventHandler
  28:.\lls.c       **** ********************************************************************************
  29:.\lls.c       **** *
  30:.\lls.c       **** * Summary:
  31:.\lls.c       **** *  This is an event callback function to receive events from the BLE Component,
  32:.\lls.c       **** *  which are specific to Link Loss Service.
  33:.\lls.c       **** *
  34:.\lls.c       **** * Parameters:
  35:.\lls.c       **** *  uint8 event:       Write Request event from the CYBLE component.
  36:.\lls.c       **** *  void* eventParams: A structure instance of CYBLE_LLS_CHAR_VALUE_T type.
  37:.\lls.c       **** *
  38:.\lls.c       **** * Return:
  39:.\lls.c       **** *  None
  40:.\lls.c       **** *
  41:.\lls.c       **** *******************************************************************************/
  42:.\lls.c       **** void LlsServiceAppEventHandler(uint32 event, void *eventParam)
  43:.\lls.c       **** {
  46              		.loc 1 43 0
  47              		.cfi_startproc
  48 0000 80B5     		push	{r7, lr}
  49              		.cfi_def_cfa_offset 8
  50              		.cfi_offset 7, -8
  51              		.cfi_offset 14, -4
ARM GAS  C:\Users\mohammed\AppData\Local\Temp\cc7OMC6b.s 			page 3


  52 0002 84B0     		sub	sp, sp, #16
  53              		.cfi_def_cfa_offset 24
  54 0004 00AF     		add	r7, sp, #0
  55              		.cfi_def_cfa_register 7
  56 0006 7860     		str	r0, [r7, #4]
  57 0008 3960     		str	r1, [r7]
  44:.\lls.c       ****     CYBLE_LLS_CHAR_VALUE_T * llsWrReqValueParam;
  45:.\lls.c       ****     
  46:.\lls.c       ****     /* There is only one event present in Link Loss Service for Server GATT role.
  47:.\lls.c       ****     *  'CYBLE_EVT_LLSS_WRITE_CHAR_REQ' - write request to set new alert level. 
  48:.\lls.c       ****     */
  49:.\lls.c       ****     if (event == CYBLE_EVT_LLSS_WRITE_CHAR_REQ)
  58              		.loc 1 49 0
  59 000a 7A68     		ldr	r2, [r7, #4]
  60 000c BC23     		mov	r3, #188
  61 000e FF33     		add	r3, r3, #255
  62 0010 9A42     		cmp	r2, r3
  63 0012 2CD1     		bne	.L1
  50:.\lls.c       ****     {
  51:.\lls.c       ****         DBG_PRINTF("Write LLS Alert Level request received \r\n");
  64              		.loc 1 51 0
  65 0014 174B     		ldr	r3, .L8
  66 0016 181C     		mov	r0, r3
  67 0018 FFF7FEFF 		bl	puts
  52:.\lls.c       **** 
  53:.\lls.c       ****         llsWrReqValueParam = (CYBLE_LLS_CHAR_VALUE_T *) eventParam;
  68              		.loc 1 53 0
  69 001c 3B68     		ldr	r3, [r7]
  70 001e FB60     		str	r3, [r7, #12]
  54:.\lls.c       **** 
  55:.\lls.c       ****         if(llsWrReqValueParam->value->len == CYBLE_LLS_ALERT_LEVEL_SIZE)
  71              		.loc 1 55 0
  72 0020 FB68     		ldr	r3, [r7, #12]
  73 0022 5B68     		ldr	r3, [r3, #4]
  74 0024 9B88     		ldrh	r3, [r3, #4]
  75 0026 012B     		cmp	r3, #1
  76 0028 21D1     		bne	.L1
  56:.\lls.c       ****         {
  57:.\lls.c       ****             alertLevel = llsWrReqValueParam->value->val[0u];
  77              		.loc 1 57 0
  78 002a FB68     		ldr	r3, [r7, #12]
  79 002c 5B68     		ldr	r3, [r3, #4]
  80 002e 1B68     		ldr	r3, [r3]
  81 0030 1A78     		ldrb	r2, [r3]
  82 0032 114B     		ldr	r3, .L8+4
  83 0034 1A70     		strb	r2, [r3]
  58:.\lls.c       **** 
  59:.\lls.c       ****             switch (alertLevel)
  84              		.loc 1 59 0
  85 0036 104B     		ldr	r3, .L8+4
  86 0038 1B78     		ldrb	r3, [r3]
  87 003a 012B     		cmp	r3, #1
  88 003c 08D0     		beq	.L4
  89 003e 022B     		cmp	r3, #2
  90 0040 0BD0     		beq	.L5
  91 0042 002B     		cmp	r3, #0
  92 0044 0ED1     		bne	.L7
ARM GAS  C:\Users\mohammed\AppData\Local\Temp\cc7OMC6b.s 			page 4


  60:.\lls.c       ****             {
  61:.\lls.c       ****             case CYBLE_NO_ALERT:
  62:.\lls.c       ****                 DBG_PRINTF("Alert Level for LLS is set to \"No Alert\" \r\n");
  93              		.loc 1 62 0
  94 0046 0D4B     		ldr	r3, .L8+8
  95 0048 181C     		mov	r0, r3
  96 004a FFF7FEFF 		bl	puts
  63:.\lls.c       ****                 break;
  97              		.loc 1 63 0
  98 004e 0EE0     		b	.L1
  99              	.L4:
  64:.\lls.c       **** 
  65:.\lls.c       ****             case CYBLE_MILD_ALERT:
  66:.\lls.c       ****                 DBG_PRINTF("Alert Level for LLS is set to \"Mild Alert\" \r\n");
 100              		.loc 1 66 0
 101 0050 0B4B     		ldr	r3, .L8+12
 102 0052 181C     		mov	r0, r3
 103 0054 FFF7FEFF 		bl	puts
  67:.\lls.c       ****                 break;
 104              		.loc 1 67 0
 105 0058 09E0     		b	.L1
 106              	.L5:
  68:.\lls.c       **** 
  69:.\lls.c       ****             case CYBLE_HIGH_ALERT:
  70:.\lls.c       ****                 DBG_PRINTF("Alert Level for LLS is set to \"High Alert\" \r\n");
 107              		.loc 1 70 0
 108 005a 0A4B     		ldr	r3, .L8+16
 109 005c 181C     		mov	r0, r3
 110 005e FFF7FEFF 		bl	puts
  71:.\lls.c       ****                 break;
 111              		.loc 1 71 0
 112 0062 04E0     		b	.L1
 113              	.L7:
  72:.\lls.c       **** 
  73:.\lls.c       ****             default:
  74:.\lls.c       ****                 DBG_PRINTF("Incorrect value of Alert Level for LLS was received\r\n");
 114              		.loc 1 74 0
 115 0064 084B     		ldr	r3, .L8+20
 116 0066 181C     		mov	r0, r3
 117 0068 FFF7FEFF 		bl	puts
  75:.\lls.c       ****                 break;
 118              		.loc 1 75 0
 119 006c C046     		mov	r8, r8
 120              	.L1:
  76:.\lls.c       ****             }
  77:.\lls.c       ****         }
  78:.\lls.c       ****     }
  79:.\lls.c       **** }
 121              		.loc 1 79 0
 122 006e BD46     		mov	sp, r7
 123 0070 04B0     		add	sp, sp, #16
 124              		@ sp needed
 125 0072 80BD     		pop	{r7, pc}
 126              	.L9:
 127              		.align	2
 128              	.L8:
 129 0074 00000000 		.word	.LC0
ARM GAS  C:\Users\mohammed\AppData\Local\Temp\cc7OMC6b.s 			page 5


 130 0078 00000000 		.word	alertLevel
 131 007c 2C000000 		.word	.LC3
 132 0080 58000000 		.word	.LC5
 133 0084 88000000 		.word	.LC7
 134 0088 B8000000 		.word	.LC9
 135              		.cfi_endproc
 136              	.LFE37:
 137              		.size	LlsServiceAppEventHandler, .-LlsServiceAppEventHandler
 138              		.text
 139              	.Letext0:
 140              		.file 2 "Generated_Source\\PSoC4/cytypes.h"
 141              		.file 3 "Generated_Source\\PSoC4/CYBLE_StackGatt.h"
 142              		.file 4 "Generated_Source\\PSoC4/CYBLE_Stack.h"
 143              		.file 5 "Generated_Source\\PSoC4/CYBLE_lls.h"
 144              		.file 6 "Generated_Source\\PSoC4/CYBLE_eventHandler.h"