ARM GAS  C:\Users\mohammed\AppData\Local\Temp\ccTLBOBF.s 			page 1


   1              		.cpu cortex-m0
   2              		.fpu softvfp
   3              		.eabi_attribute 20, 1
   4              		.eabi_attribute 21, 1
   5              		.eabi_attribute 23, 3
   6              		.eabi_attribute 24, 1
   7              		.eabi_attribute 25, 1
   8              		.eabi_attribute 26, 1
   9              		.eabi_attribute 30, 6
  10              		.eabi_attribute 34, 0
  11              		.eabi_attribute 18, 4
  12              		.code	16
  13              		.file	"tps.c"
  14              		.text
  15              	.Ltext0:
  16              		.cfi_sections	.debug_frame
  17              		.global	isTpsNotificationPending
  18              		.data
  19              		.type	isTpsNotificationPending, %object
  20              		.size	isTpsNotificationPending, 1
  21              	isTpsNotificationPending:
  22 0000 01       		.byte	1
  23              		.global	isTpsNotificationEnabled
  24              		.bss
  25              		.type	isTpsNotificationEnabled, %object
  26              		.size	isTpsNotificationEnabled, 1
  27              	isTpsNotificationEnabled:
  28 0000 00       		.space	1
  29              		.section	.rodata
  30              		.align	2
  31              	.LC2:
  32 0000 54505320 		.ascii	"TPS notification enabled\015\000"
  32      6E6F7469 
  32      66696361 
  32      74696F6E 
  32      20656E61 
  33 001a 0000     		.align	2
  34              	.LC4:
  35 001c 54505320 		.ascii	"TPS notification disabled\015\000"
  35      6E6F7469 
  35      66696361 
  35      74696F6E 
  35      20646973 
  36              		.section	.text.TpsServiceAppEventHandler,"ax",%progbits
  37              		.align	2
  38              		.global	TpsServiceAppEventHandler
  39              		.code	16
  40              		.thumb_func
  41              		.type	TpsServiceAppEventHandler, %function
  42              	TpsServiceAppEventHandler:
  43              	.LFB37:
  44              		.file 1 ".\\tps.c"
   1:.\tps.c       **** /*******************************************************************************
   2:.\tps.c       **** * File Name: tps.c
   3:.\tps.c       **** *
   4:.\tps.c       **** * Description:
   5:.\tps.c       **** *  This file contains Tx Power Service callback handler function.
ARM GAS  C:\Users\mohammed\AppData\Local\Temp\ccTLBOBF.s 			page 2


   6:.\tps.c       **** * 
   7:.\tps.c       **** ********************************************************************************
   8:.\tps.c       **** * Copyright 2015, Cypress Semiconductor Corporation.  All rights reserved.
   9:.\tps.c       **** * You may use this file only in accordance with the license, terms, conditions,
  10:.\tps.c       **** * disclaimers, and limitations in the end user license agreement accompanying
  11:.\tps.c       **** * the software package with which this file was provided.
  12:.\tps.c       **** *******************************************************************************/
  13:.\tps.c       **** 
  14:.\tps.c       **** #include <common.h>
  15:.\tps.c       **** #include "tps.h"
  16:.\tps.c       **** 
  17:.\tps.c       **** 
  18:.\tps.c       **** /***************************************
  19:.\tps.c       **** *        Global Variables
  20:.\tps.c       **** ***************************************/
  21:.\tps.c       **** uint8                isTpsNotificationPending = YES;
  22:.\tps.c       **** uint8                isTpsNotificationEnabled = NO;
  23:.\tps.c       **** 
  24:.\tps.c       **** 
  25:.\tps.c       **** /*******************************************************************************
  26:.\tps.c       **** * Function Name: TpsServiceAppEventHandler
  27:.\tps.c       **** ********************************************************************************
  28:.\tps.c       **** *
  29:.\tps.c       **** * Summary:
  30:.\tps.c       **** *  This is an event callback function to receive events from the BLE Component,
  31:.\tps.c       **** *  which are specific to Tx Power Service.
  32:.\tps.c       **** *
  33:.\tps.c       **** * Parameters:
  34:.\tps.c       **** *  uint8 event:       Write Command event from the CYBLE component.
  35:.\tps.c       **** *  void* eventParams: A structure instance of CYBLE_GATT_HANDLE_VALUE_PAIR_T
  36:.\tps.c       **** *                     type.
  37:.\tps.c       **** *
  38:.\tps.c       **** * Return:
  39:.\tps.c       **** *  None
  40:.\tps.c       **** *
  41:.\tps.c       **** *******************************************************************************/
  42:.\tps.c       **** void TpsServiceAppEventHandler(uint32 event, void *eventParam)
  43:.\tps.c       **** {
  45              		.loc 1 43 0
  46              		.cfi_startproc
  47 0000 80B5     		push	{r7, lr}
  48              		.cfi_def_cfa_offset 8
  49              		.cfi_offset 7, -8
  50              		.cfi_offset 14, -4
  51 0002 82B0     		sub	sp, sp, #8
  52              		.cfi_def_cfa_offset 16
  53 0004 00AF     		add	r7, sp, #0
  54              		.cfi_def_cfa_register 7
  55 0006 7860     		str	r0, [r7, #4]
  56 0008 3960     		str	r1, [r7]
  44:.\tps.c       ****     switch(event)
  57              		.loc 1 44 0
  58 000a 7B68     		ldr	r3, [r7, #4]
  59 000c E83B     		sub	r3, r3, #232
  60 000e FF3B     		sub	r3, r3, #255
  61 0010 052B     		cmp	r3, #5
  62 0012 14D8     		bhi	.L11
ARM GAS  C:\Users\mohammed\AppData\Local\Temp\ccTLBOBF.s 			page 3


  63 0014 9A00     		lsl	r2, r3, #2
  64 0016 0D4B     		ldr	r3, .L13
  65 0018 D318     		add	r3, r2, r3
  66 001a 1B68     		ldr	r3, [r3]
  67 001c 9F46     		mov	pc, r3
  68              		.section	.rodata
  69 0037 00       		.align	2
  70              	.L4:
  71 0038 1E000000 		.word	.L3
  72 003c 2E000000 		.word	.L5
  73 0040 42000000 		.word	.L12
  74 0044 42000000 		.word	.L12
  75 0048 42000000 		.word	.L12
  76 004c 42000000 		.word	.L12
  77              		.section	.text.TpsServiceAppEventHandler
  78              	.L3:
  45:.\tps.c       ****     {
  46:.\tps.c       ****     /***************************************
  47:.\tps.c       ****     *        TPS Server events
  48:.\tps.c       ****     ***************************************/
  49:.\tps.c       ****     case CYBLE_EVT_TPSS_NOTIFICATION_ENABLED:
  50:.\tps.c       ****         isTpsNotificationEnabled = YES;
  79              		.loc 1 50 0
  80 001e 0C4B     		ldr	r3, .L13+4
  81 0020 0122     		mov	r2, #1
  82 0022 1A70     		strb	r2, [r3]
  51:.\tps.c       ****         DBG_PRINTF("TPS notification enabled\r\n");
  83              		.loc 1 51 0
  84 0024 0B4B     		ldr	r3, .L13+8
  85 0026 181C     		mov	r0, r3
  86 0028 FFF7FEFF 		bl	puts
  52:.\tps.c       ****         break;
  87              		.loc 1 52 0
  88 002c 0AE0     		b	.L1
  89              	.L5:
  53:.\tps.c       ****     case CYBLE_EVT_TPSS_NOTIFICATION_DISABLED:
  54:.\tps.c       ****         isTpsNotificationEnabled = NO;
  90              		.loc 1 54 0
  91 002e 084B     		ldr	r3, .L13+4
  92 0030 0022     		mov	r2, #0
  93 0032 1A70     		strb	r2, [r3]
  55:.\tps.c       ****         DBG_PRINTF("TPS notification disabled\r\n");
  94              		.loc 1 55 0
  95 0034 084B     		ldr	r3, .L13+12
  96 0036 181C     		mov	r0, r3
  97 0038 FFF7FEFF 		bl	puts
  56:.\tps.c       ****         break;
  98              		.loc 1 56 0
  99 003c 02E0     		b	.L1
 100              	.L11:
  57:.\tps.c       **** 
  58:.\tps.c       ****     /***************************************
  59:.\tps.c       ****     *        TPS Client events
  60:.\tps.c       ****     ***************************************/
  61:.\tps.c       ****     case CYBLE_EVT_TPSC_NOTIFICATION:
  62:.\tps.c       ****         break;
  63:.\tps.c       ****     case CYBLE_EVT_TPSC_READ_CHAR_RESPONSE:
ARM GAS  C:\Users\mohammed\AppData\Local\Temp\ccTLBOBF.s 			page 4


  64:.\tps.c       ****         break;
  65:.\tps.c       ****     case CYBLE_EVT_TPSC_READ_DESCR_RESPONSE:
  66:.\tps.c       ****         break;
  67:.\tps.c       ****     case CYBLE_EVT_TPSC_WRITE_DESCR_RESPONSE:
  68:.\tps.c       ****         break;
  69:.\tps.c       ****     default:
  70:.\tps.c       ****         break;
 101              		.loc 1 70 0
 102 003e C046     		mov	r8, r8
 103 0040 00E0     		b	.L1
 104              	.L12:
  68:.\tps.c       ****     default:
 105              		.loc 1 68 0
 106 0042 C046     		mov	r8, r8
 107              	.L1:
  71:.\tps.c       ****     }
  72:.\tps.c       **** }
 108              		.loc 1 72 0
 109 0044 BD46     		mov	sp, r7
 110 0046 02B0     		add	sp, sp, #8
 111              		@ sp needed
 112 0048 80BD     		pop	{r7, pc}
 113              	.L14:
 114 004a C046     		.align	2
 115              	.L13:
 116 004c 38000000 		.word	.L4
 117 0050 00000000 		.word	isTpsNotificationEnabled
 118 0054 00000000 		.word	.LC2
 119 0058 1C000000 		.word	.LC4
 120              		.cfi_endproc
 121              	.LFE37:
 122              		.size	TpsServiceAppEventHandler, .-TpsServiceAppEventHandler
 123              		.section	.text.ConvertTxPowerlevelToInt8,"ax",%progbits
 124              		.align	2
 125              		.global	ConvertTxPowerlevelToInt8
 126              		.code	16
 127              		.thumb_func
 128              		.type	ConvertTxPowerlevelToInt8, %function
 129              	ConvertTxPowerlevelToInt8:
 130              	.LFB38:
  73:.\tps.c       **** 
  74:.\tps.c       **** 
  75:.\tps.c       **** /*******************************************************************************
  76:.\tps.c       **** * Function Name: ConvertTxPowerlevelToInt8
  77:.\tps.c       **** ********************************************************************************
  78:.\tps.c       **** *
  79:.\tps.c       **** * Summary:
  80:.\tps.c       **** *  Converts Tx Power Level from CYBLE_BLESS_PWR_LVL_T to int8.
  81:.\tps.c       **** *
  82:.\tps.c       **** * Parameters:
  83:.\tps.c       **** *   None
  84:.\tps.c       **** *
  85:.\tps.c       **** * Return:
  86:.\tps.c       **** *   None
  87:.\tps.c       **** *
  88:.\tps.c       **** *******************************************************************************/
  89:.\tps.c       **** int ConvertTxPowerlevelToInt8(CYBLE_BLESS_PWR_LVL_T pwrLevel)
ARM GAS  C:\Users\mohammed\AppData\Local\Temp\ccTLBOBF.s 			page 5


  90:.\tps.c       **** {
 131              		.loc 1 90 0
 132              		.cfi_startproc
 133 0000 80B5     		push	{r7, lr}
 134              		.cfi_def_cfa_offset 8
 135              		.cfi_offset 7, -8
 136              		.cfi_offset 14, -4
 137 0002 84B0     		sub	sp, sp, #16
 138              		.cfi_def_cfa_offset 24
 139 0004 00AF     		add	r7, sp, #0
 140              		.cfi_def_cfa_register 7
 141 0006 021C     		mov	r2, r0
 142 0008 FB1D     		add	r3, r7, #7
 143 000a 1A70     		strb	r2, [r3]
  91:.\tps.c       ****     int8 intPwrLevel = 3;
 144              		.loc 1 91 0
 145 000c 0F23     		mov	r3, #15
 146 000e FB18     		add	r3, r7, r3
 147 0010 0322     		mov	r2, #3
 148 0012 1A70     		strb	r2, [r3]
  92:.\tps.c       **** 
  93:.\tps.c       ****     switch (pwrLevel)
 149              		.loc 1 93 0
 150 0014 FB1D     		add	r3, r7, #7
 151 0016 1B78     		ldrb	r3, [r3]
 152 0018 082B     		cmp	r3, #8
 153 001a 2CD8     		bhi	.L28
 154 001c 9A00     		lsl	r2, r3, #2
 155 001e 1A4B     		ldr	r3, .L29
 156 0020 D318     		add	r3, r2, r3
 157 0022 1B68     		ldr	r3, [r3]
 158 0024 9F46     		mov	pc, r3
 159              		.section	.rodata
 160              		.align	2
 161              	.L18:
 162 0050 76000000 		.word	.L28
 163 0054 26000000 		.word	.L17
 164 0058 30000000 		.word	.L19
 165 005c 3A000000 		.word	.L20
 166 0060 44000000 		.word	.L21
 167 0064 4E000000 		.word	.L22
 168 0068 58000000 		.word	.L23
 169 006c 62000000 		.word	.L24
 170 0070 6C000000 		.word	.L25
 171              		.section	.text.ConvertTxPowerlevelToInt8
 172              	.L17:
  94:.\tps.c       ****     {
  95:.\tps.c       ****     case CYBLE_LL_PWR_LVL_NEG_18_DBM:
  96:.\tps.c       ****         intPwrLevel = -18;
 173              		.loc 1 96 0
 174 0026 0F23     		mov	r3, #15
 175 0028 FB18     		add	r3, r7, r3
 176 002a EE22     		mov	r2, #238
 177 002c 1A70     		strb	r2, [r3]
  97:.\tps.c       ****         break;
 178              		.loc 1 97 0
 179 002e 23E0     		b	.L26
ARM GAS  C:\Users\mohammed\AppData\Local\Temp\ccTLBOBF.s 			page 6


 180              	.L19:
  98:.\tps.c       ****     case CYBLE_LL_PWR_LVL_NEG_12_DBM:
  99:.\tps.c       ****         intPwrLevel = -12;
 181              		.loc 1 99 0
 182 0030 0F23     		mov	r3, #15
 183 0032 FB18     		add	r3, r7, r3
 184 0034 F422     		mov	r2, #244
 185 0036 1A70     		strb	r2, [r3]
 100:.\tps.c       ****         break;
 186              		.loc 1 100 0
 187 0038 1EE0     		b	.L26
 188              	.L20:
 101:.\tps.c       ****     case CYBLE_LL_PWR_LVL_NEG_6_DBM:
 102:.\tps.c       ****         intPwrLevel = -6;
 189              		.loc 1 102 0
 190 003a 0F23     		mov	r3, #15
 191 003c FB18     		add	r3, r7, r3
 192 003e FA22     		mov	r2, #250
 193 0040 1A70     		strb	r2, [r3]
 103:.\tps.c       ****         break;
 194              		.loc 1 103 0
 195 0042 19E0     		b	.L26
 196              	.L21:
 104:.\tps.c       ****     case CYBLE_LL_PWR_LVL_NEG_3_DBM:
 105:.\tps.c       ****         intPwrLevel = -3;
 197              		.loc 1 105 0
 198 0044 0F23     		mov	r3, #15
 199 0046 FB18     		add	r3, r7, r3
 200 0048 FD22     		mov	r2, #253
 201 004a 1A70     		strb	r2, [r3]
 106:.\tps.c       ****         break;
 202              		.loc 1 106 0
 203 004c 14E0     		b	.L26
 204              	.L22:
 107:.\tps.c       ****     case CYBLE_LL_PWR_LVL_NEG_2_DBM:
 108:.\tps.c       ****         intPwrLevel = -2;
 205              		.loc 1 108 0
 206 004e 0F23     		mov	r3, #15
 207 0050 FB18     		add	r3, r7, r3
 208 0052 FE22     		mov	r2, #254
 209 0054 1A70     		strb	r2, [r3]
 109:.\tps.c       ****         break;
 210              		.loc 1 109 0
 211 0056 0FE0     		b	.L26
 212              	.L23:
 110:.\tps.c       ****     case CYBLE_LL_PWR_LVL_NEG_1_DBM:
 111:.\tps.c       ****         intPwrLevel = -1;
 213              		.loc 1 111 0
 214 0058 0F23     		mov	r3, #15
 215 005a FB18     		add	r3, r7, r3
 216 005c FF22     		mov	r2, #255
 217 005e 1A70     		strb	r2, [r3]
 112:.\tps.c       ****         break;
 218              		.loc 1 112 0
 219 0060 0AE0     		b	.L26
 220              	.L24:
 113:.\tps.c       ****     case CYBLE_LL_PWR_LVL_0_DBM:
ARM GAS  C:\Users\mohammed\AppData\Local\Temp\ccTLBOBF.s 			page 7


 114:.\tps.c       ****         intPwrLevel = 0;
 221              		.loc 1 114 0
 222 0062 0F23     		mov	r3, #15
 223 0064 FB18     		add	r3, r7, r3
 224 0066 0022     		mov	r2, #0
 225 0068 1A70     		strb	r2, [r3]
 115:.\tps.c       ****         break;
 226              		.loc 1 115 0
 227 006a 05E0     		b	.L26
 228              	.L25:
 116:.\tps.c       ****     case CYBLE_LL_PWR_LVL_3_DBM:
 117:.\tps.c       ****         intPwrLevel = 3;
 229              		.loc 1 117 0
 230 006c 0F23     		mov	r3, #15
 231 006e FB18     		add	r3, r7, r3
 232 0070 0322     		mov	r2, #3
 233 0072 1A70     		strb	r2, [r3]
 118:.\tps.c       ****         break;
 234              		.loc 1 118 0
 235 0074 00E0     		b	.L26
 236              	.L28:
 119:.\tps.c       **** 
 120:.\tps.c       ****     default:
 121:.\tps.c       ****         break;
 237              		.loc 1 121 0
 238 0076 C046     		mov	r8, r8
 239              	.L26:
 122:.\tps.c       ****     }
 123:.\tps.c       **** 
 124:.\tps.c       ****     return(intPwrLevel);
 240              		.loc 1 124 0
 241 0078 0F23     		mov	r3, #15
 242 007a FB18     		add	r3, r7, r3
 243 007c 1B78     		ldrb	r3, [r3]
 244 007e 5BB2     		sxtb	r3, r3
 125:.\tps.c       **** }
 245              		.loc 1 125 0
 246 0080 181C     		mov	r0, r3
 247 0082 BD46     		mov	sp, r7
 248 0084 04B0     		add	sp, sp, #16
 249              		@ sp needed
 250 0086 80BD     		pop	{r7, pc}
 251              	.L30:
 252              		.align	2
 253              	.L29:
 254 0088 50000000 		.word	.L18
 255              		.cfi_endproc
 256              	.LFE38:
 257              		.size	ConvertTxPowerlevelToInt8, .-ConvertTxPowerlevelToInt8
 258              		.section	.text.DecreaseTxPowerLevelValue,"ax",%progbits
 259              		.align	2
 260              		.global	DecreaseTxPowerLevelValue
 261              		.code	16
 262              		.thumb_func
 263              		.type	DecreaseTxPowerLevelValue, %function
 264              	DecreaseTxPowerLevelValue:
 265              	.LFB39:
ARM GAS  C:\Users\mohammed\AppData\Local\Temp\ccTLBOBF.s 			page 8


 126:.\tps.c       **** 
 127:.\tps.c       **** 
 128:.\tps.c       **** /*******************************************************************************
 129:.\tps.c       **** * Function Name: DecreaseTxPowerLevelValue
 130:.\tps.c       **** ********************************************************************************
 131:.\tps.c       **** *
 132:.\tps.c       **** * Summary:
 133:.\tps.c       **** *  Decreases the Tx Power level by one scale lower.
 134:.\tps.c       **** *
 135:.\tps.c       **** * Parameters:
 136:.\tps.c       **** *   None
 137:.\tps.c       **** *
 138:.\tps.c       **** * Return:
 139:.\tps.c       **** *   None
 140:.\tps.c       **** *
 141:.\tps.c       **** *******************************************************************************/
 142:.\tps.c       **** void DecreaseTxPowerLevelValue(CYBLE_BLESS_PWR_LVL_T * pwrLevel)
 143:.\tps.c       **** {
 266              		.loc 1 143 0
 267              		.cfi_startproc
 268 0000 80B5     		push	{r7, lr}
 269              		.cfi_def_cfa_offset 8
 270              		.cfi_offset 7, -8
 271              		.cfi_offset 14, -4
 272 0002 82B0     		sub	sp, sp, #8
 273              		.cfi_def_cfa_offset 16
 274 0004 00AF     		add	r7, sp, #0
 275              		.cfi_def_cfa_register 7
 276 0006 7860     		str	r0, [r7, #4]
 144:.\tps.c       ****     isTpsNotificationPending = YES;
 277              		.loc 1 144 0
 278 0008 194B     		ldr	r3, .L44
 279 000a 0122     		mov	r2, #1
 280 000c 1A70     		strb	r2, [r3]
 145:.\tps.c       ****     
 146:.\tps.c       ****     switch (*pwrLevel)
 281              		.loc 1 146 0
 282 000e 7B68     		ldr	r3, [r7, #4]
 283 0010 1B78     		ldrb	r3, [r3]
 284 0012 082B     		cmp	r3, #8
 285 0014 27D8     		bhi	.L43
 286 0016 9A00     		lsl	r2, r3, #2
 287 0018 164B     		ldr	r3, .L44+4
 288 001a D318     		add	r3, r2, r3
 289 001c 1B68     		ldr	r3, [r3]
 290 001e 9F46     		mov	pc, r3
 291              		.section	.rodata
 292              		.align	2
 293              	.L34:
 294 0074 66000000 		.word	.L43
 295 0078 20000000 		.word	.L33
 296 007c 2E000000 		.word	.L35
 297 0080 36000000 		.word	.L36
 298 0084 3E000000 		.word	.L37
 299 0088 46000000 		.word	.L38
 300 008c 4E000000 		.word	.L39
 301 0090 56000000 		.word	.L40
ARM GAS  C:\Users\mohammed\AppData\Local\Temp\ccTLBOBF.s 			page 9


 302 0094 5E000000 		.word	.L41
 303              		.section	.text.DecreaseTxPowerLevelValue
 304              	.L33:
 147:.\tps.c       ****     {
 148:.\tps.c       ****     case CYBLE_LL_PWR_LVL_NEG_18_DBM:
 149:.\tps.c       ****         *pwrLevel = CYBLE_LL_PWR_LVL_NEG_18_DBM;
 305              		.loc 1 149 0
 306 0020 7B68     		ldr	r3, [r7, #4]
 307 0022 0122     		mov	r2, #1
 308 0024 1A70     		strb	r2, [r3]
 150:.\tps.c       ****         isTpsNotificationPending = NO;
 309              		.loc 1 150 0
 310 0026 124B     		ldr	r3, .L44
 311 0028 0022     		mov	r2, #0
 312 002a 1A70     		strb	r2, [r3]
 151:.\tps.c       ****         break;
 313              		.loc 1 151 0
 314 002c 1CE0     		b	.L31
 315              	.L35:
 152:.\tps.c       ****     case CYBLE_LL_PWR_LVL_NEG_12_DBM:
 153:.\tps.c       ****         *pwrLevel = CYBLE_LL_PWR_LVL_NEG_18_DBM;
 316              		.loc 1 153 0
 317 002e 7B68     		ldr	r3, [r7, #4]
 318 0030 0122     		mov	r2, #1
 319 0032 1A70     		strb	r2, [r3]
 154:.\tps.c       ****         break;
 320              		.loc 1 154 0
 321 0034 18E0     		b	.L31
 322              	.L36:
 155:.\tps.c       ****     case CYBLE_LL_PWR_LVL_NEG_6_DBM:
 156:.\tps.c       ****         *pwrLevel = CYBLE_LL_PWR_LVL_NEG_12_DBM;
 323              		.loc 1 156 0
 324 0036 7B68     		ldr	r3, [r7, #4]
 325 0038 0222     		mov	r2, #2
 326 003a 1A70     		strb	r2, [r3]
 157:.\tps.c       ****         break;
 327              		.loc 1 157 0
 328 003c 14E0     		b	.L31
 329              	.L37:
 158:.\tps.c       ****     case CYBLE_LL_PWR_LVL_NEG_3_DBM:
 159:.\tps.c       ****         *pwrLevel = CYBLE_LL_PWR_LVL_NEG_6_DBM;
 330              		.loc 1 159 0
 331 003e 7B68     		ldr	r3, [r7, #4]
 332 0040 0322     		mov	r2, #3
 333 0042 1A70     		strb	r2, [r3]
 160:.\tps.c       ****         break;
 334              		.loc 1 160 0
 335 0044 10E0     		b	.L31
 336              	.L38:
 161:.\tps.c       ****     case CYBLE_LL_PWR_LVL_NEG_2_DBM:
 162:.\tps.c       ****         *pwrLevel = CYBLE_LL_PWR_LVL_NEG_3_DBM;
 337              		.loc 1 162 0
 338 0046 7B68     		ldr	r3, [r7, #4]
 339 0048 0422     		mov	r2, #4
 340 004a 1A70     		strb	r2, [r3]
 163:.\tps.c       ****         break;
 341              		.loc 1 163 0
ARM GAS  C:\Users\mohammed\AppData\Local\Temp\ccTLBOBF.s 			page 10


 342 004c 0CE0     		b	.L31
 343              	.L39:
 164:.\tps.c       ****     case CYBLE_LL_PWR_LVL_NEG_1_DBM:
 165:.\tps.c       ****         *pwrLevel = CYBLE_LL_PWR_LVL_NEG_2_DBM;
 344              		.loc 1 165 0
 345 004e 7B68     		ldr	r3, [r7, #4]
 346 0050 0522     		mov	r2, #5
 347 0052 1A70     		strb	r2, [r3]
 166:.\tps.c       ****         break;
 348              		.loc 1 166 0
 349 0054 08E0     		b	.L31
 350              	.L40:
 167:.\tps.c       ****     case CYBLE_LL_PWR_LVL_0_DBM:
 168:.\tps.c       ****         *pwrLevel = CYBLE_LL_PWR_LVL_NEG_1_DBM;
 351              		.loc 1 168 0
 352 0056 7B68     		ldr	r3, [r7, #4]
 353 0058 0622     		mov	r2, #6
 354 005a 1A70     		strb	r2, [r3]
 169:.\tps.c       ****         break;
 355              		.loc 1 169 0
 356 005c 04E0     		b	.L31
 357              	.L41:
 170:.\tps.c       ****     case CYBLE_LL_PWR_LVL_3_DBM:
 171:.\tps.c       ****         *pwrLevel = CYBLE_LL_PWR_LVL_0_DBM;
 358              		.loc 1 171 0
 359 005e 7B68     		ldr	r3, [r7, #4]
 360 0060 0722     		mov	r2, #7
 361 0062 1A70     		strb	r2, [r3]
 172:.\tps.c       ****         break;
 362              		.loc 1 172 0
 363 0064 00E0     		b	.L31
 364              	.L43:
 173:.\tps.c       **** 
 174:.\tps.c       ****     default:
 175:.\tps.c       ****         break;
 365              		.loc 1 175 0
 366 0066 C046     		mov	r8, r8
 367              	.L31:
 176:.\tps.c       ****     }
 177:.\tps.c       **** }
 368              		.loc 1 177 0
 369 0068 BD46     		mov	sp, r7
 370 006a 02B0     		add	sp, sp, #8
 371              		@ sp needed
 372 006c 80BD     		pop	{r7, pc}
 373              	.L45:
 374 006e C046     		.align	2
 375              	.L44:
 376 0070 00000000 		.word	isTpsNotificationPending
 377 0074 74000000 		.word	.L34
 378              		.cfi_endproc
 379              	.LFE39:
 380              		.size	DecreaseTxPowerLevelValue, .-DecreaseTxPowerLevelValue
 381              		.text
 382              	.Letext0:
 383              		.file 2 "Generated_Source\\PSoC4/cytypes.h"
 384              		.file 3 "Generated_Source\\PSoC4/CYBLE_Stack.h"
ARM GAS  C:\Users\mohammed\AppData\Local\Temp\ccTLBOBF.s 			page 11


 385              		.file 4 "Generated_Source\\PSoC4/CYBLE_uds.h"
 386              		.file 5 "Generated_Source\\PSoC4/CYBLE_eventHandler.h"