ARM GAS  C:\Users\mohammed\AppData\Local\Temp\ccCCeZbd.s 			page 1


   1              		.cpu cortex-m0
   2              		.fpu softvfp
   3              		.eabi_attribute 20, 1
   4              		.eabi_attribute 21, 1
   5              		.eabi_attribute 23, 3
   6              		.eabi_attribute 24, 1
   7              		.eabi_attribute 25, 1
   8              		.eabi_attribute 26, 1
   9              		.eabi_attribute 30, 6
  10              		.eabi_attribute 34, 0
  11              		.eabi_attribute 18, 4
  12              		.code	16
  13              		.file	"UART_DEB.c"
  14              		.text
  15              	.Ltext0:
  16              		.cfi_sections	.debug_frame
  17              		.global	UART_DEB_initVar
  18              		.bss
  19              		.type	UART_DEB_initVar, %object
  20              		.size	UART_DEB_initVar, 1
  21              	UART_DEB_initVar:
  22 0000 00       		.space	1
  23              		.section	.text.UART_DEB_Init,"ax",%progbits
  24              		.align	2
  25              		.global	UART_DEB_Init
  26              		.code	16
  27              		.thumb_func
  28              		.type	UART_DEB_Init, %function
  29              	UART_DEB_Init:
  30              	.LFB2:
  31              		.file 1 ".\\Generated_Source\\PSoC4\\UART_DEB.c"
   1:.\Generated_Source\PSoC4/UART_DEB.c **** /*******************************************************************************
   2:.\Generated_Source\PSoC4/UART_DEB.c **** * File Name: UART_DEB.c
   3:.\Generated_Source\PSoC4/UART_DEB.c **** * Version 3.10
   4:.\Generated_Source\PSoC4/UART_DEB.c **** *
   5:.\Generated_Source\PSoC4/UART_DEB.c **** * Description:
   6:.\Generated_Source\PSoC4/UART_DEB.c **** *  This file provides the source code to the API for the SCB Component.
   7:.\Generated_Source\PSoC4/UART_DEB.c **** *
   8:.\Generated_Source\PSoC4/UART_DEB.c **** * Note:
   9:.\Generated_Source\PSoC4/UART_DEB.c **** *
  10:.\Generated_Source\PSoC4/UART_DEB.c **** *******************************************************************************
  11:.\Generated_Source\PSoC4/UART_DEB.c **** * Copyright 2013-2015, Cypress Semiconductor Corporation.  All rights reserved.
  12:.\Generated_Source\PSoC4/UART_DEB.c **** * You may use this file only in accordance with the license, terms, conditions,
  13:.\Generated_Source\PSoC4/UART_DEB.c **** * disclaimers, and limitations in the end user license agreement accompanying
  14:.\Generated_Source\PSoC4/UART_DEB.c **** * the software package with which this file was provided.
  15:.\Generated_Source\PSoC4/UART_DEB.c **** *******************************************************************************/
  16:.\Generated_Source\PSoC4/UART_DEB.c **** 
  17:.\Generated_Source\PSoC4/UART_DEB.c **** #include "UART_DEB_PVT.h"
  18:.\Generated_Source\PSoC4/UART_DEB.c **** 
  19:.\Generated_Source\PSoC4/UART_DEB.c **** #if (UART_DEB_SCB_MODE_I2C_INC)
  20:.\Generated_Source\PSoC4/UART_DEB.c ****     #include "UART_DEB_I2C_PVT.h"
  21:.\Generated_Source\PSoC4/UART_DEB.c **** #endif /* (UART_DEB_SCB_MODE_I2C_INC) */
  22:.\Generated_Source\PSoC4/UART_DEB.c **** 
  23:.\Generated_Source\PSoC4/UART_DEB.c **** #if (UART_DEB_SCB_MODE_EZI2C_INC)
  24:.\Generated_Source\PSoC4/UART_DEB.c ****     #include "UART_DEB_EZI2C_PVT.h"
  25:.\Generated_Source\PSoC4/UART_DEB.c **** #endif /* (UART_DEB_SCB_MODE_EZI2C_INC) */
  26:.\Generated_Source\PSoC4/UART_DEB.c **** 
ARM GAS  C:\Users\mohammed\AppData\Local\Temp\ccCCeZbd.s 			page 2


  27:.\Generated_Source\PSoC4/UART_DEB.c **** #if (UART_DEB_SCB_MODE_SPI_INC || UART_DEB_SCB_MODE_UART_INC)
  28:.\Generated_Source\PSoC4/UART_DEB.c ****     #include "UART_DEB_SPI_UART_PVT.h"
  29:.\Generated_Source\PSoC4/UART_DEB.c **** #endif /* (UART_DEB_SCB_MODE_SPI_INC || UART_DEB_SCB_MODE_UART_INC) */
  30:.\Generated_Source\PSoC4/UART_DEB.c **** 
  31:.\Generated_Source\PSoC4/UART_DEB.c **** 
  32:.\Generated_Source\PSoC4/UART_DEB.c **** /***************************************
  33:.\Generated_Source\PSoC4/UART_DEB.c **** *    Run Time Configuration Vars
  34:.\Generated_Source\PSoC4/UART_DEB.c **** ***************************************/
  35:.\Generated_Source\PSoC4/UART_DEB.c **** 
  36:.\Generated_Source\PSoC4/UART_DEB.c **** /* Stores internal component configuration for Unconfigured mode */
  37:.\Generated_Source\PSoC4/UART_DEB.c **** #if (UART_DEB_SCB_MODE_UNCONFIG_CONST_CFG)
  38:.\Generated_Source\PSoC4/UART_DEB.c ****     /* Common configuration variables */
  39:.\Generated_Source\PSoC4/UART_DEB.c ****     uint8 UART_DEB_scbMode = UART_DEB_SCB_MODE_UNCONFIG;
  40:.\Generated_Source\PSoC4/UART_DEB.c ****     uint8 UART_DEB_scbEnableWake;
  41:.\Generated_Source\PSoC4/UART_DEB.c ****     uint8 UART_DEB_scbEnableIntr;
  42:.\Generated_Source\PSoC4/UART_DEB.c **** 
  43:.\Generated_Source\PSoC4/UART_DEB.c ****     /* I2C configuration variables */
  44:.\Generated_Source\PSoC4/UART_DEB.c ****     uint8 UART_DEB_mode;
  45:.\Generated_Source\PSoC4/UART_DEB.c ****     uint8 UART_DEB_acceptAddr;
  46:.\Generated_Source\PSoC4/UART_DEB.c **** 
  47:.\Generated_Source\PSoC4/UART_DEB.c ****     /* SPI/UART configuration variables */
  48:.\Generated_Source\PSoC4/UART_DEB.c ****     volatile uint8 * UART_DEB_rxBuffer;
  49:.\Generated_Source\PSoC4/UART_DEB.c ****     uint8  UART_DEB_rxDataBits;
  50:.\Generated_Source\PSoC4/UART_DEB.c ****     uint32 UART_DEB_rxBufferSize;
  51:.\Generated_Source\PSoC4/UART_DEB.c **** 
  52:.\Generated_Source\PSoC4/UART_DEB.c ****     volatile uint8 * UART_DEB_txBuffer;
  53:.\Generated_Source\PSoC4/UART_DEB.c ****     uint8  UART_DEB_txDataBits;
  54:.\Generated_Source\PSoC4/UART_DEB.c ****     uint32 UART_DEB_txBufferSize;
  55:.\Generated_Source\PSoC4/UART_DEB.c **** 
  56:.\Generated_Source\PSoC4/UART_DEB.c ****     /* EZI2C configuration variables */
  57:.\Generated_Source\PSoC4/UART_DEB.c ****     uint8 UART_DEB_numberOfAddr;
  58:.\Generated_Source\PSoC4/UART_DEB.c ****     uint8 UART_DEB_subAddrSize;
  59:.\Generated_Source\PSoC4/UART_DEB.c **** #endif /* (UART_DEB_SCB_MODE_UNCONFIG_CONST_CFG) */
  60:.\Generated_Source\PSoC4/UART_DEB.c **** 
  61:.\Generated_Source\PSoC4/UART_DEB.c **** 
  62:.\Generated_Source\PSoC4/UART_DEB.c **** /***************************************
  63:.\Generated_Source\PSoC4/UART_DEB.c **** *     Common SCB Vars
  64:.\Generated_Source\PSoC4/UART_DEB.c **** ***************************************/
  65:.\Generated_Source\PSoC4/UART_DEB.c **** 
  66:.\Generated_Source\PSoC4/UART_DEB.c **** uint8 UART_DEB_initVar = 0u;
  67:.\Generated_Source\PSoC4/UART_DEB.c **** 
  68:.\Generated_Source\PSoC4/UART_DEB.c **** #if (UART_DEB_SCB_IRQ_INTERNAL)
  69:.\Generated_Source\PSoC4/UART_DEB.c **** #if !defined (CY_REMOVE_UART_DEB_CUSTOM_INTR_HANDLER)
  70:.\Generated_Source\PSoC4/UART_DEB.c ****     void (*UART_DEB_customIntrHandler)(void) = NULL;
  71:.\Generated_Source\PSoC4/UART_DEB.c **** #endif /* !defined (CY_REMOVE_UART_DEB_CUSTOM_INTR_HANDLER) */
  72:.\Generated_Source\PSoC4/UART_DEB.c **** #endif /* (UART_DEB_SCB_IRQ_INTERNAL) */
  73:.\Generated_Source\PSoC4/UART_DEB.c **** 
  74:.\Generated_Source\PSoC4/UART_DEB.c **** 
  75:.\Generated_Source\PSoC4/UART_DEB.c **** /***************************************
  76:.\Generated_Source\PSoC4/UART_DEB.c **** *    Private Function Prototypes
  77:.\Generated_Source\PSoC4/UART_DEB.c **** ***************************************/
  78:.\Generated_Source\PSoC4/UART_DEB.c **** 
  79:.\Generated_Source\PSoC4/UART_DEB.c **** static void UART_DEB_ScbEnableIntr(void);
  80:.\Generated_Source\PSoC4/UART_DEB.c **** static void UART_DEB_ScbModeStop(void);
  81:.\Generated_Source\PSoC4/UART_DEB.c **** static void UART_DEB_ScbModePostEnable(void);
  82:.\Generated_Source\PSoC4/UART_DEB.c **** 
  83:.\Generated_Source\PSoC4/UART_DEB.c **** 
ARM GAS  C:\Users\mohammed\AppData\Local\Temp\ccCCeZbd.s 			page 3


  84:.\Generated_Source\PSoC4/UART_DEB.c **** /*******************************************************************************
  85:.\Generated_Source\PSoC4/UART_DEB.c **** * Function Name: UART_DEB_Init
  86:.\Generated_Source\PSoC4/UART_DEB.c **** ********************************************************************************
  87:.\Generated_Source\PSoC4/UART_DEB.c **** *
  88:.\Generated_Source\PSoC4/UART_DEB.c **** * Summary:
  89:.\Generated_Source\PSoC4/UART_DEB.c **** *  Initializes the SCB component to operate in one of the selected
  90:.\Generated_Source\PSoC4/UART_DEB.c **** *  configurations: I2C, SPI, UART or EZI2C.
  91:.\Generated_Source\PSoC4/UART_DEB.c **** *  When the configuration is set to "Unconfigured SCB", this function does
  92:.\Generated_Source\PSoC4/UART_DEB.c **** *  not do any initialization. Use mode-specific initialization APIs instead:
  93:.\Generated_Source\PSoC4/UART_DEB.c **** *  SCB_I2CInit, SCB_SpiInit, SCB_UartInit or SCB_EzI2CInit.
  94:.\Generated_Source\PSoC4/UART_DEB.c **** *
  95:.\Generated_Source\PSoC4/UART_DEB.c **** * Parameters:
  96:.\Generated_Source\PSoC4/UART_DEB.c **** *  None
  97:.\Generated_Source\PSoC4/UART_DEB.c **** *
  98:.\Generated_Source\PSoC4/UART_DEB.c **** * Return:
  99:.\Generated_Source\PSoC4/UART_DEB.c **** *  None
 100:.\Generated_Source\PSoC4/UART_DEB.c **** *
 101:.\Generated_Source\PSoC4/UART_DEB.c **** *******************************************************************************/
 102:.\Generated_Source\PSoC4/UART_DEB.c **** void UART_DEB_Init(void)
 103:.\Generated_Source\PSoC4/UART_DEB.c **** {
  32              		.loc 1 103 0
  33              		.cfi_startproc
  34 0000 80B5     		push	{r7, lr}
  35              		.cfi_def_cfa_offset 8
  36              		.cfi_offset 7, -8
  37              		.cfi_offset 14, -4
  38 0002 00AF     		add	r7, sp, #0
  39              		.cfi_def_cfa_register 7
 104:.\Generated_Source\PSoC4/UART_DEB.c **** #if (UART_DEB_SCB_MODE_UNCONFIG_CONST_CFG)
 105:.\Generated_Source\PSoC4/UART_DEB.c ****     if (UART_DEB_SCB_MODE_UNCONFIG_RUNTM_CFG)
 106:.\Generated_Source\PSoC4/UART_DEB.c ****     {
 107:.\Generated_Source\PSoC4/UART_DEB.c ****         UART_DEB_initVar = 0u;
 108:.\Generated_Source\PSoC4/UART_DEB.c ****     }
 109:.\Generated_Source\PSoC4/UART_DEB.c ****     else
 110:.\Generated_Source\PSoC4/UART_DEB.c ****     {
 111:.\Generated_Source\PSoC4/UART_DEB.c ****         /* Initialization was done before this function call */
 112:.\Generated_Source\PSoC4/UART_DEB.c ****     }
 113:.\Generated_Source\PSoC4/UART_DEB.c **** 
 114:.\Generated_Source\PSoC4/UART_DEB.c **** #elif (UART_DEB_SCB_MODE_I2C_CONST_CFG)
 115:.\Generated_Source\PSoC4/UART_DEB.c ****     UART_DEB_I2CInit();
 116:.\Generated_Source\PSoC4/UART_DEB.c **** 
 117:.\Generated_Source\PSoC4/UART_DEB.c **** #elif (UART_DEB_SCB_MODE_SPI_CONST_CFG)
 118:.\Generated_Source\PSoC4/UART_DEB.c ****     UART_DEB_SpiInit();
 119:.\Generated_Source\PSoC4/UART_DEB.c **** 
 120:.\Generated_Source\PSoC4/UART_DEB.c **** #elif (UART_DEB_SCB_MODE_UART_CONST_CFG)
 121:.\Generated_Source\PSoC4/UART_DEB.c ****     UART_DEB_UartInit();
  40              		.loc 1 121 0
  41 0004 FFF7FEFF 		bl	UART_DEB_UartInit
 122:.\Generated_Source\PSoC4/UART_DEB.c **** 
 123:.\Generated_Source\PSoC4/UART_DEB.c **** #elif (UART_DEB_SCB_MODE_EZI2C_CONST_CFG)
 124:.\Generated_Source\PSoC4/UART_DEB.c ****     UART_DEB_EzI2CInit();
 125:.\Generated_Source\PSoC4/UART_DEB.c **** 
 126:.\Generated_Source\PSoC4/UART_DEB.c **** #endif /* (UART_DEB_SCB_MODE_UNCONFIG_CONST_CFG) */
 127:.\Generated_Source\PSoC4/UART_DEB.c **** }
  42              		.loc 1 127 0
  43 0008 BD46     		mov	sp, r7
  44              		@ sp needed
ARM GAS  C:\Users\mohammed\AppData\Local\Temp\ccCCeZbd.s 			page 4


  45 000a 80BD     		pop	{r7, pc}
  46              		.cfi_endproc
  47              	.LFE2:
  48              		.size	UART_DEB_Init, .-UART_DEB_Init
  49              		.section	.text.UART_DEB_Enable,"ax",%progbits
  50              		.align	2
  51              		.global	UART_DEB_Enable
  52              		.code	16
  53              		.thumb_func
  54              		.type	UART_DEB_Enable, %function
  55              	UART_DEB_Enable:
  56              	.LFB3:
 128:.\Generated_Source\PSoC4/UART_DEB.c **** 
 129:.\Generated_Source\PSoC4/UART_DEB.c **** 
 130:.\Generated_Source\PSoC4/UART_DEB.c **** /*******************************************************************************
 131:.\Generated_Source\PSoC4/UART_DEB.c **** * Function Name: UART_DEB_Enable
 132:.\Generated_Source\PSoC4/UART_DEB.c **** ********************************************************************************
 133:.\Generated_Source\PSoC4/UART_DEB.c **** *
 134:.\Generated_Source\PSoC4/UART_DEB.c **** * Summary:
 135:.\Generated_Source\PSoC4/UART_DEB.c **** *  Enables the SCB component operation.
 136:.\Generated_Source\PSoC4/UART_DEB.c **** *  The SCB configuration should be not changed when the component is enabled.
 137:.\Generated_Source\PSoC4/UART_DEB.c **** *  Any configuration changes should be made after disabling the component.
 138:.\Generated_Source\PSoC4/UART_DEB.c **** *
 139:.\Generated_Source\PSoC4/UART_DEB.c **** * Parameters:
 140:.\Generated_Source\PSoC4/UART_DEB.c **** *  None
 141:.\Generated_Source\PSoC4/UART_DEB.c **** *
 142:.\Generated_Source\PSoC4/UART_DEB.c **** * Return:
 143:.\Generated_Source\PSoC4/UART_DEB.c **** *  None
 144:.\Generated_Source\PSoC4/UART_DEB.c **** *
 145:.\Generated_Source\PSoC4/UART_DEB.c **** *******************************************************************************/
 146:.\Generated_Source\PSoC4/UART_DEB.c **** void UART_DEB_Enable(void)
 147:.\Generated_Source\PSoC4/UART_DEB.c **** {
  57              		.loc 1 147 0
  58              		.cfi_startproc
  59 0000 80B5     		push	{r7, lr}
  60              		.cfi_def_cfa_offset 8
  61              		.cfi_offset 7, -8
  62              		.cfi_offset 14, -4
  63 0002 00AF     		add	r7, sp, #0
  64              		.cfi_def_cfa_register 7
 148:.\Generated_Source\PSoC4/UART_DEB.c **** #if (UART_DEB_SCB_MODE_UNCONFIG_CONST_CFG)
 149:.\Generated_Source\PSoC4/UART_DEB.c ****     /* Enable SCB block, only if it is already configured */
 150:.\Generated_Source\PSoC4/UART_DEB.c ****     if (!UART_DEB_SCB_MODE_UNCONFIG_RUNTM_CFG)
 151:.\Generated_Source\PSoC4/UART_DEB.c ****     {
 152:.\Generated_Source\PSoC4/UART_DEB.c ****         UART_DEB_CTRL_REG |= UART_DEB_CTRL_ENABLED;
 153:.\Generated_Source\PSoC4/UART_DEB.c **** 
 154:.\Generated_Source\PSoC4/UART_DEB.c ****         UART_DEB_ScbEnableIntr();
 155:.\Generated_Source\PSoC4/UART_DEB.c **** 
 156:.\Generated_Source\PSoC4/UART_DEB.c ****         /* Call PostEnable function specific to current operation mode */
 157:.\Generated_Source\PSoC4/UART_DEB.c ****         UART_DEB_ScbModePostEnable();
 158:.\Generated_Source\PSoC4/UART_DEB.c ****     }
 159:.\Generated_Source\PSoC4/UART_DEB.c **** #else
 160:.\Generated_Source\PSoC4/UART_DEB.c ****     UART_DEB_CTRL_REG |= UART_DEB_CTRL_ENABLED;
  65              		.loc 1 160 0
  66 0004 064B     		ldr	r3, .L3
  67 0006 064A     		ldr	r2, .L3
  68 0008 1268     		ldr	r2, [r2]
ARM GAS  C:\Users\mohammed\AppData\Local\Temp\ccCCeZbd.s 			page 5


  69 000a 8021     		mov	r1, #128
  70 000c 0906     		lsl	r1, r1, #24
  71 000e 0A43     		orr	r2, r1
  72 0010 1A60     		str	r2, [r3]
 161:.\Generated_Source\PSoC4/UART_DEB.c **** 
 162:.\Generated_Source\PSoC4/UART_DEB.c ****     UART_DEB_ScbEnableIntr();
  73              		.loc 1 162 0
  74 0012 FFF7FEFF 		bl	UART_DEB_ScbEnableIntr
 163:.\Generated_Source\PSoC4/UART_DEB.c **** 
 164:.\Generated_Source\PSoC4/UART_DEB.c ****     /* Call PostEnable function specific to current operation mode */
 165:.\Generated_Source\PSoC4/UART_DEB.c ****     UART_DEB_ScbModePostEnable();
  75              		.loc 1 165 0
  76 0016 FFF7FEFF 		bl	UART_DEB_ScbModePostEnable
 166:.\Generated_Source\PSoC4/UART_DEB.c **** #endif /* (UART_DEB_SCB_MODE_UNCONFIG_CONST_CFG) */
 167:.\Generated_Source\PSoC4/UART_DEB.c **** }
  77              		.loc 1 167 0
  78 001a BD46     		mov	sp, r7
  79              		@ sp needed
  80 001c 80BD     		pop	{r7, pc}
  81              	.L4:
  82 001e C046     		.align	2
  83              	.L3:
  84 0020 00002440 		.word	1076101120
  85              		.cfi_endproc
  86              	.LFE3:
  87              		.size	UART_DEB_Enable, .-UART_DEB_Enable
  88              		.section	.text.UART_DEB_Start,"ax",%progbits
  89              		.align	2
  90              		.global	UART_DEB_Start
  91              		.code	16
  92              		.thumb_func
  93              		.type	UART_DEB_Start, %function
  94              	UART_DEB_Start:
  95              	.LFB4:
 168:.\Generated_Source\PSoC4/UART_DEB.c **** 
 169:.\Generated_Source\PSoC4/UART_DEB.c **** 
 170:.\Generated_Source\PSoC4/UART_DEB.c **** /*******************************************************************************
 171:.\Generated_Source\PSoC4/UART_DEB.c **** * Function Name: UART_DEB_Start
 172:.\Generated_Source\PSoC4/UART_DEB.c **** ********************************************************************************
 173:.\Generated_Source\PSoC4/UART_DEB.c **** *
 174:.\Generated_Source\PSoC4/UART_DEB.c **** * Summary:
 175:.\Generated_Source\PSoC4/UART_DEB.c **** *  Invokes SCB_Init() and SCB_Enable().
 176:.\Generated_Source\PSoC4/UART_DEB.c **** *  After this function call, the component is enabled and ready for operation.
 177:.\Generated_Source\PSoC4/UART_DEB.c **** *  When configuration is set to "Unconfigured SCB", the component must first be
 178:.\Generated_Source\PSoC4/UART_DEB.c **** *  initialized to operate in one of the following configurations: I2C, SPI, UART
 179:.\Generated_Source\PSoC4/UART_DEB.c **** *  or EZ I2C. Otherwise this function does not enable the component.
 180:.\Generated_Source\PSoC4/UART_DEB.c **** *
 181:.\Generated_Source\PSoC4/UART_DEB.c **** * Parameters:
 182:.\Generated_Source\PSoC4/UART_DEB.c **** *  None
 183:.\Generated_Source\PSoC4/UART_DEB.c **** *
 184:.\Generated_Source\PSoC4/UART_DEB.c **** * Return:
 185:.\Generated_Source\PSoC4/UART_DEB.c **** *  None
 186:.\Generated_Source\PSoC4/UART_DEB.c **** *
 187:.\Generated_Source\PSoC4/UART_DEB.c **** * Global variables:
 188:.\Generated_Source\PSoC4/UART_DEB.c **** *  UART_DEB_initVar - used to check initial configuration, modified
 189:.\Generated_Source\PSoC4/UART_DEB.c **** *  on first function call.
 190:.\Generated_Source\PSoC4/UART_DEB.c **** *
ARM GAS  C:\Users\mohammed\AppData\Local\Temp\ccCCeZbd.s 			page 6


 191:.\Generated_Source\PSoC4/UART_DEB.c **** *******************************************************************************/
 192:.\Generated_Source\PSoC4/UART_DEB.c **** void UART_DEB_Start(void)
 193:.\Generated_Source\PSoC4/UART_DEB.c **** {
  96              		.loc 1 193 0
  97              		.cfi_startproc
  98 0000 80B5     		push	{r7, lr}
  99              		.cfi_def_cfa_offset 8
 100              		.cfi_offset 7, -8
 101              		.cfi_offset 14, -4
 102 0002 00AF     		add	r7, sp, #0
 103              		.cfi_def_cfa_register 7
 194:.\Generated_Source\PSoC4/UART_DEB.c ****     if (0u == UART_DEB_initVar)
 104              		.loc 1 194 0
 105 0004 064B     		ldr	r3, .L7
 106 0006 1B78     		ldrb	r3, [r3]
 107 0008 002B     		cmp	r3, #0
 108 000a 04D1     		bne	.L6
 195:.\Generated_Source\PSoC4/UART_DEB.c ****     {
 196:.\Generated_Source\PSoC4/UART_DEB.c ****         UART_DEB_Init();
 109              		.loc 1 196 0
 110 000c FFF7FEFF 		bl	UART_DEB_Init
 197:.\Generated_Source\PSoC4/UART_DEB.c ****         UART_DEB_initVar = 1u; /* Component was initialized */
 111              		.loc 1 197 0
 112 0010 034B     		ldr	r3, .L7
 113 0012 0122     		mov	r2, #1
 114 0014 1A70     		strb	r2, [r3]
 115              	.L6:
 198:.\Generated_Source\PSoC4/UART_DEB.c ****     }
 199:.\Generated_Source\PSoC4/UART_DEB.c **** 
 200:.\Generated_Source\PSoC4/UART_DEB.c ****     UART_DEB_Enable();
 116              		.loc 1 200 0
 117 0016 FFF7FEFF 		bl	UART_DEB_Enable
 201:.\Generated_Source\PSoC4/UART_DEB.c **** }
 118              		.loc 1 201 0
 119 001a BD46     		mov	sp, r7
 120              		@ sp needed
 121 001c 80BD     		pop	{r7, pc}
 122              	.L8:
 123 001e C046     		.align	2
 124              	.L7:
 125 0020 00000000 		.word	UART_DEB_initVar
 126              		.cfi_endproc
 127              	.LFE4:
 128              		.size	UART_DEB_Start, .-UART_DEB_Start
 129              		.section	.text.UART_DEB_Stop,"ax",%progbits
 130              		.align	2
 131              		.global	UART_DEB_Stop
 132              		.code	16
 133              		.thumb_func
 134              		.type	UART_DEB_Stop, %function
 135              	UART_DEB_Stop:
 136              	.LFB5:
 202:.\Generated_Source\PSoC4/UART_DEB.c **** 
 203:.\Generated_Source\PSoC4/UART_DEB.c **** 
 204:.\Generated_Source\PSoC4/UART_DEB.c **** /*******************************************************************************
 205:.\Generated_Source\PSoC4/UART_DEB.c **** * Function Name: UART_DEB_Stop
 206:.\Generated_Source\PSoC4/UART_DEB.c **** ********************************************************************************
ARM GAS  C:\Users\mohammed\AppData\Local\Temp\ccCCeZbd.s 			page 7


 207:.\Generated_Source\PSoC4/UART_DEB.c **** *
 208:.\Generated_Source\PSoC4/UART_DEB.c **** * Summary:
 209:.\Generated_Source\PSoC4/UART_DEB.c **** *  Disables the SCB component and its interrupt.
 210:.\Generated_Source\PSoC4/UART_DEB.c **** *  It also disables all TX interrupt sources so as not to cause an unexpected
 211:.\Generated_Source\PSoC4/UART_DEB.c **** *  interrupt trigger because after the component is enabled, the TX FIFO 
 212:.\Generated_Source\PSoC4/UART_DEB.c **** *  is empty.
 213:.\Generated_Source\PSoC4/UART_DEB.c **** *
 214:.\Generated_Source\PSoC4/UART_DEB.c **** * Parameters:
 215:.\Generated_Source\PSoC4/UART_DEB.c **** *  None
 216:.\Generated_Source\PSoC4/UART_DEB.c **** *
 217:.\Generated_Source\PSoC4/UART_DEB.c **** * Return:
 218:.\Generated_Source\PSoC4/UART_DEB.c **** *  None
 219:.\Generated_Source\PSoC4/UART_DEB.c **** * 
 220:.\Generated_Source\PSoC4/UART_DEB.c **** *******************************************************************************/
 221:.\Generated_Source\PSoC4/UART_DEB.c **** void UART_DEB_Stop(void)
 222:.\Generated_Source\PSoC4/UART_DEB.c **** {
 137              		.loc 1 222 0
 138              		.cfi_startproc
 139 0000 80B5     		push	{r7, lr}
 140              		.cfi_def_cfa_offset 8
 141              		.cfi_offset 7, -8
 142              		.cfi_offset 14, -4
 143 0002 00AF     		add	r7, sp, #0
 144              		.cfi_def_cfa_register 7
 223:.\Generated_Source\PSoC4/UART_DEB.c **** #if (UART_DEB_SCB_IRQ_INTERNAL)
 224:.\Generated_Source\PSoC4/UART_DEB.c ****     UART_DEB_DisableInt();
 225:.\Generated_Source\PSoC4/UART_DEB.c **** #endif /* (UART_DEB_SCB_IRQ_INTERNAL) */
 226:.\Generated_Source\PSoC4/UART_DEB.c **** 
 227:.\Generated_Source\PSoC4/UART_DEB.c ****     /* Call Stop function specific to current operation mode */
 228:.\Generated_Source\PSoC4/UART_DEB.c ****     UART_DEB_ScbModeStop();
 145              		.loc 1 228 0
 146 0004 FFF7FEFF 		bl	UART_DEB_ScbModeStop
 229:.\Generated_Source\PSoC4/UART_DEB.c **** 
 230:.\Generated_Source\PSoC4/UART_DEB.c ****     /* Disable SCB IP */
 231:.\Generated_Source\PSoC4/UART_DEB.c ****     UART_DEB_CTRL_REG &= (uint32) ~UART_DEB_CTRL_ENABLED;
 147              		.loc 1 231 0
 148 0008 054B     		ldr	r3, .L10
 149 000a 054A     		ldr	r2, .L10
 150 000c 1268     		ldr	r2, [r2]
 151 000e 5200     		lsl	r2, r2, #1
 152 0010 5208     		lsr	r2, r2, #1
 153 0012 1A60     		str	r2, [r3]
 232:.\Generated_Source\PSoC4/UART_DEB.c **** 
 233:.\Generated_Source\PSoC4/UART_DEB.c ****     /* Disable all TX interrupt sources so as not to cause an unexpected
 234:.\Generated_Source\PSoC4/UART_DEB.c ****     * interrupt trigger because after the component is enabled, the TX FIFO
 235:.\Generated_Source\PSoC4/UART_DEB.c ****     * is empty.
 236:.\Generated_Source\PSoC4/UART_DEB.c ****     * For SCB IP v0, it is critical as it does not mask-out interrupt
 237:.\Generated_Source\PSoC4/UART_DEB.c ****     * sources when they are disabled. This can cause a code lock-up in the
 238:.\Generated_Source\PSoC4/UART_DEB.c ****     * interrupt handler because TX FIFO cannot be loaded after the block
 239:.\Generated_Source\PSoC4/UART_DEB.c ****     * is disabled.
 240:.\Generated_Source\PSoC4/UART_DEB.c ****     */
 241:.\Generated_Source\PSoC4/UART_DEB.c ****     UART_DEB_SetTxInterruptMode(UART_DEB_NO_INTR_SOURCES);
 154              		.loc 1 241 0
 155 0014 034B     		ldr	r3, .L10+4
 156 0016 0022     		mov	r2, #0
 157 0018 1A60     		str	r2, [r3]
 242:.\Generated_Source\PSoC4/UART_DEB.c **** 
ARM GAS  C:\Users\mohammed\AppData\Local\Temp\ccCCeZbd.s 			page 8


 243:.\Generated_Source\PSoC4/UART_DEB.c **** #if (UART_DEB_SCB_IRQ_INTERNAL)
 244:.\Generated_Source\PSoC4/UART_DEB.c ****     UART_DEB_ClearPendingInt();
 245:.\Generated_Source\PSoC4/UART_DEB.c **** #endif /* (UART_DEB_SCB_IRQ_INTERNAL) */
 246:.\Generated_Source\PSoC4/UART_DEB.c **** }
 158              		.loc 1 246 0
 159 001a BD46     		mov	sp, r7
 160              		@ sp needed
 161 001c 80BD     		pop	{r7, pc}
 162              	.L11:
 163 001e C046     		.align	2
 164              	.L10:
 165 0020 00002440 		.word	1076101120
 166 0024 880F2440 		.word	1076105096
 167              		.cfi_endproc
 168              	.LFE5:
 169              		.size	UART_DEB_Stop, .-UART_DEB_Stop
 170              		.section	.text.UART_DEB_SetRxFifoLevel,"ax",%progbits
 171              		.align	2
 172              		.global	UART_DEB_SetRxFifoLevel
 173              		.code	16
 174              		.thumb_func
 175              		.type	UART_DEB_SetRxFifoLevel, %function
 176              	UART_DEB_SetRxFifoLevel:
 177              	.LFB6:
 247:.\Generated_Source\PSoC4/UART_DEB.c **** 
 248:.\Generated_Source\PSoC4/UART_DEB.c **** 
 249:.\Generated_Source\PSoC4/UART_DEB.c **** /*******************************************************************************
 250:.\Generated_Source\PSoC4/UART_DEB.c **** * Function Name: UART_DEB_SetRxFifoLevel
 251:.\Generated_Source\PSoC4/UART_DEB.c **** ********************************************************************************
 252:.\Generated_Source\PSoC4/UART_DEB.c **** *
 253:.\Generated_Source\PSoC4/UART_DEB.c **** * Summary:
 254:.\Generated_Source\PSoC4/UART_DEB.c **** *  Sets level in the RX FIFO to generate a RX level interrupt.
 255:.\Generated_Source\PSoC4/UART_DEB.c **** *  When the RX FIFO has more entries than the RX FIFO level an RX level
 256:.\Generated_Source\PSoC4/UART_DEB.c **** *  interrupt request is generated.
 257:.\Generated_Source\PSoC4/UART_DEB.c **** *
 258:.\Generated_Source\PSoC4/UART_DEB.c **** * Parameters:
 259:.\Generated_Source\PSoC4/UART_DEB.c **** *  level: Level in the RX FIFO to generate RX level interrupt.
 260:.\Generated_Source\PSoC4/UART_DEB.c **** *         The range of valid level values is between 0 and RX FIFO depth - 1.
 261:.\Generated_Source\PSoC4/UART_DEB.c **** *
 262:.\Generated_Source\PSoC4/UART_DEB.c **** * Return:
 263:.\Generated_Source\PSoC4/UART_DEB.c **** *  None
 264:.\Generated_Source\PSoC4/UART_DEB.c **** *
 265:.\Generated_Source\PSoC4/UART_DEB.c **** *******************************************************************************/
 266:.\Generated_Source\PSoC4/UART_DEB.c **** void UART_DEB_SetRxFifoLevel(uint32 level)
 267:.\Generated_Source\PSoC4/UART_DEB.c **** {
 178              		.loc 1 267 0
 179              		.cfi_startproc
 180 0000 80B5     		push	{r7, lr}
 181              		.cfi_def_cfa_offset 8
 182              		.cfi_offset 7, -8
 183              		.cfi_offset 14, -4
 184 0002 84B0     		sub	sp, sp, #16
 185              		.cfi_def_cfa_offset 24
 186 0004 00AF     		add	r7, sp, #0
 187              		.cfi_def_cfa_register 7
 188 0006 7860     		str	r0, [r7, #4]
 268:.\Generated_Source\PSoC4/UART_DEB.c ****     uint32 rxFifoCtrl;
ARM GAS  C:\Users\mohammed\AppData\Local\Temp\ccCCeZbd.s 			page 9


 269:.\Generated_Source\PSoC4/UART_DEB.c **** 
 270:.\Generated_Source\PSoC4/UART_DEB.c ****     rxFifoCtrl = UART_DEB_RX_FIFO_CTRL_REG;
 189              		.loc 1 270 0
 190 0008 094B     		ldr	r3, .L13
 191 000a 1B68     		ldr	r3, [r3]
 192 000c FB60     		str	r3, [r7, #12]
 271:.\Generated_Source\PSoC4/UART_DEB.c **** 
 272:.\Generated_Source\PSoC4/UART_DEB.c ****     rxFifoCtrl &= ((uint32) ~UART_DEB_RX_FIFO_CTRL_TRIGGER_LEVEL_MASK); /* Clear level mask bits */
 193              		.loc 1 272 0
 194 000e FB68     		ldr	r3, [r7, #12]
 195 0010 0F22     		mov	r2, #15
 196 0012 9343     		bic	r3, r2
 197 0014 FB60     		str	r3, [r7, #12]
 273:.\Generated_Source\PSoC4/UART_DEB.c ****     rxFifoCtrl |= ((uint32) (UART_DEB_RX_FIFO_CTRL_TRIGGER_LEVEL_MASK & level));
 198              		.loc 1 273 0
 199 0016 7B68     		ldr	r3, [r7, #4]
 200 0018 0F22     		mov	r2, #15
 201 001a 1340     		and	r3, r2
 202 001c FA68     		ldr	r2, [r7, #12]
 203 001e 1343     		orr	r3, r2
 204 0020 FB60     		str	r3, [r7, #12]
 274:.\Generated_Source\PSoC4/UART_DEB.c **** 
 275:.\Generated_Source\PSoC4/UART_DEB.c ****     UART_DEB_RX_FIFO_CTRL_REG = rxFifoCtrl;
 205              		.loc 1 275 0
 206 0022 034B     		ldr	r3, .L13
 207 0024 FA68     		ldr	r2, [r7, #12]
 208 0026 1A60     		str	r2, [r3]
 276:.\Generated_Source\PSoC4/UART_DEB.c **** }
 209              		.loc 1 276 0
 210 0028 BD46     		mov	sp, r7
 211 002a 04B0     		add	sp, sp, #16
 212              		@ sp needed
 213 002c 80BD     		pop	{r7, pc}
 214              	.L14:
 215 002e C046     		.align	2
 216              	.L13:
 217 0030 04032440 		.word	1076101892
 218              		.cfi_endproc
 219              	.LFE6:
 220              		.size	UART_DEB_SetRxFifoLevel, .-UART_DEB_SetRxFifoLevel
 221              		.section	.text.UART_DEB_SetTxFifoLevel,"ax",%progbits
 222              		.align	2
 223              		.global	UART_DEB_SetTxFifoLevel
 224              		.code	16
 225              		.thumb_func
 226              		.type	UART_DEB_SetTxFifoLevel, %function
 227              	UART_DEB_SetTxFifoLevel:
 228              	.LFB7:
 277:.\Generated_Source\PSoC4/UART_DEB.c **** 
 278:.\Generated_Source\PSoC4/UART_DEB.c **** 
 279:.\Generated_Source\PSoC4/UART_DEB.c **** /*******************************************************************************
 280:.\Generated_Source\PSoC4/UART_DEB.c **** * Function Name: UART_DEB_SetTxFifoLevel
 281:.\Generated_Source\PSoC4/UART_DEB.c **** ********************************************************************************
 282:.\Generated_Source\PSoC4/UART_DEB.c **** *
 283:.\Generated_Source\PSoC4/UART_DEB.c **** * Summary:
 284:.\Generated_Source\PSoC4/UART_DEB.c **** *  Sets level in the TX FIFO to generate a TX level interrupt.
 285:.\Generated_Source\PSoC4/UART_DEB.c **** *  When the TX FIFO has more entries than the TX FIFO level an TX level
ARM GAS  C:\Users\mohammed\AppData\Local\Temp\ccCCeZbd.s 			page 10


 286:.\Generated_Source\PSoC4/UART_DEB.c **** *  interrupt request is generated.
 287:.\Generated_Source\PSoC4/UART_DEB.c **** *
 288:.\Generated_Source\PSoC4/UART_DEB.c **** * Parameters:
 289:.\Generated_Source\PSoC4/UART_DEB.c **** *  level: Level in the TX FIFO to generate TX level interrupt.
 290:.\Generated_Source\PSoC4/UART_DEB.c **** *         The range of valid level values is between 0 and TX FIFO depth - 1.
 291:.\Generated_Source\PSoC4/UART_DEB.c **** *
 292:.\Generated_Source\PSoC4/UART_DEB.c **** * Return:
 293:.\Generated_Source\PSoC4/UART_DEB.c **** *  None
 294:.\Generated_Source\PSoC4/UART_DEB.c **** *
 295:.\Generated_Source\PSoC4/UART_DEB.c **** *******************************************************************************/
 296:.\Generated_Source\PSoC4/UART_DEB.c **** void UART_DEB_SetTxFifoLevel(uint32 level)
 297:.\Generated_Source\PSoC4/UART_DEB.c **** {
 229              		.loc 1 297 0
 230              		.cfi_startproc
 231 0000 80B5     		push	{r7, lr}
 232              		.cfi_def_cfa_offset 8
 233              		.cfi_offset 7, -8
 234              		.cfi_offset 14, -4
 235 0002 84B0     		sub	sp, sp, #16
 236              		.cfi_def_cfa_offset 24
 237 0004 00AF     		add	r7, sp, #0
 238              		.cfi_def_cfa_register 7
 239 0006 7860     		str	r0, [r7, #4]
 298:.\Generated_Source\PSoC4/UART_DEB.c ****     uint32 txFifoCtrl;
 299:.\Generated_Source\PSoC4/UART_DEB.c **** 
 300:.\Generated_Source\PSoC4/UART_DEB.c ****     txFifoCtrl = UART_DEB_TX_FIFO_CTRL_REG;
 240              		.loc 1 300 0
 241 0008 094B     		ldr	r3, .L16
 242 000a 1B68     		ldr	r3, [r3]
 243 000c FB60     		str	r3, [r7, #12]
 301:.\Generated_Source\PSoC4/UART_DEB.c **** 
 302:.\Generated_Source\PSoC4/UART_DEB.c ****     txFifoCtrl &= ((uint32) ~UART_DEB_TX_FIFO_CTRL_TRIGGER_LEVEL_MASK); /* Clear level mask bits */
 244              		.loc 1 302 0
 245 000e FB68     		ldr	r3, [r7, #12]
 246 0010 0F22     		mov	r2, #15
 247 0012 9343     		bic	r3, r2
 248 0014 FB60     		str	r3, [r7, #12]
 303:.\Generated_Source\PSoC4/UART_DEB.c ****     txFifoCtrl |= ((uint32) (UART_DEB_TX_FIFO_CTRL_TRIGGER_LEVEL_MASK & level));
 249              		.loc 1 303 0
 250 0016 7B68     		ldr	r3, [r7, #4]
 251 0018 0F22     		mov	r2, #15
 252 001a 1340     		and	r3, r2
 253 001c FA68     		ldr	r2, [r7, #12]
 254 001e 1343     		orr	r3, r2
 255 0020 FB60     		str	r3, [r7, #12]
 304:.\Generated_Source\PSoC4/UART_DEB.c **** 
 305:.\Generated_Source\PSoC4/UART_DEB.c ****     UART_DEB_TX_FIFO_CTRL_REG = txFifoCtrl;
 256              		.loc 1 305 0
 257 0022 034B     		ldr	r3, .L16
 258 0024 FA68     		ldr	r2, [r7, #12]
 259 0026 1A60     		str	r2, [r3]
 306:.\Generated_Source\PSoC4/UART_DEB.c **** }
 260              		.loc 1 306 0
 261 0028 BD46     		mov	sp, r7
 262 002a 04B0     		add	sp, sp, #16
 263              		@ sp needed
 264 002c 80BD     		pop	{r7, pc}
ARM GAS  C:\Users\mohammed\AppData\Local\Temp\ccCCeZbd.s 			page 11


 265              	.L17:
 266 002e C046     		.align	2
 267              	.L16:
 268 0030 04022440 		.word	1076101636
 269              		.cfi_endproc
 270              	.LFE7:
 271              		.size	UART_DEB_SetTxFifoLevel, .-UART_DEB_SetTxFifoLevel
 272              		.section	.text.UART_DEB_ScbEnableIntr,"ax",%progbits
 273              		.align	2
 274              		.code	16
 275              		.thumb_func
 276              		.type	UART_DEB_ScbEnableIntr, %function
 277              	UART_DEB_ScbEnableIntr:
 278              	.LFB8:
 307:.\Generated_Source\PSoC4/UART_DEB.c **** 
 308:.\Generated_Source\PSoC4/UART_DEB.c **** 
 309:.\Generated_Source\PSoC4/UART_DEB.c **** #if (UART_DEB_SCB_IRQ_INTERNAL)
 310:.\Generated_Source\PSoC4/UART_DEB.c ****     /*******************************************************************************
 311:.\Generated_Source\PSoC4/UART_DEB.c ****     * Function Name: UART_DEB_SetCustomInterruptHandler
 312:.\Generated_Source\PSoC4/UART_DEB.c ****     ********************************************************************************
 313:.\Generated_Source\PSoC4/UART_DEB.c ****     *
 314:.\Generated_Source\PSoC4/UART_DEB.c ****     * Summary:
 315:.\Generated_Source\PSoC4/UART_DEB.c ****     *  Registers a function to be called by the internal interrupt handler.
 316:.\Generated_Source\PSoC4/UART_DEB.c ****     *  First the function that is registered is called, then the internal interrupt
 317:.\Generated_Source\PSoC4/UART_DEB.c ****     *  handler performs any operation such as software buffer management functions
 318:.\Generated_Source\PSoC4/UART_DEB.c ****     *  before the interrupt returns.  It is the user's responsibility not to break
 319:.\Generated_Source\PSoC4/UART_DEB.c ****     *  the software buffer operations. Only one custom handler is supported, which
 320:.\Generated_Source\PSoC4/UART_DEB.c ****     *  is the function provided by the most recent call.
 321:.\Generated_Source\PSoC4/UART_DEB.c ****     *  At the initialization time no custom handler is registered.
 322:.\Generated_Source\PSoC4/UART_DEB.c ****     *
 323:.\Generated_Source\PSoC4/UART_DEB.c ****     * Parameters:
 324:.\Generated_Source\PSoC4/UART_DEB.c ****     *  func: Pointer to the function to register.
 325:.\Generated_Source\PSoC4/UART_DEB.c ****     *        The value NULL indicates to remove the current custom interrupt
 326:.\Generated_Source\PSoC4/UART_DEB.c ****     *        handler.
 327:.\Generated_Source\PSoC4/UART_DEB.c ****     *
 328:.\Generated_Source\PSoC4/UART_DEB.c ****     * Return:
 329:.\Generated_Source\PSoC4/UART_DEB.c ****     *  None
 330:.\Generated_Source\PSoC4/UART_DEB.c ****     *
 331:.\Generated_Source\PSoC4/UART_DEB.c ****     *******************************************************************************/
 332:.\Generated_Source\PSoC4/UART_DEB.c ****     void UART_DEB_SetCustomInterruptHandler(void (*func)(void))
 333:.\Generated_Source\PSoC4/UART_DEB.c ****     {
 334:.\Generated_Source\PSoC4/UART_DEB.c ****     #if !defined (CY_REMOVE_UART_DEB_CUSTOM_INTR_HANDLER)
 335:.\Generated_Source\PSoC4/UART_DEB.c ****         UART_DEB_customIntrHandler = func; /* Register interrupt handler */
 336:.\Generated_Source\PSoC4/UART_DEB.c ****     #else
 337:.\Generated_Source\PSoC4/UART_DEB.c ****         if (NULL != func)
 338:.\Generated_Source\PSoC4/UART_DEB.c ****         {
 339:.\Generated_Source\PSoC4/UART_DEB.c ****             /* Suppress compiler warning */
 340:.\Generated_Source\PSoC4/UART_DEB.c ****         }
 341:.\Generated_Source\PSoC4/UART_DEB.c ****     #endif /* !defined (CY_REMOVE_UART_DEB_CUSTOM_INTR_HANDLER) */
 342:.\Generated_Source\PSoC4/UART_DEB.c ****     }
 343:.\Generated_Source\PSoC4/UART_DEB.c **** #endif /* (UART_DEB_SCB_IRQ_INTERNAL) */
 344:.\Generated_Source\PSoC4/UART_DEB.c **** 
 345:.\Generated_Source\PSoC4/UART_DEB.c **** 
 346:.\Generated_Source\PSoC4/UART_DEB.c **** /*******************************************************************************
 347:.\Generated_Source\PSoC4/UART_DEB.c **** * Function Name: UART_DEB_ScbModeEnableIntr
 348:.\Generated_Source\PSoC4/UART_DEB.c **** ********************************************************************************
 349:.\Generated_Source\PSoC4/UART_DEB.c **** *
ARM GAS  C:\Users\mohammed\AppData\Local\Temp\ccCCeZbd.s 			page 12


 350:.\Generated_Source\PSoC4/UART_DEB.c **** * Summary:
 351:.\Generated_Source\PSoC4/UART_DEB.c **** *  Enables an interrupt for a specific mode.
 352:.\Generated_Source\PSoC4/UART_DEB.c **** *
 353:.\Generated_Source\PSoC4/UART_DEB.c **** * Parameters:
 354:.\Generated_Source\PSoC4/UART_DEB.c **** *  None
 355:.\Generated_Source\PSoC4/UART_DEB.c **** *
 356:.\Generated_Source\PSoC4/UART_DEB.c **** * Return:
 357:.\Generated_Source\PSoC4/UART_DEB.c **** *  None
 358:.\Generated_Source\PSoC4/UART_DEB.c **** *
 359:.\Generated_Source\PSoC4/UART_DEB.c **** *******************************************************************************/
 360:.\Generated_Source\PSoC4/UART_DEB.c **** static void UART_DEB_ScbEnableIntr(void)
 361:.\Generated_Source\PSoC4/UART_DEB.c **** {
 279              		.loc 1 361 0
 280              		.cfi_startproc
 281 0000 80B5     		push	{r7, lr}
 282              		.cfi_def_cfa_offset 8
 283              		.cfi_offset 7, -8
 284              		.cfi_offset 14, -4
 285 0002 00AF     		add	r7, sp, #0
 286              		.cfi_def_cfa_register 7
 362:.\Generated_Source\PSoC4/UART_DEB.c **** #if (UART_DEB_SCB_IRQ_INTERNAL)
 363:.\Generated_Source\PSoC4/UART_DEB.c ****     /* Enable interrupt in NVIC */
 364:.\Generated_Source\PSoC4/UART_DEB.c ****     #if (UART_DEB_SCB_MODE_UNCONFIG_CONST_CFG)
 365:.\Generated_Source\PSoC4/UART_DEB.c ****         if (0u != UART_DEB_scbEnableIntr)
 366:.\Generated_Source\PSoC4/UART_DEB.c ****         {
 367:.\Generated_Source\PSoC4/UART_DEB.c ****             UART_DEB_EnableInt();
 368:.\Generated_Source\PSoC4/UART_DEB.c ****         }
 369:.\Generated_Source\PSoC4/UART_DEB.c **** 
 370:.\Generated_Source\PSoC4/UART_DEB.c ****     #else
 371:.\Generated_Source\PSoC4/UART_DEB.c ****         UART_DEB_EnableInt();
 372:.\Generated_Source\PSoC4/UART_DEB.c **** 
 373:.\Generated_Source\PSoC4/UART_DEB.c ****     #endif /* (UART_DEB_SCB_MODE_UNCONFIG_CONST_CFG) */
 374:.\Generated_Source\PSoC4/UART_DEB.c **** #endif /* (UART_DEB_SCB_IRQ_INTERNAL) */
 375:.\Generated_Source\PSoC4/UART_DEB.c **** }
 287              		.loc 1 375 0
 288 0004 BD46     		mov	sp, r7
 289              		@ sp needed
 290 0006 80BD     		pop	{r7, pc}
 291              		.cfi_endproc
 292              	.LFE8:
 293              		.size	UART_DEB_ScbEnableIntr, .-UART_DEB_ScbEnableIntr
 294              		.section	.text.UART_DEB_ScbModePostEnable,"ax",%progbits
 295              		.align	2
 296              		.code	16
 297              		.thumb_func
 298              		.type	UART_DEB_ScbModePostEnable, %function
 299              	UART_DEB_ScbModePostEnable:
 300              	.LFB9:
 376:.\Generated_Source\PSoC4/UART_DEB.c **** 
 377:.\Generated_Source\PSoC4/UART_DEB.c **** 
 378:.\Generated_Source\PSoC4/UART_DEB.c **** /*******************************************************************************
 379:.\Generated_Source\PSoC4/UART_DEB.c **** * Function Name: UART_DEB_ScbModePostEnable
 380:.\Generated_Source\PSoC4/UART_DEB.c **** ********************************************************************************
 381:.\Generated_Source\PSoC4/UART_DEB.c **** *
 382:.\Generated_Source\PSoC4/UART_DEB.c **** * Summary:
 383:.\Generated_Source\PSoC4/UART_DEB.c **** *  Calls the PostEnable function for a specific operation mode.
 384:.\Generated_Source\PSoC4/UART_DEB.c **** *
ARM GAS  C:\Users\mohammed\AppData\Local\Temp\ccCCeZbd.s 			page 13


 385:.\Generated_Source\PSoC4/UART_DEB.c **** * Parameters:
 386:.\Generated_Source\PSoC4/UART_DEB.c **** *  None
 387:.\Generated_Source\PSoC4/UART_DEB.c **** *
 388:.\Generated_Source\PSoC4/UART_DEB.c **** * Return:
 389:.\Generated_Source\PSoC4/UART_DEB.c **** *  None
 390:.\Generated_Source\PSoC4/UART_DEB.c **** *
 391:.\Generated_Source\PSoC4/UART_DEB.c **** *******************************************************************************/
 392:.\Generated_Source\PSoC4/UART_DEB.c **** static void UART_DEB_ScbModePostEnable(void)
 393:.\Generated_Source\PSoC4/UART_DEB.c **** {
 301              		.loc 1 393 0
 302              		.cfi_startproc
 303 0000 80B5     		push	{r7, lr}
 304              		.cfi_def_cfa_offset 8
 305              		.cfi_offset 7, -8
 306              		.cfi_offset 14, -4
 307 0002 00AF     		add	r7, sp, #0
 308              		.cfi_def_cfa_register 7
 394:.\Generated_Source\PSoC4/UART_DEB.c **** #if (UART_DEB_SCB_MODE_UNCONFIG_CONST_CFG)
 395:.\Generated_Source\PSoC4/UART_DEB.c **** #if (!UART_DEB_CY_SCBIP_V1)
 396:.\Generated_Source\PSoC4/UART_DEB.c ****     if (UART_DEB_SCB_MODE_SPI_RUNTM_CFG)
 397:.\Generated_Source\PSoC4/UART_DEB.c ****     {
 398:.\Generated_Source\PSoC4/UART_DEB.c ****         UART_DEB_SpiPostEnable();
 399:.\Generated_Source\PSoC4/UART_DEB.c ****     }
 400:.\Generated_Source\PSoC4/UART_DEB.c ****     else if (UART_DEB_SCB_MODE_UART_RUNTM_CFG)
 401:.\Generated_Source\PSoC4/UART_DEB.c ****     {
 402:.\Generated_Source\PSoC4/UART_DEB.c ****         UART_DEB_UartPostEnable();
 403:.\Generated_Source\PSoC4/UART_DEB.c ****     }
 404:.\Generated_Source\PSoC4/UART_DEB.c ****     else
 405:.\Generated_Source\PSoC4/UART_DEB.c ****     {
 406:.\Generated_Source\PSoC4/UART_DEB.c ****         /* Unknown mode: do nothing */
 407:.\Generated_Source\PSoC4/UART_DEB.c ****     }
 408:.\Generated_Source\PSoC4/UART_DEB.c **** #endif /* (!UART_DEB_CY_SCBIP_V1) */
 409:.\Generated_Source\PSoC4/UART_DEB.c **** 
 410:.\Generated_Source\PSoC4/UART_DEB.c **** #elif (UART_DEB_SCB_MODE_SPI_CONST_CFG)
 411:.\Generated_Source\PSoC4/UART_DEB.c ****     UART_DEB_SpiPostEnable();
 412:.\Generated_Source\PSoC4/UART_DEB.c **** 
 413:.\Generated_Source\PSoC4/UART_DEB.c **** #elif (UART_DEB_SCB_MODE_UART_CONST_CFG)
 414:.\Generated_Source\PSoC4/UART_DEB.c ****     UART_DEB_UartPostEnable();
 309              		.loc 1 414 0
 310 0004 FFF7FEFF 		bl	UART_DEB_UartPostEnable
 415:.\Generated_Source\PSoC4/UART_DEB.c **** 
 416:.\Generated_Source\PSoC4/UART_DEB.c **** #else
 417:.\Generated_Source\PSoC4/UART_DEB.c ****     /* Unknown mode: do nothing */
 418:.\Generated_Source\PSoC4/UART_DEB.c **** #endif /* (UART_DEB_SCB_MODE_UNCONFIG_CONST_CFG) */
 419:.\Generated_Source\PSoC4/UART_DEB.c **** }
 311              		.loc 1 419 0
 312 0008 BD46     		mov	sp, r7
 313              		@ sp needed
 314 000a 80BD     		pop	{r7, pc}
 315              		.cfi_endproc
 316              	.LFE9:
 317              		.size	UART_DEB_ScbModePostEnable, .-UART_DEB_ScbModePostEnable
 318              		.section	.text.UART_DEB_ScbModeStop,"ax",%progbits
 319              		.align	2
 320              		.code	16
 321              		.thumb_func
 322              		.type	UART_DEB_ScbModeStop, %function
ARM GAS  C:\Users\mohammed\AppData\Local\Temp\ccCCeZbd.s 			page 14


 323              	UART_DEB_ScbModeStop:
 324              	.LFB10:
 420:.\Generated_Source\PSoC4/UART_DEB.c **** 
 421:.\Generated_Source\PSoC4/UART_DEB.c **** 
 422:.\Generated_Source\PSoC4/UART_DEB.c **** /*******************************************************************************
 423:.\Generated_Source\PSoC4/UART_DEB.c **** * Function Name: UART_DEB_ScbModeStop
 424:.\Generated_Source\PSoC4/UART_DEB.c **** ********************************************************************************
 425:.\Generated_Source\PSoC4/UART_DEB.c **** *
 426:.\Generated_Source\PSoC4/UART_DEB.c **** * Summary:
 427:.\Generated_Source\PSoC4/UART_DEB.c **** *  Calls the Stop function for a specific operation mode.
 428:.\Generated_Source\PSoC4/UART_DEB.c **** *
 429:.\Generated_Source\PSoC4/UART_DEB.c **** * Parameters:
 430:.\Generated_Source\PSoC4/UART_DEB.c **** *  None
 431:.\Generated_Source\PSoC4/UART_DEB.c **** *
 432:.\Generated_Source\PSoC4/UART_DEB.c **** * Return:
 433:.\Generated_Source\PSoC4/UART_DEB.c **** *  None
 434:.\Generated_Source\PSoC4/UART_DEB.c **** *
 435:.\Generated_Source\PSoC4/UART_DEB.c **** *******************************************************************************/
 436:.\Generated_Source\PSoC4/UART_DEB.c **** static void UART_DEB_ScbModeStop(void)
 437:.\Generated_Source\PSoC4/UART_DEB.c **** {
 325              		.loc 1 437 0
 326              		.cfi_startproc
 327 0000 80B5     		push	{r7, lr}
 328              		.cfi_def_cfa_offset 8
 329              		.cfi_offset 7, -8
 330              		.cfi_offset 14, -4
 331 0002 00AF     		add	r7, sp, #0
 332              		.cfi_def_cfa_register 7
 438:.\Generated_Source\PSoC4/UART_DEB.c **** #if (UART_DEB_SCB_MODE_UNCONFIG_CONST_CFG)
 439:.\Generated_Source\PSoC4/UART_DEB.c ****     if (UART_DEB_SCB_MODE_I2C_RUNTM_CFG)
 440:.\Generated_Source\PSoC4/UART_DEB.c ****     {
 441:.\Generated_Source\PSoC4/UART_DEB.c ****         UART_DEB_I2CStop();
 442:.\Generated_Source\PSoC4/UART_DEB.c ****     }
 443:.\Generated_Source\PSoC4/UART_DEB.c ****     else if (UART_DEB_SCB_MODE_EZI2C_RUNTM_CFG)
 444:.\Generated_Source\PSoC4/UART_DEB.c ****     {
 445:.\Generated_Source\PSoC4/UART_DEB.c ****         UART_DEB_EzI2CStop();
 446:.\Generated_Source\PSoC4/UART_DEB.c ****     }
 447:.\Generated_Source\PSoC4/UART_DEB.c **** #if (!UART_DEB_CY_SCBIP_V1)
 448:.\Generated_Source\PSoC4/UART_DEB.c ****     else if (UART_DEB_SCB_MODE_SPI_RUNTM_CFG)
 449:.\Generated_Source\PSoC4/UART_DEB.c ****     {
 450:.\Generated_Source\PSoC4/UART_DEB.c ****         UART_DEB_SpiStop();
 451:.\Generated_Source\PSoC4/UART_DEB.c ****     }
 452:.\Generated_Source\PSoC4/UART_DEB.c ****     else if (UART_DEB_SCB_MODE_UART_RUNTM_CFG)
 453:.\Generated_Source\PSoC4/UART_DEB.c ****     {
 454:.\Generated_Source\PSoC4/UART_DEB.c ****         UART_DEB_UartStop();
 455:.\Generated_Source\PSoC4/UART_DEB.c ****     }
 456:.\Generated_Source\PSoC4/UART_DEB.c **** #endif /* (!UART_DEB_CY_SCBIP_V1) */
 457:.\Generated_Source\PSoC4/UART_DEB.c ****     else
 458:.\Generated_Source\PSoC4/UART_DEB.c ****     {
 459:.\Generated_Source\PSoC4/UART_DEB.c ****         /* Unknown mode: do nothing */
 460:.\Generated_Source\PSoC4/UART_DEB.c ****     }
 461:.\Generated_Source\PSoC4/UART_DEB.c **** #elif (UART_DEB_SCB_MODE_I2C_CONST_CFG)
 462:.\Generated_Source\PSoC4/UART_DEB.c ****     UART_DEB_I2CStop();
 463:.\Generated_Source\PSoC4/UART_DEB.c **** 
 464:.\Generated_Source\PSoC4/UART_DEB.c **** #elif (UART_DEB_SCB_MODE_EZI2C_CONST_CFG)
 465:.\Generated_Source\PSoC4/UART_DEB.c ****     UART_DEB_EzI2CStop();
 466:.\Generated_Source\PSoC4/UART_DEB.c **** 
ARM GAS  C:\Users\mohammed\AppData\Local\Temp\ccCCeZbd.s 			page 15


 467:.\Generated_Source\PSoC4/UART_DEB.c **** #elif (UART_DEB_SCB_MODE_SPI_CONST_CFG)
 468:.\Generated_Source\PSoC4/UART_DEB.c ****     UART_DEB_SpiStop();
 469:.\Generated_Source\PSoC4/UART_DEB.c **** 
 470:.\Generated_Source\PSoC4/UART_DEB.c **** #elif (UART_DEB_SCB_MODE_UART_CONST_CFG)
 471:.\Generated_Source\PSoC4/UART_DEB.c ****     UART_DEB_UartStop();
 333              		.loc 1 471 0
 334 0004 FFF7FEFF 		bl	UART_DEB_UartStop
 472:.\Generated_Source\PSoC4/UART_DEB.c **** 
 473:.\Generated_Source\PSoC4/UART_DEB.c **** #else
 474:.\Generated_Source\PSoC4/UART_DEB.c ****     /* Unknown mode: do nothing */
 475:.\Generated_Source\PSoC4/UART_DEB.c **** #endif /* (UART_DEB_SCB_MODE_UNCONFIG_CONST_CFG) */
 476:.\Generated_Source\PSoC4/UART_DEB.c **** }
 335              		.loc 1 476 0
 336 0008 BD46     		mov	sp, r7
 337              		@ sp needed
 338 000a 80BD     		pop	{r7, pc}
 339              		.cfi_endproc
 340              	.LFE10:
 341              		.size	UART_DEB_ScbModeStop, .-UART_DEB_ScbModeStop
 342              		.text
 343              	.Letext0:
 344              		.file 2 "Generated_Source\\PSoC4/cytypes.h"