ARM GAS  C:\Users\mohammed\AppData\Local\Temp\ccJY5Ttg.s 			page 1


   1              		.cpu cortex-m0
   2              		.fpu softvfp
   3              		.eabi_attribute 20, 1
   4              		.eabi_attribute 21, 1
   5              		.eabi_attribute 23, 3
   6              		.eabi_attribute 24, 1
   7              		.eabi_attribute 25, 1
   8              		.eabi_attribute 26, 1
   9              		.eabi_attribute 30, 6
  10              		.eabi_attribute 34, 0
  11              		.eabi_attribute 18, 4
  12              		.code	16
  13              		.file	"UART_DEB_UART.c"
  14              		.text
  15              	.Ltext0:
  16              		.cfi_sections	.debug_frame
  17              		.section	.text.UART_DEB_UartInit,"ax",%progbits
  18              		.align	2
  19              		.global	UART_DEB_UartInit
  20              		.code	16
  21              		.thumb_func
  22              		.type	UART_DEB_UartInit, %function
  23              	UART_DEB_UartInit:
  24              	.LFB2:
  25              		.file 1 ".\\Generated_Source\\PSoC4\\UART_DEB_UART.c"
   1:.\Generated_Source\PSoC4/UART_DEB_UART.c **** /*******************************************************************************
   2:.\Generated_Source\PSoC4/UART_DEB_UART.c **** * File Name: UART_DEB_UART.c
   3:.\Generated_Source\PSoC4/UART_DEB_UART.c **** * Version 3.10
   4:.\Generated_Source\PSoC4/UART_DEB_UART.c **** *
   5:.\Generated_Source\PSoC4/UART_DEB_UART.c **** * Description:
   6:.\Generated_Source\PSoC4/UART_DEB_UART.c **** *  This file provides the source code to the API for the SCB Component in
   7:.\Generated_Source\PSoC4/UART_DEB_UART.c **** *  UART mode.
   8:.\Generated_Source\PSoC4/UART_DEB_UART.c **** *
   9:.\Generated_Source\PSoC4/UART_DEB_UART.c **** * Note:
  10:.\Generated_Source\PSoC4/UART_DEB_UART.c **** *
  11:.\Generated_Source\PSoC4/UART_DEB_UART.c **** *******************************************************************************
  12:.\Generated_Source\PSoC4/UART_DEB_UART.c **** * Copyright 2013-2015, Cypress Semiconductor Corporation.  All rights reserved.
  13:.\Generated_Source\PSoC4/UART_DEB_UART.c **** * You may use this file only in accordance with the license, terms, conditions,
  14:.\Generated_Source\PSoC4/UART_DEB_UART.c **** * disclaimers, and limitations in the end user license agreement accompanying
  15:.\Generated_Source\PSoC4/UART_DEB_UART.c **** * the software package with which this file was provided.
  16:.\Generated_Source\PSoC4/UART_DEB_UART.c **** *******************************************************************************/
  17:.\Generated_Source\PSoC4/UART_DEB_UART.c **** 
  18:.\Generated_Source\PSoC4/UART_DEB_UART.c **** #include "UART_DEB_PVT.h"
  19:.\Generated_Source\PSoC4/UART_DEB_UART.c **** #include "UART_DEB_SPI_UART_PVT.h"
  20:.\Generated_Source\PSoC4/UART_DEB_UART.c **** #include "cyapicallbacks.h"
  21:.\Generated_Source\PSoC4/UART_DEB_UART.c **** 
  22:.\Generated_Source\PSoC4/UART_DEB_UART.c **** #if(UART_DEB_SCB_MODE_UNCONFIG_CONST_CFG)
  23:.\Generated_Source\PSoC4/UART_DEB_UART.c **** 
  24:.\Generated_Source\PSoC4/UART_DEB_UART.c ****     /***************************************
  25:.\Generated_Source\PSoC4/UART_DEB_UART.c ****     *  Configuration Structure Initialization
  26:.\Generated_Source\PSoC4/UART_DEB_UART.c ****     ***************************************/
  27:.\Generated_Source\PSoC4/UART_DEB_UART.c **** 
  28:.\Generated_Source\PSoC4/UART_DEB_UART.c ****     const UART_DEB_UART_INIT_STRUCT UART_DEB_configUart =
  29:.\Generated_Source\PSoC4/UART_DEB_UART.c ****     {
  30:.\Generated_Source\PSoC4/UART_DEB_UART.c ****         UART_DEB_UART_SUB_MODE,
  31:.\Generated_Source\PSoC4/UART_DEB_UART.c ****         UART_DEB_UART_DIRECTION,
  32:.\Generated_Source\PSoC4/UART_DEB_UART.c ****         UART_DEB_UART_DATA_BITS_NUM,
ARM GAS  C:\Users\mohammed\AppData\Local\Temp\ccJY5Ttg.s 			page 2


  33:.\Generated_Source\PSoC4/UART_DEB_UART.c ****         UART_DEB_UART_PARITY_TYPE,
  34:.\Generated_Source\PSoC4/UART_DEB_UART.c ****         UART_DEB_UART_STOP_BITS_NUM,
  35:.\Generated_Source\PSoC4/UART_DEB_UART.c ****         UART_DEB_UART_OVS_FACTOR,
  36:.\Generated_Source\PSoC4/UART_DEB_UART.c ****         UART_DEB_UART_IRDA_LOW_POWER,
  37:.\Generated_Source\PSoC4/UART_DEB_UART.c ****         UART_DEB_UART_MEDIAN_FILTER_ENABLE,
  38:.\Generated_Source\PSoC4/UART_DEB_UART.c ****         UART_DEB_UART_RETRY_ON_NACK,
  39:.\Generated_Source\PSoC4/UART_DEB_UART.c ****         UART_DEB_UART_IRDA_POLARITY,
  40:.\Generated_Source\PSoC4/UART_DEB_UART.c ****         UART_DEB_UART_DROP_ON_PARITY_ERR,
  41:.\Generated_Source\PSoC4/UART_DEB_UART.c ****         UART_DEB_UART_DROP_ON_FRAME_ERR,
  42:.\Generated_Source\PSoC4/UART_DEB_UART.c ****         UART_DEB_UART_WAKE_ENABLE,
  43:.\Generated_Source\PSoC4/UART_DEB_UART.c ****         0u,
  44:.\Generated_Source\PSoC4/UART_DEB_UART.c ****         NULL,
  45:.\Generated_Source\PSoC4/UART_DEB_UART.c ****         0u,
  46:.\Generated_Source\PSoC4/UART_DEB_UART.c ****         NULL,
  47:.\Generated_Source\PSoC4/UART_DEB_UART.c ****         UART_DEB_UART_MP_MODE_ENABLE,
  48:.\Generated_Source\PSoC4/UART_DEB_UART.c ****         UART_DEB_UART_MP_ACCEPT_ADDRESS,
  49:.\Generated_Source\PSoC4/UART_DEB_UART.c ****         UART_DEB_UART_MP_RX_ADDRESS,
  50:.\Generated_Source\PSoC4/UART_DEB_UART.c ****         UART_DEB_UART_MP_RX_ADDRESS_MASK,
  51:.\Generated_Source\PSoC4/UART_DEB_UART.c ****         (uint32) UART_DEB_SCB_IRQ_INTERNAL,
  52:.\Generated_Source\PSoC4/UART_DEB_UART.c ****         UART_DEB_UART_INTR_RX_MASK,
  53:.\Generated_Source\PSoC4/UART_DEB_UART.c ****         UART_DEB_UART_RX_TRIGGER_LEVEL,
  54:.\Generated_Source\PSoC4/UART_DEB_UART.c ****         UART_DEB_UART_INTR_TX_MASK,
  55:.\Generated_Source\PSoC4/UART_DEB_UART.c ****         UART_DEB_UART_TX_TRIGGER_LEVEL,
  56:.\Generated_Source\PSoC4/UART_DEB_UART.c ****         (uint8) UART_DEB_UART_BYTE_MODE_ENABLE,
  57:.\Generated_Source\PSoC4/UART_DEB_UART.c ****         (uint8) UART_DEB_UART_CTS_ENABLE,
  58:.\Generated_Source\PSoC4/UART_DEB_UART.c ****         (uint8) UART_DEB_UART_CTS_POLARITY,
  59:.\Generated_Source\PSoC4/UART_DEB_UART.c ****         (uint8) UART_DEB_UART_RTS_POLARITY,
  60:.\Generated_Source\PSoC4/UART_DEB_UART.c ****         (uint8) UART_DEB_UART_RTS_FIFO_LEVEL
  61:.\Generated_Source\PSoC4/UART_DEB_UART.c ****     };
  62:.\Generated_Source\PSoC4/UART_DEB_UART.c **** 
  63:.\Generated_Source\PSoC4/UART_DEB_UART.c **** 
  64:.\Generated_Source\PSoC4/UART_DEB_UART.c ****     /*******************************************************************************
  65:.\Generated_Source\PSoC4/UART_DEB_UART.c ****     * Function Name: UART_DEB_UartInit
  66:.\Generated_Source\PSoC4/UART_DEB_UART.c ****     ********************************************************************************
  67:.\Generated_Source\PSoC4/UART_DEB_UART.c ****     *
  68:.\Generated_Source\PSoC4/UART_DEB_UART.c ****     * Summary:
  69:.\Generated_Source\PSoC4/UART_DEB_UART.c ****     *  Configures the SCB for the UART operation.
  70:.\Generated_Source\PSoC4/UART_DEB_UART.c ****     *
  71:.\Generated_Source\PSoC4/UART_DEB_UART.c ****     * Parameters:
  72:.\Generated_Source\PSoC4/UART_DEB_UART.c ****     *  config:  Pointer to a structure that contains the following ordered list of
  73:.\Generated_Source\PSoC4/UART_DEB_UART.c ****     *           fields. These fields match the selections available in the
  74:.\Generated_Source\PSoC4/UART_DEB_UART.c ****     *           customizer.
  75:.\Generated_Source\PSoC4/UART_DEB_UART.c ****     *
  76:.\Generated_Source\PSoC4/UART_DEB_UART.c ****     * Return:
  77:.\Generated_Source\PSoC4/UART_DEB_UART.c ****     *  None
  78:.\Generated_Source\PSoC4/UART_DEB_UART.c ****     *
  79:.\Generated_Source\PSoC4/UART_DEB_UART.c ****     *******************************************************************************/
  80:.\Generated_Source\PSoC4/UART_DEB_UART.c ****     void UART_DEB_UartInit(const UART_DEB_UART_INIT_STRUCT *config)
  81:.\Generated_Source\PSoC4/UART_DEB_UART.c ****     {
  82:.\Generated_Source\PSoC4/UART_DEB_UART.c ****         uint32 pinsConfig;
  83:.\Generated_Source\PSoC4/UART_DEB_UART.c **** 
  84:.\Generated_Source\PSoC4/UART_DEB_UART.c ****         if (NULL == config)
  85:.\Generated_Source\PSoC4/UART_DEB_UART.c ****         {
  86:.\Generated_Source\PSoC4/UART_DEB_UART.c ****             CYASSERT(0u != 0u); /* Halt execution due to bad function parameter */
  87:.\Generated_Source\PSoC4/UART_DEB_UART.c ****         }
  88:.\Generated_Source\PSoC4/UART_DEB_UART.c ****         else
  89:.\Generated_Source\PSoC4/UART_DEB_UART.c ****         {
ARM GAS  C:\Users\mohammed\AppData\Local\Temp\ccJY5Ttg.s 			page 3


  90:.\Generated_Source\PSoC4/UART_DEB_UART.c ****             /* Get direction to configure UART pins: TX, RX or TX+RX */
  91:.\Generated_Source\PSoC4/UART_DEB_UART.c ****             pinsConfig  = config->direction;
  92:.\Generated_Source\PSoC4/UART_DEB_UART.c **** 
  93:.\Generated_Source\PSoC4/UART_DEB_UART.c ****         #if !(UART_DEB_CY_SCBIP_V0 || UART_DEB_CY_SCBIP_V1)
  94:.\Generated_Source\PSoC4/UART_DEB_UART.c ****             /* Add RTS and CTS pins to configure */
  95:.\Generated_Source\PSoC4/UART_DEB_UART.c ****             pinsConfig |= (0u != config->rtsRxFifoLevel) ? (UART_DEB_UART_RTS_PIN_ENABLE) : (0u);
  96:.\Generated_Source\PSoC4/UART_DEB_UART.c ****             pinsConfig |= (0u != config->enableCts)      ? (UART_DEB_UART_CTS_PIN_ENABLE) : (0u);
  97:.\Generated_Source\PSoC4/UART_DEB_UART.c ****         #endif /* !(UART_DEB_CY_SCBIP_V0 || UART_DEB_CY_SCBIP_V1) */
  98:.\Generated_Source\PSoC4/UART_DEB_UART.c **** 
  99:.\Generated_Source\PSoC4/UART_DEB_UART.c ****             /* Configure pins */
 100:.\Generated_Source\PSoC4/UART_DEB_UART.c ****             UART_DEB_SetPins(UART_DEB_SCB_MODE_UART, config->mode, pinsConfig);
 101:.\Generated_Source\PSoC4/UART_DEB_UART.c **** 
 102:.\Generated_Source\PSoC4/UART_DEB_UART.c ****             /* Store internal configuration */
 103:.\Generated_Source\PSoC4/UART_DEB_UART.c ****             UART_DEB_scbMode       = (uint8) UART_DEB_SCB_MODE_UART;
 104:.\Generated_Source\PSoC4/UART_DEB_UART.c ****             UART_DEB_scbEnableWake = (uint8) config->enableWake;
 105:.\Generated_Source\PSoC4/UART_DEB_UART.c ****             UART_DEB_scbEnableIntr = (uint8) config->enableInterrupt;
 106:.\Generated_Source\PSoC4/UART_DEB_UART.c **** 
 107:.\Generated_Source\PSoC4/UART_DEB_UART.c ****             /* Set RX direction internal variables */
 108:.\Generated_Source\PSoC4/UART_DEB_UART.c ****             UART_DEB_rxBuffer      =         config->rxBuffer;
 109:.\Generated_Source\PSoC4/UART_DEB_UART.c ****             UART_DEB_rxDataBits    = (uint8) config->dataBits;
 110:.\Generated_Source\PSoC4/UART_DEB_UART.c ****             UART_DEB_rxBufferSize  = (uint8) config->rxBufferSize;
 111:.\Generated_Source\PSoC4/UART_DEB_UART.c **** 
 112:.\Generated_Source\PSoC4/UART_DEB_UART.c ****             /* Set TX direction internal variables */
 113:.\Generated_Source\PSoC4/UART_DEB_UART.c ****             UART_DEB_txBuffer      =         config->txBuffer;
 114:.\Generated_Source\PSoC4/UART_DEB_UART.c ****             UART_DEB_txDataBits    = (uint8) config->dataBits;
 115:.\Generated_Source\PSoC4/UART_DEB_UART.c ****             UART_DEB_txBufferSize  = (uint8) config->txBufferSize;
 116:.\Generated_Source\PSoC4/UART_DEB_UART.c **** 
 117:.\Generated_Source\PSoC4/UART_DEB_UART.c ****             /* Configure UART interface */
 118:.\Generated_Source\PSoC4/UART_DEB_UART.c ****             if(UART_DEB_UART_MODE_IRDA == config->mode)
 119:.\Generated_Source\PSoC4/UART_DEB_UART.c ****             {
 120:.\Generated_Source\PSoC4/UART_DEB_UART.c ****                 /* OVS settings: IrDA */
 121:.\Generated_Source\PSoC4/UART_DEB_UART.c ****                 UART_DEB_CTRL_REG  = ((0u != config->enableIrdaLowPower) ?
 122:.\Generated_Source\PSoC4/UART_DEB_UART.c ****                                                 (UART_DEB_UART_GET_CTRL_OVS_IRDA_LP(config->oversam
 123:.\Generated_Source\PSoC4/UART_DEB_UART.c ****                                                 (UART_DEB_CTRL_OVS_IRDA_OVS16));
 124:.\Generated_Source\PSoC4/UART_DEB_UART.c ****             }
 125:.\Generated_Source\PSoC4/UART_DEB_UART.c ****             else
 126:.\Generated_Source\PSoC4/UART_DEB_UART.c ****             {
 127:.\Generated_Source\PSoC4/UART_DEB_UART.c ****                 /* OVS settings: UART and SmartCard */
 128:.\Generated_Source\PSoC4/UART_DEB_UART.c ****                 UART_DEB_CTRL_REG  = UART_DEB_GET_CTRL_OVS(config->oversample);
 129:.\Generated_Source\PSoC4/UART_DEB_UART.c ****             }
 130:.\Generated_Source\PSoC4/UART_DEB_UART.c **** 
 131:.\Generated_Source\PSoC4/UART_DEB_UART.c ****             UART_DEB_CTRL_REG     |= UART_DEB_GET_CTRL_BYTE_MODE  (config->enableByteMode)      |
 132:.\Generated_Source\PSoC4/UART_DEB_UART.c ****                                              UART_DEB_GET_CTRL_ADDR_ACCEPT(config->multiprocAcceptA
 133:.\Generated_Source\PSoC4/UART_DEB_UART.c ****                                              UART_DEB_CTRL_UART;
 134:.\Generated_Source\PSoC4/UART_DEB_UART.c **** 
 135:.\Generated_Source\PSoC4/UART_DEB_UART.c ****             /* Configure sub-mode: UART, SmartCard or IrDA */
 136:.\Generated_Source\PSoC4/UART_DEB_UART.c ****             UART_DEB_UART_CTRL_REG = UART_DEB_GET_UART_CTRL_MODE(config->mode);
 137:.\Generated_Source\PSoC4/UART_DEB_UART.c **** 
 138:.\Generated_Source\PSoC4/UART_DEB_UART.c ****             /* Configure RX direction */
 139:.\Generated_Source\PSoC4/UART_DEB_UART.c ****             UART_DEB_UART_RX_CTRL_REG = UART_DEB_GET_UART_RX_CTRL_MODE(config->stopBits)           
 140:.\Generated_Source\PSoC4/UART_DEB_UART.c ****                                         UART_DEB_GET_UART_RX_CTRL_POLARITY(config->enableInvertedRx
 141:.\Generated_Source\PSoC4/UART_DEB_UART.c ****                                         UART_DEB_GET_UART_RX_CTRL_MP_MODE(config->enableMultiproc) 
 142:.\Generated_Source\PSoC4/UART_DEB_UART.c ****                                         UART_DEB_GET_UART_RX_CTRL_DROP_ON_PARITY_ERR(config->dropOn
 143:.\Generated_Source\PSoC4/UART_DEB_UART.c ****                                         UART_DEB_GET_UART_RX_CTRL_DROP_ON_FRAME_ERR(config->dropOnF
 144:.\Generated_Source\PSoC4/UART_DEB_UART.c **** 
 145:.\Generated_Source\PSoC4/UART_DEB_UART.c ****             if(UART_DEB_UART_PARITY_NONE != config->parity)
 146:.\Generated_Source\PSoC4/UART_DEB_UART.c ****             {
ARM GAS  C:\Users\mohammed\AppData\Local\Temp\ccJY5Ttg.s 			page 4


 147:.\Generated_Source\PSoC4/UART_DEB_UART.c ****                UART_DEB_UART_RX_CTRL_REG |= UART_DEB_GET_UART_RX_CTRL_PARITY(config->parity) |
 148:.\Generated_Source\PSoC4/UART_DEB_UART.c ****                                                     UART_DEB_UART_RX_CTRL_PARITY_ENABLED;
 149:.\Generated_Source\PSoC4/UART_DEB_UART.c ****             }
 150:.\Generated_Source\PSoC4/UART_DEB_UART.c **** 
 151:.\Generated_Source\PSoC4/UART_DEB_UART.c ****             UART_DEB_RX_CTRL_REG      = UART_DEB_GET_RX_CTRL_DATA_WIDTH(config->dataBits)       |
 152:.\Generated_Source\PSoC4/UART_DEB_UART.c ****                                                 UART_DEB_GET_RX_CTRL_MEDIAN(config->enableMedianFil
 153:.\Generated_Source\PSoC4/UART_DEB_UART.c ****                                                 UART_DEB_GET_UART_RX_CTRL_ENABLED(config->direction
 154:.\Generated_Source\PSoC4/UART_DEB_UART.c **** 
 155:.\Generated_Source\PSoC4/UART_DEB_UART.c ****             UART_DEB_RX_FIFO_CTRL_REG = UART_DEB_GET_RX_FIFO_CTRL_TRIGGER_LEVEL(config->rxTriggerLe
 156:.\Generated_Source\PSoC4/UART_DEB_UART.c **** 
 157:.\Generated_Source\PSoC4/UART_DEB_UART.c ****             /* Configure MP address */
 158:.\Generated_Source\PSoC4/UART_DEB_UART.c ****             UART_DEB_RX_MATCH_REG     = UART_DEB_GET_RX_MATCH_ADDR(config->multiprocAddr) |
 159:.\Generated_Source\PSoC4/UART_DEB_UART.c ****                                                 UART_DEB_GET_RX_MATCH_MASK(config->multiprocAddrMas
 160:.\Generated_Source\PSoC4/UART_DEB_UART.c **** 
 161:.\Generated_Source\PSoC4/UART_DEB_UART.c ****             /* Configure RX direction */
 162:.\Generated_Source\PSoC4/UART_DEB_UART.c ****             UART_DEB_UART_TX_CTRL_REG = UART_DEB_GET_UART_TX_CTRL_MODE(config->stopBits) |
 163:.\Generated_Source\PSoC4/UART_DEB_UART.c ****                                                 UART_DEB_GET_UART_TX_CTRL_RETRY_NACK(config->enable
 164:.\Generated_Source\PSoC4/UART_DEB_UART.c **** 
 165:.\Generated_Source\PSoC4/UART_DEB_UART.c ****             if(UART_DEB_UART_PARITY_NONE != config->parity)
 166:.\Generated_Source\PSoC4/UART_DEB_UART.c ****             {
 167:.\Generated_Source\PSoC4/UART_DEB_UART.c ****                UART_DEB_UART_TX_CTRL_REG |= UART_DEB_GET_UART_TX_CTRL_PARITY(config->parity) |
 168:.\Generated_Source\PSoC4/UART_DEB_UART.c ****                                                     UART_DEB_UART_TX_CTRL_PARITY_ENABLED;
 169:.\Generated_Source\PSoC4/UART_DEB_UART.c ****             }
 170:.\Generated_Source\PSoC4/UART_DEB_UART.c **** 
 171:.\Generated_Source\PSoC4/UART_DEB_UART.c ****             UART_DEB_TX_CTRL_REG      = UART_DEB_GET_TX_CTRL_DATA_WIDTH(config->dataBits)    |
 172:.\Generated_Source\PSoC4/UART_DEB_UART.c ****                                                 UART_DEB_GET_UART_TX_CTRL_ENABLED(config->direction
 173:.\Generated_Source\PSoC4/UART_DEB_UART.c **** 
 174:.\Generated_Source\PSoC4/UART_DEB_UART.c ****             UART_DEB_TX_FIFO_CTRL_REG = UART_DEB_GET_TX_FIFO_CTRL_TRIGGER_LEVEL(config->txTriggerLe
 175:.\Generated_Source\PSoC4/UART_DEB_UART.c **** 
 176:.\Generated_Source\PSoC4/UART_DEB_UART.c ****         #if !(UART_DEB_CY_SCBIP_V0 || UART_DEB_CY_SCBIP_V1)
 177:.\Generated_Source\PSoC4/UART_DEB_UART.c ****             UART_DEB_UART_FLOW_CTRL_REG = UART_DEB_GET_UART_FLOW_CTRL_CTS_ENABLE(config->enableCts)
 178:.\Generated_Source\PSoC4/UART_DEB_UART.c ****                                             UART_DEB_GET_UART_FLOW_CTRL_CTS_POLARITY (config->ctsPo
 179:.\Generated_Source\PSoC4/UART_DEB_UART.c ****                                             UART_DEB_GET_UART_FLOW_CTRL_RTS_POLARITY (config->rtsPo
 180:.\Generated_Source\PSoC4/UART_DEB_UART.c ****                                             UART_DEB_GET_UART_FLOW_CTRL_TRIGGER_LEVEL(config->rtsRx
 181:.\Generated_Source\PSoC4/UART_DEB_UART.c ****         #endif /* !(UART_DEB_CY_SCBIP_V0 || UART_DEB_CY_SCBIP_V1) */
 182:.\Generated_Source\PSoC4/UART_DEB_UART.c **** 
 183:.\Generated_Source\PSoC4/UART_DEB_UART.c ****             /* Configure interrupt with UART handler but do not enable it */
 184:.\Generated_Source\PSoC4/UART_DEB_UART.c ****             CyIntDisable    (UART_DEB_ISR_NUMBER);
 185:.\Generated_Source\PSoC4/UART_DEB_UART.c ****             CyIntSetPriority(UART_DEB_ISR_NUMBER, UART_DEB_ISR_PRIORITY);
 186:.\Generated_Source\PSoC4/UART_DEB_UART.c ****             (void) CyIntSetVector(UART_DEB_ISR_NUMBER, &UART_DEB_SPI_UART_ISR);
 187:.\Generated_Source\PSoC4/UART_DEB_UART.c **** 
 188:.\Generated_Source\PSoC4/UART_DEB_UART.c ****             /* Configure WAKE interrupt */
 189:.\Generated_Source\PSoC4/UART_DEB_UART.c ****         #if(UART_DEB_UART_RX_WAKEUP_IRQ)
 190:.\Generated_Source\PSoC4/UART_DEB_UART.c ****             CyIntDisable    (UART_DEB_RX_WAKE_ISR_NUMBER);
 191:.\Generated_Source\PSoC4/UART_DEB_UART.c ****             CyIntSetPriority(UART_DEB_RX_WAKE_ISR_NUMBER, UART_DEB_RX_WAKE_ISR_PRIORITY);
 192:.\Generated_Source\PSoC4/UART_DEB_UART.c ****             (void) CyIntSetVector(UART_DEB_RX_WAKE_ISR_NUMBER, &UART_DEB_UART_WAKEUP_ISR);
 193:.\Generated_Source\PSoC4/UART_DEB_UART.c ****         #endif /* (UART_DEB_UART_RX_WAKEUP_IRQ) */
 194:.\Generated_Source\PSoC4/UART_DEB_UART.c **** 
 195:.\Generated_Source\PSoC4/UART_DEB_UART.c ****             /* Configure interrupt sources */
 196:.\Generated_Source\PSoC4/UART_DEB_UART.c ****             UART_DEB_INTR_I2C_EC_MASK_REG = UART_DEB_NO_INTR_SOURCES;
 197:.\Generated_Source\PSoC4/UART_DEB_UART.c ****             UART_DEB_INTR_SPI_EC_MASK_REG = UART_DEB_NO_INTR_SOURCES;
 198:.\Generated_Source\PSoC4/UART_DEB_UART.c ****             UART_DEB_INTR_SLAVE_MASK_REG  = UART_DEB_NO_INTR_SOURCES;
 199:.\Generated_Source\PSoC4/UART_DEB_UART.c ****             UART_DEB_INTR_MASTER_MASK_REG = UART_DEB_NO_INTR_SOURCES;
 200:.\Generated_Source\PSoC4/UART_DEB_UART.c ****             UART_DEB_INTR_RX_MASK_REG     = config->rxInterruptMask;
 201:.\Generated_Source\PSoC4/UART_DEB_UART.c ****             UART_DEB_INTR_TX_MASK_REG     = config->txInterruptMask;
 202:.\Generated_Source\PSoC4/UART_DEB_UART.c **** 
 203:.\Generated_Source\PSoC4/UART_DEB_UART.c ****             /* Clear RX buffer indexes */
ARM GAS  C:\Users\mohammed\AppData\Local\Temp\ccJY5Ttg.s 			page 5


 204:.\Generated_Source\PSoC4/UART_DEB_UART.c ****             UART_DEB_rxBufferHead     = 0u;
 205:.\Generated_Source\PSoC4/UART_DEB_UART.c ****             UART_DEB_rxBufferTail     = 0u;
 206:.\Generated_Source\PSoC4/UART_DEB_UART.c ****             UART_DEB_rxBufferOverflow = 0u;
 207:.\Generated_Source\PSoC4/UART_DEB_UART.c **** 
 208:.\Generated_Source\PSoC4/UART_DEB_UART.c ****             /* Clear TX buffer indexes */
 209:.\Generated_Source\PSoC4/UART_DEB_UART.c ****             UART_DEB_txBufferHead = 0u;
 210:.\Generated_Source\PSoC4/UART_DEB_UART.c ****             UART_DEB_txBufferTail = 0u;
 211:.\Generated_Source\PSoC4/UART_DEB_UART.c ****         }
 212:.\Generated_Source\PSoC4/UART_DEB_UART.c ****     }
 213:.\Generated_Source\PSoC4/UART_DEB_UART.c **** 
 214:.\Generated_Source\PSoC4/UART_DEB_UART.c **** #else
 215:.\Generated_Source\PSoC4/UART_DEB_UART.c **** 
 216:.\Generated_Source\PSoC4/UART_DEB_UART.c ****     /*******************************************************************************
 217:.\Generated_Source\PSoC4/UART_DEB_UART.c ****     * Function Name: UART_DEB_UartInit
 218:.\Generated_Source\PSoC4/UART_DEB_UART.c ****     ********************************************************************************
 219:.\Generated_Source\PSoC4/UART_DEB_UART.c ****     *
 220:.\Generated_Source\PSoC4/UART_DEB_UART.c ****     * Summary:
 221:.\Generated_Source\PSoC4/UART_DEB_UART.c ****     *  Configures the SCB for the UART operation.
 222:.\Generated_Source\PSoC4/UART_DEB_UART.c ****     *
 223:.\Generated_Source\PSoC4/UART_DEB_UART.c ****     * Parameters:
 224:.\Generated_Source\PSoC4/UART_DEB_UART.c ****     *  None
 225:.\Generated_Source\PSoC4/UART_DEB_UART.c ****     *
 226:.\Generated_Source\PSoC4/UART_DEB_UART.c ****     * Return:
 227:.\Generated_Source\PSoC4/UART_DEB_UART.c ****     *  None
 228:.\Generated_Source\PSoC4/UART_DEB_UART.c ****     *
 229:.\Generated_Source\PSoC4/UART_DEB_UART.c ****     *******************************************************************************/
 230:.\Generated_Source\PSoC4/UART_DEB_UART.c ****     void UART_DEB_UartInit(void)
 231:.\Generated_Source\PSoC4/UART_DEB_UART.c ****     {
  26              		.loc 1 231 0
  27              		.cfi_startproc
  28 0000 80B5     		push	{r7, lr}
  29              		.cfi_def_cfa_offset 8
  30              		.cfi_offset 7, -8
  31              		.cfi_offset 14, -4
  32 0002 00AF     		add	r7, sp, #0
  33              		.cfi_def_cfa_register 7
 232:.\Generated_Source\PSoC4/UART_DEB_UART.c ****         /* Configure UART interface */
 233:.\Generated_Source\PSoC4/UART_DEB_UART.c ****         UART_DEB_CTRL_REG = UART_DEB_UART_DEFAULT_CTRL;
  34              		.loc 1 233 0
  35 0004 184B     		ldr	r3, .L2
  36 0006 194A     		ldr	r2, .L2+4
  37 0008 1A60     		str	r2, [r3]
 234:.\Generated_Source\PSoC4/UART_DEB_UART.c **** 
 235:.\Generated_Source\PSoC4/UART_DEB_UART.c ****         /* Configure sub-mode: UART, SmartCard or IrDA */
 236:.\Generated_Source\PSoC4/UART_DEB_UART.c ****         UART_DEB_UART_CTRL_REG = UART_DEB_UART_DEFAULT_UART_CTRL;
  38              		.loc 1 236 0
  39 000a 194B     		ldr	r3, .L2+8
  40 000c 0022     		mov	r2, #0
  41 000e 1A60     		str	r2, [r3]
 237:.\Generated_Source\PSoC4/UART_DEB_UART.c **** 
 238:.\Generated_Source\PSoC4/UART_DEB_UART.c ****         /* Configure RX direction */
 239:.\Generated_Source\PSoC4/UART_DEB_UART.c ****         UART_DEB_UART_RX_CTRL_REG = UART_DEB_UART_DEFAULT_UART_RX_CTRL;
  42              		.loc 1 239 0
  43 0010 184B     		ldr	r3, .L2+12
  44 0012 0122     		mov	r2, #1
  45 0014 1A60     		str	r2, [r3]
 240:.\Generated_Source\PSoC4/UART_DEB_UART.c ****         UART_DEB_RX_CTRL_REG      = UART_DEB_UART_DEFAULT_RX_CTRL;
ARM GAS  C:\Users\mohammed\AppData\Local\Temp\ccJY5Ttg.s 			page 6


  46              		.loc 1 240 0
  47 0016 184B     		ldr	r3, .L2+16
  48 0018 184A     		ldr	r2, .L2+20
  49 001a 1A60     		str	r2, [r3]
 241:.\Generated_Source\PSoC4/UART_DEB_UART.c ****         UART_DEB_RX_FIFO_CTRL_REG = UART_DEB_UART_DEFAULT_RX_FIFO_CTRL;
  50              		.loc 1 241 0
  51 001c 184B     		ldr	r3, .L2+24
  52 001e 0722     		mov	r2, #7
  53 0020 1A60     		str	r2, [r3]
 242:.\Generated_Source\PSoC4/UART_DEB_UART.c ****         UART_DEB_RX_MATCH_REG     = UART_DEB_UART_DEFAULT_RX_MATCH_REG;
  54              		.loc 1 242 0
  55 0022 184B     		ldr	r3, .L2+28
  56 0024 0022     		mov	r2, #0
  57 0026 1A60     		str	r2, [r3]
 243:.\Generated_Source\PSoC4/UART_DEB_UART.c **** 
 244:.\Generated_Source\PSoC4/UART_DEB_UART.c ****         /* Configure TX direction */
 245:.\Generated_Source\PSoC4/UART_DEB_UART.c ****         UART_DEB_UART_TX_CTRL_REG = UART_DEB_UART_DEFAULT_UART_TX_CTRL;
  58              		.loc 1 245 0
  59 0028 174B     		ldr	r3, .L2+32
  60 002a 0122     		mov	r2, #1
  61 002c 1A60     		str	r2, [r3]
 246:.\Generated_Source\PSoC4/UART_DEB_UART.c ****         UART_DEB_TX_CTRL_REG      = UART_DEB_UART_DEFAULT_TX_CTRL;
  62              		.loc 1 246 0
  63 002e 174B     		ldr	r3, .L2+36
  64 0030 124A     		ldr	r2, .L2+20
  65 0032 1A60     		str	r2, [r3]
 247:.\Generated_Source\PSoC4/UART_DEB_UART.c ****         UART_DEB_TX_FIFO_CTRL_REG = UART_DEB_UART_DEFAULT_TX_FIFO_CTRL;
  66              		.loc 1 247 0
  67 0034 164B     		ldr	r3, .L2+40
  68 0036 0022     		mov	r2, #0
  69 0038 1A60     		str	r2, [r3]
 248:.\Generated_Source\PSoC4/UART_DEB_UART.c **** 
 249:.\Generated_Source\PSoC4/UART_DEB_UART.c ****     #if !(UART_DEB_CY_SCBIP_V0 || UART_DEB_CY_SCBIP_V1)
 250:.\Generated_Source\PSoC4/UART_DEB_UART.c ****         UART_DEB_UART_FLOW_CTRL_REG = UART_DEB_UART_DEFAULT_FLOW_CTRL;
  70              		.loc 1 250 0
  71 003a 164B     		ldr	r3, .L2+44
  72 003c 0422     		mov	r2, #4
  73 003e 1A60     		str	r2, [r3]
 251:.\Generated_Source\PSoC4/UART_DEB_UART.c ****     #endif /* !(UART_DEB_CY_SCBIP_V0 || UART_DEB_CY_SCBIP_V1) */
 252:.\Generated_Source\PSoC4/UART_DEB_UART.c **** 
 253:.\Generated_Source\PSoC4/UART_DEB_UART.c ****         /* Configure interrupt with UART handler but do not enable it */
 254:.\Generated_Source\PSoC4/UART_DEB_UART.c ****     #if(UART_DEB_SCB_IRQ_INTERNAL)
 255:.\Generated_Source\PSoC4/UART_DEB_UART.c ****         CyIntDisable    (UART_DEB_ISR_NUMBER);
 256:.\Generated_Source\PSoC4/UART_DEB_UART.c ****         CyIntSetPriority(UART_DEB_ISR_NUMBER, UART_DEB_ISR_PRIORITY);
 257:.\Generated_Source\PSoC4/UART_DEB_UART.c ****         (void) CyIntSetVector(UART_DEB_ISR_NUMBER, &UART_DEB_SPI_UART_ISR);
 258:.\Generated_Source\PSoC4/UART_DEB_UART.c ****     #endif /* (UART_DEB_SCB_IRQ_INTERNAL) */
 259:.\Generated_Source\PSoC4/UART_DEB_UART.c **** 
 260:.\Generated_Source\PSoC4/UART_DEB_UART.c ****         /* Configure WAKE interrupt */
 261:.\Generated_Source\PSoC4/UART_DEB_UART.c ****     #if(UART_DEB_UART_RX_WAKEUP_IRQ)
 262:.\Generated_Source\PSoC4/UART_DEB_UART.c ****         CyIntDisable    (UART_DEB_RX_WAKE_ISR_NUMBER);
 263:.\Generated_Source\PSoC4/UART_DEB_UART.c ****         CyIntSetPriority(UART_DEB_RX_WAKE_ISR_NUMBER, UART_DEB_RX_WAKE_ISR_PRIORITY);
 264:.\Generated_Source\PSoC4/UART_DEB_UART.c ****         (void) CyIntSetVector(UART_DEB_RX_WAKE_ISR_NUMBER, &UART_DEB_UART_WAKEUP_ISR);
 265:.\Generated_Source\PSoC4/UART_DEB_UART.c ****     #endif /* (UART_DEB_UART_RX_WAKEUP_IRQ) */
 266:.\Generated_Source\PSoC4/UART_DEB_UART.c **** 
 267:.\Generated_Source\PSoC4/UART_DEB_UART.c ****         /* Configure interrupt sources */
 268:.\Generated_Source\PSoC4/UART_DEB_UART.c ****         UART_DEB_INTR_I2C_EC_MASK_REG = UART_DEB_UART_DEFAULT_INTR_I2C_EC_MASK;
  74              		.loc 1 268 0
ARM GAS  C:\Users\mohammed\AppData\Local\Temp\ccJY5Ttg.s 			page 7


  75 0040 154B     		ldr	r3, .L2+48
  76 0042 0022     		mov	r2, #0
  77 0044 1A60     		str	r2, [r3]
 269:.\Generated_Source\PSoC4/UART_DEB_UART.c ****         UART_DEB_INTR_SPI_EC_MASK_REG = UART_DEB_UART_DEFAULT_INTR_SPI_EC_MASK;
  78              		.loc 1 269 0
  79 0046 154B     		ldr	r3, .L2+52
  80 0048 0022     		mov	r2, #0
  81 004a 1A60     		str	r2, [r3]
 270:.\Generated_Source\PSoC4/UART_DEB_UART.c ****         UART_DEB_INTR_SLAVE_MASK_REG  = UART_DEB_UART_DEFAULT_INTR_SLAVE_MASK;
  82              		.loc 1 270 0
  83 004c 144B     		ldr	r3, .L2+56
  84 004e 0022     		mov	r2, #0
  85 0050 1A60     		str	r2, [r3]
 271:.\Generated_Source\PSoC4/UART_DEB_UART.c ****         UART_DEB_INTR_MASTER_MASK_REG = UART_DEB_UART_DEFAULT_INTR_MASTER_MASK;
  86              		.loc 1 271 0
  87 0052 144B     		ldr	r3, .L2+60
  88 0054 0022     		mov	r2, #0
  89 0056 1A60     		str	r2, [r3]
 272:.\Generated_Source\PSoC4/UART_DEB_UART.c ****         UART_DEB_INTR_RX_MASK_REG     = UART_DEB_UART_DEFAULT_INTR_RX_MASK;
  90              		.loc 1 272 0
  91 0058 134B     		ldr	r3, .L2+64
  92 005a 0022     		mov	r2, #0
  93 005c 1A60     		str	r2, [r3]
 273:.\Generated_Source\PSoC4/UART_DEB_UART.c ****         UART_DEB_INTR_TX_MASK_REG     = UART_DEB_UART_DEFAULT_INTR_TX_MASK;
  94              		.loc 1 273 0
  95 005e 134B     		ldr	r3, .L2+68
  96 0060 0022     		mov	r2, #0
  97 0062 1A60     		str	r2, [r3]
 274:.\Generated_Source\PSoC4/UART_DEB_UART.c **** 
 275:.\Generated_Source\PSoC4/UART_DEB_UART.c ****     #if(UART_DEB_INTERNAL_RX_SW_BUFFER_CONST)
 276:.\Generated_Source\PSoC4/UART_DEB_UART.c ****         UART_DEB_rxBufferHead     = 0u;
 277:.\Generated_Source\PSoC4/UART_DEB_UART.c ****         UART_DEB_rxBufferTail     = 0u;
 278:.\Generated_Source\PSoC4/UART_DEB_UART.c ****         UART_DEB_rxBufferOverflow = 0u;
 279:.\Generated_Source\PSoC4/UART_DEB_UART.c ****     #endif /* (UART_DEB_INTERNAL_RX_SW_BUFFER_CONST) */
 280:.\Generated_Source\PSoC4/UART_DEB_UART.c **** 
 281:.\Generated_Source\PSoC4/UART_DEB_UART.c ****     #if(UART_DEB_INTERNAL_TX_SW_BUFFER_CONST)
 282:.\Generated_Source\PSoC4/UART_DEB_UART.c ****         UART_DEB_txBufferHead = 0u;
 283:.\Generated_Source\PSoC4/UART_DEB_UART.c ****         UART_DEB_txBufferTail = 0u;
 284:.\Generated_Source\PSoC4/UART_DEB_UART.c ****     #endif /* (UART_DEB_INTERNAL_TX_SW_BUFFER_CONST) */
 285:.\Generated_Source\PSoC4/UART_DEB_UART.c ****     }
  98              		.loc 1 285 0
  99 0064 BD46     		mov	sp, r7
 100              		@ sp needed
 101 0066 80BD     		pop	{r7, pc}
 102              	.L3:
 103              		.align	2
 104              	.L2:
 105 0068 00002440 		.word	1076101120
 106 006c 0F000002 		.word	33554447
 107 0070 40002440 		.word	1076101184
 108 0074 48002440 		.word	1076101192
 109 0078 00032440 		.word	1076101888
 110 007c 07000080 		.word	-2147483641
 111 0080 04032440 		.word	1076101892
 112 0084 10032440 		.word	1076101904
 113 0088 44002440 		.word	1076101188
 114 008c 00022440 		.word	1076101632
ARM GAS  C:\Users\mohammed\AppData\Local\Temp\ccJY5Ttg.s 			page 8


 115 0090 04022440 		.word	1076101636
 116 0094 50002440 		.word	1076101200
 117 0098 880E2440 		.word	1076104840
 118 009c C80E2440 		.word	1076104904
 119 00a0 480F2440 		.word	1076105032
 120 00a4 080F2440 		.word	1076104968
 121 00a8 C80F2440 		.word	1076105160
 122 00ac 880F2440 		.word	1076105096
 123              		.cfi_endproc
 124              	.LFE2:
 125              		.size	UART_DEB_UartInit, .-UART_DEB_UartInit
 126              		.section	.text.UART_DEB_UartPostEnable,"ax",%progbits
 127              		.align	2
 128              		.global	UART_DEB_UartPostEnable
 129              		.code	16
 130              		.thumb_func
 131              		.type	UART_DEB_UartPostEnable, %function
 132              	UART_DEB_UartPostEnable:
 133              	.LFB3:
 286:.\Generated_Source\PSoC4/UART_DEB_UART.c **** #endif /* (UART_DEB_SCB_MODE_UNCONFIG_CONST_CFG) */
 287:.\Generated_Source\PSoC4/UART_DEB_UART.c **** 
 288:.\Generated_Source\PSoC4/UART_DEB_UART.c **** 
 289:.\Generated_Source\PSoC4/UART_DEB_UART.c **** /*******************************************************************************
 290:.\Generated_Source\PSoC4/UART_DEB_UART.c **** * Function Name: UART_DEB_UartPostEnable
 291:.\Generated_Source\PSoC4/UART_DEB_UART.c **** ********************************************************************************
 292:.\Generated_Source\PSoC4/UART_DEB_UART.c **** *
 293:.\Generated_Source\PSoC4/UART_DEB_UART.c **** * Summary:
 294:.\Generated_Source\PSoC4/UART_DEB_UART.c **** *  Restores HSIOM settings for the UART output pins (TX and/or RTS) to be 
 295:.\Generated_Source\PSoC4/UART_DEB_UART.c **** *  controlled by the SCB UART.
 296:.\Generated_Source\PSoC4/UART_DEB_UART.c **** *
 297:.\Generated_Source\PSoC4/UART_DEB_UART.c **** * Parameters:
 298:.\Generated_Source\PSoC4/UART_DEB_UART.c **** *  None
 299:.\Generated_Source\PSoC4/UART_DEB_UART.c **** *
 300:.\Generated_Source\PSoC4/UART_DEB_UART.c **** * Return:
 301:.\Generated_Source\PSoC4/UART_DEB_UART.c **** *  None
 302:.\Generated_Source\PSoC4/UART_DEB_UART.c **** *
 303:.\Generated_Source\PSoC4/UART_DEB_UART.c **** *******************************************************************************/
 304:.\Generated_Source\PSoC4/UART_DEB_UART.c **** void UART_DEB_UartPostEnable(void)
 305:.\Generated_Source\PSoC4/UART_DEB_UART.c **** {
 134              		.loc 1 305 0
 135              		.cfi_startproc
 136 0000 80B5     		push	{r7, lr}
 137              		.cfi_def_cfa_offset 8
 138              		.cfi_offset 7, -8
 139              		.cfi_offset 14, -4
 140 0002 00AF     		add	r7, sp, #0
 141              		.cfi_def_cfa_register 7
 306:.\Generated_Source\PSoC4/UART_DEB_UART.c **** #if (UART_DEB_SCB_MODE_UNCONFIG_CONST_CFG)
 307:.\Generated_Source\PSoC4/UART_DEB_UART.c **** 
 308:.\Generated_Source\PSoC4/UART_DEB_UART.c **** #if (UART_DEB_TX_SCL_MISO_PIN)
 309:.\Generated_Source\PSoC4/UART_DEB_UART.c ****     if (UART_DEB_CHECK_TX_SCL_MISO_PIN_USED)
 310:.\Generated_Source\PSoC4/UART_DEB_UART.c ****     {
 311:.\Generated_Source\PSoC4/UART_DEB_UART.c ****         /* Set SCB UART to drive the output pin */
 312:.\Generated_Source\PSoC4/UART_DEB_UART.c ****         UART_DEB_SET_HSIOM_SEL(UART_DEB_TX_SCL_MISO_HSIOM_REG, UART_DEB_TX_SCL_MISO_HSIOM_MASK,
 313:.\Generated_Source\PSoC4/UART_DEB_UART.c ****                                        UART_DEB_TX_SCL_MISO_HSIOM_POS, UART_DEB_HSIOM_UART_SEL);
 314:.\Generated_Source\PSoC4/UART_DEB_UART.c ****     }
 315:.\Generated_Source\PSoC4/UART_DEB_UART.c **** #endif /* (UART_DEB_TX_SCL_MISO_PIN_PIN) */
ARM GAS  C:\Users\mohammed\AppData\Local\Temp\ccJY5Ttg.s 			page 9


 316:.\Generated_Source\PSoC4/UART_DEB_UART.c **** 
 317:.\Generated_Source\PSoC4/UART_DEB_UART.c **** #if (UART_DEB_RTS_SS0_PIN)
 318:.\Generated_Source\PSoC4/UART_DEB_UART.c ****     if (UART_DEB_CHECK_RTS_SS0_PIN_USED)
 319:.\Generated_Source\PSoC4/UART_DEB_UART.c ****     {
 320:.\Generated_Source\PSoC4/UART_DEB_UART.c ****         /* Set SCB UART to drive the output pin */
 321:.\Generated_Source\PSoC4/UART_DEB_UART.c ****         UART_DEB_SET_HSIOM_SEL(UART_DEB_RTS_SS0_HSIOM_REG, UART_DEB_RTS_SS0_HSIOM_MASK,
 322:.\Generated_Source\PSoC4/UART_DEB_UART.c ****                                        UART_DEB_RTS_SS0_HSIOM_POS, UART_DEB_HSIOM_UART_SEL);
 323:.\Generated_Source\PSoC4/UART_DEB_UART.c ****     }
 324:.\Generated_Source\PSoC4/UART_DEB_UART.c **** #endif /* (UART_DEB_RTS_SS0_PIN) */
 325:.\Generated_Source\PSoC4/UART_DEB_UART.c **** 
 326:.\Generated_Source\PSoC4/UART_DEB_UART.c **** #else
 327:.\Generated_Source\PSoC4/UART_DEB_UART.c **** #if (UART_DEB_UART_TX_PIN)
 328:.\Generated_Source\PSoC4/UART_DEB_UART.c ****      /* Set SCB UART to drive the output pin */
 329:.\Generated_Source\PSoC4/UART_DEB_UART.c ****     UART_DEB_SET_HSIOM_SEL(UART_DEB_TX_HSIOM_REG, UART_DEB_TX_HSIOM_MASK,
 142              		.loc 1 329 0
 143 0004 054B     		ldr	r3, .L5
 144 0006 054A     		ldr	r2, .L5
 145 0008 1268     		ldr	r2, [r2]
 146 000a 0549     		ldr	r1, .L5+4
 147 000c 0A40     		and	r2, r1
 148 000e 9021     		mov	r1, #144
 149 0010 0904     		lsl	r1, r1, #16
 150 0012 0A43     		orr	r2, r1
 151 0014 1A60     		str	r2, [r3]
 330:.\Generated_Source\PSoC4/UART_DEB_UART.c ****                                    UART_DEB_TX_HSIOM_POS, UART_DEB_HSIOM_UART_SEL);
 331:.\Generated_Source\PSoC4/UART_DEB_UART.c **** #endif /* (UART_DEB_UART_TX_PIN) */
 332:.\Generated_Source\PSoC4/UART_DEB_UART.c **** 
 333:.\Generated_Source\PSoC4/UART_DEB_UART.c **** #if (UART_DEB_UART_RTS_PIN)
 334:.\Generated_Source\PSoC4/UART_DEB_UART.c ****     /* Set SCB UART to drive the output pin */
 335:.\Generated_Source\PSoC4/UART_DEB_UART.c ****     UART_DEB_SET_HSIOM_SEL(UART_DEB_RTS_HSIOM_REG, UART_DEB_RTS_HSIOM_MASK,
 336:.\Generated_Source\PSoC4/UART_DEB_UART.c ****                                    UART_DEB_RTS_HSIOM_POS, UART_DEB_HSIOM_UART_SEL);
 337:.\Generated_Source\PSoC4/UART_DEB_UART.c **** #endif /* (UART_DEB_UART_RTS_PIN) */
 338:.\Generated_Source\PSoC4/UART_DEB_UART.c **** 
 339:.\Generated_Source\PSoC4/UART_DEB_UART.c **** #endif /* (UART_DEB_SCB_MODE_UNCONFIG_CONST_CFG) */
 340:.\Generated_Source\PSoC4/UART_DEB_UART.c **** }
 152              		.loc 1 340 0
 153 0016 BD46     		mov	sp, r7
 154              		@ sp needed
 155 0018 80BD     		pop	{r7, pc}
 156              	.L6:
 157 001a C046     		.align	2
 158              	.L5:
 159 001c 00010240 		.word	1073873152
 160 0020 FFFF0FFF 		.word	-15728641
 161              		.cfi_endproc
 162              	.LFE3:
 163              		.size	UART_DEB_UartPostEnable, .-UART_DEB_UartPostEnable
 164              		.section	.text.UART_DEB_UartStop,"ax",%progbits
 165              		.align	2
 166              		.global	UART_DEB_UartStop
 167              		.code	16
 168              		.thumb_func
 169              		.type	UART_DEB_UartStop, %function
 170              	UART_DEB_UartStop:
 171              	.LFB4:
 341:.\Generated_Source\PSoC4/UART_DEB_UART.c **** 
 342:.\Generated_Source\PSoC4/UART_DEB_UART.c **** 
ARM GAS  C:\Users\mohammed\AppData\Local\Temp\ccJY5Ttg.s 			page 10


 343:.\Generated_Source\PSoC4/UART_DEB_UART.c **** /*******************************************************************************
 344:.\Generated_Source\PSoC4/UART_DEB_UART.c **** * Function Name: UART_DEB_UartStop
 345:.\Generated_Source\PSoC4/UART_DEB_UART.c **** ********************************************************************************
 346:.\Generated_Source\PSoC4/UART_DEB_UART.c **** *
 347:.\Generated_Source\PSoC4/UART_DEB_UART.c **** * Summary:
 348:.\Generated_Source\PSoC4/UART_DEB_UART.c **** *  Changes the HSIOM settings for the UART output pins (TX and/or RTS) to keep
 349:.\Generated_Source\PSoC4/UART_DEB_UART.c **** *  them inactive after the block is disabled. The output pins are controlled by
 350:.\Generated_Source\PSoC4/UART_DEB_UART.c **** *  the GPIO data register. Also, the function disables the skip start feature to
 351:.\Generated_Source\PSoC4/UART_DEB_UART.c **** *  not cause it to trigger after the component is enabled.
 352:.\Generated_Source\PSoC4/UART_DEB_UART.c **** *
 353:.\Generated_Source\PSoC4/UART_DEB_UART.c **** * Parameters:
 354:.\Generated_Source\PSoC4/UART_DEB_UART.c **** *  None
 355:.\Generated_Source\PSoC4/UART_DEB_UART.c **** *
 356:.\Generated_Source\PSoC4/UART_DEB_UART.c **** * Return:
 357:.\Generated_Source\PSoC4/UART_DEB_UART.c **** *  None
 358:.\Generated_Source\PSoC4/UART_DEB_UART.c **** *
 359:.\Generated_Source\PSoC4/UART_DEB_UART.c **** *******************************************************************************/
 360:.\Generated_Source\PSoC4/UART_DEB_UART.c **** void UART_DEB_UartStop(void)
 361:.\Generated_Source\PSoC4/UART_DEB_UART.c **** {
 172              		.loc 1 361 0
 173              		.cfi_startproc
 174 0000 80B5     		push	{r7, lr}
 175              		.cfi_def_cfa_offset 8
 176              		.cfi_offset 7, -8
 177              		.cfi_offset 14, -4
 178 0002 00AF     		add	r7, sp, #0
 179              		.cfi_def_cfa_register 7
 362:.\Generated_Source\PSoC4/UART_DEB_UART.c **** #if(UART_DEB_SCB_MODE_UNCONFIG_CONST_CFG)
 363:.\Generated_Source\PSoC4/UART_DEB_UART.c ****     #if (UART_DEB_TX_SCL_MISO_PIN)
 364:.\Generated_Source\PSoC4/UART_DEB_UART.c ****         if (UART_DEB_CHECK_TX_SCL_MISO_PIN_USED)
 365:.\Generated_Source\PSoC4/UART_DEB_UART.c ****         {
 366:.\Generated_Source\PSoC4/UART_DEB_UART.c ****             /* Set GPIO to drive output pin */
 367:.\Generated_Source\PSoC4/UART_DEB_UART.c ****             UART_DEB_SET_HSIOM_SEL(UART_DEB_TX_SCL_MISO_HSIOM_REG, UART_DEB_TX_SCL_MISO_HSIOM_MASK,
 368:.\Generated_Source\PSoC4/UART_DEB_UART.c ****                                            UART_DEB_TX_SCL_MISO_HSIOM_POS, UART_DEB_HSIOM_GPIO_SEL)
 369:.\Generated_Source\PSoC4/UART_DEB_UART.c ****         }
 370:.\Generated_Source\PSoC4/UART_DEB_UART.c ****     #endif /* (UART_DEB_TX_SCL_MISO_PIN_PIN) */
 371:.\Generated_Source\PSoC4/UART_DEB_UART.c **** 
 372:.\Generated_Source\PSoC4/UART_DEB_UART.c ****     #if (UART_DEB_RTS_SS0_PIN)
 373:.\Generated_Source\PSoC4/UART_DEB_UART.c ****         if (UART_DEB_CHECK_RTS_SS0_PIN_USED)
 374:.\Generated_Source\PSoC4/UART_DEB_UART.c ****         {
 375:.\Generated_Source\PSoC4/UART_DEB_UART.c ****             /* Set output pin state after block is disabled */
 376:.\Generated_Source\PSoC4/UART_DEB_UART.c ****             UART_DEB_uart_rts_spi_ss0_Write(UART_DEB_GET_UART_RTS_INACTIVE);
 377:.\Generated_Source\PSoC4/UART_DEB_UART.c **** 
 378:.\Generated_Source\PSoC4/UART_DEB_UART.c ****             /* Set GPIO to drive output pin */
 379:.\Generated_Source\PSoC4/UART_DEB_UART.c ****             UART_DEB_SET_HSIOM_SEL(UART_DEB_RTS_SS0_HSIOM_REG, UART_DEB_RTS_SS0_HSIOM_MASK,
 380:.\Generated_Source\PSoC4/UART_DEB_UART.c ****                                            UART_DEB_RTS_SS0_HSIOM_POS, UART_DEB_HSIOM_GPIO_SEL);
 381:.\Generated_Source\PSoC4/UART_DEB_UART.c ****         }
 382:.\Generated_Source\PSoC4/UART_DEB_UART.c ****     #endif /* (UART_DEB_SS0_PIN) */
 383:.\Generated_Source\PSoC4/UART_DEB_UART.c **** 
 384:.\Generated_Source\PSoC4/UART_DEB_UART.c **** #else
 385:.\Generated_Source\PSoC4/UART_DEB_UART.c ****     #if (UART_DEB_UART_TX_PIN)
 386:.\Generated_Source\PSoC4/UART_DEB_UART.c ****         /* Set GPIO to drive output pin */
 387:.\Generated_Source\PSoC4/UART_DEB_UART.c ****         UART_DEB_SET_HSIOM_SEL(UART_DEB_TX_HSIOM_REG, UART_DEB_TX_HSIOM_MASK,
 180              		.loc 1 387 0
 181 0004 034B     		ldr	r3, .L8
 182 0006 034A     		ldr	r2, .L8
 183 0008 1268     		ldr	r2, [r2]
ARM GAS  C:\Users\mohammed\AppData\Local\Temp\ccJY5Ttg.s 			page 11


 184 000a 0349     		ldr	r1, .L8+4
 185 000c 0A40     		and	r2, r1
 186 000e 1A60     		str	r2, [r3]
 388:.\Generated_Source\PSoC4/UART_DEB_UART.c ****                                        UART_DEB_TX_HSIOM_POS, UART_DEB_HSIOM_GPIO_SEL);
 389:.\Generated_Source\PSoC4/UART_DEB_UART.c ****     #endif /* (UART_DEB_UART_TX_PIN) */
 390:.\Generated_Source\PSoC4/UART_DEB_UART.c **** 
 391:.\Generated_Source\PSoC4/UART_DEB_UART.c ****     #if (UART_DEB_UART_RTS_PIN)
 392:.\Generated_Source\PSoC4/UART_DEB_UART.c ****         /* Set output pin state after block is disabled */
 393:.\Generated_Source\PSoC4/UART_DEB_UART.c ****         UART_DEB_rts_Write(UART_DEB_GET_UART_RTS_INACTIVE);
 394:.\Generated_Source\PSoC4/UART_DEB_UART.c **** 
 395:.\Generated_Source\PSoC4/UART_DEB_UART.c ****         /* Set GPIO to drive output pin */
 396:.\Generated_Source\PSoC4/UART_DEB_UART.c ****         UART_DEB_SET_HSIOM_SEL(UART_DEB_RTS_HSIOM_REG, UART_DEB_RTS_HSIOM_MASK,
 397:.\Generated_Source\PSoC4/UART_DEB_UART.c ****                                        UART_DEB_RTS_HSIOM_POS, UART_DEB_HSIOM_GPIO_SEL);
 398:.\Generated_Source\PSoC4/UART_DEB_UART.c ****     #endif /* (UART_DEB_UART_RTS_PIN) */
 399:.\Generated_Source\PSoC4/UART_DEB_UART.c **** 
 400:.\Generated_Source\PSoC4/UART_DEB_UART.c **** #endif /* (UART_DEB_SCB_MODE_UNCONFIG_CONST_CFG) */
 401:.\Generated_Source\PSoC4/UART_DEB_UART.c **** 
 402:.\Generated_Source\PSoC4/UART_DEB_UART.c **** #if (UART_DEB_UART_WAKE_ENABLE_CONST)
 403:.\Generated_Source\PSoC4/UART_DEB_UART.c ****     /* Disable skip start feature used for wakeup */
 404:.\Generated_Source\PSoC4/UART_DEB_UART.c ****     UART_DEB_UART_RX_CTRL_REG &= (uint32) ~UART_DEB_UART_RX_CTRL_SKIP_START;
 405:.\Generated_Source\PSoC4/UART_DEB_UART.c **** #endif /* (UART_DEB_UART_WAKE_ENABLE_CONST) */
 406:.\Generated_Source\PSoC4/UART_DEB_UART.c **** }
 187              		.loc 1 406 0
 188 0010 BD46     		mov	sp, r7
 189              		@ sp needed
 190 0012 80BD     		pop	{r7, pc}
 191              	.L9:
 192              		.align	2
 193              	.L8:
 194 0014 00010240 		.word	1073873152
 195 0018 FFFF0FFF 		.word	-15728641
 196              		.cfi_endproc
 197              	.LFE4:
 198              		.size	UART_DEB_UartStop, .-UART_DEB_UartStop
 199              		.section	.text.UART_DEB_UartSetRxAddress,"ax",%progbits
 200              		.align	2
 201              		.global	UART_DEB_UartSetRxAddress
 202              		.code	16
 203              		.thumb_func
 204              		.type	UART_DEB_UartSetRxAddress, %function
 205              	UART_DEB_UartSetRxAddress:
 206              	.LFB5:
 407:.\Generated_Source\PSoC4/UART_DEB_UART.c **** 
 408:.\Generated_Source\PSoC4/UART_DEB_UART.c **** 
 409:.\Generated_Source\PSoC4/UART_DEB_UART.c **** /*******************************************************************************
 410:.\Generated_Source\PSoC4/UART_DEB_UART.c **** * Function Name: UART_DEB_UartSetRxAddress
 411:.\Generated_Source\PSoC4/UART_DEB_UART.c **** ********************************************************************************
 412:.\Generated_Source\PSoC4/UART_DEB_UART.c **** *
 413:.\Generated_Source\PSoC4/UART_DEB_UART.c **** * Summary:
 414:.\Generated_Source\PSoC4/UART_DEB_UART.c **** *  Sets the hardware detectable receiver address for the UART in the
 415:.\Generated_Source\PSoC4/UART_DEB_UART.c **** *  Multiprocessor mode.
 416:.\Generated_Source\PSoC4/UART_DEB_UART.c **** *
 417:.\Generated_Source\PSoC4/UART_DEB_UART.c **** * Parameters:
 418:.\Generated_Source\PSoC4/UART_DEB_UART.c **** *  address: Address for hardware address detection.
 419:.\Generated_Source\PSoC4/UART_DEB_UART.c **** *
 420:.\Generated_Source\PSoC4/UART_DEB_UART.c **** * Return:
 421:.\Generated_Source\PSoC4/UART_DEB_UART.c **** *  None
ARM GAS  C:\Users\mohammed\AppData\Local\Temp\ccJY5Ttg.s 			page 12


 422:.\Generated_Source\PSoC4/UART_DEB_UART.c **** *
 423:.\Generated_Source\PSoC4/UART_DEB_UART.c **** *******************************************************************************/
 424:.\Generated_Source\PSoC4/UART_DEB_UART.c **** void UART_DEB_UartSetRxAddress(uint32 address)
 425:.\Generated_Source\PSoC4/UART_DEB_UART.c **** {
 207              		.loc 1 425 0
 208              		.cfi_startproc
 209 0000 80B5     		push	{r7, lr}
 210              		.cfi_def_cfa_offset 8
 211              		.cfi_offset 7, -8
 212              		.cfi_offset 14, -4
 213 0002 84B0     		sub	sp, sp, #16
 214              		.cfi_def_cfa_offset 24
 215 0004 00AF     		add	r7, sp, #0
 216              		.cfi_def_cfa_register 7
 217 0006 7860     		str	r0, [r7, #4]
 426:.\Generated_Source\PSoC4/UART_DEB_UART.c ****      uint32 matchReg;
 427:.\Generated_Source\PSoC4/UART_DEB_UART.c **** 
 428:.\Generated_Source\PSoC4/UART_DEB_UART.c ****     matchReg = UART_DEB_RX_MATCH_REG;
 218              		.loc 1 428 0
 219 0008 094B     		ldr	r3, .L11
 220 000a 1B68     		ldr	r3, [r3]
 221 000c FB60     		str	r3, [r7, #12]
 429:.\Generated_Source\PSoC4/UART_DEB_UART.c **** 
 430:.\Generated_Source\PSoC4/UART_DEB_UART.c ****     matchReg &= ((uint32) ~UART_DEB_RX_MATCH_ADDR_MASK); /* Clear address bits */
 222              		.loc 1 430 0
 223 000e FB68     		ldr	r3, [r7, #12]
 224 0010 FF22     		mov	r2, #255
 225 0012 9343     		bic	r3, r2
 226 0014 FB60     		str	r3, [r7, #12]
 431:.\Generated_Source\PSoC4/UART_DEB_UART.c ****     matchReg |= ((uint32)  (address & UART_DEB_RX_MATCH_ADDR_MASK)); /* Set address  */
 227              		.loc 1 431 0
 228 0016 7B68     		ldr	r3, [r7, #4]
 229 0018 FF22     		mov	r2, #255
 230 001a 1340     		and	r3, r2
 231 001c FA68     		ldr	r2, [r7, #12]
 232 001e 1343     		orr	r3, r2
 233 0020 FB60     		str	r3, [r7, #12]
 432:.\Generated_Source\PSoC4/UART_DEB_UART.c **** 
 433:.\Generated_Source\PSoC4/UART_DEB_UART.c ****     UART_DEB_RX_MATCH_REG = matchReg;
 234              		.loc 1 433 0
 235 0022 034B     		ldr	r3, .L11
 236 0024 FA68     		ldr	r2, [r7, #12]
 237 0026 1A60     		str	r2, [r3]
 434:.\Generated_Source\PSoC4/UART_DEB_UART.c **** }
 238              		.loc 1 434 0
 239 0028 BD46     		mov	sp, r7
 240 002a 04B0     		add	sp, sp, #16
 241              		@ sp needed
 242 002c 80BD     		pop	{r7, pc}
 243              	.L12:
 244 002e C046     		.align	2
 245              	.L11:
 246 0030 10032440 		.word	1076101904
 247              		.cfi_endproc
 248              	.LFE5:
 249              		.size	UART_DEB_UartSetRxAddress, .-UART_DEB_UartSetRxAddress
 250              		.section	.text.UART_DEB_UartSetRxAddressMask,"ax",%progbits
ARM GAS  C:\Users\mohammed\AppData\Local\Temp\ccJY5Ttg.s 			page 13


 251              		.align	2
 252              		.global	UART_DEB_UartSetRxAddressMask
 253              		.code	16
 254              		.thumb_func
 255              		.type	UART_DEB_UartSetRxAddressMask, %function
 256              	UART_DEB_UartSetRxAddressMask:
 257              	.LFB6:
 435:.\Generated_Source\PSoC4/UART_DEB_UART.c **** 
 436:.\Generated_Source\PSoC4/UART_DEB_UART.c **** 
 437:.\Generated_Source\PSoC4/UART_DEB_UART.c **** /*******************************************************************************
 438:.\Generated_Source\PSoC4/UART_DEB_UART.c **** * Function Name: UART_DEB_UartSetRxAddressMask
 439:.\Generated_Source\PSoC4/UART_DEB_UART.c **** ********************************************************************************
 440:.\Generated_Source\PSoC4/UART_DEB_UART.c **** *
 441:.\Generated_Source\PSoC4/UART_DEB_UART.c **** * Summary:
 442:.\Generated_Source\PSoC4/UART_DEB_UART.c **** *  Sets the hardware address mask for the UART in the Multiprocessor mode.
 443:.\Generated_Source\PSoC4/UART_DEB_UART.c **** *
 444:.\Generated_Source\PSoC4/UART_DEB_UART.c **** * Parameters:
 445:.\Generated_Source\PSoC4/UART_DEB_UART.c **** *  addressMask: Address mask.
 446:.\Generated_Source\PSoC4/UART_DEB_UART.c **** *   0 - address bit does not care while comparison.
 447:.\Generated_Source\PSoC4/UART_DEB_UART.c **** *   1 - address bit is significant while comparison.
 448:.\Generated_Source\PSoC4/UART_DEB_UART.c **** *
 449:.\Generated_Source\PSoC4/UART_DEB_UART.c **** * Return:
 450:.\Generated_Source\PSoC4/UART_DEB_UART.c **** *  None
 451:.\Generated_Source\PSoC4/UART_DEB_UART.c **** *
 452:.\Generated_Source\PSoC4/UART_DEB_UART.c **** *******************************************************************************/
 453:.\Generated_Source\PSoC4/UART_DEB_UART.c **** void UART_DEB_UartSetRxAddressMask(uint32 addressMask)
 454:.\Generated_Source\PSoC4/UART_DEB_UART.c **** {
 258              		.loc 1 454 0
 259              		.cfi_startproc
 260 0000 80B5     		push	{r7, lr}
 261              		.cfi_def_cfa_offset 8
 262              		.cfi_offset 7, -8
 263              		.cfi_offset 14, -4
 264 0002 84B0     		sub	sp, sp, #16
 265              		.cfi_def_cfa_offset 24
 266 0004 00AF     		add	r7, sp, #0
 267              		.cfi_def_cfa_register 7
 268 0006 7860     		str	r0, [r7, #4]
 455:.\Generated_Source\PSoC4/UART_DEB_UART.c ****     uint32 matchReg;
 456:.\Generated_Source\PSoC4/UART_DEB_UART.c **** 
 457:.\Generated_Source\PSoC4/UART_DEB_UART.c ****     matchReg = UART_DEB_RX_MATCH_REG;
 269              		.loc 1 457 0
 270 0008 084B     		ldr	r3, .L14
 271 000a 1B68     		ldr	r3, [r3]
 272 000c FB60     		str	r3, [r7, #12]
 458:.\Generated_Source\PSoC4/UART_DEB_UART.c **** 
 459:.\Generated_Source\PSoC4/UART_DEB_UART.c ****     matchReg &= ((uint32) ~UART_DEB_RX_MATCH_MASK_MASK); /* Clear address mask bits */
 273              		.loc 1 459 0
 274 000e FB68     		ldr	r3, [r7, #12]
 275 0010 074A     		ldr	r2, .L14+4
 276 0012 1340     		and	r3, r2
 277 0014 FB60     		str	r3, [r7, #12]
 460:.\Generated_Source\PSoC4/UART_DEB_UART.c ****     matchReg |= ((uint32) (addressMask << UART_DEB_RX_MATCH_MASK_POS));
 278              		.loc 1 460 0
 279 0016 7B68     		ldr	r3, [r7, #4]
 280 0018 1B04     		lsl	r3, r3, #16
 281 001a FA68     		ldr	r2, [r7, #12]
ARM GAS  C:\Users\mohammed\AppData\Local\Temp\ccJY5Ttg.s 			page 14


 282 001c 1343     		orr	r3, r2
 283 001e FB60     		str	r3, [r7, #12]
 461:.\Generated_Source\PSoC4/UART_DEB_UART.c **** 
 462:.\Generated_Source\PSoC4/UART_DEB_UART.c ****     UART_DEB_RX_MATCH_REG = matchReg;
 284              		.loc 1 462 0
 285 0020 024B     		ldr	r3, .L14
 286 0022 FA68     		ldr	r2, [r7, #12]
 287 0024 1A60     		str	r2, [r3]
 463:.\Generated_Source\PSoC4/UART_DEB_UART.c **** }
 288              		.loc 1 463 0
 289 0026 BD46     		mov	sp, r7
 290 0028 04B0     		add	sp, sp, #16
 291              		@ sp needed
 292 002a 80BD     		pop	{r7, pc}
 293              	.L15:
 294              		.align	2
 295              	.L14:
 296 002c 10032440 		.word	1076101904
 297 0030 FFFF00FF 		.word	-16711681
 298              		.cfi_endproc
 299              	.LFE6:
 300              		.size	UART_DEB_UartSetRxAddressMask, .-UART_DEB_UartSetRxAddressMask
 301              		.section	.text.UART_DEB_UartGetChar,"ax",%progbits
 302              		.align	2
 303              		.global	UART_DEB_UartGetChar
 304              		.code	16
 305              		.thumb_func
 306              		.type	UART_DEB_UartGetChar, %function
 307              	UART_DEB_UartGetChar:
 308              	.LFB7:
 464:.\Generated_Source\PSoC4/UART_DEB_UART.c **** 
 465:.\Generated_Source\PSoC4/UART_DEB_UART.c **** 
 466:.\Generated_Source\PSoC4/UART_DEB_UART.c **** #if(UART_DEB_UART_RX_DIRECTION)
 467:.\Generated_Source\PSoC4/UART_DEB_UART.c ****     /*******************************************************************************
 468:.\Generated_Source\PSoC4/UART_DEB_UART.c ****     * Function Name: UART_DEB_UartGetChar
 469:.\Generated_Source\PSoC4/UART_DEB_UART.c ****     ********************************************************************************
 470:.\Generated_Source\PSoC4/UART_DEB_UART.c ****     *
 471:.\Generated_Source\PSoC4/UART_DEB_UART.c ****     * Summary:
 472:.\Generated_Source\PSoC4/UART_DEB_UART.c ****     *  Retrieves the next data element from the receive buffer.
 473:.\Generated_Source\PSoC4/UART_DEB_UART.c ****     *  This function is designed for ASCII characters and returns a char
 474:.\Generated_Source\PSoC4/UART_DEB_UART.c ****     *  where 1 to 255 are valid characters and 0 indicates an error occurred or
 475:.\Generated_Source\PSoC4/UART_DEB_UART.c ****     *  no data present.
 476:.\Generated_Source\PSoC4/UART_DEB_UART.c ****     *  - The RX software buffer is disabled: returns the data element
 477:.\Generated_Source\PSoC4/UART_DEB_UART.c ****     *    retrieved from the RX FIFO.
 478:.\Generated_Source\PSoC4/UART_DEB_UART.c ****     *    Undefined data will be returned if the RX FIFO is empty.
 479:.\Generated_Source\PSoC4/UART_DEB_UART.c ****     *  - The RX software buffer is enabled: returns the data element from
 480:.\Generated_Source\PSoC4/UART_DEB_UART.c ****     *    the software receive buffer.
 481:.\Generated_Source\PSoC4/UART_DEB_UART.c ****     *
 482:.\Generated_Source\PSoC4/UART_DEB_UART.c ****     * Parameters:
 483:.\Generated_Source\PSoC4/UART_DEB_UART.c ****     *  None
 484:.\Generated_Source\PSoC4/UART_DEB_UART.c ****     *
 485:.\Generated_Source\PSoC4/UART_DEB_UART.c ****     * Return:
 486:.\Generated_Source\PSoC4/UART_DEB_UART.c ****     *  The next data element from the receive buffer.
 487:.\Generated_Source\PSoC4/UART_DEB_UART.c ****     *  ASCII character values from 1 to 255 are valid.
 488:.\Generated_Source\PSoC4/UART_DEB_UART.c ****     *  A returned zero signifies an error condition or no data available.
 489:.\Generated_Source\PSoC4/UART_DEB_UART.c ****     *
 490:.\Generated_Source\PSoC4/UART_DEB_UART.c ****     * Side Effects:
ARM GAS  C:\Users\mohammed\AppData\Local\Temp\ccJY5Ttg.s 			page 15


 491:.\Generated_Source\PSoC4/UART_DEB_UART.c ****     *  The errors bits may not correspond with reading characters due to RX FIFO
 492:.\Generated_Source\PSoC4/UART_DEB_UART.c ****     *  and software buffer usage.
 493:.\Generated_Source\PSoC4/UART_DEB_UART.c ****     *  RX software buffer is enabled: The internal software buffer overflow
 494:.\Generated_Source\PSoC4/UART_DEB_UART.c ****     *  does not treat as an error condition.
 495:.\Generated_Source\PSoC4/UART_DEB_UART.c ****     *  Check SCB_rxBufferOverflow to capture that error condition.
 496:.\Generated_Source\PSoC4/UART_DEB_UART.c ****     *
 497:.\Generated_Source\PSoC4/UART_DEB_UART.c ****     *******************************************************************************/
 498:.\Generated_Source\PSoC4/UART_DEB_UART.c ****     uint32 UART_DEB_UartGetChar(void)
 499:.\Generated_Source\PSoC4/UART_DEB_UART.c ****     {
 309              		.loc 1 499 0
 310              		.cfi_startproc
 311 0000 80B5     		push	{r7, lr}
 312              		.cfi_def_cfa_offset 8
 313              		.cfi_offset 7, -8
 314              		.cfi_offset 14, -4
 315 0002 82B0     		sub	sp, sp, #8
 316              		.cfi_def_cfa_offset 16
 317 0004 00AF     		add	r7, sp, #0
 318              		.cfi_def_cfa_register 7
 500:.\Generated_Source\PSoC4/UART_DEB_UART.c ****         uint32 rxData = 0u;
 319              		.loc 1 500 0
 320 0006 0023     		mov	r3, #0
 321 0008 7B60     		str	r3, [r7, #4]
 501:.\Generated_Source\PSoC4/UART_DEB_UART.c **** 
 502:.\Generated_Source\PSoC4/UART_DEB_UART.c ****         /* Reads data only if there is data to read */
 503:.\Generated_Source\PSoC4/UART_DEB_UART.c ****         if (0u != UART_DEB_SpiUartGetRxBufferSize())
 322              		.loc 1 503 0
 323 000a FFF7FEFF 		bl	UART_DEB_SpiUartGetRxBufferSize
 324 000e 031E     		sub	r3, r0, #0
 325 0010 03D0     		beq	.L17
 504:.\Generated_Source\PSoC4/UART_DEB_UART.c ****         {
 505:.\Generated_Source\PSoC4/UART_DEB_UART.c ****             rxData = UART_DEB_SpiUartReadRxData();
 326              		.loc 1 505 0
 327 0012 FFF7FEFF 		bl	UART_DEB_SpiUartReadRxData
 328 0016 031C     		mov	r3, r0
 329 0018 7B60     		str	r3, [r7, #4]
 330              	.L17:
 506:.\Generated_Source\PSoC4/UART_DEB_UART.c ****         }
 507:.\Generated_Source\PSoC4/UART_DEB_UART.c **** 
 508:.\Generated_Source\PSoC4/UART_DEB_UART.c ****         if (UART_DEB_CHECK_INTR_RX(UART_DEB_INTR_RX_ERR))
 331              		.loc 1 508 0
 332 001a 084B     		ldr	r3, .L20
 333 001c 1A68     		ldr	r2, [r3]
 334 001e D823     		mov	r3, #216
 335 0020 9B00     		lsl	r3, r3, #2
 336 0022 1340     		and	r3, r2
 337 0024 05D0     		beq	.L18
 509:.\Generated_Source\PSoC4/UART_DEB_UART.c ****         {
 510:.\Generated_Source\PSoC4/UART_DEB_UART.c ****             rxData = 0u; /* Error occurred: returns zero */
 338              		.loc 1 510 0
 339 0026 0023     		mov	r3, #0
 340 0028 7B60     		str	r3, [r7, #4]
 511:.\Generated_Source\PSoC4/UART_DEB_UART.c ****             UART_DEB_ClearRxInterruptSource(UART_DEB_INTR_RX_ERR);
 341              		.loc 1 511 0
 342 002a 044B     		ldr	r3, .L20
 343 002c D822     		mov	r2, #216
 344 002e 9200     		lsl	r2, r2, #2
ARM GAS  C:\Users\mohammed\AppData\Local\Temp\ccJY5Ttg.s 			page 16


 345 0030 1A60     		str	r2, [r3]
 346              	.L18:
 512:.\Generated_Source\PSoC4/UART_DEB_UART.c ****         }
 513:.\Generated_Source\PSoC4/UART_DEB_UART.c **** 
 514:.\Generated_Source\PSoC4/UART_DEB_UART.c ****         return (rxData);
 347              		.loc 1 514 0
 348 0032 7B68     		ldr	r3, [r7, #4]
 515:.\Generated_Source\PSoC4/UART_DEB_UART.c ****     }
 349              		.loc 1 515 0
 350 0034 181C     		mov	r0, r3
 351 0036 BD46     		mov	sp, r7
 352 0038 02B0     		add	sp, sp, #8
 353              		@ sp needed
 354 003a 80BD     		pop	{r7, pc}
 355              	.L21:
 356              		.align	2
 357              	.L20:
 358 003c C00F2440 		.word	1076105152
 359              		.cfi_endproc
 360              	.LFE7:
 361              		.size	UART_DEB_UartGetChar, .-UART_DEB_UartGetChar
 362              		.section	.text.UART_DEB_UartGetByte,"ax",%progbits
 363              		.align	2
 364              		.global	UART_DEB_UartGetByte
 365              		.code	16
 366              		.thumb_func
 367              		.type	UART_DEB_UartGetByte, %function
 368              	UART_DEB_UartGetByte:
 369              	.LFB8:
 516:.\Generated_Source\PSoC4/UART_DEB_UART.c **** 
 517:.\Generated_Source\PSoC4/UART_DEB_UART.c **** 
 518:.\Generated_Source\PSoC4/UART_DEB_UART.c ****     /*******************************************************************************
 519:.\Generated_Source\PSoC4/UART_DEB_UART.c ****     * Function Name: UART_DEB_UartGetByte
 520:.\Generated_Source\PSoC4/UART_DEB_UART.c ****     ********************************************************************************
 521:.\Generated_Source\PSoC4/UART_DEB_UART.c ****     *
 522:.\Generated_Source\PSoC4/UART_DEB_UART.c ****     * Summary:
 523:.\Generated_Source\PSoC4/UART_DEB_UART.c ****     *  Retrieves the next data element from the receive buffer, returns the
 524:.\Generated_Source\PSoC4/UART_DEB_UART.c ****     *  received byte and error condition.
 525:.\Generated_Source\PSoC4/UART_DEB_UART.c ****     *   - The RX software buffer is disabled: returns the data element retrieved
 526:.\Generated_Source\PSoC4/UART_DEB_UART.c ****     *     from the RX FIFO. Undefined data will be returned if the RX FIFO is
 527:.\Generated_Source\PSoC4/UART_DEB_UART.c ****     *     empty.
 528:.\Generated_Source\PSoC4/UART_DEB_UART.c ****     *   - The RX software buffer is enabled: returns data element from the
 529:.\Generated_Source\PSoC4/UART_DEB_UART.c ****     *     software receive buffer.
 530:.\Generated_Source\PSoC4/UART_DEB_UART.c ****     *
 531:.\Generated_Source\PSoC4/UART_DEB_UART.c ****     * Parameters:
 532:.\Generated_Source\PSoC4/UART_DEB_UART.c ****     *  None
 533:.\Generated_Source\PSoC4/UART_DEB_UART.c ****     *
 534:.\Generated_Source\PSoC4/UART_DEB_UART.c ****     * Return:
 535:.\Generated_Source\PSoC4/UART_DEB_UART.c ****     *  Bits 7-0 contain the next data element from the receive buffer and
 536:.\Generated_Source\PSoC4/UART_DEB_UART.c ****     *  other bits contain the error condition.
 537:.\Generated_Source\PSoC4/UART_DEB_UART.c ****     *
 538:.\Generated_Source\PSoC4/UART_DEB_UART.c ****     * Side Effects:
 539:.\Generated_Source\PSoC4/UART_DEB_UART.c ****     *  The errors bits may not correspond with reading characters due to RX FIFO
 540:.\Generated_Source\PSoC4/UART_DEB_UART.c ****     *  and software buffer usage.
 541:.\Generated_Source\PSoC4/UART_DEB_UART.c ****     *  RX software buffer is disabled: The internal software buffer overflow
 542:.\Generated_Source\PSoC4/UART_DEB_UART.c ****     *  is not returned as status by this function.
 543:.\Generated_Source\PSoC4/UART_DEB_UART.c ****     *  Check SCB_rxBufferOverflow to capture that error condition.
ARM GAS  C:\Users\mohammed\AppData\Local\Temp\ccJY5Ttg.s 			page 17


 544:.\Generated_Source\PSoC4/UART_DEB_UART.c ****     *
 545:.\Generated_Source\PSoC4/UART_DEB_UART.c ****     *******************************************************************************/
 546:.\Generated_Source\PSoC4/UART_DEB_UART.c ****     uint32 UART_DEB_UartGetByte(void)
 547:.\Generated_Source\PSoC4/UART_DEB_UART.c ****     {
 370              		.loc 1 547 0
 371              		.cfi_startproc
 372 0000 80B5     		push	{r7, lr}
 373              		.cfi_def_cfa_offset 8
 374              		.cfi_offset 7, -8
 375              		.cfi_offset 14, -4
 376 0002 82B0     		sub	sp, sp, #8
 377              		.cfi_def_cfa_offset 16
 378 0004 00AF     		add	r7, sp, #0
 379              		.cfi_def_cfa_register 7
 548:.\Generated_Source\PSoC4/UART_DEB_UART.c ****         uint32 rxData;
 549:.\Generated_Source\PSoC4/UART_DEB_UART.c ****         uint32 tmpStatus;
 550:.\Generated_Source\PSoC4/UART_DEB_UART.c **** 
 551:.\Generated_Source\PSoC4/UART_DEB_UART.c ****         #if (UART_DEB_CHECK_RX_SW_BUFFER)
 552:.\Generated_Source\PSoC4/UART_DEB_UART.c ****         {
 553:.\Generated_Source\PSoC4/UART_DEB_UART.c ****             UART_DEB_DisableInt();
 554:.\Generated_Source\PSoC4/UART_DEB_UART.c ****         }
 555:.\Generated_Source\PSoC4/UART_DEB_UART.c ****         #endif
 556:.\Generated_Source\PSoC4/UART_DEB_UART.c **** 
 557:.\Generated_Source\PSoC4/UART_DEB_UART.c ****         if (0u != UART_DEB_SpiUartGetRxBufferSize())
 380              		.loc 1 557 0
 381 0006 FFF7FEFF 		bl	UART_DEB_SpiUartGetRxBufferSize
 382 000a 031E     		sub	r3, r0, #0
 383 000c 04D0     		beq	.L23
 558:.\Generated_Source\PSoC4/UART_DEB_UART.c ****         {
 559:.\Generated_Source\PSoC4/UART_DEB_UART.c ****             /* Enables interrupt to receive more bytes: at least one byte is in
 560:.\Generated_Source\PSoC4/UART_DEB_UART.c ****             * buffer.
 561:.\Generated_Source\PSoC4/UART_DEB_UART.c ****             */
 562:.\Generated_Source\PSoC4/UART_DEB_UART.c ****             #if (UART_DEB_CHECK_RX_SW_BUFFER)
 563:.\Generated_Source\PSoC4/UART_DEB_UART.c ****             {            
 564:.\Generated_Source\PSoC4/UART_DEB_UART.c ****                 UART_DEB_EnableInt();
 565:.\Generated_Source\PSoC4/UART_DEB_UART.c ****             }
 566:.\Generated_Source\PSoC4/UART_DEB_UART.c ****             #endif
 567:.\Generated_Source\PSoC4/UART_DEB_UART.c **** 
 568:.\Generated_Source\PSoC4/UART_DEB_UART.c ****             /* Get received byte */
 569:.\Generated_Source\PSoC4/UART_DEB_UART.c ****             rxData = UART_DEB_SpiUartReadRxData();
 384              		.loc 1 569 0
 385 000e FFF7FEFF 		bl	UART_DEB_SpiUartReadRxData
 386 0012 031C     		mov	r3, r0
 387 0014 7B60     		str	r3, [r7, #4]
 388 0016 02E0     		b	.L24
 389              	.L23:
 570:.\Generated_Source\PSoC4/UART_DEB_UART.c ****         }
 571:.\Generated_Source\PSoC4/UART_DEB_UART.c ****         else
 572:.\Generated_Source\PSoC4/UART_DEB_UART.c ****         {
 573:.\Generated_Source\PSoC4/UART_DEB_UART.c ****             /* Reads a byte directly from RX FIFO: underflow is raised in the case
 574:.\Generated_Source\PSoC4/UART_DEB_UART.c ****             * of empty. Otherwise the first received byte will be read.
 575:.\Generated_Source\PSoC4/UART_DEB_UART.c ****             */
 576:.\Generated_Source\PSoC4/UART_DEB_UART.c ****             rxData = UART_DEB_RX_FIFO_RD_REG;
 390              		.loc 1 576 0
 391 0018 0B4B     		ldr	r3, .L26
 392 001a 1B68     		ldr	r3, [r3]
 393 001c 7B60     		str	r3, [r7, #4]
ARM GAS  C:\Users\mohammed\AppData\Local\Temp\ccJY5Ttg.s 			page 18


 394              	.L24:
 577:.\Generated_Source\PSoC4/UART_DEB_UART.c **** 
 578:.\Generated_Source\PSoC4/UART_DEB_UART.c ****             /* Enables interrupt to receive more bytes.
 579:.\Generated_Source\PSoC4/UART_DEB_UART.c ****             * The RX_NOT_EMPTY interrupt is cleared by the interrupt routine
 580:.\Generated_Source\PSoC4/UART_DEB_UART.c ****             * in case the byte was received and read by code above.
 581:.\Generated_Source\PSoC4/UART_DEB_UART.c ****             */
 582:.\Generated_Source\PSoC4/UART_DEB_UART.c ****             #if (UART_DEB_CHECK_RX_SW_BUFFER)
 583:.\Generated_Source\PSoC4/UART_DEB_UART.c ****             {
 584:.\Generated_Source\PSoC4/UART_DEB_UART.c ****                 UART_DEB_EnableInt();
 585:.\Generated_Source\PSoC4/UART_DEB_UART.c ****             }
 586:.\Generated_Source\PSoC4/UART_DEB_UART.c ****             #endif
 587:.\Generated_Source\PSoC4/UART_DEB_UART.c ****         }
 588:.\Generated_Source\PSoC4/UART_DEB_UART.c **** 
 589:.\Generated_Source\PSoC4/UART_DEB_UART.c ****         /* Get and clear RX error mask */
 590:.\Generated_Source\PSoC4/UART_DEB_UART.c ****         tmpStatus = (UART_DEB_GetRxInterruptSource() & UART_DEB_INTR_RX_ERR);
 395              		.loc 1 590 0
 396 001e 0B4B     		ldr	r3, .L26+4
 397 0020 1A68     		ldr	r2, [r3]
 398 0022 D823     		mov	r3, #216
 399 0024 9B00     		lsl	r3, r3, #2
 400 0026 1340     		and	r3, r2
 401 0028 3B60     		str	r3, [r7]
 591:.\Generated_Source\PSoC4/UART_DEB_UART.c ****         UART_DEB_ClearRxInterruptSource(UART_DEB_INTR_RX_ERR);
 402              		.loc 1 591 0
 403 002a 084B     		ldr	r3, .L26+4
 404 002c D822     		mov	r2, #216
 405 002e 9200     		lsl	r2, r2, #2
 406 0030 1A60     		str	r2, [r3]
 592:.\Generated_Source\PSoC4/UART_DEB_UART.c **** 
 593:.\Generated_Source\PSoC4/UART_DEB_UART.c ****         /* Puts together data and error status:
 594:.\Generated_Source\PSoC4/UART_DEB_UART.c ****         * MP mode and accept address: 9th bit is set to notify mark.
 595:.\Generated_Source\PSoC4/UART_DEB_UART.c ****         */
 596:.\Generated_Source\PSoC4/UART_DEB_UART.c ****         rxData |= ((uint32) (tmpStatus << 8u));
 407              		.loc 1 596 0
 408 0032 3B68     		ldr	r3, [r7]
 409 0034 1B02     		lsl	r3, r3, #8
 410 0036 7A68     		ldr	r2, [r7, #4]
 411 0038 1343     		orr	r3, r2
 412 003a 7B60     		str	r3, [r7, #4]
 597:.\Generated_Source\PSoC4/UART_DEB_UART.c **** 
 598:.\Generated_Source\PSoC4/UART_DEB_UART.c ****         return (rxData);
 413              		.loc 1 598 0
 414 003c 7B68     		ldr	r3, [r7, #4]
 599:.\Generated_Source\PSoC4/UART_DEB_UART.c ****     }
 415              		.loc 1 599 0
 416 003e 181C     		mov	r0, r3
 417 0040 BD46     		mov	sp, r7
 418 0042 02B0     		add	sp, sp, #8
 419              		@ sp needed
 420 0044 80BD     		pop	{r7, pc}
 421              	.L27:
 422 0046 C046     		.align	2
 423              	.L26:
 424 0048 40032440 		.word	1076101952
 425 004c C00F2440 		.word	1076105152
 426              		.cfi_endproc
 427              	.LFE8:
ARM GAS  C:\Users\mohammed\AppData\Local\Temp\ccJY5Ttg.s 			page 19


 428              		.size	UART_DEB_UartGetByte, .-UART_DEB_UartGetByte
 429              		.section	.text.UART_DEB_UartSetRtsPolarity,"ax",%progbits
 430              		.align	2
 431              		.global	UART_DEB_UartSetRtsPolarity
 432              		.code	16
 433              		.thumb_func
 434              		.type	UART_DEB_UartSetRtsPolarity, %function
 435              	UART_DEB_UartSetRtsPolarity:
 436              	.LFB9:
 600:.\Generated_Source\PSoC4/UART_DEB_UART.c **** 
 601:.\Generated_Source\PSoC4/UART_DEB_UART.c **** 
 602:.\Generated_Source\PSoC4/UART_DEB_UART.c ****     #if !(UART_DEB_CY_SCBIP_V0 || UART_DEB_CY_SCBIP_V1)
 603:.\Generated_Source\PSoC4/UART_DEB_UART.c ****         /*******************************************************************************
 604:.\Generated_Source\PSoC4/UART_DEB_UART.c ****         * Function Name: UART_DEB_UartSetRtsPolarity
 605:.\Generated_Source\PSoC4/UART_DEB_UART.c ****         ********************************************************************************
 606:.\Generated_Source\PSoC4/UART_DEB_UART.c ****         *
 607:.\Generated_Source\PSoC4/UART_DEB_UART.c ****         * Summary:
 608:.\Generated_Source\PSoC4/UART_DEB_UART.c ****         *  Sets active polarity of RTS output signal.
 609:.\Generated_Source\PSoC4/UART_DEB_UART.c ****         *
 610:.\Generated_Source\PSoC4/UART_DEB_UART.c ****         * Parameters:
 611:.\Generated_Source\PSoC4/UART_DEB_UART.c ****         *  polarity: Active polarity of RTS output signal.
 612:.\Generated_Source\PSoC4/UART_DEB_UART.c ****         *   UART_DEB_UART_RTS_ACTIVE_LOW  - RTS signal is active low.
 613:.\Generated_Source\PSoC4/UART_DEB_UART.c ****         *   UART_DEB_UART_RTS_ACTIVE_HIGH - RTS signal is active high.
 614:.\Generated_Source\PSoC4/UART_DEB_UART.c ****         *
 615:.\Generated_Source\PSoC4/UART_DEB_UART.c ****         * Return:
 616:.\Generated_Source\PSoC4/UART_DEB_UART.c ****         *  None
 617:.\Generated_Source\PSoC4/UART_DEB_UART.c ****         *
 618:.\Generated_Source\PSoC4/UART_DEB_UART.c ****         *******************************************************************************/
 619:.\Generated_Source\PSoC4/UART_DEB_UART.c ****         void UART_DEB_UartSetRtsPolarity(uint32 polarity)
 620:.\Generated_Source\PSoC4/UART_DEB_UART.c ****         {
 437              		.loc 1 620 0
 438              		.cfi_startproc
 439 0000 80B5     		push	{r7, lr}
 440              		.cfi_def_cfa_offset 8
 441              		.cfi_offset 7, -8
 442              		.cfi_offset 14, -4
 443 0002 82B0     		sub	sp, sp, #8
 444              		.cfi_def_cfa_offset 16
 445 0004 00AF     		add	r7, sp, #0
 446              		.cfi_def_cfa_register 7
 447 0006 7860     		str	r0, [r7, #4]
 621:.\Generated_Source\PSoC4/UART_DEB_UART.c ****             if(0u != polarity)
 448              		.loc 1 621 0
 449 0008 7B68     		ldr	r3, [r7, #4]
 450 000a 002B     		cmp	r3, #0
 451 000c 07D0     		beq	.L29
 622:.\Generated_Source\PSoC4/UART_DEB_UART.c ****             {
 623:.\Generated_Source\PSoC4/UART_DEB_UART.c ****                 UART_DEB_UART_FLOW_CTRL_REG |= (uint32)  UART_DEB_UART_FLOW_CTRL_RTS_POLARITY;
 452              		.loc 1 623 0
 453 000e 084B     		ldr	r3, .L31
 454 0010 074A     		ldr	r2, .L31
 455 0012 1268     		ldr	r2, [r2]
 456 0014 8021     		mov	r1, #128
 457 0016 4902     		lsl	r1, r1, #9
 458 0018 0A43     		orr	r2, r1
 459 001a 1A60     		str	r2, [r3]
 460 001c 05E0     		b	.L28
ARM GAS  C:\Users\mohammed\AppData\Local\Temp\ccJY5Ttg.s 			page 20


 461              	.L29:
 624:.\Generated_Source\PSoC4/UART_DEB_UART.c ****             }
 625:.\Generated_Source\PSoC4/UART_DEB_UART.c ****             else
 626:.\Generated_Source\PSoC4/UART_DEB_UART.c ****             {
 627:.\Generated_Source\PSoC4/UART_DEB_UART.c ****                 UART_DEB_UART_FLOW_CTRL_REG &= (uint32) ~UART_DEB_UART_FLOW_CTRL_RTS_POLARITY;
 462              		.loc 1 627 0
 463 001e 044B     		ldr	r3, .L31
 464 0020 034A     		ldr	r2, .L31
 465 0022 1268     		ldr	r2, [r2]
 466 0024 0349     		ldr	r1, .L31+4
 467 0026 0A40     		and	r2, r1
 468 0028 1A60     		str	r2, [r3]
 469              	.L28:
 628:.\Generated_Source\PSoC4/UART_DEB_UART.c ****             }
 629:.\Generated_Source\PSoC4/UART_DEB_UART.c ****         }
 470              		.loc 1 629 0
 471 002a BD46     		mov	sp, r7
 472 002c 02B0     		add	sp, sp, #8
 473              		@ sp needed
 474 002e 80BD     		pop	{r7, pc}
 475              	.L32:
 476              		.align	2
 477              	.L31:
 478 0030 50002440 		.word	1076101200
 479 0034 FFFFFEFF 		.word	-65537
 480              		.cfi_endproc
 481              	.LFE9:
 482              		.size	UART_DEB_UartSetRtsPolarity, .-UART_DEB_UartSetRtsPolarity
 483              		.section	.text.UART_DEB_UartSetRtsFifoLevel,"ax",%progbits
 484              		.align	2
 485              		.global	UART_DEB_UartSetRtsFifoLevel
 486              		.code	16
 487              		.thumb_func
 488              		.type	UART_DEB_UartSetRtsFifoLevel, %function
 489              	UART_DEB_UartSetRtsFifoLevel:
 490              	.LFB10:
 630:.\Generated_Source\PSoC4/UART_DEB_UART.c **** 
 631:.\Generated_Source\PSoC4/UART_DEB_UART.c **** 
 632:.\Generated_Source\PSoC4/UART_DEB_UART.c ****         /*******************************************************************************
 633:.\Generated_Source\PSoC4/UART_DEB_UART.c ****         * Function Name: UART_DEB_UartSetRtsFifoLevel
 634:.\Generated_Source\PSoC4/UART_DEB_UART.c ****         ********************************************************************************
 635:.\Generated_Source\PSoC4/UART_DEB_UART.c ****         *
 636:.\Generated_Source\PSoC4/UART_DEB_UART.c ****         * Summary:
 637:.\Generated_Source\PSoC4/UART_DEB_UART.c ****         *  Sets level in the RX FIFO for RTS signal activation.
 638:.\Generated_Source\PSoC4/UART_DEB_UART.c ****         *  While the RX FIFO has fewer entries than the RX FIFO level the RTS signal
 639:.\Generated_Source\PSoC4/UART_DEB_UART.c ****         *  remains active, otherwise the RTS signal becomes inactive.
 640:.\Generated_Source\PSoC4/UART_DEB_UART.c ****         *
 641:.\Generated_Source\PSoC4/UART_DEB_UART.c ****         * Parameters:
 642:.\Generated_Source\PSoC4/UART_DEB_UART.c ****         *  level: Level in the RX FIFO for RTS signal activation.
 643:.\Generated_Source\PSoC4/UART_DEB_UART.c ****         *         The range of valid level values is between 0 and RX FIFO depth - 1.
 644:.\Generated_Source\PSoC4/UART_DEB_UART.c ****         *         Setting level value to 0 disables RTS signal activation.
 645:.\Generated_Source\PSoC4/UART_DEB_UART.c ****         *
 646:.\Generated_Source\PSoC4/UART_DEB_UART.c ****         * Return:
 647:.\Generated_Source\PSoC4/UART_DEB_UART.c ****         *  None
 648:.\Generated_Source\PSoC4/UART_DEB_UART.c ****         *
 649:.\Generated_Source\PSoC4/UART_DEB_UART.c ****         *******************************************************************************/
 650:.\Generated_Source\PSoC4/UART_DEB_UART.c ****         void UART_DEB_UartSetRtsFifoLevel(uint32 level)
ARM GAS  C:\Users\mohammed\AppData\Local\Temp\ccJY5Ttg.s 			page 21


 651:.\Generated_Source\PSoC4/UART_DEB_UART.c ****         {
 491              		.loc 1 651 0
 492              		.cfi_startproc
 493 0000 80B5     		push	{r7, lr}
 494              		.cfi_def_cfa_offset 8
 495              		.cfi_offset 7, -8
 496              		.cfi_offset 14, -4
 497 0002 84B0     		sub	sp, sp, #16
 498              		.cfi_def_cfa_offset 24
 499 0004 00AF     		add	r7, sp, #0
 500              		.cfi_def_cfa_register 7
 501 0006 7860     		str	r0, [r7, #4]
 652:.\Generated_Source\PSoC4/UART_DEB_UART.c ****             uint32 uartFlowCtrl;
 653:.\Generated_Source\PSoC4/UART_DEB_UART.c **** 
 654:.\Generated_Source\PSoC4/UART_DEB_UART.c ****             uartFlowCtrl = UART_DEB_UART_FLOW_CTRL_REG;
 502              		.loc 1 654 0
 503 0008 094B     		ldr	r3, .L34
 504 000a 1B68     		ldr	r3, [r3]
 505 000c FB60     		str	r3, [r7, #12]
 655:.\Generated_Source\PSoC4/UART_DEB_UART.c **** 
 656:.\Generated_Source\PSoC4/UART_DEB_UART.c ****             uartFlowCtrl &= ((uint32) ~UART_DEB_UART_FLOW_CTRL_TRIGGER_LEVEL_MASK); /* Clear level 
 506              		.loc 1 656 0
 507 000e FB68     		ldr	r3, [r7, #12]
 508 0010 0F22     		mov	r2, #15
 509 0012 9343     		bic	r3, r2
 510 0014 FB60     		str	r3, [r7, #12]
 657:.\Generated_Source\PSoC4/UART_DEB_UART.c ****             uartFlowCtrl |= ((uint32) (UART_DEB_UART_FLOW_CTRL_TRIGGER_LEVEL_MASK & level));
 511              		.loc 1 657 0
 512 0016 7B68     		ldr	r3, [r7, #4]
 513 0018 0F22     		mov	r2, #15
 514 001a 1340     		and	r3, r2
 515 001c FA68     		ldr	r2, [r7, #12]
 516 001e 1343     		orr	r3, r2
 517 0020 FB60     		str	r3, [r7, #12]
 658:.\Generated_Source\PSoC4/UART_DEB_UART.c **** 
 659:.\Generated_Source\PSoC4/UART_DEB_UART.c ****             UART_DEB_UART_FLOW_CTRL_REG = uartFlowCtrl;
 518              		.loc 1 659 0
 519 0022 034B     		ldr	r3, .L34
 520 0024 FA68     		ldr	r2, [r7, #12]
 521 0026 1A60     		str	r2, [r3]
 660:.\Generated_Source\PSoC4/UART_DEB_UART.c ****         }
 522              		.loc 1 660 0
 523 0028 BD46     		mov	sp, r7
 524 002a 04B0     		add	sp, sp, #16
 525              		@ sp needed
 526 002c 80BD     		pop	{r7, pc}
 527              	.L35:
 528 002e C046     		.align	2
 529              	.L34:
 530 0030 50002440 		.word	1076101200
 531              		.cfi_endproc
 532              	.LFE10:
 533              		.size	UART_DEB_UartSetRtsFifoLevel, .-UART_DEB_UartSetRtsFifoLevel
 534              		.section	.text.UART_DEB_UartPutString,"ax",%progbits
 535              		.align	2
 536              		.global	UART_DEB_UartPutString
 537              		.code	16
ARM GAS  C:\Users\mohammed\AppData\Local\Temp\ccJY5Ttg.s 			page 22


 538              		.thumb_func
 539              		.type	UART_DEB_UartPutString, %function
 540              	UART_DEB_UartPutString:
 541              	.LFB11:
 661:.\Generated_Source\PSoC4/UART_DEB_UART.c ****     #endif /* !(UART_DEB_CY_SCBIP_V0 || UART_DEB_CY_SCBIP_V1) */
 662:.\Generated_Source\PSoC4/UART_DEB_UART.c **** 
 663:.\Generated_Source\PSoC4/UART_DEB_UART.c **** #endif /* (UART_DEB_UART_RX_DIRECTION) */
 664:.\Generated_Source\PSoC4/UART_DEB_UART.c **** 
 665:.\Generated_Source\PSoC4/UART_DEB_UART.c **** 
 666:.\Generated_Source\PSoC4/UART_DEB_UART.c **** #if(UART_DEB_UART_TX_DIRECTION)
 667:.\Generated_Source\PSoC4/UART_DEB_UART.c ****     /*******************************************************************************
 668:.\Generated_Source\PSoC4/UART_DEB_UART.c ****     * Function Name: UART_DEB_UartPutString
 669:.\Generated_Source\PSoC4/UART_DEB_UART.c ****     ********************************************************************************
 670:.\Generated_Source\PSoC4/UART_DEB_UART.c ****     *
 671:.\Generated_Source\PSoC4/UART_DEB_UART.c ****     * Summary:
 672:.\Generated_Source\PSoC4/UART_DEB_UART.c ****     *  Places a NULL terminated string in the transmit buffer to be sent at the
 673:.\Generated_Source\PSoC4/UART_DEB_UART.c ****     *  next available bus time.
 674:.\Generated_Source\PSoC4/UART_DEB_UART.c ****     *  This function is blocking and waits until there is space available to put
 675:.\Generated_Source\PSoC4/UART_DEB_UART.c ****     *  all the requested data into the  transmit buffer.
 676:.\Generated_Source\PSoC4/UART_DEB_UART.c ****     *
 677:.\Generated_Source\PSoC4/UART_DEB_UART.c ****     * Parameters:
 678:.\Generated_Source\PSoC4/UART_DEB_UART.c ****     *  string: pointer to the null terminated string array to be placed in the
 679:.\Generated_Source\PSoC4/UART_DEB_UART.c ****     *          transmit buffer.
 680:.\Generated_Source\PSoC4/UART_DEB_UART.c ****     *
 681:.\Generated_Source\PSoC4/UART_DEB_UART.c ****     * Return:
 682:.\Generated_Source\PSoC4/UART_DEB_UART.c ****     *  None
 683:.\Generated_Source\PSoC4/UART_DEB_UART.c ****     *
 684:.\Generated_Source\PSoC4/UART_DEB_UART.c ****     *******************************************************************************/
 685:.\Generated_Source\PSoC4/UART_DEB_UART.c ****     void UART_DEB_UartPutString(const char8 string[])
 686:.\Generated_Source\PSoC4/UART_DEB_UART.c ****     {
 542              		.loc 1 686 0
 543              		.cfi_startproc
 544 0000 80B5     		push	{r7, lr}
 545              		.cfi_def_cfa_offset 8
 546              		.cfi_offset 7, -8
 547              		.cfi_offset 14, -4
 548 0002 84B0     		sub	sp, sp, #16
 549              		.cfi_def_cfa_offset 24
 550 0004 00AF     		add	r7, sp, #0
 551              		.cfi_def_cfa_register 7
 552 0006 7860     		str	r0, [r7, #4]
 687:.\Generated_Source\PSoC4/UART_DEB_UART.c ****         uint32 bufIndex;
 688:.\Generated_Source\PSoC4/UART_DEB_UART.c **** 
 689:.\Generated_Source\PSoC4/UART_DEB_UART.c ****         bufIndex = 0u;
 553              		.loc 1 689 0
 554 0008 0023     		mov	r3, #0
 555 000a FB60     		str	r3, [r7, #12]
 690:.\Generated_Source\PSoC4/UART_DEB_UART.c **** 
 691:.\Generated_Source\PSoC4/UART_DEB_UART.c ****         /* Blocks the control flow until all data has been sent */
 692:.\Generated_Source\PSoC4/UART_DEB_UART.c ****         while(string[bufIndex] != ((char8) 0))
 556              		.loc 1 692 0
 557 000c 09E0     		b	.L37
 558              	.L38:
 693:.\Generated_Source\PSoC4/UART_DEB_UART.c ****         {
 694:.\Generated_Source\PSoC4/UART_DEB_UART.c ****             UART_DEB_UartPutChar((uint32) string[bufIndex]);
 559              		.loc 1 694 0
 560 000e 7A68     		ldr	r2, [r7, #4]
ARM GAS  C:\Users\mohammed\AppData\Local\Temp\ccJY5Ttg.s 			page 23


 561 0010 FB68     		ldr	r3, [r7, #12]
 562 0012 D318     		add	r3, r2, r3
 563 0014 1B78     		ldrb	r3, [r3]
 564 0016 181C     		mov	r0, r3
 565 0018 FFF7FEFF 		bl	UART_DEB_SpiUartWriteTxData
 695:.\Generated_Source\PSoC4/UART_DEB_UART.c ****             bufIndex++;
 566              		.loc 1 695 0
 567 001c FB68     		ldr	r3, [r7, #12]
 568 001e 0133     		add	r3, r3, #1
 569 0020 FB60     		str	r3, [r7, #12]
 570              	.L37:
 692:.\Generated_Source\PSoC4/UART_DEB_UART.c ****         {
 571              		.loc 1 692 0
 572 0022 7A68     		ldr	r2, [r7, #4]
 573 0024 FB68     		ldr	r3, [r7, #12]
 574 0026 D318     		add	r3, r2, r3
 575 0028 1B78     		ldrb	r3, [r3]
 576 002a 002B     		cmp	r3, #0
 577 002c EFD1     		bne	.L38
 696:.\Generated_Source\PSoC4/UART_DEB_UART.c ****         }
 697:.\Generated_Source\PSoC4/UART_DEB_UART.c ****     }
 578              		.loc 1 697 0
 579 002e BD46     		mov	sp, r7
 580 0030 04B0     		add	sp, sp, #16
 581              		@ sp needed
 582 0032 80BD     		pop	{r7, pc}
 583              		.cfi_endproc
 584              	.LFE11:
 585              		.size	UART_DEB_UartPutString, .-UART_DEB_UartPutString
 586              		.section	.text.UART_DEB_UartPutCRLF,"ax",%progbits
 587              		.align	2
 588              		.global	UART_DEB_UartPutCRLF
 589              		.code	16
 590              		.thumb_func
 591              		.type	UART_DEB_UartPutCRLF, %function
 592              	UART_DEB_UartPutCRLF:
 593              	.LFB12:
 698:.\Generated_Source\PSoC4/UART_DEB_UART.c **** 
 699:.\Generated_Source\PSoC4/UART_DEB_UART.c **** 
 700:.\Generated_Source\PSoC4/UART_DEB_UART.c ****     /*******************************************************************************
 701:.\Generated_Source\PSoC4/UART_DEB_UART.c ****     * Function Name: UART_DEB_UartPutCRLF
 702:.\Generated_Source\PSoC4/UART_DEB_UART.c ****     ********************************************************************************
 703:.\Generated_Source\PSoC4/UART_DEB_UART.c ****     *
 704:.\Generated_Source\PSoC4/UART_DEB_UART.c ****     * Summary:
 705:.\Generated_Source\PSoC4/UART_DEB_UART.c ****     *  Places a byte of data followed by a carriage return (0x0D) and
 706:.\Generated_Source\PSoC4/UART_DEB_UART.c ****     *  line feed (0x0A) into the transmit buffer.
 707:.\Generated_Source\PSoC4/UART_DEB_UART.c ****     *  This function is blocking and waits until there is space available to put
 708:.\Generated_Source\PSoC4/UART_DEB_UART.c ****     *  all the requested data into the  transmit buffer.
 709:.\Generated_Source\PSoC4/UART_DEB_UART.c ****     *
 710:.\Generated_Source\PSoC4/UART_DEB_UART.c ****     * Parameters:
 711:.\Generated_Source\PSoC4/UART_DEB_UART.c ****     *  txDataByte : the data to be transmitted.
 712:.\Generated_Source\PSoC4/UART_DEB_UART.c ****     *
 713:.\Generated_Source\PSoC4/UART_DEB_UART.c ****     * Return:
 714:.\Generated_Source\PSoC4/UART_DEB_UART.c ****     *  None
 715:.\Generated_Source\PSoC4/UART_DEB_UART.c ****     *
 716:.\Generated_Source\PSoC4/UART_DEB_UART.c ****     *******************************************************************************/
 717:.\Generated_Source\PSoC4/UART_DEB_UART.c ****     void UART_DEB_UartPutCRLF(uint32 txDataByte)
ARM GAS  C:\Users\mohammed\AppData\Local\Temp\ccJY5Ttg.s 			page 24


 718:.\Generated_Source\PSoC4/UART_DEB_UART.c ****     {
 594              		.loc 1 718 0
 595              		.cfi_startproc
 596 0000 80B5     		push	{r7, lr}
 597              		.cfi_def_cfa_offset 8
 598              		.cfi_offset 7, -8
 599              		.cfi_offset 14, -4
 600 0002 82B0     		sub	sp, sp, #8
 601              		.cfi_def_cfa_offset 16
 602 0004 00AF     		add	r7, sp, #0
 603              		.cfi_def_cfa_register 7
 604 0006 7860     		str	r0, [r7, #4]
 719:.\Generated_Source\PSoC4/UART_DEB_UART.c ****         UART_DEB_UartPutChar(txDataByte);  /* Blocks control flow until all data has been sent */
 605              		.loc 1 719 0
 606 0008 7B68     		ldr	r3, [r7, #4]
 607 000a 181C     		mov	r0, r3
 608 000c FFF7FEFF 		bl	UART_DEB_SpiUartWriteTxData
 720:.\Generated_Source\PSoC4/UART_DEB_UART.c ****         UART_DEB_UartPutChar(0x0Du);       /* Blocks control flow until all data has been sent */
 609              		.loc 1 720 0
 610 0010 0D20     		mov	r0, #13
 611 0012 FFF7FEFF 		bl	UART_DEB_SpiUartWriteTxData
 721:.\Generated_Source\PSoC4/UART_DEB_UART.c ****         UART_DEB_UartPutChar(0x0Au);       /* Blocks control flow until all data has been sent */
 612              		.loc 1 721 0
 613 0016 0A20     		mov	r0, #10
 614 0018 FFF7FEFF 		bl	UART_DEB_SpiUartWriteTxData
 722:.\Generated_Source\PSoC4/UART_DEB_UART.c ****     }
 615              		.loc 1 722 0
 616 001c BD46     		mov	sp, r7
 617 001e 02B0     		add	sp, sp, #8
 618              		@ sp needed
 619 0020 80BD     		pop	{r7, pc}
 620              		.cfi_endproc
 621              	.LFE12:
 622              		.size	UART_DEB_UartPutCRLF, .-UART_DEB_UartPutCRLF
 623 0022 C046     		.section	.text.UART_DEB_UartEnableCts,"ax",%progbits
 624              		.align	2
 625              		.global	UART_DEB_UartEnableCts
 626              		.code	16
 627              		.thumb_func
 628              		.type	UART_DEB_UartEnableCts, %function
 629              	UART_DEB_UartEnableCts:
 630              	.LFB13:
 723:.\Generated_Source\PSoC4/UART_DEB_UART.c **** 
 724:.\Generated_Source\PSoC4/UART_DEB_UART.c **** 
 725:.\Generated_Source\PSoC4/UART_DEB_UART.c ****     #if !(UART_DEB_CY_SCBIP_V0 || UART_DEB_CY_SCBIP_V1)
 726:.\Generated_Source\PSoC4/UART_DEB_UART.c ****         /*******************************************************************************
 727:.\Generated_Source\PSoC4/UART_DEB_UART.c ****         * Function Name: UART_DEBSCB_UartEnableCts
 728:.\Generated_Source\PSoC4/UART_DEB_UART.c ****         ********************************************************************************
 729:.\Generated_Source\PSoC4/UART_DEB_UART.c ****         *
 730:.\Generated_Source\PSoC4/UART_DEB_UART.c ****         * Summary:
 731:.\Generated_Source\PSoC4/UART_DEB_UART.c ****         *  Enables usage of CTS input signal by the UART transmitter.
 732:.\Generated_Source\PSoC4/UART_DEB_UART.c ****         *
 733:.\Generated_Source\PSoC4/UART_DEB_UART.c ****         * Parameters:
 734:.\Generated_Source\PSoC4/UART_DEB_UART.c ****         *  None
 735:.\Generated_Source\PSoC4/UART_DEB_UART.c ****         *
 736:.\Generated_Source\PSoC4/UART_DEB_UART.c ****         * Return:
 737:.\Generated_Source\PSoC4/UART_DEB_UART.c ****         *  None
ARM GAS  C:\Users\mohammed\AppData\Local\Temp\ccJY5Ttg.s 			page 25


 738:.\Generated_Source\PSoC4/UART_DEB_UART.c ****         *
 739:.\Generated_Source\PSoC4/UART_DEB_UART.c ****         *******************************************************************************/
 740:.\Generated_Source\PSoC4/UART_DEB_UART.c ****         void UART_DEB_UartEnableCts(void)
 741:.\Generated_Source\PSoC4/UART_DEB_UART.c ****         {
 631              		.loc 1 741 0
 632              		.cfi_startproc
 633 0000 80B5     		push	{r7, lr}
 634              		.cfi_def_cfa_offset 8
 635              		.cfi_offset 7, -8
 636              		.cfi_offset 14, -4
 637 0002 00AF     		add	r7, sp, #0
 638              		.cfi_def_cfa_register 7
 742:.\Generated_Source\PSoC4/UART_DEB_UART.c ****             UART_DEB_UART_FLOW_CTRL_REG |= (uint32)  UART_DEB_UART_FLOW_CTRL_CTS_ENABLE;
 639              		.loc 1 742 0
 640 0004 044B     		ldr	r3, .L41
 641 0006 044A     		ldr	r2, .L41
 642 0008 1268     		ldr	r2, [r2]
 643 000a 8021     		mov	r1, #128
 644 000c 8904     		lsl	r1, r1, #18
 645 000e 0A43     		orr	r2, r1
 646 0010 1A60     		str	r2, [r3]
 743:.\Generated_Source\PSoC4/UART_DEB_UART.c ****         }
 647              		.loc 1 743 0
 648 0012 BD46     		mov	sp, r7
 649              		@ sp needed
 650 0014 80BD     		pop	{r7, pc}
 651              	.L42:
 652 0016 C046     		.align	2
 653              	.L41:
 654 0018 50002440 		.word	1076101200
 655              		.cfi_endproc
 656              	.LFE13:
 657              		.size	UART_DEB_UartEnableCts, .-UART_DEB_UartEnableCts
 658              		.section	.text.UART_DEB_UartDisableCts,"ax",%progbits
 659              		.align	2
 660              		.global	UART_DEB_UartDisableCts
 661              		.code	16
 662              		.thumb_func
 663              		.type	UART_DEB_UartDisableCts, %function
 664              	UART_DEB_UartDisableCts:
 665              	.LFB14:
 744:.\Generated_Source\PSoC4/UART_DEB_UART.c **** 
 745:.\Generated_Source\PSoC4/UART_DEB_UART.c **** 
 746:.\Generated_Source\PSoC4/UART_DEB_UART.c ****         /*******************************************************************************
 747:.\Generated_Source\PSoC4/UART_DEB_UART.c ****         * Function Name: UART_DEB_UartDisableCts
 748:.\Generated_Source\PSoC4/UART_DEB_UART.c ****         ********************************************************************************
 749:.\Generated_Source\PSoC4/UART_DEB_UART.c ****         *
 750:.\Generated_Source\PSoC4/UART_DEB_UART.c ****         * Summary:
 751:.\Generated_Source\PSoC4/UART_DEB_UART.c ****         *  Disables usage of CTS input signal by the UART transmitter.
 752:.\Generated_Source\PSoC4/UART_DEB_UART.c ****         *
 753:.\Generated_Source\PSoC4/UART_DEB_UART.c ****         * Parameters:
 754:.\Generated_Source\PSoC4/UART_DEB_UART.c ****         *  None
 755:.\Generated_Source\PSoC4/UART_DEB_UART.c ****         *
 756:.\Generated_Source\PSoC4/UART_DEB_UART.c ****         * Return:
 757:.\Generated_Source\PSoC4/UART_DEB_UART.c ****         *  None
 758:.\Generated_Source\PSoC4/UART_DEB_UART.c ****         *
 759:.\Generated_Source\PSoC4/UART_DEB_UART.c ****         *******************************************************************************/
ARM GAS  C:\Users\mohammed\AppData\Local\Temp\ccJY5Ttg.s 			page 26


 760:.\Generated_Source\PSoC4/UART_DEB_UART.c ****         void UART_DEB_UartDisableCts(void)
 761:.\Generated_Source\PSoC4/UART_DEB_UART.c ****         {
 666              		.loc 1 761 0
 667              		.cfi_startproc
 668 0000 80B5     		push	{r7, lr}
 669              		.cfi_def_cfa_offset 8
 670              		.cfi_offset 7, -8
 671              		.cfi_offset 14, -4
 672 0002 00AF     		add	r7, sp, #0
 673              		.cfi_def_cfa_register 7
 762:.\Generated_Source\PSoC4/UART_DEB_UART.c ****             UART_DEB_UART_FLOW_CTRL_REG &= (uint32) ~UART_DEB_UART_FLOW_CTRL_CTS_ENABLE;
 674              		.loc 1 762 0
 675 0004 034B     		ldr	r3, .L44
 676 0006 034A     		ldr	r2, .L44
 677 0008 1268     		ldr	r2, [r2]
 678 000a 0349     		ldr	r1, .L44+4
 679 000c 0A40     		and	r2, r1
 680 000e 1A60     		str	r2, [r3]
 763:.\Generated_Source\PSoC4/UART_DEB_UART.c ****         }
 681              		.loc 1 763 0
 682 0010 BD46     		mov	sp, r7
 683              		@ sp needed
 684 0012 80BD     		pop	{r7, pc}
 685              	.L45:
 686              		.align	2
 687              	.L44:
 688 0014 50002440 		.word	1076101200
 689 0018 FFFFFFFD 		.word	-33554433
 690              		.cfi_endproc
 691              	.LFE14:
 692              		.size	UART_DEB_UartDisableCts, .-UART_DEB_UartDisableCts
 693              		.section	.text.UART_DEB_UartSetCtsPolarity,"ax",%progbits
 694              		.align	2
 695              		.global	UART_DEB_UartSetCtsPolarity
 696              		.code	16
 697              		.thumb_func
 698              		.type	UART_DEB_UartSetCtsPolarity, %function
 699              	UART_DEB_UartSetCtsPolarity:
 700              	.LFB15:
 764:.\Generated_Source\PSoC4/UART_DEB_UART.c **** 
 765:.\Generated_Source\PSoC4/UART_DEB_UART.c **** 
 766:.\Generated_Source\PSoC4/UART_DEB_UART.c ****         /*******************************************************************************
 767:.\Generated_Source\PSoC4/UART_DEB_UART.c ****         * Function Name: UART_DEB_UartSetCtsPolarity
 768:.\Generated_Source\PSoC4/UART_DEB_UART.c ****         ********************************************************************************
 769:.\Generated_Source\PSoC4/UART_DEB_UART.c ****         *
 770:.\Generated_Source\PSoC4/UART_DEB_UART.c ****         * Summary:
 771:.\Generated_Source\PSoC4/UART_DEB_UART.c ****         *  Sets active polarity of CTS input signal.
 772:.\Generated_Source\PSoC4/UART_DEB_UART.c ****         *
 773:.\Generated_Source\PSoC4/UART_DEB_UART.c ****         * Parameters:
 774:.\Generated_Source\PSoC4/UART_DEB_UART.c ****         *  polarity: Active polarity of CTS output signal.
 775:.\Generated_Source\PSoC4/UART_DEB_UART.c ****         *   UART_DEB_UART_CTS_ACTIVE_LOW  - CTS signal is active low.
 776:.\Generated_Source\PSoC4/UART_DEB_UART.c ****         *   UART_DEB_UART_CTS_ACTIVE_HIGH - CTS signal is active high.
 777:.\Generated_Source\PSoC4/UART_DEB_UART.c ****         *
 778:.\Generated_Source\PSoC4/UART_DEB_UART.c ****         * Return:
 779:.\Generated_Source\PSoC4/UART_DEB_UART.c ****         *  None
 780:.\Generated_Source\PSoC4/UART_DEB_UART.c ****         *
 781:.\Generated_Source\PSoC4/UART_DEB_UART.c ****         *******************************************************************************/
ARM GAS  C:\Users\mohammed\AppData\Local\Temp\ccJY5Ttg.s 			page 27


 782:.\Generated_Source\PSoC4/UART_DEB_UART.c ****         void UART_DEB_UartSetCtsPolarity(uint32 polarity)
 783:.\Generated_Source\PSoC4/UART_DEB_UART.c ****         {
 701              		.loc 1 783 0
 702              		.cfi_startproc
 703 0000 80B5     		push	{r7, lr}
 704              		.cfi_def_cfa_offset 8
 705              		.cfi_offset 7, -8
 706              		.cfi_offset 14, -4
 707 0002 82B0     		sub	sp, sp, #8
 708              		.cfi_def_cfa_offset 16
 709 0004 00AF     		add	r7, sp, #0
 710              		.cfi_def_cfa_register 7
 711 0006 7860     		str	r0, [r7, #4]
 784:.\Generated_Source\PSoC4/UART_DEB_UART.c ****             if (0u != polarity)
 712              		.loc 1 784 0
 713 0008 7B68     		ldr	r3, [r7, #4]
 714 000a 002B     		cmp	r3, #0
 715 000c 07D0     		beq	.L47
 785:.\Generated_Source\PSoC4/UART_DEB_UART.c ****             {
 786:.\Generated_Source\PSoC4/UART_DEB_UART.c ****                 UART_DEB_UART_FLOW_CTRL_REG |= (uint32)  UART_DEB_UART_FLOW_CTRL_CTS_POLARITY;
 716              		.loc 1 786 0
 717 000e 084B     		ldr	r3, .L49
 718 0010 074A     		ldr	r2, .L49
 719 0012 1268     		ldr	r2, [r2]
 720 0014 8021     		mov	r1, #128
 721 0016 4904     		lsl	r1, r1, #17
 722 0018 0A43     		orr	r2, r1
 723 001a 1A60     		str	r2, [r3]
 724 001c 05E0     		b	.L46
 725              	.L47:
 787:.\Generated_Source\PSoC4/UART_DEB_UART.c ****             }
 788:.\Generated_Source\PSoC4/UART_DEB_UART.c ****             else
 789:.\Generated_Source\PSoC4/UART_DEB_UART.c ****             {
 790:.\Generated_Source\PSoC4/UART_DEB_UART.c ****                 UART_DEB_UART_FLOW_CTRL_REG &= (uint32) ~UART_DEB_UART_FLOW_CTRL_CTS_POLARITY;
 726              		.loc 1 790 0
 727 001e 044B     		ldr	r3, .L49
 728 0020 034A     		ldr	r2, .L49
 729 0022 1268     		ldr	r2, [r2]
 730 0024 0349     		ldr	r1, .L49+4
 731 0026 0A40     		and	r2, r1
 732 0028 1A60     		str	r2, [r3]
 733              	.L46:
 791:.\Generated_Source\PSoC4/UART_DEB_UART.c ****             }
 792:.\Generated_Source\PSoC4/UART_DEB_UART.c ****         }
 734              		.loc 1 792 0
 735 002a BD46     		mov	sp, r7
 736 002c 02B0     		add	sp, sp, #8
 737              		@ sp needed
 738 002e 80BD     		pop	{r7, pc}
 739              	.L50:
 740              		.align	2
 741              	.L49:
 742 0030 50002440 		.word	1076101200
 743 0034 FFFFFFFE 		.word	-16777217
 744              		.cfi_endproc
 745              	.LFE15:
 746              		.size	UART_DEB_UartSetCtsPolarity, .-UART_DEB_UartSetCtsPolarity
ARM GAS  C:\Users\mohammed\AppData\Local\Temp\ccJY5Ttg.s 			page 28


 747              		.text
 748              	.Letext0:
 749              		.file 2 "Generated_Source\\PSoC4/cytypes.h"