ARM GAS  C:\Users\mohammed\AppData\Local\Temp\cc9WOIwI.s 			page 1


   1              		.cpu cortex-m0
   2              		.fpu softvfp
   3              		.eabi_attribute 20, 1
   4              		.eabi_attribute 21, 1
   5              		.eabi_attribute 23, 3
   6              		.eabi_attribute 24, 1
   7              		.eabi_attribute 25, 1
   8              		.eabi_attribute 26, 1
   9              		.eabi_attribute 30, 4
  10              		.eabi_attribute 34, 0
  11              		.eabi_attribute 18, 4
  12              		.code	16
  13              		.file	"CYBLE_bless_isr.c"
  14              		.text
  15              	.Ltext0:
  16              		.cfi_sections	.debug_frame
  17              		.section	.text.CYBLE_bless_isr_Interrupt,"ax",%progbits
  18              		.align	1
  19              		.global	CYBLE_bless_isr_Interrupt
  20              		.code	16
  21              		.thumb_func
  22              		.type	CYBLE_bless_isr_Interrupt, %function
  23              	CYBLE_bless_isr_Interrupt:
  24              	.LFB5:
  25              		.file 1 ".\\Generated_Source\\PSoC4\\CYBLE_bless_isr.c"
   1:.\Generated_Source\PSoC4/CYBLE_bless_isr.c **** /*******************************************************************************
   2:.\Generated_Source\PSoC4/CYBLE_bless_isr.c **** * File Name: CYBLE_bless_isr.c  
   3:.\Generated_Source\PSoC4/CYBLE_bless_isr.c **** * Version 1.70
   4:.\Generated_Source\PSoC4/CYBLE_bless_isr.c **** *
   5:.\Generated_Source\PSoC4/CYBLE_bless_isr.c **** *  Description:
   6:.\Generated_Source\PSoC4/CYBLE_bless_isr.c **** *   API for controlling the state of an interrupt.
   7:.\Generated_Source\PSoC4/CYBLE_bless_isr.c **** *
   8:.\Generated_Source\PSoC4/CYBLE_bless_isr.c **** *
   9:.\Generated_Source\PSoC4/CYBLE_bless_isr.c **** *  Note:
  10:.\Generated_Source\PSoC4/CYBLE_bless_isr.c **** *
  11:.\Generated_Source\PSoC4/CYBLE_bless_isr.c **** ********************************************************************************
  12:.\Generated_Source\PSoC4/CYBLE_bless_isr.c **** * Copyright 2008-2015, Cypress Semiconductor Corporation.  All rights reserved.
  13:.\Generated_Source\PSoC4/CYBLE_bless_isr.c **** * You may use this file only in accordance with the license, terms, conditions, 
  14:.\Generated_Source\PSoC4/CYBLE_bless_isr.c **** * disclaimers, and limitations in the end user license agreement accompanying 
  15:.\Generated_Source\PSoC4/CYBLE_bless_isr.c **** * the software package with which this file was provided.
  16:.\Generated_Source\PSoC4/CYBLE_bless_isr.c **** *******************************************************************************/
  17:.\Generated_Source\PSoC4/CYBLE_bless_isr.c **** 
  18:.\Generated_Source\PSoC4/CYBLE_bless_isr.c **** 
  19:.\Generated_Source\PSoC4/CYBLE_bless_isr.c **** #include <cydevice_trm.h>
  20:.\Generated_Source\PSoC4/CYBLE_bless_isr.c **** #include <CyLib.h>
  21:.\Generated_Source\PSoC4/CYBLE_bless_isr.c **** #include <CYBLE_bless_isr.h>
  22:.\Generated_Source\PSoC4/CYBLE_bless_isr.c **** #include "cyapicallbacks.h"
  23:.\Generated_Source\PSoC4/CYBLE_bless_isr.c **** 
  24:.\Generated_Source\PSoC4/CYBLE_bless_isr.c **** #if !defined(CYBLE_bless_isr__REMOVED) /* Check for removal by optimization */
  25:.\Generated_Source\PSoC4/CYBLE_bless_isr.c **** 
  26:.\Generated_Source\PSoC4/CYBLE_bless_isr.c **** /*******************************************************************************
  27:.\Generated_Source\PSoC4/CYBLE_bless_isr.c **** *  Place your includes, defines and code here 
  28:.\Generated_Source\PSoC4/CYBLE_bless_isr.c **** ********************************************************************************/
  29:.\Generated_Source\PSoC4/CYBLE_bless_isr.c **** /* `#START CYBLE_bless_isr_intc` */
  30:.\Generated_Source\PSoC4/CYBLE_bless_isr.c **** 
  31:.\Generated_Source\PSoC4/CYBLE_bless_isr.c **** /* `#END` */
  32:.\Generated_Source\PSoC4/CYBLE_bless_isr.c **** 
ARM GAS  C:\Users\mohammed\AppData\Local\Temp\cc9WOIwI.s 			page 2


  33:.\Generated_Source\PSoC4/CYBLE_bless_isr.c **** extern cyisraddress CyRamVectors[CYINT_IRQ_BASE + CY_NUM_INTERRUPTS];
  34:.\Generated_Source\PSoC4/CYBLE_bless_isr.c **** 
  35:.\Generated_Source\PSoC4/CYBLE_bless_isr.c **** /* Declared in startup, used to set unused interrupts to. */
  36:.\Generated_Source\PSoC4/CYBLE_bless_isr.c **** CY_ISR_PROTO(IntDefaultHandler);
  37:.\Generated_Source\PSoC4/CYBLE_bless_isr.c **** 
  38:.\Generated_Source\PSoC4/CYBLE_bless_isr.c **** 
  39:.\Generated_Source\PSoC4/CYBLE_bless_isr.c **** /*******************************************************************************
  40:.\Generated_Source\PSoC4/CYBLE_bless_isr.c **** * Function Name: CYBLE_bless_isr_Start
  41:.\Generated_Source\PSoC4/CYBLE_bless_isr.c **** ********************************************************************************
  42:.\Generated_Source\PSoC4/CYBLE_bless_isr.c **** *
  43:.\Generated_Source\PSoC4/CYBLE_bless_isr.c **** * Summary:
  44:.\Generated_Source\PSoC4/CYBLE_bless_isr.c **** *  Set up the interrupt and enable it. This function disables the interrupt, 
  45:.\Generated_Source\PSoC4/CYBLE_bless_isr.c **** *  sets the default interrupt vector, sets the priority from the value in the
  46:.\Generated_Source\PSoC4/CYBLE_bless_isr.c **** *  Design Wide Resources Interrupt Editor, then enables the interrupt to the 
  47:.\Generated_Source\PSoC4/CYBLE_bless_isr.c **** *  interrupt controller.
  48:.\Generated_Source\PSoC4/CYBLE_bless_isr.c **** *
  49:.\Generated_Source\PSoC4/CYBLE_bless_isr.c **** * Parameters:  
  50:.\Generated_Source\PSoC4/CYBLE_bless_isr.c **** *   None
  51:.\Generated_Source\PSoC4/CYBLE_bless_isr.c **** *
  52:.\Generated_Source\PSoC4/CYBLE_bless_isr.c **** * Return:
  53:.\Generated_Source\PSoC4/CYBLE_bless_isr.c **** *   None
  54:.\Generated_Source\PSoC4/CYBLE_bless_isr.c **** *
  55:.\Generated_Source\PSoC4/CYBLE_bless_isr.c **** *******************************************************************************/
  56:.\Generated_Source\PSoC4/CYBLE_bless_isr.c **** void CYBLE_bless_isr_Start(void)
  57:.\Generated_Source\PSoC4/CYBLE_bless_isr.c **** {
  58:.\Generated_Source\PSoC4/CYBLE_bless_isr.c ****     /* For all we know the interrupt is active. */
  59:.\Generated_Source\PSoC4/CYBLE_bless_isr.c ****     CYBLE_bless_isr_Disable();
  60:.\Generated_Source\PSoC4/CYBLE_bless_isr.c **** 
  61:.\Generated_Source\PSoC4/CYBLE_bless_isr.c ****     /* Set the ISR to point to the CYBLE_bless_isr Interrupt. */
  62:.\Generated_Source\PSoC4/CYBLE_bless_isr.c ****     CYBLE_bless_isr_SetVector(&CYBLE_bless_isr_Interrupt);
  63:.\Generated_Source\PSoC4/CYBLE_bless_isr.c **** 
  64:.\Generated_Source\PSoC4/CYBLE_bless_isr.c ****     /* Set the priority. */
  65:.\Generated_Source\PSoC4/CYBLE_bless_isr.c ****     CYBLE_bless_isr_SetPriority((uint8)CYBLE_bless_isr_INTC_PRIOR_NUMBER);
  66:.\Generated_Source\PSoC4/CYBLE_bless_isr.c **** 
  67:.\Generated_Source\PSoC4/CYBLE_bless_isr.c ****     /* Enable it. */
  68:.\Generated_Source\PSoC4/CYBLE_bless_isr.c ****     CYBLE_bless_isr_Enable();
  69:.\Generated_Source\PSoC4/CYBLE_bless_isr.c **** }
  70:.\Generated_Source\PSoC4/CYBLE_bless_isr.c **** 
  71:.\Generated_Source\PSoC4/CYBLE_bless_isr.c **** 
  72:.\Generated_Source\PSoC4/CYBLE_bless_isr.c **** /*******************************************************************************
  73:.\Generated_Source\PSoC4/CYBLE_bless_isr.c **** * Function Name: CYBLE_bless_isr_StartEx
  74:.\Generated_Source\PSoC4/CYBLE_bless_isr.c **** ********************************************************************************
  75:.\Generated_Source\PSoC4/CYBLE_bless_isr.c **** *
  76:.\Generated_Source\PSoC4/CYBLE_bless_isr.c **** * Summary:
  77:.\Generated_Source\PSoC4/CYBLE_bless_isr.c **** *  Sets up the interrupt and enables it. This function disables the interrupt,
  78:.\Generated_Source\PSoC4/CYBLE_bless_isr.c **** *  sets the interrupt vector based on the address passed in, sets the priority 
  79:.\Generated_Source\PSoC4/CYBLE_bless_isr.c **** *  from the value in the Design Wide Resources Interrupt Editor, then enables 
  80:.\Generated_Source\PSoC4/CYBLE_bless_isr.c **** *  the interrupt to the interrupt controller.
  81:.\Generated_Source\PSoC4/CYBLE_bless_isr.c **** *  
  82:.\Generated_Source\PSoC4/CYBLE_bless_isr.c **** *  When defining ISR functions, the CY_ISR and CY_ISR_PROTO macros should be 
  83:.\Generated_Source\PSoC4/CYBLE_bless_isr.c **** *  used to provide consistent definition across compilers:
  84:.\Generated_Source\PSoC4/CYBLE_bless_isr.c **** *  
  85:.\Generated_Source\PSoC4/CYBLE_bless_isr.c **** *  Function definition example:
  86:.\Generated_Source\PSoC4/CYBLE_bless_isr.c **** *   CY_ISR(MyISR)
  87:.\Generated_Source\PSoC4/CYBLE_bless_isr.c **** *   {
  88:.\Generated_Source\PSoC4/CYBLE_bless_isr.c **** *   }
  89:.\Generated_Source\PSoC4/CYBLE_bless_isr.c **** *   Function prototype example:
ARM GAS  C:\Users\mohammed\AppData\Local\Temp\cc9WOIwI.s 			page 3


  90:.\Generated_Source\PSoC4/CYBLE_bless_isr.c **** *   CY_ISR_PROTO(MyISR);
  91:.\Generated_Source\PSoC4/CYBLE_bless_isr.c **** *
  92:.\Generated_Source\PSoC4/CYBLE_bless_isr.c **** * Parameters:  
  93:.\Generated_Source\PSoC4/CYBLE_bless_isr.c **** *   address: Address of the ISR to set in the interrupt vector table.
  94:.\Generated_Source\PSoC4/CYBLE_bless_isr.c **** *
  95:.\Generated_Source\PSoC4/CYBLE_bless_isr.c **** * Return:
  96:.\Generated_Source\PSoC4/CYBLE_bless_isr.c **** *   None
  97:.\Generated_Source\PSoC4/CYBLE_bless_isr.c **** *
  98:.\Generated_Source\PSoC4/CYBLE_bless_isr.c **** *******************************************************************************/
  99:.\Generated_Source\PSoC4/CYBLE_bless_isr.c **** void CYBLE_bless_isr_StartEx(cyisraddress address)
 100:.\Generated_Source\PSoC4/CYBLE_bless_isr.c **** {
 101:.\Generated_Source\PSoC4/CYBLE_bless_isr.c ****     /* For all we know the interrupt is active. */
 102:.\Generated_Source\PSoC4/CYBLE_bless_isr.c ****     CYBLE_bless_isr_Disable();
 103:.\Generated_Source\PSoC4/CYBLE_bless_isr.c **** 
 104:.\Generated_Source\PSoC4/CYBLE_bless_isr.c ****     /* Set the ISR to point to the CYBLE_bless_isr Interrupt. */
 105:.\Generated_Source\PSoC4/CYBLE_bless_isr.c ****     CYBLE_bless_isr_SetVector(address);
 106:.\Generated_Source\PSoC4/CYBLE_bless_isr.c **** 
 107:.\Generated_Source\PSoC4/CYBLE_bless_isr.c ****     /* Set the priority. */
 108:.\Generated_Source\PSoC4/CYBLE_bless_isr.c ****     CYBLE_bless_isr_SetPriority((uint8)CYBLE_bless_isr_INTC_PRIOR_NUMBER);
 109:.\Generated_Source\PSoC4/CYBLE_bless_isr.c **** 
 110:.\Generated_Source\PSoC4/CYBLE_bless_isr.c ****     /* Enable it. */
 111:.\Generated_Source\PSoC4/CYBLE_bless_isr.c ****     CYBLE_bless_isr_Enable();
 112:.\Generated_Source\PSoC4/CYBLE_bless_isr.c **** }
 113:.\Generated_Source\PSoC4/CYBLE_bless_isr.c **** 
 114:.\Generated_Source\PSoC4/CYBLE_bless_isr.c **** 
 115:.\Generated_Source\PSoC4/CYBLE_bless_isr.c **** /*******************************************************************************
 116:.\Generated_Source\PSoC4/CYBLE_bless_isr.c **** * Function Name: CYBLE_bless_isr_Stop
 117:.\Generated_Source\PSoC4/CYBLE_bless_isr.c **** ********************************************************************************
 118:.\Generated_Source\PSoC4/CYBLE_bless_isr.c **** *
 119:.\Generated_Source\PSoC4/CYBLE_bless_isr.c **** * Summary:
 120:.\Generated_Source\PSoC4/CYBLE_bless_isr.c **** *   Disables and removes the interrupt.
 121:.\Generated_Source\PSoC4/CYBLE_bless_isr.c **** *
 122:.\Generated_Source\PSoC4/CYBLE_bless_isr.c **** * Parameters:  
 123:.\Generated_Source\PSoC4/CYBLE_bless_isr.c **** *   None
 124:.\Generated_Source\PSoC4/CYBLE_bless_isr.c **** *
 125:.\Generated_Source\PSoC4/CYBLE_bless_isr.c **** * Return:
 126:.\Generated_Source\PSoC4/CYBLE_bless_isr.c **** *   None
 127:.\Generated_Source\PSoC4/CYBLE_bless_isr.c **** *
 128:.\Generated_Source\PSoC4/CYBLE_bless_isr.c **** *******************************************************************************/
 129:.\Generated_Source\PSoC4/CYBLE_bless_isr.c **** void CYBLE_bless_isr_Stop(void)
 130:.\Generated_Source\PSoC4/CYBLE_bless_isr.c **** {
 131:.\Generated_Source\PSoC4/CYBLE_bless_isr.c ****     /* Disable this interrupt. */
 132:.\Generated_Source\PSoC4/CYBLE_bless_isr.c ****     CYBLE_bless_isr_Disable();
 133:.\Generated_Source\PSoC4/CYBLE_bless_isr.c **** 
 134:.\Generated_Source\PSoC4/CYBLE_bless_isr.c ****     /* Set the ISR to point to the passive one. */
 135:.\Generated_Source\PSoC4/CYBLE_bless_isr.c ****     CYBLE_bless_isr_SetVector(&IntDefaultHandler);
 136:.\Generated_Source\PSoC4/CYBLE_bless_isr.c **** }
 137:.\Generated_Source\PSoC4/CYBLE_bless_isr.c **** 
 138:.\Generated_Source\PSoC4/CYBLE_bless_isr.c **** 
 139:.\Generated_Source\PSoC4/CYBLE_bless_isr.c **** /*******************************************************************************
 140:.\Generated_Source\PSoC4/CYBLE_bless_isr.c **** * Function Name: CYBLE_bless_isr_Interrupt
 141:.\Generated_Source\PSoC4/CYBLE_bless_isr.c **** ********************************************************************************
 142:.\Generated_Source\PSoC4/CYBLE_bless_isr.c **** *
 143:.\Generated_Source\PSoC4/CYBLE_bless_isr.c **** * Summary:
 144:.\Generated_Source\PSoC4/CYBLE_bless_isr.c **** *   The default Interrupt Service Routine for CYBLE_bless_isr.
 145:.\Generated_Source\PSoC4/CYBLE_bless_isr.c **** *
 146:.\Generated_Source\PSoC4/CYBLE_bless_isr.c **** *   Add custom code between the START and END comments to keep the next version
ARM GAS  C:\Users\mohammed\AppData\Local\Temp\cc9WOIwI.s 			page 4


 147:.\Generated_Source\PSoC4/CYBLE_bless_isr.c **** *   of this file from over-writing your code.
 148:.\Generated_Source\PSoC4/CYBLE_bless_isr.c **** *
 149:.\Generated_Source\PSoC4/CYBLE_bless_isr.c **** *   Note You may use either the default ISR by using this API, or you may define
 150:.\Generated_Source\PSoC4/CYBLE_bless_isr.c **** *   your own separate ISR through ISR_StartEx().
 151:.\Generated_Source\PSoC4/CYBLE_bless_isr.c **** *
 152:.\Generated_Source\PSoC4/CYBLE_bless_isr.c **** * Parameters:  
 153:.\Generated_Source\PSoC4/CYBLE_bless_isr.c **** *   None
 154:.\Generated_Source\PSoC4/CYBLE_bless_isr.c **** *
 155:.\Generated_Source\PSoC4/CYBLE_bless_isr.c **** * Return:
 156:.\Generated_Source\PSoC4/CYBLE_bless_isr.c **** *   None
 157:.\Generated_Source\PSoC4/CYBLE_bless_isr.c **** *
 158:.\Generated_Source\PSoC4/CYBLE_bless_isr.c **** *******************************************************************************/
 159:.\Generated_Source\PSoC4/CYBLE_bless_isr.c **** CY_ISR(CYBLE_bless_isr_Interrupt)
 160:.\Generated_Source\PSoC4/CYBLE_bless_isr.c **** {
  26              		.loc 1 160 0
  27              		.cfi_startproc
 161:.\Generated_Source\PSoC4/CYBLE_bless_isr.c ****     #ifdef CYBLE_bless_isr_INTERRUPT_INTERRUPT_CALLBACK
 162:.\Generated_Source\PSoC4/CYBLE_bless_isr.c ****         CYBLE_bless_isr_Interrupt_InterruptCallback();
 163:.\Generated_Source\PSoC4/CYBLE_bless_isr.c ****     #endif /* CYBLE_bless_isr_INTERRUPT_INTERRUPT_CALLBACK */ 
 164:.\Generated_Source\PSoC4/CYBLE_bless_isr.c **** 
 165:.\Generated_Source\PSoC4/CYBLE_bless_isr.c ****     /*  Place your Interrupt code here. */
 166:.\Generated_Source\PSoC4/CYBLE_bless_isr.c ****     /* `#START CYBLE_bless_isr_Interrupt` */
 167:.\Generated_Source\PSoC4/CYBLE_bless_isr.c **** 
 168:.\Generated_Source\PSoC4/CYBLE_bless_isr.c ****     /* `#END` */
 169:.\Generated_Source\PSoC4/CYBLE_bless_isr.c **** }
  28              		.loc 1 169 0
  29              		@ sp needed
  30 0000 7047     		bx	lr
  31              		.cfi_endproc
  32              	.LFE5:
  33              		.size	CYBLE_bless_isr_Interrupt, .-CYBLE_bless_isr_Interrupt
  34              		.section	.text.CYBLE_bless_isr_Stop,"ax",%progbits
  35              		.align	1
  36              		.global	CYBLE_bless_isr_Stop
  37              		.code	16
  38              		.thumb_func
  39              		.type	CYBLE_bless_isr_Stop, %function
  40              	CYBLE_bless_isr_Stop:
  41              	.LFB4:
 130:.\Generated_Source\PSoC4/CYBLE_bless_isr.c ****     /* Disable this interrupt. */
  42              		.loc 1 130 0
  43              		.cfi_startproc
  44              	.LBB18:
  45              	.LBB19:
 170:.\Generated_Source\PSoC4/CYBLE_bless_isr.c **** 
 171:.\Generated_Source\PSoC4/CYBLE_bless_isr.c **** 
 172:.\Generated_Source\PSoC4/CYBLE_bless_isr.c **** /*******************************************************************************
 173:.\Generated_Source\PSoC4/CYBLE_bless_isr.c **** * Function Name: CYBLE_bless_isr_SetVector
 174:.\Generated_Source\PSoC4/CYBLE_bless_isr.c **** ********************************************************************************
 175:.\Generated_Source\PSoC4/CYBLE_bless_isr.c **** *
 176:.\Generated_Source\PSoC4/CYBLE_bless_isr.c **** * Summary:
 177:.\Generated_Source\PSoC4/CYBLE_bless_isr.c **** *   Change the ISR vector for the Interrupt. Note calling CYBLE_bless_isr_Start
 178:.\Generated_Source\PSoC4/CYBLE_bless_isr.c **** *   will override any effect this method would have had. To set the vector 
 179:.\Generated_Source\PSoC4/CYBLE_bless_isr.c **** *   before the component has been started use CYBLE_bless_isr_StartEx instead.
 180:.\Generated_Source\PSoC4/CYBLE_bless_isr.c **** * 
 181:.\Generated_Source\PSoC4/CYBLE_bless_isr.c **** *   When defining ISR functions, the CY_ISR and CY_ISR_PROTO macros should be 
 182:.\Generated_Source\PSoC4/CYBLE_bless_isr.c **** *   used to provide consistent definition across compilers:
ARM GAS  C:\Users\mohammed\AppData\Local\Temp\cc9WOIwI.s 			page 5


 183:.\Generated_Source\PSoC4/CYBLE_bless_isr.c **** *
 184:.\Generated_Source\PSoC4/CYBLE_bless_isr.c **** *   Function definition example:
 185:.\Generated_Source\PSoC4/CYBLE_bless_isr.c **** *   CY_ISR(MyISR)
 186:.\Generated_Source\PSoC4/CYBLE_bless_isr.c **** *   {
 187:.\Generated_Source\PSoC4/CYBLE_bless_isr.c **** *   }
 188:.\Generated_Source\PSoC4/CYBLE_bless_isr.c **** *
 189:.\Generated_Source\PSoC4/CYBLE_bless_isr.c **** *   Function prototype example:
 190:.\Generated_Source\PSoC4/CYBLE_bless_isr.c **** *     CY_ISR_PROTO(MyISR);
 191:.\Generated_Source\PSoC4/CYBLE_bless_isr.c **** *
 192:.\Generated_Source\PSoC4/CYBLE_bless_isr.c **** * Parameters:
 193:.\Generated_Source\PSoC4/CYBLE_bless_isr.c **** *   address: Address of the ISR to set in the interrupt vector table.
 194:.\Generated_Source\PSoC4/CYBLE_bless_isr.c **** *
 195:.\Generated_Source\PSoC4/CYBLE_bless_isr.c **** * Return:
 196:.\Generated_Source\PSoC4/CYBLE_bless_isr.c **** *   None
 197:.\Generated_Source\PSoC4/CYBLE_bless_isr.c **** *
 198:.\Generated_Source\PSoC4/CYBLE_bless_isr.c **** *******************************************************************************/
 199:.\Generated_Source\PSoC4/CYBLE_bless_isr.c **** void CYBLE_bless_isr_SetVector(cyisraddress address)
 200:.\Generated_Source\PSoC4/CYBLE_bless_isr.c **** {
 201:.\Generated_Source\PSoC4/CYBLE_bless_isr.c ****     CyRamVectors[CYINT_IRQ_BASE + CYBLE_bless_isr__INTC_NUMBER] = address;
 202:.\Generated_Source\PSoC4/CYBLE_bless_isr.c **** }
 203:.\Generated_Source\PSoC4/CYBLE_bless_isr.c **** 
 204:.\Generated_Source\PSoC4/CYBLE_bless_isr.c **** 
 205:.\Generated_Source\PSoC4/CYBLE_bless_isr.c **** /*******************************************************************************
 206:.\Generated_Source\PSoC4/CYBLE_bless_isr.c **** * Function Name: CYBLE_bless_isr_GetVector
 207:.\Generated_Source\PSoC4/CYBLE_bless_isr.c **** ********************************************************************************
 208:.\Generated_Source\PSoC4/CYBLE_bless_isr.c **** *
 209:.\Generated_Source\PSoC4/CYBLE_bless_isr.c **** * Summary:
 210:.\Generated_Source\PSoC4/CYBLE_bless_isr.c **** *   Gets the "address" of the current ISR vector for the Interrupt.
 211:.\Generated_Source\PSoC4/CYBLE_bless_isr.c **** *
 212:.\Generated_Source\PSoC4/CYBLE_bless_isr.c **** * Parameters:
 213:.\Generated_Source\PSoC4/CYBLE_bless_isr.c **** *   None
 214:.\Generated_Source\PSoC4/CYBLE_bless_isr.c **** *
 215:.\Generated_Source\PSoC4/CYBLE_bless_isr.c **** * Return:
 216:.\Generated_Source\PSoC4/CYBLE_bless_isr.c **** *   Address of the ISR in the interrupt vector table.
 217:.\Generated_Source\PSoC4/CYBLE_bless_isr.c **** *
 218:.\Generated_Source\PSoC4/CYBLE_bless_isr.c **** *******************************************************************************/
 219:.\Generated_Source\PSoC4/CYBLE_bless_isr.c **** cyisraddress CYBLE_bless_isr_GetVector(void)
 220:.\Generated_Source\PSoC4/CYBLE_bless_isr.c **** {
 221:.\Generated_Source\PSoC4/CYBLE_bless_isr.c ****     return CyRamVectors[CYINT_IRQ_BASE + CYBLE_bless_isr__INTC_NUMBER];
 222:.\Generated_Source\PSoC4/CYBLE_bless_isr.c **** }
 223:.\Generated_Source\PSoC4/CYBLE_bless_isr.c **** 
 224:.\Generated_Source\PSoC4/CYBLE_bless_isr.c **** 
 225:.\Generated_Source\PSoC4/CYBLE_bless_isr.c **** /*******************************************************************************
 226:.\Generated_Source\PSoC4/CYBLE_bless_isr.c **** * Function Name: CYBLE_bless_isr_SetPriority
 227:.\Generated_Source\PSoC4/CYBLE_bless_isr.c **** ********************************************************************************
 228:.\Generated_Source\PSoC4/CYBLE_bless_isr.c **** *
 229:.\Generated_Source\PSoC4/CYBLE_bless_isr.c **** * Summary:
 230:.\Generated_Source\PSoC4/CYBLE_bless_isr.c **** *   Sets the Priority of the Interrupt. 
 231:.\Generated_Source\PSoC4/CYBLE_bless_isr.c **** *
 232:.\Generated_Source\PSoC4/CYBLE_bless_isr.c **** *   Note calling CYBLE_bless_isr_Start or CYBLE_bless_isr_StartEx will 
 233:.\Generated_Source\PSoC4/CYBLE_bless_isr.c **** *   override any effect this API would have had. This API should only be called
 234:.\Generated_Source\PSoC4/CYBLE_bless_isr.c **** *   after CYBLE_bless_isr_Start or CYBLE_bless_isr_StartEx has been called. 
 235:.\Generated_Source\PSoC4/CYBLE_bless_isr.c **** *   To set the initial priority for the component, use the Design-Wide Resources
 236:.\Generated_Source\PSoC4/CYBLE_bless_isr.c **** *   Interrupt Editor.
 237:.\Generated_Source\PSoC4/CYBLE_bless_isr.c **** *
 238:.\Generated_Source\PSoC4/CYBLE_bless_isr.c **** *   Note This API has no effect on Non-maskable interrupt NMI).
 239:.\Generated_Source\PSoC4/CYBLE_bless_isr.c **** *
ARM GAS  C:\Users\mohammed\AppData\Local\Temp\cc9WOIwI.s 			page 6


 240:.\Generated_Source\PSoC4/CYBLE_bless_isr.c **** * Parameters:
 241:.\Generated_Source\PSoC4/CYBLE_bless_isr.c **** *   priority: Priority of the interrupt, 0 being the highest priority
 242:.\Generated_Source\PSoC4/CYBLE_bless_isr.c **** *             PSoC 3 and PSoC 5LP: Priority is from 0 to 7.
 243:.\Generated_Source\PSoC4/CYBLE_bless_isr.c **** *             PSoC 4: Priority is from 0 to 3.
 244:.\Generated_Source\PSoC4/CYBLE_bless_isr.c **** *
 245:.\Generated_Source\PSoC4/CYBLE_bless_isr.c **** * Return:
 246:.\Generated_Source\PSoC4/CYBLE_bless_isr.c **** *   None
 247:.\Generated_Source\PSoC4/CYBLE_bless_isr.c **** *
 248:.\Generated_Source\PSoC4/CYBLE_bless_isr.c **** *******************************************************************************/
 249:.\Generated_Source\PSoC4/CYBLE_bless_isr.c **** void CYBLE_bless_isr_SetPriority(uint8 priority)
 250:.\Generated_Source\PSoC4/CYBLE_bless_isr.c **** {
 251:.\Generated_Source\PSoC4/CYBLE_bless_isr.c **** 	uint8 interruptState;
 252:.\Generated_Source\PSoC4/CYBLE_bless_isr.c ****     uint32 priorityOffset = ((CYBLE_bless_isr__INTC_NUMBER % 4u) * 8u) + 6u;
 253:.\Generated_Source\PSoC4/CYBLE_bless_isr.c ****     
 254:.\Generated_Source\PSoC4/CYBLE_bless_isr.c **** 	interruptState = CyEnterCriticalSection();
 255:.\Generated_Source\PSoC4/CYBLE_bless_isr.c ****     *CYBLE_bless_isr_INTC_PRIOR = (*CYBLE_bless_isr_INTC_PRIOR & (uint32)(~CYBLE_bless_isr__INTC_PR
 256:.\Generated_Source\PSoC4/CYBLE_bless_isr.c ****                                     ((uint32)priority << priorityOffset);
 257:.\Generated_Source\PSoC4/CYBLE_bless_isr.c **** 	CyExitCriticalSection(interruptState);
 258:.\Generated_Source\PSoC4/CYBLE_bless_isr.c **** }
 259:.\Generated_Source\PSoC4/CYBLE_bless_isr.c **** 
 260:.\Generated_Source\PSoC4/CYBLE_bless_isr.c **** 
 261:.\Generated_Source\PSoC4/CYBLE_bless_isr.c **** /*******************************************************************************
 262:.\Generated_Source\PSoC4/CYBLE_bless_isr.c **** * Function Name: CYBLE_bless_isr_GetPriority
 263:.\Generated_Source\PSoC4/CYBLE_bless_isr.c **** ********************************************************************************
 264:.\Generated_Source\PSoC4/CYBLE_bless_isr.c **** *
 265:.\Generated_Source\PSoC4/CYBLE_bless_isr.c **** * Summary:
 266:.\Generated_Source\PSoC4/CYBLE_bless_isr.c **** *   Gets the Priority of the Interrupt.
 267:.\Generated_Source\PSoC4/CYBLE_bless_isr.c **** *
 268:.\Generated_Source\PSoC4/CYBLE_bless_isr.c **** * Parameters:
 269:.\Generated_Source\PSoC4/CYBLE_bless_isr.c **** *   None
 270:.\Generated_Source\PSoC4/CYBLE_bless_isr.c **** *
 271:.\Generated_Source\PSoC4/CYBLE_bless_isr.c **** * Return:
 272:.\Generated_Source\PSoC4/CYBLE_bless_isr.c **** *   Priority of the interrupt, 0 being the highest priority
 273:.\Generated_Source\PSoC4/CYBLE_bless_isr.c **** *    PSoC 3 and PSoC 5LP: Priority is from 0 to 7.
 274:.\Generated_Source\PSoC4/CYBLE_bless_isr.c **** *    PSoC 4: Priority is from 0 to 3.
 275:.\Generated_Source\PSoC4/CYBLE_bless_isr.c **** *
 276:.\Generated_Source\PSoC4/CYBLE_bless_isr.c **** *******************************************************************************/
 277:.\Generated_Source\PSoC4/CYBLE_bless_isr.c **** uint8 CYBLE_bless_isr_GetPriority(void)
 278:.\Generated_Source\PSoC4/CYBLE_bless_isr.c **** {
 279:.\Generated_Source\PSoC4/CYBLE_bless_isr.c ****     uint32 priority;
 280:.\Generated_Source\PSoC4/CYBLE_bless_isr.c **** 	uint32 priorityOffset = ((CYBLE_bless_isr__INTC_NUMBER % 4u) * 8u) + 6u;
 281:.\Generated_Source\PSoC4/CYBLE_bless_isr.c **** 
 282:.\Generated_Source\PSoC4/CYBLE_bless_isr.c ****     priority = (*CYBLE_bless_isr_INTC_PRIOR & CYBLE_bless_isr__INTC_PRIOR_MASK) >> priorityOffset;
 283:.\Generated_Source\PSoC4/CYBLE_bless_isr.c **** 
 284:.\Generated_Source\PSoC4/CYBLE_bless_isr.c ****     return (uint8)priority;
 285:.\Generated_Source\PSoC4/CYBLE_bless_isr.c **** }
 286:.\Generated_Source\PSoC4/CYBLE_bless_isr.c **** 
 287:.\Generated_Source\PSoC4/CYBLE_bless_isr.c **** 
 288:.\Generated_Source\PSoC4/CYBLE_bless_isr.c **** /*******************************************************************************
 289:.\Generated_Source\PSoC4/CYBLE_bless_isr.c **** * Function Name: CYBLE_bless_isr_Enable
 290:.\Generated_Source\PSoC4/CYBLE_bless_isr.c **** ********************************************************************************
 291:.\Generated_Source\PSoC4/CYBLE_bless_isr.c **** *
 292:.\Generated_Source\PSoC4/CYBLE_bless_isr.c **** * Summary:
 293:.\Generated_Source\PSoC4/CYBLE_bless_isr.c **** *   Enables the interrupt to the interrupt controller. Do not call this function
 294:.\Generated_Source\PSoC4/CYBLE_bless_isr.c **** *   unless ISR_Start() has been called or the functionality of the ISR_Start() 
 295:.\Generated_Source\PSoC4/CYBLE_bless_isr.c **** *   function, which sets the vector and the priority, has been called.
 296:.\Generated_Source\PSoC4/CYBLE_bless_isr.c **** *
ARM GAS  C:\Users\mohammed\AppData\Local\Temp\cc9WOIwI.s 			page 7


 297:.\Generated_Source\PSoC4/CYBLE_bless_isr.c **** * Parameters:
 298:.\Generated_Source\PSoC4/CYBLE_bless_isr.c **** *   None
 299:.\Generated_Source\PSoC4/CYBLE_bless_isr.c **** *
 300:.\Generated_Source\PSoC4/CYBLE_bless_isr.c **** * Return:
 301:.\Generated_Source\PSoC4/CYBLE_bless_isr.c **** *   None
 302:.\Generated_Source\PSoC4/CYBLE_bless_isr.c **** *
 303:.\Generated_Source\PSoC4/CYBLE_bless_isr.c **** *******************************************************************************/
 304:.\Generated_Source\PSoC4/CYBLE_bless_isr.c **** void CYBLE_bless_isr_Enable(void)
 305:.\Generated_Source\PSoC4/CYBLE_bless_isr.c **** {
 306:.\Generated_Source\PSoC4/CYBLE_bless_isr.c ****     /* Enable the general interrupt. */
 307:.\Generated_Source\PSoC4/CYBLE_bless_isr.c ****     *CYBLE_bless_isr_INTC_SET_EN = CYBLE_bless_isr__INTC_MASK;
 308:.\Generated_Source\PSoC4/CYBLE_bless_isr.c **** }
 309:.\Generated_Source\PSoC4/CYBLE_bless_isr.c **** 
 310:.\Generated_Source\PSoC4/CYBLE_bless_isr.c **** 
 311:.\Generated_Source\PSoC4/CYBLE_bless_isr.c **** /*******************************************************************************
 312:.\Generated_Source\PSoC4/CYBLE_bless_isr.c **** * Function Name: CYBLE_bless_isr_GetState
 313:.\Generated_Source\PSoC4/CYBLE_bless_isr.c **** ********************************************************************************
 314:.\Generated_Source\PSoC4/CYBLE_bless_isr.c **** *
 315:.\Generated_Source\PSoC4/CYBLE_bless_isr.c **** * Summary:
 316:.\Generated_Source\PSoC4/CYBLE_bless_isr.c **** *   Gets the state (enabled, disabled) of the Interrupt.
 317:.\Generated_Source\PSoC4/CYBLE_bless_isr.c **** *
 318:.\Generated_Source\PSoC4/CYBLE_bless_isr.c **** * Parameters:
 319:.\Generated_Source\PSoC4/CYBLE_bless_isr.c **** *   None
 320:.\Generated_Source\PSoC4/CYBLE_bless_isr.c **** *
 321:.\Generated_Source\PSoC4/CYBLE_bless_isr.c **** * Return:
 322:.\Generated_Source\PSoC4/CYBLE_bless_isr.c **** *   1 if enabled, 0 if disabled.
 323:.\Generated_Source\PSoC4/CYBLE_bless_isr.c **** *
 324:.\Generated_Source\PSoC4/CYBLE_bless_isr.c **** *******************************************************************************/
 325:.\Generated_Source\PSoC4/CYBLE_bless_isr.c **** uint8 CYBLE_bless_isr_GetState(void)
 326:.\Generated_Source\PSoC4/CYBLE_bless_isr.c **** {
 327:.\Generated_Source\PSoC4/CYBLE_bless_isr.c ****     /* Get the state of the general interrupt. */
 328:.\Generated_Source\PSoC4/CYBLE_bless_isr.c ****     return ((*CYBLE_bless_isr_INTC_SET_EN & (uint32)CYBLE_bless_isr__INTC_MASK) != 0u) ? 1u:0u;
 329:.\Generated_Source\PSoC4/CYBLE_bless_isr.c **** }
 330:.\Generated_Source\PSoC4/CYBLE_bless_isr.c **** 
 331:.\Generated_Source\PSoC4/CYBLE_bless_isr.c **** 
 332:.\Generated_Source\PSoC4/CYBLE_bless_isr.c **** /*******************************************************************************
 333:.\Generated_Source\PSoC4/CYBLE_bless_isr.c **** * Function Name: CYBLE_bless_isr_Disable
 334:.\Generated_Source\PSoC4/CYBLE_bless_isr.c **** ********************************************************************************
 335:.\Generated_Source\PSoC4/CYBLE_bless_isr.c **** *
 336:.\Generated_Source\PSoC4/CYBLE_bless_isr.c **** * Summary:
 337:.\Generated_Source\PSoC4/CYBLE_bless_isr.c **** *   Disables the Interrupt in the interrupt controller.
 338:.\Generated_Source\PSoC4/CYBLE_bless_isr.c **** *
 339:.\Generated_Source\PSoC4/CYBLE_bless_isr.c **** * Parameters:
 340:.\Generated_Source\PSoC4/CYBLE_bless_isr.c **** *   None
 341:.\Generated_Source\PSoC4/CYBLE_bless_isr.c **** *
 342:.\Generated_Source\PSoC4/CYBLE_bless_isr.c **** * Return:
 343:.\Generated_Source\PSoC4/CYBLE_bless_isr.c **** *   None
 344:.\Generated_Source\PSoC4/CYBLE_bless_isr.c **** *
 345:.\Generated_Source\PSoC4/CYBLE_bless_isr.c **** *******************************************************************************/
 346:.\Generated_Source\PSoC4/CYBLE_bless_isr.c **** void CYBLE_bless_isr_Disable(void)
 347:.\Generated_Source\PSoC4/CYBLE_bless_isr.c **** {
 348:.\Generated_Source\PSoC4/CYBLE_bless_isr.c ****     /* Disable the general interrupt. */
 349:.\Generated_Source\PSoC4/CYBLE_bless_isr.c ****     *CYBLE_bless_isr_INTC_CLR_EN = CYBLE_bless_isr__INTC_MASK;
  46              		.loc 1 349 0
  47 0000 8022     		mov	r2, #128
  48 0002 034B     		ldr	r3, .L3
  49 0004 5201     		lsl	r2, r2, #5
ARM GAS  C:\Users\mohammed\AppData\Local\Temp\cc9WOIwI.s 			page 8


  50 0006 1A60     		str	r2, [r3]
  51              	.LVL0:
  52              	.LBE19:
  53              	.LBE18:
  54              	.LBB20:
  55              	.LBB21:
 201:.\Generated_Source\PSoC4/CYBLE_bless_isr.c **** }
  56              		.loc 1 201 0
  57 0008 024A     		ldr	r2, .L3+4
  58 000a 034B     		ldr	r3, .L3+8
  59              	.LBE21:
  60              	.LBE20:
 136:.\Generated_Source\PSoC4/CYBLE_bless_isr.c **** 
  61              		.loc 1 136 0
  62              		@ sp needed
  63              	.LBB23:
  64              	.LBB22:
 201:.\Generated_Source\PSoC4/CYBLE_bless_isr.c **** }
  65              		.loc 1 201 0
  66 000c 1A67     		str	r2, [r3, #112]
  67              	.LBE22:
  68              	.LBE23:
 136:.\Generated_Source\PSoC4/CYBLE_bless_isr.c **** 
  69              		.loc 1 136 0
  70 000e 7047     		bx	lr
  71              	.L4:
  72              		.align	2
  73              	.L3:
  74 0010 80E100E0 		.word	-536813184
  75 0014 00000000 		.word	IntDefaultHandler
  76 0018 00000000 		.word	CyRamVectors
  77              		.cfi_endproc
  78              	.LFE4:
  79              		.size	CYBLE_bless_isr_Stop, .-CYBLE_bless_isr_Stop
  80              		.section	.text.CYBLE_bless_isr_SetVector,"ax",%progbits
  81              		.align	1
  82              		.global	CYBLE_bless_isr_SetVector
  83              		.code	16
  84              		.thumb_func
  85              		.type	CYBLE_bless_isr_SetVector, %function
  86              	CYBLE_bless_isr_SetVector:
  87              	.LFB6:
 200:.\Generated_Source\PSoC4/CYBLE_bless_isr.c ****     CyRamVectors[CYINT_IRQ_BASE + CYBLE_bless_isr__INTC_NUMBER] = address;
  88              		.loc 1 200 0
  89              		.cfi_startproc
  90              	.LVL1:
 201:.\Generated_Source\PSoC4/CYBLE_bless_isr.c **** }
  91              		.loc 1 201 0
  92 0000 014B     		ldr	r3, .L6
 202:.\Generated_Source\PSoC4/CYBLE_bless_isr.c **** 
  93              		.loc 1 202 0
  94              		@ sp needed
 201:.\Generated_Source\PSoC4/CYBLE_bless_isr.c **** }
  95              		.loc 1 201 0
  96 0002 1867     		str	r0, [r3, #112]
 202:.\Generated_Source\PSoC4/CYBLE_bless_isr.c **** 
  97              		.loc 1 202 0
ARM GAS  C:\Users\mohammed\AppData\Local\Temp\cc9WOIwI.s 			page 9


  98 0004 7047     		bx	lr
  99              	.L7:
 100 0006 C046     		.align	2
 101              	.L6:
 102 0008 00000000 		.word	CyRamVectors
 103              		.cfi_endproc
 104              	.LFE6:
 105              		.size	CYBLE_bless_isr_SetVector, .-CYBLE_bless_isr_SetVector
 106              		.section	.text.CYBLE_bless_isr_GetVector,"ax",%progbits
 107              		.align	1
 108              		.global	CYBLE_bless_isr_GetVector
 109              		.code	16
 110              		.thumb_func
 111              		.type	CYBLE_bless_isr_GetVector, %function
 112              	CYBLE_bless_isr_GetVector:
 113              	.LFB7:
 220:.\Generated_Source\PSoC4/CYBLE_bless_isr.c ****     return CyRamVectors[CYINT_IRQ_BASE + CYBLE_bless_isr__INTC_NUMBER];
 114              		.loc 1 220 0
 115              		.cfi_startproc
 221:.\Generated_Source\PSoC4/CYBLE_bless_isr.c **** }
 116              		.loc 1 221 0
 117 0000 014B     		ldr	r3, .L9
 222:.\Generated_Source\PSoC4/CYBLE_bless_isr.c **** 
 118              		.loc 1 222 0
 119              		@ sp needed
 221:.\Generated_Source\PSoC4/CYBLE_bless_isr.c **** }
 120              		.loc 1 221 0
 121 0002 186F     		ldr	r0, [r3, #112]
 222:.\Generated_Source\PSoC4/CYBLE_bless_isr.c **** 
 122              		.loc 1 222 0
 123 0004 7047     		bx	lr
 124              	.L10:
 125 0006 C046     		.align	2
 126              	.L9:
 127 0008 00000000 		.word	CyRamVectors
 128              		.cfi_endproc
 129              	.LFE7:
 130              		.size	CYBLE_bless_isr_GetVector, .-CYBLE_bless_isr_GetVector
 131              		.section	.text.CYBLE_bless_isr_SetPriority,"ax",%progbits
 132              		.align	1
 133              		.global	CYBLE_bless_isr_SetPriority
 134              		.code	16
 135              		.thumb_func
 136              		.type	CYBLE_bless_isr_SetPriority, %function
 137              	CYBLE_bless_isr_SetPriority:
 138              	.LFB8:
 250:.\Generated_Source\PSoC4/CYBLE_bless_isr.c **** 	uint8 interruptState;
 139              		.loc 1 250 0
 140              		.cfi_startproc
 141              	.LVL2:
 142 0000 10B5     		push	{r4, lr}
 143              		.cfi_def_cfa_offset 8
 144              		.cfi_offset 4, -8
 145              		.cfi_offset 14, -4
 250:.\Generated_Source\PSoC4/CYBLE_bless_isr.c **** 	uint8 interruptState;
 146              		.loc 1 250 0
 147 0002 041C     		mov	r4, r0
ARM GAS  C:\Users\mohammed\AppData\Local\Temp\cc9WOIwI.s 			page 10


 254:.\Generated_Source\PSoC4/CYBLE_bless_isr.c ****     *CYBLE_bless_isr_INTC_PRIOR = (*CYBLE_bless_isr_INTC_PRIOR & (uint32)(~CYBLE_bless_isr__INTC_PR
 148              		.loc 1 254 0
 149 0004 FFF7FEFF 		bl	CyEnterCriticalSection
 150              	.LVL3:
 255:.\Generated_Source\PSoC4/CYBLE_bless_isr.c ****                                     ((uint32)priority << priorityOffset);
 151              		.loc 1 255 0
 152 0008 C021     		mov	r1, #192
 153 000a 044A     		ldr	r2, .L12
 256:.\Generated_Source\PSoC4/CYBLE_bless_isr.c **** 	CyExitCriticalSection(interruptState);
 154              		.loc 1 256 0
 155 000c A401     		lsl	r4, r4, #6
 255:.\Generated_Source\PSoC4/CYBLE_bless_isr.c ****                                     ((uint32)priority << priorityOffset);
 156              		.loc 1 255 0
 157 000e 1368     		ldr	r3, [r2]
 258:.\Generated_Source\PSoC4/CYBLE_bless_isr.c **** 
 158              		.loc 1 258 0
 159              		@ sp needed
 255:.\Generated_Source\PSoC4/CYBLE_bless_isr.c ****                                     ((uint32)priority << priorityOffset);
 160              		.loc 1 255 0
 161 0010 8B43     		bic	r3, r1
 162 0012 2343     		orr	r3, r4
 163 0014 1360     		str	r3, [r2]
 257:.\Generated_Source\PSoC4/CYBLE_bless_isr.c **** }
 164              		.loc 1 257 0
 165 0016 FFF7FEFF 		bl	CyExitCriticalSection
 166              	.LVL4:
 258:.\Generated_Source\PSoC4/CYBLE_bless_isr.c **** 
 167              		.loc 1 258 0
 168 001a 10BD     		pop	{r4, pc}
 169              	.L13:
 170              		.align	2
 171              	.L12:
 172 001c 0CE400E0 		.word	-536812532
 173              		.cfi_endproc
 174              	.LFE8:
 175              		.size	CYBLE_bless_isr_SetPriority, .-CYBLE_bless_isr_SetPriority
 176              		.section	.text.CYBLE_bless_isr_Start,"ax",%progbits
 177              		.align	1
 178              		.global	CYBLE_bless_isr_Start
 179              		.code	16
 180              		.thumb_func
 181              		.type	CYBLE_bless_isr_Start, %function
 182              	CYBLE_bless_isr_Start:
 183              	.LFB2:
  57:.\Generated_Source\PSoC4/CYBLE_bless_isr.c ****     /* For all we know the interrupt is active. */
 184              		.loc 1 57 0
 185              		.cfi_startproc
 186 0000 10B5     		push	{r4, lr}
 187              		.cfi_def_cfa_offset 8
 188              		.cfi_offset 4, -8
 189              		.cfi_offset 14, -4
 190              	.LBB24:
 191              	.LBB25:
 192              		.loc 1 349 0
 193 0002 8024     		mov	r4, #128
 194 0004 054B     		ldr	r3, .L15
 195 0006 6401     		lsl	r4, r4, #5
ARM GAS  C:\Users\mohammed\AppData\Local\Temp\cc9WOIwI.s 			page 11


 196 0008 1C60     		str	r4, [r3]
 197              	.LVL5:
 198              	.LBE25:
 199              	.LBE24:
 200              	.LBB26:
 201              	.LBB27:
 201:.\Generated_Source\PSoC4/CYBLE_bless_isr.c **** }
 202              		.loc 1 201 0
 203 000a 054A     		ldr	r2, .L15+4
 204 000c 054B     		ldr	r3, .L15+8
 205              	.LBE27:
 206              	.LBE26:
  65:.\Generated_Source\PSoC4/CYBLE_bless_isr.c **** 
 207              		.loc 1 65 0
 208 000e 0320     		mov	r0, #3
 209              	.LBB29:
 210              	.LBB28:
 201:.\Generated_Source\PSoC4/CYBLE_bless_isr.c **** }
 211              		.loc 1 201 0
 212 0010 1A67     		str	r2, [r3, #112]
 213              	.LBE28:
 214              	.LBE29:
  65:.\Generated_Source\PSoC4/CYBLE_bless_isr.c **** 
 215              		.loc 1 65 0
 216 0012 FFF7FEFF 		bl	CYBLE_bless_isr_SetPriority
 217              	.LVL6:
 218              	.LBB30:
 219              	.LBB31:
 307:.\Generated_Source\PSoC4/CYBLE_bless_isr.c **** }
 220              		.loc 1 307 0
 221 0016 044B     		ldr	r3, .L15+12
 222              	.LBE31:
 223              	.LBE30:
  69:.\Generated_Source\PSoC4/CYBLE_bless_isr.c **** 
 224              		.loc 1 69 0
 225              		@ sp needed
 226              	.LBB33:
 227              	.LBB32:
 307:.\Generated_Source\PSoC4/CYBLE_bless_isr.c **** }
 228              		.loc 1 307 0
 229 0018 1C60     		str	r4, [r3]
 230              	.LBE32:
 231              	.LBE33:
  69:.\Generated_Source\PSoC4/CYBLE_bless_isr.c **** 
 232              		.loc 1 69 0
 233 001a 10BD     		pop	{r4, pc}
 234              	.L16:
 235              		.align	2
 236              	.L15:
 237 001c 80E100E0 		.word	-536813184
 238 0020 00000000 		.word	CYBLE_bless_isr_Interrupt
 239 0024 00000000 		.word	CyRamVectors
 240 0028 00E100E0 		.word	-536813312
 241              		.cfi_endproc
 242              	.LFE2:
 243              		.size	CYBLE_bless_isr_Start, .-CYBLE_bless_isr_Start
 244              		.section	.text.CYBLE_bless_isr_StartEx,"ax",%progbits
ARM GAS  C:\Users\mohammed\AppData\Local\Temp\cc9WOIwI.s 			page 12


 245              		.align	1
 246              		.global	CYBLE_bless_isr_StartEx
 247              		.code	16
 248              		.thumb_func
 249              		.type	CYBLE_bless_isr_StartEx, %function
 250              	CYBLE_bless_isr_StartEx:
 251              	.LFB3:
 100:.\Generated_Source\PSoC4/CYBLE_bless_isr.c ****     /* For all we know the interrupt is active. */
 252              		.loc 1 100 0
 253              		.cfi_startproc
 254              	.LVL7:
 255 0000 10B5     		push	{r4, lr}
 256              		.cfi_def_cfa_offset 8
 257              		.cfi_offset 4, -8
 258              		.cfi_offset 14, -4
 259              	.LBB34:
 260              	.LBB35:
 261              		.loc 1 349 0
 262 0002 8024     		mov	r4, #128
 263 0004 054B     		ldr	r3, .L18
 264 0006 6401     		lsl	r4, r4, #5
 265 0008 1C60     		str	r4, [r3]
 266              	.LVL8:
 267              	.LBE35:
 268              	.LBE34:
 269              	.LBB36:
 270              	.LBB37:
 201:.\Generated_Source\PSoC4/CYBLE_bless_isr.c **** }
 271              		.loc 1 201 0
 272 000a 054B     		ldr	r3, .L18+4
 273              	.LBE37:
 274              	.LBE36:
 112:.\Generated_Source\PSoC4/CYBLE_bless_isr.c **** 
 275              		.loc 1 112 0
 276              		@ sp needed
 277              	.LBB39:
 278              	.LBB38:
 201:.\Generated_Source\PSoC4/CYBLE_bless_isr.c **** }
 279              		.loc 1 201 0
 280 000c 1867     		str	r0, [r3, #112]
 281              	.LBE38:
 282              	.LBE39:
 108:.\Generated_Source\PSoC4/CYBLE_bless_isr.c **** 
 283              		.loc 1 108 0
 284 000e 0320     		mov	r0, #3
 285              	.LVL9:
 286 0010 FFF7FEFF 		bl	CYBLE_bless_isr_SetPriority
 287              	.LVL10:
 288              	.LBB40:
 289              	.LBB41:
 307:.\Generated_Source\PSoC4/CYBLE_bless_isr.c **** }
 290              		.loc 1 307 0
 291 0014 034B     		ldr	r3, .L18+8
 292 0016 1C60     		str	r4, [r3]
 293              	.LBE41:
 294              	.LBE40:
 112:.\Generated_Source\PSoC4/CYBLE_bless_isr.c **** 
ARM GAS  C:\Users\mohammed\AppData\Local\Temp\cc9WOIwI.s 			page 13


 295              		.loc 1 112 0
 296 0018 10BD     		pop	{r4, pc}
 297              	.L19:
 298 001a C046     		.align	2
 299              	.L18:
 300 001c 80E100E0 		.word	-536813184
 301 0020 00000000 		.word	CyRamVectors
 302 0024 00E100E0 		.word	-536813312
 303              		.cfi_endproc
 304              	.LFE3:
 305              		.size	CYBLE_bless_isr_StartEx, .-CYBLE_bless_isr_StartEx
 306              		.section	.text.CYBLE_bless_isr_GetPriority,"ax",%progbits
 307              		.align	1
 308              		.global	CYBLE_bless_isr_GetPriority
 309              		.code	16
 310              		.thumb_func
 311              		.type	CYBLE_bless_isr_GetPriority, %function
 312              	CYBLE_bless_isr_GetPriority:
 313              	.LFB9:
 278:.\Generated_Source\PSoC4/CYBLE_bless_isr.c ****     uint32 priority;
 314              		.loc 1 278 0
 315              		.cfi_startproc
 316              	.LVL11:
 282:.\Generated_Source\PSoC4/CYBLE_bless_isr.c **** 
 317              		.loc 1 282 0
 318 0000 024B     		ldr	r3, .L21
 285:.\Generated_Source\PSoC4/CYBLE_bless_isr.c **** 
 319              		.loc 1 285 0
 320              		@ sp needed
 282:.\Generated_Source\PSoC4/CYBLE_bless_isr.c **** 
 321              		.loc 1 282 0
 322 0002 1868     		ldr	r0, [r3]
 323              	.LVL12:
 324 0004 0006     		lsl	r0, r0, #24
 325              	.LVL13:
 284:.\Generated_Source\PSoC4/CYBLE_bless_isr.c **** }
 326              		.loc 1 284 0
 327 0006 800F     		lsr	r0, r0, #30
 285:.\Generated_Source\PSoC4/CYBLE_bless_isr.c **** 
 328              		.loc 1 285 0
 329 0008 7047     		bx	lr
 330              	.L22:
 331 000a C046     		.align	2
 332              	.L21:
 333 000c 0CE400E0 		.word	-536812532
 334              		.cfi_endproc
 335              	.LFE9:
 336              		.size	CYBLE_bless_isr_GetPriority, .-CYBLE_bless_isr_GetPriority
 337              		.section	.text.CYBLE_bless_isr_Enable,"ax",%progbits
 338              		.align	1
 339              		.global	CYBLE_bless_isr_Enable
 340              		.code	16
 341              		.thumb_func
 342              		.type	CYBLE_bless_isr_Enable, %function
 343              	CYBLE_bless_isr_Enable:
 344              	.LFB10:
 305:.\Generated_Source\PSoC4/CYBLE_bless_isr.c ****     /* Enable the general interrupt. */
ARM GAS  C:\Users\mohammed\AppData\Local\Temp\cc9WOIwI.s 			page 14


 345              		.loc 1 305 0
 346              		.cfi_startproc
 307:.\Generated_Source\PSoC4/CYBLE_bless_isr.c **** }
 347              		.loc 1 307 0
 348 0000 8022     		mov	r2, #128
 349 0002 024B     		ldr	r3, .L24
 350 0004 5201     		lsl	r2, r2, #5
 351 0006 1A60     		str	r2, [r3]
 308:.\Generated_Source\PSoC4/CYBLE_bless_isr.c **** 
 352              		.loc 1 308 0
 353              		@ sp needed
 354 0008 7047     		bx	lr
 355              	.L25:
 356 000a C046     		.align	2
 357              	.L24:
 358 000c 00E100E0 		.word	-536813312
 359              		.cfi_endproc
 360              	.LFE10:
 361              		.size	CYBLE_bless_isr_Enable, .-CYBLE_bless_isr_Enable
 362              		.section	.text.CYBLE_bless_isr_GetState,"ax",%progbits
 363              		.align	1
 364              		.global	CYBLE_bless_isr_GetState
 365              		.code	16
 366              		.thumb_func
 367              		.type	CYBLE_bless_isr_GetState, %function
 368              	CYBLE_bless_isr_GetState:
 369              	.LFB11:
 326:.\Generated_Source\PSoC4/CYBLE_bless_isr.c ****     /* Get the state of the general interrupt. */
 370              		.loc 1 326 0
 371              		.cfi_startproc
 328:.\Generated_Source\PSoC4/CYBLE_bless_isr.c **** }
 372              		.loc 1 328 0
 373 0000 024B     		ldr	r3, .L27
 329:.\Generated_Source\PSoC4/CYBLE_bless_isr.c **** 
 374              		.loc 1 329 0
 375              		@ sp needed
 328:.\Generated_Source\PSoC4/CYBLE_bless_isr.c **** }
 376              		.loc 1 328 0
 377 0002 1868     		ldr	r0, [r3]
 378 0004 C004     		lsl	r0, r0, #19
 379 0006 C00F     		lsr	r0, r0, #31
 329:.\Generated_Source\PSoC4/CYBLE_bless_isr.c **** 
 380              		.loc 1 329 0
 381 0008 7047     		bx	lr
 382              	.L28:
 383 000a C046     		.align	2
 384              	.L27:
 385 000c 00E100E0 		.word	-536813312
 386              		.cfi_endproc
 387              	.LFE11:
 388              		.size	CYBLE_bless_isr_GetState, .-CYBLE_bless_isr_GetState
 389              		.section	.text.CYBLE_bless_isr_Disable,"ax",%progbits
 390              		.align	1
 391              		.global	CYBLE_bless_isr_Disable
 392              		.code	16
 393              		.thumb_func
 394              		.type	CYBLE_bless_isr_Disable, %function
ARM GAS  C:\Users\mohammed\AppData\Local\Temp\cc9WOIwI.s 			page 15


 395              	CYBLE_bless_isr_Disable:
 396              	.LFB12:
 347:.\Generated_Source\PSoC4/CYBLE_bless_isr.c ****     /* Disable the general interrupt. */
 397              		.loc 1 347 0
 398              		.cfi_startproc
 399              		.loc 1 349 0
 400 0000 8022     		mov	r2, #128
 401 0002 024B     		ldr	r3, .L30
 402 0004 5201     		lsl	r2, r2, #5
 403 0006 1A60     		str	r2, [r3]
 350:.\Generated_Source\PSoC4/CYBLE_bless_isr.c **** }
 404              		.loc 1 350 0
 405              		@ sp needed
 406 0008 7047     		bx	lr
 407              	.L31:
 408 000a C046     		.align	2
 409              	.L30:
 410 000c 80E100E0 		.word	-536813184
 411              		.cfi_endproc
 412              	.LFE12:
 413              		.size	CYBLE_bless_isr_Disable, .-CYBLE_bless_isr_Disable
 414              		.section	.text.CYBLE_bless_isr_SetPending,"ax",%progbits
 415              		.align	1
 416              		.global	CYBLE_bless_isr_SetPending
 417              		.code	16
 418              		.thumb_func
 419              		.type	CYBLE_bless_isr_SetPending, %function
 420              	CYBLE_bless_isr_SetPending:
 421              	.LFB13:
 351:.\Generated_Source\PSoC4/CYBLE_bless_isr.c **** 
 352:.\Generated_Source\PSoC4/CYBLE_bless_isr.c **** 
 353:.\Generated_Source\PSoC4/CYBLE_bless_isr.c **** /*******************************************************************************
 354:.\Generated_Source\PSoC4/CYBLE_bless_isr.c **** * Function Name: CYBLE_bless_isr_SetPending
 355:.\Generated_Source\PSoC4/CYBLE_bless_isr.c **** ********************************************************************************
 356:.\Generated_Source\PSoC4/CYBLE_bless_isr.c **** *
 357:.\Generated_Source\PSoC4/CYBLE_bless_isr.c **** * Summary:
 358:.\Generated_Source\PSoC4/CYBLE_bless_isr.c **** *   Causes the Interrupt to enter the pending state, a software method of
 359:.\Generated_Source\PSoC4/CYBLE_bless_isr.c **** *   generating the interrupt.
 360:.\Generated_Source\PSoC4/CYBLE_bless_isr.c **** *
 361:.\Generated_Source\PSoC4/CYBLE_bless_isr.c **** * Parameters:
 362:.\Generated_Source\PSoC4/CYBLE_bless_isr.c **** *   None
 363:.\Generated_Source\PSoC4/CYBLE_bless_isr.c **** *
 364:.\Generated_Source\PSoC4/CYBLE_bless_isr.c **** * Return:
 365:.\Generated_Source\PSoC4/CYBLE_bless_isr.c **** *   None
 366:.\Generated_Source\PSoC4/CYBLE_bless_isr.c **** *
 367:.\Generated_Source\PSoC4/CYBLE_bless_isr.c **** * Side Effects:
 368:.\Generated_Source\PSoC4/CYBLE_bless_isr.c **** *   If interrupts are enabled and the interrupt is set up properly, the ISR is
 369:.\Generated_Source\PSoC4/CYBLE_bless_isr.c **** *   entered (depending on the priority of this interrupt and other pending 
 370:.\Generated_Source\PSoC4/CYBLE_bless_isr.c **** *   interrupts).
 371:.\Generated_Source\PSoC4/CYBLE_bless_isr.c **** *
 372:.\Generated_Source\PSoC4/CYBLE_bless_isr.c **** *******************************************************************************/
 373:.\Generated_Source\PSoC4/CYBLE_bless_isr.c **** void CYBLE_bless_isr_SetPending(void)
 374:.\Generated_Source\PSoC4/CYBLE_bless_isr.c **** {
 422              		.loc 1 374 0
 423              		.cfi_startproc
 375:.\Generated_Source\PSoC4/CYBLE_bless_isr.c ****     *CYBLE_bless_isr_INTC_SET_PD = CYBLE_bless_isr__INTC_MASK;
 424              		.loc 1 375 0
ARM GAS  C:\Users\mohammed\AppData\Local\Temp\cc9WOIwI.s 			page 16


 425 0000 8022     		mov	r2, #128
 426 0002 024B     		ldr	r3, .L33
 427 0004 5201     		lsl	r2, r2, #5
 428 0006 1A60     		str	r2, [r3]
 376:.\Generated_Source\PSoC4/CYBLE_bless_isr.c **** }
 429              		.loc 1 376 0
 430              		@ sp needed
 431 0008 7047     		bx	lr
 432              	.L34:
 433 000a C046     		.align	2
 434              	.L33:
 435 000c 00E200E0 		.word	-536813056
 436              		.cfi_endproc
 437              	.LFE13:
 438              		.size	CYBLE_bless_isr_SetPending, .-CYBLE_bless_isr_SetPending
 439              		.section	.text.CYBLE_bless_isr_ClearPending,"ax",%progbits
 440              		.align	1
 441              		.global	CYBLE_bless_isr_ClearPending
 442              		.code	16
 443              		.thumb_func
 444              		.type	CYBLE_bless_isr_ClearPending, %function
 445              	CYBLE_bless_isr_ClearPending:
 446              	.LFB14:
 377:.\Generated_Source\PSoC4/CYBLE_bless_isr.c **** 
 378:.\Generated_Source\PSoC4/CYBLE_bless_isr.c **** 
 379:.\Generated_Source\PSoC4/CYBLE_bless_isr.c **** /*******************************************************************************
 380:.\Generated_Source\PSoC4/CYBLE_bless_isr.c **** * Function Name: CYBLE_bless_isr_ClearPending
 381:.\Generated_Source\PSoC4/CYBLE_bless_isr.c **** ********************************************************************************
 382:.\Generated_Source\PSoC4/CYBLE_bless_isr.c **** *
 383:.\Generated_Source\PSoC4/CYBLE_bless_isr.c **** * Summary:
 384:.\Generated_Source\PSoC4/CYBLE_bless_isr.c **** *   Clears a pending interrupt in the interrupt controller.
 385:.\Generated_Source\PSoC4/CYBLE_bless_isr.c **** *
 386:.\Generated_Source\PSoC4/CYBLE_bless_isr.c **** *   Note Some interrupt sources are clear-on-read and require the block 
 387:.\Generated_Source\PSoC4/CYBLE_bless_isr.c **** *   interrupt/status register to be read/cleared with the appropriate block API 
 388:.\Generated_Source\PSoC4/CYBLE_bless_isr.c **** *   (GPIO, UART, and so on). Otherwise the ISR will continue to remain in 
 389:.\Generated_Source\PSoC4/CYBLE_bless_isr.c **** *   pending state even though the interrupt itself is cleared using this API.
 390:.\Generated_Source\PSoC4/CYBLE_bless_isr.c **** *
 391:.\Generated_Source\PSoC4/CYBLE_bless_isr.c **** * Parameters:
 392:.\Generated_Source\PSoC4/CYBLE_bless_isr.c **** *   None
 393:.\Generated_Source\PSoC4/CYBLE_bless_isr.c **** *
 394:.\Generated_Source\PSoC4/CYBLE_bless_isr.c **** * Return:
 395:.\Generated_Source\PSoC4/CYBLE_bless_isr.c **** *   None
 396:.\Generated_Source\PSoC4/CYBLE_bless_isr.c **** *
 397:.\Generated_Source\PSoC4/CYBLE_bless_isr.c **** *******************************************************************************/
 398:.\Generated_Source\PSoC4/CYBLE_bless_isr.c **** void CYBLE_bless_isr_ClearPending(void)
 399:.\Generated_Source\PSoC4/CYBLE_bless_isr.c **** {
 447              		.loc 1 399 0
 448              		.cfi_startproc
 400:.\Generated_Source\PSoC4/CYBLE_bless_isr.c ****     *CYBLE_bless_isr_INTC_CLR_PD = CYBLE_bless_isr__INTC_MASK;
 449              		.loc 1 400 0
 450 0000 8022     		mov	r2, #128
 451 0002 024B     		ldr	r3, .L36
 452 0004 5201     		lsl	r2, r2, #5
 453 0006 1A60     		str	r2, [r3]
 401:.\Generated_Source\PSoC4/CYBLE_bless_isr.c **** }
 454              		.loc 1 401 0
 455              		@ sp needed
ARM GAS  C:\Users\mohammed\AppData\Local\Temp\cc9WOIwI.s 			page 17


 456 0008 7047     		bx	lr
 457              	.L37:
 458 000a C046     		.align	2
 459              	.L36:
 460 000c 80E200E0 		.word	-536812928
 461              		.cfi_endproc
 462              	.LFE14:
 463              		.size	CYBLE_bless_isr_ClearPending, .-CYBLE_bless_isr_ClearPending
 464              		.text
 465              	.Letext0:
 466              		.file 2 "Generated_Source\\PSoC4/cytypes.h"
 467              		.file 3 "Generated_Source\\PSoC4/CyLib.h"