ARM GAS  C:\Users\mohammed\AppData\Local\Temp\ccLrTqRZ.s 			page 1


   1              		.cpu cortex-m0
   2              		.fpu softvfp
   3              		.eabi_attribute 20, 1
   4              		.eabi_attribute 21, 1
   5              		.eabi_attribute 23, 3
   6              		.eabi_attribute 24, 1
   7              		.eabi_attribute 25, 1
   8              		.eabi_attribute 26, 1
   9              		.eabi_attribute 30, 4
  10              		.eabi_attribute 34, 0
  11              		.eabi_attribute 18, 4
  12              		.code	16
  13              		.file	"CYBLE_tps.c"
  14              		.text
  15              	.Ltext0:
  16              		.cfi_sections	.debug_frame
  17              		.section	.text.CyBle_TpsInit,"ax",%progbits
  18              		.align	1
  19              		.global	CyBle_TpsInit
  20              		.code	16
  21              		.thumb_func
  22              		.type	CyBle_TpsInit, %function
  23              	CyBle_TpsInit:
  24              	.LFB2:
  25              		.file 1 ".\\Generated_Source\\PSoC4\\CYBLE_tps.c"
   1:.\Generated_Source\PSoC4/CYBLE_tps.c **** /***************************************************************************//**
   2:.\Generated_Source\PSoC4/CYBLE_tps.c **** * \file CYBLE_tps.c
   3:.\Generated_Source\PSoC4/CYBLE_tps.c **** * \version 3.10
   4:.\Generated_Source\PSoC4/CYBLE_tps.c **** * 
   5:.\Generated_Source\PSoC4/CYBLE_tps.c **** * \brief
   6:.\Generated_Source\PSoC4/CYBLE_tps.c **** *  This file contains the source code for the Tx Power Service of the BLE
   7:.\Generated_Source\PSoC4/CYBLE_tps.c **** *  Component.
   8:.\Generated_Source\PSoC4/CYBLE_tps.c **** * 
   9:.\Generated_Source\PSoC4/CYBLE_tps.c **** ********************************************************************************
  10:.\Generated_Source\PSoC4/CYBLE_tps.c **** * \copyright
  11:.\Generated_Source\PSoC4/CYBLE_tps.c **** * Copyright 2014-2016, Cypress Semiconductor Corporation.  All rights reserved.
  12:.\Generated_Source\PSoC4/CYBLE_tps.c **** * You may use this file only in accordance with the license, terms, conditions,
  13:.\Generated_Source\PSoC4/CYBLE_tps.c **** * disclaimers, and limitations in the end user license agreement accompanying
  14:.\Generated_Source\PSoC4/CYBLE_tps.c **** * the software package with which this file was provided.
  15:.\Generated_Source\PSoC4/CYBLE_tps.c **** *******************************************************************************/
  16:.\Generated_Source\PSoC4/CYBLE_tps.c **** 
  17:.\Generated_Source\PSoC4/CYBLE_tps.c **** 
  18:.\Generated_Source\PSoC4/CYBLE_tps.c **** #include "CYBLE_eventHandler.h"
  19:.\Generated_Source\PSoC4/CYBLE_tps.c **** 
  20:.\Generated_Source\PSoC4/CYBLE_tps.c **** 
  21:.\Generated_Source\PSoC4/CYBLE_tps.c **** static CYBLE_CALLBACK_T CyBle_TpsApplCallback = NULL;
  22:.\Generated_Source\PSoC4/CYBLE_tps.c **** 
  23:.\Generated_Source\PSoC4/CYBLE_tps.c **** #ifdef CYBLE_TPS_SERVER
  24:.\Generated_Source\PSoC4/CYBLE_tps.c **** 
  25:.\Generated_Source\PSoC4/CYBLE_tps.c **** const CYBLE_TPSS_T cyBle_tpss =
  26:.\Generated_Source\PSoC4/CYBLE_tps.c **** {
  27:.\Generated_Source\PSoC4/CYBLE_tps.c ****     0x000Fu,    /* Handle of the TPS service */
  28:.\Generated_Source\PSoC4/CYBLE_tps.c ****     0x0011u,    /* Handle of the Tx Power Level characteristic */
  29:.\Generated_Source\PSoC4/CYBLE_tps.c ****     0x0012u,    /* Handle of the Client Configuration descriptor */
  30:.\Generated_Source\PSoC4/CYBLE_tps.c **** };
  31:.\Generated_Source\PSoC4/CYBLE_tps.c ****     
  32:.\Generated_Source\PSoC4/CYBLE_tps.c **** #endif /* CYBLE_TPS_SERVER */
ARM GAS  C:\Users\mohammed\AppData\Local\Temp\ccLrTqRZ.s 			page 2


  33:.\Generated_Source\PSoC4/CYBLE_tps.c **** 
  34:.\Generated_Source\PSoC4/CYBLE_tps.c **** 
  35:.\Generated_Source\PSoC4/CYBLE_tps.c **** #ifdef CYBLE_TPS_CLIENT
  36:.\Generated_Source\PSoC4/CYBLE_tps.c ****     
  37:.\Generated_Source\PSoC4/CYBLE_tps.c **** CYBLE_TPSC_T cyBle_tpsc;
  38:.\Generated_Source\PSoC4/CYBLE_tps.c **** 
  39:.\Generated_Source\PSoC4/CYBLE_tps.c **** /* Internal storage for last request handle to check response */
  40:.\Generated_Source\PSoC4/CYBLE_tps.c **** static CYBLE_GATT_DB_ATTR_HANDLE_T cyBle_tpscReqHandle;
  41:.\Generated_Source\PSoC4/CYBLE_tps.c **** 
  42:.\Generated_Source\PSoC4/CYBLE_tps.c **** #endif /* CYBLE_TPS_CLIENT */
  43:.\Generated_Source\PSoC4/CYBLE_tps.c **** 
  44:.\Generated_Source\PSoC4/CYBLE_tps.c **** /******************************************************************************
  45:.\Generated_Source\PSoC4/CYBLE_tps.c **** * Function Name: CyBle_TpsInit
  46:.\Generated_Source\PSoC4/CYBLE_tps.c **** ***************************************************************************//**
  47:.\Generated_Source\PSoC4/CYBLE_tps.c **** * 
  48:.\Generated_Source\PSoC4/CYBLE_tps.c **** *  This function initializes the Tx Power Service.
  49:.\Generated_Source\PSoC4/CYBLE_tps.c **** * 
  50:.\Generated_Source\PSoC4/CYBLE_tps.c **** * \return
  51:.\Generated_Source\PSoC4/CYBLE_tps.c **** *  None
  52:.\Generated_Source\PSoC4/CYBLE_tps.c **** * 
  53:.\Generated_Source\PSoC4/CYBLE_tps.c **** ******************************************************************************/
  54:.\Generated_Source\PSoC4/CYBLE_tps.c **** void CyBle_TpsInit(void)
  55:.\Generated_Source\PSoC4/CYBLE_tps.c **** {
  26              		.loc 1 55 0
  27              		.cfi_startproc
  56:.\Generated_Source\PSoC4/CYBLE_tps.c **** 
  57:.\Generated_Source\PSoC4/CYBLE_tps.c **** #ifdef CYBLE_TPS_CLIENT
  58:.\Generated_Source\PSoC4/CYBLE_tps.c **** 
  59:.\Generated_Source\PSoC4/CYBLE_tps.c ****     if(cyBle_serverInfo[CYBLE_SRVI_TPS].range.startHandle == CYBLE_GATT_INVALID_ATTR_HANDLE_VALUE)
  60:.\Generated_Source\PSoC4/CYBLE_tps.c ****     {
  61:.\Generated_Source\PSoC4/CYBLE_tps.c ****         (void) memset((void *) &cyBle_tpsc, 0, sizeof(cyBle_tpsc));
  62:.\Generated_Source\PSoC4/CYBLE_tps.c ****     }
  63:.\Generated_Source\PSoC4/CYBLE_tps.c ****     cyBle_tpscReqHandle = CYBLE_GATT_INVALID_ATTR_HANDLE_VALUE;
  64:.\Generated_Source\PSoC4/CYBLE_tps.c ****     
  65:.\Generated_Source\PSoC4/CYBLE_tps.c **** #endif /* CYBLE_TPS_CLIENT */
  66:.\Generated_Source\PSoC4/CYBLE_tps.c **** }
  28              		.loc 1 66 0
  29              		@ sp needed
  30 0000 7047     		bx	lr
  31              		.cfi_endproc
  32              	.LFE2:
  33              		.size	CyBle_TpsInit, .-CyBle_TpsInit
  34              		.section	.text.CyBle_TpsRegisterAttrCallback,"ax",%progbits
  35              		.align	1
  36              		.global	CyBle_TpsRegisterAttrCallback
  37              		.code	16
  38              		.thumb_func
  39              		.type	CyBle_TpsRegisterAttrCallback, %function
  40              	CyBle_TpsRegisterAttrCallback:
  41              	.LFB3:
  67:.\Generated_Source\PSoC4/CYBLE_tps.c **** 
  68:.\Generated_Source\PSoC4/CYBLE_tps.c **** 
  69:.\Generated_Source\PSoC4/CYBLE_tps.c **** /******************************************************************************
  70:.\Generated_Source\PSoC4/CYBLE_tps.c **** * Function Name: CyBle_TpsRegisterAttrCallback
  71:.\Generated_Source\PSoC4/CYBLE_tps.c **** ***************************************************************************//**
  72:.\Generated_Source\PSoC4/CYBLE_tps.c **** * 
  73:.\Generated_Source\PSoC4/CYBLE_tps.c **** *  Registers a callback function for service specific attribute operations.
ARM GAS  C:\Users\mohammed\AppData\Local\Temp\ccLrTqRZ.s 			page 3


  74:.\Generated_Source\PSoC4/CYBLE_tps.c **** *  Service specific write requests from peer device will not be handled with
  75:.\Generated_Source\PSoC4/CYBLE_tps.c **** *  unregistered callback function.
  76:.\Generated_Source\PSoC4/CYBLE_tps.c **** * 
  77:.\Generated_Source\PSoC4/CYBLE_tps.c **** *  \param callbackFunc:  An application layer event callback function to receive 
  78:.\Generated_Source\PSoC4/CYBLE_tps.c **** *                     events from the BLE Component. The definition of 
  79:.\Generated_Source\PSoC4/CYBLE_tps.c **** *                     CYBLE_CALLBACK_T for TPS is: \n
  80:.\Generated_Source\PSoC4/CYBLE_tps.c **** *                     typedef void (* CYBLE_CALLBACK_T) (uint32 eventCode, 
  81:.\Generated_Source\PSoC4/CYBLE_tps.c **** *                                                       void *eventParam)
  82:.\Generated_Source\PSoC4/CYBLE_tps.c **** *                     * eventCode indicates the event that triggered this 
  83:.\Generated_Source\PSoC4/CYBLE_tps.c **** *                       callback.
  84:.\Generated_Source\PSoC4/CYBLE_tps.c **** *                     * eventParam contains the parameters corresponding to the 
  85:.\Generated_Source\PSoC4/CYBLE_tps.c **** *                       current event.
  86:.\Generated_Source\PSoC4/CYBLE_tps.c **** *
  87:.\Generated_Source\PSoC4/CYBLE_tps.c **** * \return
  88:.\Generated_Source\PSoC4/CYBLE_tps.c **** *  None
  89:.\Generated_Source\PSoC4/CYBLE_tps.c **** *
  90:.\Generated_Source\PSoC4/CYBLE_tps.c **** * \events
  91:.\Generated_Source\PSoC4/CYBLE_tps.c **** *  None
  92:.\Generated_Source\PSoC4/CYBLE_tps.c **** *
  93:.\Generated_Source\PSoC4/CYBLE_tps.c **** * \sideeffect
  94:.\Generated_Source\PSoC4/CYBLE_tps.c **** *  The *eventParams in the callback function should not be used by the 
  95:.\Generated_Source\PSoC4/CYBLE_tps.c **** *  application once the callback function execution is finished. Otherwise this
  96:.\Generated_Source\PSoC4/CYBLE_tps.c **** *  data may become corrupted.
  97:.\Generated_Source\PSoC4/CYBLE_tps.c **** * 
  98:.\Generated_Source\PSoC4/CYBLE_tps.c **** ******************************************************************************/
  99:.\Generated_Source\PSoC4/CYBLE_tps.c **** void CyBle_TpsRegisterAttrCallback(CYBLE_CALLBACK_T callbackFunc)
 100:.\Generated_Source\PSoC4/CYBLE_tps.c **** {
  42              		.loc 1 100 0
  43              		.cfi_startproc
  44              	.LVL0:
 101:.\Generated_Source\PSoC4/CYBLE_tps.c ****     CyBle_TpsApplCallback = callbackFunc;
  45              		.loc 1 101 0
  46 0000 014B     		ldr	r3, .L3
 102:.\Generated_Source\PSoC4/CYBLE_tps.c **** }
  47              		.loc 1 102 0
  48              		@ sp needed
 101:.\Generated_Source\PSoC4/CYBLE_tps.c ****     CyBle_TpsApplCallback = callbackFunc;
  49              		.loc 1 101 0
  50 0002 1860     		str	r0, [r3]
  51              		.loc 1 102 0
  52 0004 7047     		bx	lr
  53              	.L4:
  54 0006 C046     		.align	2
  55              	.L3:
  56 0008 00000000 		.word	.LANCHOR0
  57              		.cfi_endproc
  58              	.LFE3:
  59              		.size	CyBle_TpsRegisterAttrCallback, .-CyBle_TpsRegisterAttrCallback
  60              		.section	.text.CyBle_TpssWriteEventHandler,"ax",%progbits
  61              		.align	1
  62              		.global	CyBle_TpssWriteEventHandler
  63              		.code	16
  64              		.thumb_func
  65              		.type	CyBle_TpssWriteEventHandler, %function
  66              	CyBle_TpssWriteEventHandler:
  67              	.LFB4:
 103:.\Generated_Source\PSoC4/CYBLE_tps.c **** 
ARM GAS  C:\Users\mohammed\AppData\Local\Temp\ccLrTqRZ.s 			page 4


 104:.\Generated_Source\PSoC4/CYBLE_tps.c **** 
 105:.\Generated_Source\PSoC4/CYBLE_tps.c **** #ifdef CYBLE_TPS_SERVER
 106:.\Generated_Source\PSoC4/CYBLE_tps.c **** 
 107:.\Generated_Source\PSoC4/CYBLE_tps.c **** /******************************************************************************
 108:.\Generated_Source\PSoC4/CYBLE_tps.c **** * Function Name: CyBle_TpssWriteEventHandler
 109:.\Generated_Source\PSoC4/CYBLE_tps.c **** ***************************************************************************//**
 110:.\Generated_Source\PSoC4/CYBLE_tps.c **** * 
 111:.\Generated_Source\PSoC4/CYBLE_tps.c **** *  Handles the Write Request Event for Tx Power service.
 112:.\Generated_Source\PSoC4/CYBLE_tps.c **** * 
 113:.\Generated_Source\PSoC4/CYBLE_tps.c **** *  \param CYBLE_GATTS_WRITE_REQ_PARAM_T * eventParam: The pointer to the data that came
 114:.\Generated_Source\PSoC4/CYBLE_tps.c **** *                                               with a write request for TPS.
 115:.\Generated_Source\PSoC4/CYBLE_tps.c **** * 
 116:.\Generated_Source\PSoC4/CYBLE_tps.c **** * \return
 117:.\Generated_Source\PSoC4/CYBLE_tps.c **** *  Return value is of type CYBLE_GATT_ERR_CODE_T.
 118:.\Generated_Source\PSoC4/CYBLE_tps.c **** *   * CYBLE_GATT_ERR_NONE - Write is successful.
 119:.\Generated_Source\PSoC4/CYBLE_tps.c **** *   * CYBLE_GATT_ERR_REQUEST_NOT_SUPPORTED - Request is not supported.
 120:.\Generated_Source\PSoC4/CYBLE_tps.c **** *   * CYBLE_GATT_ERR_INVALID_HANDLE - 'handleValuePair.attrHandle' is not valid.
 121:.\Generated_Source\PSoC4/CYBLE_tps.c **** *   * CYBLE_GATT_ERR_WRITE_NOT_PERMITTED - Write operation is not permitted on
 122:.\Generated_Source\PSoC4/CYBLE_tps.c **** *                                          this attribute.
 123:.\Generated_Source\PSoC4/CYBLE_tps.c **** *   * CYBLE_GATT_ERR_INVALID_OFFSET - Offset value is invalid.
 124:.\Generated_Source\PSoC4/CYBLE_tps.c **** *   * CYBLE_GATT_ERR_UNLIKELY_ERROR - Some other error occurred.
 125:.\Generated_Source\PSoC4/CYBLE_tps.c **** *
 126:.\Generated_Source\PSoC4/CYBLE_tps.c **** ******************************************************************************/
 127:.\Generated_Source\PSoC4/CYBLE_tps.c **** CYBLE_GATT_ERR_CODE_T CyBle_TpssWriteEventHandler(CYBLE_GATTS_WRITE_REQ_PARAM_T *eventParam)
 128:.\Generated_Source\PSoC4/CYBLE_tps.c **** {
  68              		.loc 1 128 0
  69              		.cfi_startproc
  70              	.LVL1:
  71 0000 F7B5     		push	{r0, r1, r2, r4, r5, r6, r7, lr}
  72              		.cfi_def_cfa_offset 32
  73              		.cfi_offset 0, -32
  74              		.cfi_offset 1, -28
  75              		.cfi_offset 2, -24
  76              		.cfi_offset 4, -20
  77              		.cfi_offset 5, -16
  78              		.cfi_offset 6, -12
  79              		.cfi_offset 7, -8
  80              		.cfi_offset 14, -4
 129:.\Generated_Source\PSoC4/CYBLE_tps.c ****     CYBLE_GATT_ERR_CODE_T gattErr = CYBLE_GATT_ERR_NONE;
 130:.\Generated_Source\PSoC4/CYBLE_tps.c ****     uint32 event = CYBLE_EVT_TPSS_NOTIFICATION_DISABLED;
 131:.\Generated_Source\PSoC4/CYBLE_tps.c ****     
 132:.\Generated_Source\PSoC4/CYBLE_tps.c ****     /* Check event code if it defines write request */
 133:.\Generated_Source\PSoC4/CYBLE_tps.c ****     if(NULL != CyBle_TpsApplCallback)
  81              		.loc 1 133 0
  82 0002 184F     		ldr	r7, .L15
 129:.\Generated_Source\PSoC4/CYBLE_tps.c ****     CYBLE_GATT_ERR_CODE_T gattErr = CYBLE_GATT_ERR_NONE;
  83              		.loc 1 129 0
  84 0004 3C68     		ldr	r4, [r7]
  85              		.loc 1 133 0
  86 0006 002C     		cmp	r4, #0
  87 0008 2AD0     		beq	.L6
 134:.\Generated_Source\PSoC4/CYBLE_tps.c ****     {
 135:.\Generated_Source\PSoC4/CYBLE_tps.c ****         /* Client Characteristic Configuration descriptor write request */
 136:.\Generated_Source\PSoC4/CYBLE_tps.c ****         if(eventParam->handleValPair.attrHandle == cyBle_tpss.txPowerLevelCccdHandle)
  88              		.loc 1 136 0
  89 000a 8389     		ldrh	r3, [r0, #12]
 129:.\Generated_Source\PSoC4/CYBLE_tps.c ****     CYBLE_GATT_ERR_CODE_T gattErr = CYBLE_GATT_ERR_NONE;
ARM GAS  C:\Users\mohammed\AppData\Local\Temp\ccLrTqRZ.s 			page 5


  90              		.loc 1 129 0
  91 000c 0024     		mov	r4, #0
  92              		.loc 1 136 0
  93 000e 122B     		cmp	r3, #18
  94 0010 26D1     		bne	.L6
 137:.\Generated_Source\PSoC4/CYBLE_tps.c ****         {
 138:.\Generated_Source\PSoC4/CYBLE_tps.c ****             /* Verify that optional notification property is enabled for Tx Power Level characteris
 139:.\Generated_Source\PSoC4/CYBLE_tps.c ****             if(CYBLE_IS_NOTIFICATION_SUPPORTED(cyBle_tpss.txPowerLevelCharHandle))
  95              		.loc 1 139 0
  96 0012 154B     		ldr	r3, .L15+4
 140:.\Generated_Source\PSoC4/CYBLE_tps.c ****             {
 141:.\Generated_Source\PSoC4/CYBLE_tps.c ****                 if(CYBLE_IS_NOTIFICATION_ENABLED_IN_PTR(eventParam->handleValPair.value.val))
 142:.\Generated_Source\PSoC4/CYBLE_tps.c ****                 {
 143:.\Generated_Source\PSoC4/CYBLE_tps.c ****                     event = CYBLE_EVT_TPSS_NOTIFICATION_ENABLED;
 144:.\Generated_Source\PSoC4/CYBLE_tps.c ****                 }
 145:.\Generated_Source\PSoC4/CYBLE_tps.c ****                 
 146:.\Generated_Source\PSoC4/CYBLE_tps.c ****                 gattErr = CyBle_GattsWriteAttributeValue(&eventParam->handleValPair, 0u, 
 147:.\Generated_Source\PSoC4/CYBLE_tps.c ****                     &eventParam->connHandle, CYBLE_GATT_DB_PEER_INITIATED);
 148:.\Generated_Source\PSoC4/CYBLE_tps.c ****                 
 149:.\Generated_Source\PSoC4/CYBLE_tps.c ****                 if(CYBLE_GATT_ERR_NONE == gattErr)
 150:.\Generated_Source\PSoC4/CYBLE_tps.c ****                 {
 151:.\Generated_Source\PSoC4/CYBLE_tps.c ****                     CYBLE_TPS_CHAR_VALUE_T wrReqParam;
 152:.\Generated_Source\PSoC4/CYBLE_tps.c ****                     
 153:.\Generated_Source\PSoC4/CYBLE_tps.c ****                     wrReqParam.connHandle = eventParam->connHandle;
 154:.\Generated_Source\PSoC4/CYBLE_tps.c ****                     wrReqParam.charIndex = CYBLE_TPS_TX_POWER_LEVEL;
 155:.\Generated_Source\PSoC4/CYBLE_tps.c ****                     wrReqParam.value = NULL;
 156:.\Generated_Source\PSoC4/CYBLE_tps.c ****                     
 157:.\Generated_Source\PSoC4/CYBLE_tps.c ****                     CyBle_TpsApplCallback(event, (void *)&wrReqParam);
 158:.\Generated_Source\PSoC4/CYBLE_tps.c ****                 }
 159:.\Generated_Source\PSoC4/CYBLE_tps.c ****             }
 160:.\Generated_Source\PSoC4/CYBLE_tps.c ****             else
 161:.\Generated_Source\PSoC4/CYBLE_tps.c ****             {
 162:.\Generated_Source\PSoC4/CYBLE_tps.c ****                 gattErr = CYBLE_GATT_ERR_REQUEST_NOT_SUPPORTED;
  97              		.loc 1 162 0
  98 0014 0634     		add	r4, r4, #6
 139:.\Generated_Source\PSoC4/CYBLE_tps.c ****             {
  99              		.loc 1 139 0
 100 0016 FC33     		add	r3, r3, #252
 101 0018 9B6C     		ldr	r3, [r3, #72]
 102 001a DB04     		lsl	r3, r3, #19
 103 001c 1BD5     		bpl	.L7
 104 001e 061C     		mov	r6, r0
 141:.\Generated_Source\PSoC4/CYBLE_tps.c ****                 {
 105              		.loc 1 141 0
 106 0020 4068     		ldr	r0, [r0, #4]
 107              	.LVL2:
 108 0022 FFF7FEFF 		bl	CyBle_Get16ByPtr
 109              	.LVL3:
 110 0026 0123     		mov	r3, #1
 111 0028 1840     		and	r0, r3
 143:.\Generated_Source\PSoC4/CYBLE_tps.c ****                 }
 112              		.loc 1 143 0
 113 002a 4542     		neg	r5, r0
 114 002c 4541     		adc	r5, r5, r0
 146:.\Generated_Source\PSoC4/CYBLE_tps.c ****                     &eventParam->connHandle, CYBLE_GATT_DB_PEER_INITIATED);
 115              		.loc 1 146 0
 116 002e 0021     		mov	r1, #0
ARM GAS  C:\Users\mohammed\AppData\Local\Temp\ccLrTqRZ.s 			page 6


 117 0030 301D     		add	r0, r6, #4
 118 0032 321C     		mov	r2, r6
 119 0034 3F33     		add	r3, r3, #63
 120 0036 FFF7FEFF 		bl	CyBle_GattsWriteAttributeValue
 121              	.LVL4:
 143:.\Generated_Source\PSoC4/CYBLE_tps.c ****                 }
 122              		.loc 1 143 0
 123 003a E835     		add	r5, r5, #232
 124 003c FF35     		add	r5, r5, #255
 125              	.LVL5:
 146:.\Generated_Source\PSoC4/CYBLE_tps.c ****                     &eventParam->connHandle, CYBLE_GATT_DB_PEER_INITIATED);
 126              		.loc 1 146 0
 127 003e 041E     		sub	r4, r0, #0
 128              	.LVL6:
 149:.\Generated_Source\PSoC4/CYBLE_tps.c ****                 {
 129              		.loc 1 149 0
 130 0040 09D1     		bne	.L7
 131              	.LBB2:
 153:.\Generated_Source\PSoC4/CYBLE_tps.c ****                     wrReqParam.charIndex = CYBLE_TPS_TX_POWER_LEVEL;
 132              		.loc 1 153 0
 133 0042 6A46     		mov	r2, sp
 134 0044 3388     		ldrh	r3, [r6]
 155:.\Generated_Source\PSoC4/CYBLE_tps.c ****                     
 135              		.loc 1 155 0
 136 0046 0190     		str	r0, [sp, #4]
 153:.\Generated_Source\PSoC4/CYBLE_tps.c ****                     wrReqParam.charIndex = CYBLE_TPS_TX_POWER_LEVEL;
 137              		.loc 1 153 0
 138 0048 1380     		strh	r3, [r2]
 154:.\Generated_Source\PSoC4/CYBLE_tps.c ****                     wrReqParam.value = NULL;
 139              		.loc 1 154 0
 140 004a 6B46     		mov	r3, sp
 157:.\Generated_Source\PSoC4/CYBLE_tps.c ****                 }
 141              		.loc 1 157 0
 142 004c 6946     		mov	r1, sp
 154:.\Generated_Source\PSoC4/CYBLE_tps.c ****                     wrReqParam.value = NULL;
 143              		.loc 1 154 0
 144 004e 9870     		strb	r0, [r3, #2]
 157:.\Generated_Source\PSoC4/CYBLE_tps.c ****                 }
 145              		.loc 1 157 0
 146 0050 3B68     		ldr	r3, [r7]
 147 0052 281C     		mov	r0, r5
 148              	.LVL7:
 149 0054 9847     		blx	r3
 150              	.LVL8:
 151              	.L7:
 152              	.LBE2:
 163:.\Generated_Source\PSoC4/CYBLE_tps.c ****             }
 164:.\Generated_Source\PSoC4/CYBLE_tps.c ****             /* Indicate that request was handled */
 165:.\Generated_Source\PSoC4/CYBLE_tps.c ****             cyBle_eventHandlerFlag &= (uint8)~CYBLE_CALLBACK;
 153              		.loc 1 165 0
 154 0056 0121     		mov	r1, #1
 155 0058 044A     		ldr	r2, .L15+8
 156 005a 1378     		ldrb	r3, [r2]
 157 005c 8B43     		bic	r3, r1
 158 005e 1370     		strb	r3, [r2]
 159              	.LVL9:
 160              	.L6:
ARM GAS  C:\Users\mohammed\AppData\Local\Temp\ccLrTqRZ.s 			page 7


 166:.\Generated_Source\PSoC4/CYBLE_tps.c ****         }
 167:.\Generated_Source\PSoC4/CYBLE_tps.c ****     }
 168:.\Generated_Source\PSoC4/CYBLE_tps.c ****     
 169:.\Generated_Source\PSoC4/CYBLE_tps.c ****     return(gattErr);
 170:.\Generated_Source\PSoC4/CYBLE_tps.c **** }
 161              		.loc 1 170 0
 162 0060 201C     		mov	r0, r4
 163              		@ sp needed
 164              	.LVL10:
 165 0062 FEBD     		pop	{r1, r2, r3, r4, r5, r6, r7, pc}
 166              	.L16:
 167              		.align	2
 168              	.L15:
 169 0064 00000000 		.word	.LANCHOR0
 170 0068 00000000 		.word	cyBle_gattDB
 171 006c 00000000 		.word	cyBle_eventHandlerFlag
 172              		.cfi_endproc
 173              	.LFE4:
 174              		.size	CyBle_TpssWriteEventHandler, .-CyBle_TpssWriteEventHandler
 175              		.section	.text.CyBle_TpssSetCharacteristicValue,"ax",%progbits
 176              		.align	1
 177              		.global	CyBle_TpssSetCharacteristicValue
 178              		.code	16
 179              		.thumb_func
 180              		.type	CyBle_TpssSetCharacteristicValue, %function
 181              	CyBle_TpssSetCharacteristicValue:
 182              	.LFB5:
 171:.\Generated_Source\PSoC4/CYBLE_tps.c **** 
 172:.\Generated_Source\PSoC4/CYBLE_tps.c **** 
 173:.\Generated_Source\PSoC4/CYBLE_tps.c **** /******************************************************************************
 174:.\Generated_Source\PSoC4/CYBLE_tps.c **** * Function Name: CyBle_TpssSetCharacteristicValue
 175:.\Generated_Source\PSoC4/CYBLE_tps.c **** ***************************************************************************//**
 176:.\Generated_Source\PSoC4/CYBLE_tps.c **** * 
 177:.\Generated_Source\PSoC4/CYBLE_tps.c **** *  Sets characteristic value of the Tx Power Service, which is identified by 
 178:.\Generated_Source\PSoC4/CYBLE_tps.c **** *  charIndex.
 179:.\Generated_Source\PSoC4/CYBLE_tps.c **** * 
 180:.\Generated_Source\PSoC4/CYBLE_tps.c **** *  \param charIndex: The index of the service characteristic.
 181:.\Generated_Source\PSoC4/CYBLE_tps.c **** *  \param attrSize: The size of the characteristic value attribute.
 182:.\Generated_Source\PSoC4/CYBLE_tps.c **** *  \param attrValue: The pointer to the characteristic value data that should be 
 183:.\Generated_Source\PSoC4/CYBLE_tps.c **** *               stored in the GATT database.
 184:.\Generated_Source\PSoC4/CYBLE_tps.c **** * 
 185:.\Generated_Source\PSoC4/CYBLE_tps.c **** * \return
 186:.\Generated_Source\PSoC4/CYBLE_tps.c **** *  Return value is of type CYBLE_API_RESULT_T.
 187:.\Generated_Source\PSoC4/CYBLE_tps.c **** *   * CYBLE_ERROR_OK - The characteristic value was read successfully.
 188:.\Generated_Source\PSoC4/CYBLE_tps.c **** *   * CYBLE_ERROR_INVALID_PARAMETER - Validation of input parameters failed.
 189:.\Generated_Source\PSoC4/CYBLE_tps.c **** *
 190:.\Generated_Source\PSoC4/CYBLE_tps.c **** * \events
 191:.\Generated_Source\PSoC4/CYBLE_tps.c **** *  None
 192:.\Generated_Source\PSoC4/CYBLE_tps.c **** *
 193:.\Generated_Source\PSoC4/CYBLE_tps.c **** ******************************************************************************/
 194:.\Generated_Source\PSoC4/CYBLE_tps.c **** CYBLE_API_RESULT_T CyBle_TpssSetCharacteristicValue(CYBLE_TPS_CHAR_INDEX_T charIndex,
 195:.\Generated_Source\PSoC4/CYBLE_tps.c ****                                                     uint8 attrSize,
 196:.\Generated_Source\PSoC4/CYBLE_tps.c ****                                                     int8 *attrValue)
 197:.\Generated_Source\PSoC4/CYBLE_tps.c **** {
 183              		.loc 1 197 0
 184              		.cfi_startproc
 185              	.LVL11:
ARM GAS  C:\Users\mohammed\AppData\Local\Temp\ccLrTqRZ.s 			page 8


 186 0000 1FB5     		push	{r0, r1, r2, r3, r4, lr}
 187              		.cfi_def_cfa_offset 24
 188              		.cfi_offset 0, -24
 189              		.cfi_offset 1, -20
 190              		.cfi_offset 2, -16
 191              		.cfi_offset 3, -12
 192              		.cfi_offset 4, -8
 193              		.cfi_offset 14, -4
 194              		.loc 1 197 0
 195 0002 031C     		mov	r3, r0
 198:.\Generated_Source\PSoC4/CYBLE_tps.c ****     CYBLE_GATT_HANDLE_VALUE_PAIR_T locHandleValuePair;
 199:.\Generated_Source\PSoC4/CYBLE_tps.c ****     CYBLE_API_RESULT_T apiResult = CYBLE_ERROR_INVALID_PARAMETER;
 196              		.loc 1 199 0
 197 0004 0120     		mov	r0, #1
 198              	.LVL12:
 200:.\Generated_Source\PSoC4/CYBLE_tps.c **** 
 201:.\Generated_Source\PSoC4/CYBLE_tps.c ****     if(charIndex < CYBLE_TPS_CHAR_COUNT)
 199              		.loc 1 201 0
 200 0006 002B     		cmp	r3, #0
 201 0008 10D1     		bne	.L18
 202:.\Generated_Source\PSoC4/CYBLE_tps.c ****     {
 203:.\Generated_Source\PSoC4/CYBLE_tps.c ****         if((*attrValue <= CYBLE_TPS_TX_POWER_LEVEL_MAX) && (*attrValue >= CYBLE_TPS_TX_POWER_LEVEL_
 202              		.loc 1 203 0
 203 000a 1478     		ldrb	r4, [r2]
 204 000c 1234     		add	r4, r4, #18
 205 000e E4B2     		uxtb	r4, r4
 206 0010 152C     		cmp	r4, #21
 207 0012 0BD8     		bhi	.L18
 204:.\Generated_Source\PSoC4/CYBLE_tps.c ****         {
 205:.\Generated_Source\PSoC4/CYBLE_tps.c ****             locHandleValuePair.attrHandle = cyBle_tpss.txPowerLevelCharHandle;
 208              		.loc 1 205 0
 209 0014 1124     		mov	r4, #17
 210 0016 01A8     		add	r0, sp, #4
 206:.\Generated_Source\PSoC4/CYBLE_tps.c ****             locHandleValuePair.value.len = attrSize;
 211              		.loc 1 206 0
 212 0018 8180     		strh	r1, [r0, #4]
 207:.\Generated_Source\PSoC4/CYBLE_tps.c ****             locHandleValuePair.value.val = (uint8 *) attrValue;
 213              		.loc 1 207 0
 214 001a 0192     		str	r2, [sp, #4]
 208:.\Generated_Source\PSoC4/CYBLE_tps.c ****             
 209:.\Generated_Source\PSoC4/CYBLE_tps.c ****             /* Set Tx Power Level characteristic value to GATT database.
 210:.\Generated_Source\PSoC4/CYBLE_tps.c ****                 Need to handle return type difference of CyBle_GattsWriteAttributeValue() and
 211:.\Generated_Source\PSoC4/CYBLE_tps.c ****                 CyBle_TpssSetCharacteristicValue(). */
 212:.\Generated_Source\PSoC4/CYBLE_tps.c ****             if(CYBLE_GATT_ERR_NONE == 
 213:.\Generated_Source\PSoC4/CYBLE_tps.c ****                 CyBle_GattsWriteAttributeValue(&locHandleValuePair, 0u, NULL, CYBLE_GATT_DB_LOCALLY
 215              		.loc 1 213 0
 216 001c 191C     		mov	r1, r3
 217              	.LVL13:
 218 001e 1A1C     		mov	r2, r3
 219              	.LVL14:
 205:.\Generated_Source\PSoC4/CYBLE_tps.c ****             locHandleValuePair.value.len = attrSize;
 220              		.loc 1 205 0
 221 0020 0481     		strh	r4, [r0, #8]
 222              		.loc 1 213 0
 223 0022 FFF7FEFF 		bl	CyBle_GattsWriteAttributeValue
 224              	.LVL15:
 212:.\Generated_Source\PSoC4/CYBLE_tps.c ****                 CyBle_GattsWriteAttributeValue(&locHandleValuePair, 0u, NULL, CYBLE_GATT_DB_LOCALLY
ARM GAS  C:\Users\mohammed\AppData\Local\Temp\ccLrTqRZ.s 			page 9


 225              		.loc 1 212 0
 226 0026 431E     		sub	r3, r0, #1
 227 0028 9841     		sbc	r0, r0, r3
 199:.\Generated_Source\PSoC4/CYBLE_tps.c **** 
 228              		.loc 1 199 0
 229 002a 80B2     		uxth	r0, r0
 230              	.L18:
 231              	.LVL16:
 214:.\Generated_Source\PSoC4/CYBLE_tps.c ****             {
 215:.\Generated_Source\PSoC4/CYBLE_tps.c ****                 /* Indicate success */
 216:.\Generated_Source\PSoC4/CYBLE_tps.c ****                 apiResult = CYBLE_ERROR_OK;
 217:.\Generated_Source\PSoC4/CYBLE_tps.c ****             }
 218:.\Generated_Source\PSoC4/CYBLE_tps.c ****         }
 219:.\Generated_Source\PSoC4/CYBLE_tps.c ****     }
 220:.\Generated_Source\PSoC4/CYBLE_tps.c ****     
 221:.\Generated_Source\PSoC4/CYBLE_tps.c ****     /* Return status */
 222:.\Generated_Source\PSoC4/CYBLE_tps.c ****     return(apiResult);
 223:.\Generated_Source\PSoC4/CYBLE_tps.c **** }
 232              		.loc 1 223 0
 233 002c 04B0     		add	sp, sp, #16
 234              		@ sp needed
 235 002e 10BD     		pop	{r4, pc}
 236              		.cfi_endproc
 237              	.LFE5:
 238              		.size	CyBle_TpssSetCharacteristicValue, .-CyBle_TpssSetCharacteristicValue
 239              		.section	.text.CyBle_TpssGetCharacteristicValue,"ax",%progbits
 240              		.align	1
 241              		.global	CyBle_TpssGetCharacteristicValue
 242              		.code	16
 243              		.thumb_func
 244              		.type	CyBle_TpssGetCharacteristicValue, %function
 245              	CyBle_TpssGetCharacteristicValue:
 246              	.LFB6:
 224:.\Generated_Source\PSoC4/CYBLE_tps.c **** 
 225:.\Generated_Source\PSoC4/CYBLE_tps.c **** 
 226:.\Generated_Source\PSoC4/CYBLE_tps.c **** /******************************************************************************
 227:.\Generated_Source\PSoC4/CYBLE_tps.c **** * Function Name: CyBle_TpssGetCharacteristicValue
 228:.\Generated_Source\PSoC4/CYBLE_tps.c **** ***************************************************************************//**
 229:.\Generated_Source\PSoC4/CYBLE_tps.c **** * 
 230:.\Generated_Source\PSoC4/CYBLE_tps.c **** *  Gets characteristic value of the Tx Power Service, which is identified by 
 231:.\Generated_Source\PSoC4/CYBLE_tps.c **** *  charIndex.
 232:.\Generated_Source\PSoC4/CYBLE_tps.c **** * 
 233:.\Generated_Source\PSoC4/CYBLE_tps.c **** *  \param charIndex: The index of the Tx Power characteristic.
 234:.\Generated_Source\PSoC4/CYBLE_tps.c **** *  \param attrSize: The size of the Tx Power characteristic value attribute.
 235:.\Generated_Source\PSoC4/CYBLE_tps.c **** *  \param attrValue: The pointer to the location where Tx Power characteristic
 236:.\Generated_Source\PSoC4/CYBLE_tps.c **** *               value data should be stored.
 237:.\Generated_Source\PSoC4/CYBLE_tps.c **** * 
 238:.\Generated_Source\PSoC4/CYBLE_tps.c **** * \return
 239:.\Generated_Source\PSoC4/CYBLE_tps.c **** *  Return value is of type CYBLE_API_RESULT_T.
 240:.\Generated_Source\PSoC4/CYBLE_tps.c **** *   * CYBLE_ERROR_OK - Characteristic value was read successfully
 241:.\Generated_Source\PSoC4/CYBLE_tps.c **** *   * CYBLE_ERROR_INVALID_PARAMETER - Validation of the input parameters failed
 242:.\Generated_Source\PSoC4/CYBLE_tps.c **** *
 243:.\Generated_Source\PSoC4/CYBLE_tps.c **** * \events
 244:.\Generated_Source\PSoC4/CYBLE_tps.c **** *  None
 245:.\Generated_Source\PSoC4/CYBLE_tps.c **** *
 246:.\Generated_Source\PSoC4/CYBLE_tps.c **** ******************************************************************************/
 247:.\Generated_Source\PSoC4/CYBLE_tps.c **** CYBLE_API_RESULT_T CyBle_TpssGetCharacteristicValue(CYBLE_TPS_CHAR_INDEX_T charIndex,
ARM GAS  C:\Users\mohammed\AppData\Local\Temp\ccLrTqRZ.s 			page 10


 248:.\Generated_Source\PSoC4/CYBLE_tps.c ****                                                     uint8 attrSize,
 249:.\Generated_Source\PSoC4/CYBLE_tps.c ****                                                     int8 *attrValue)
 250:.\Generated_Source\PSoC4/CYBLE_tps.c **** {
 247              		.loc 1 250 0
 248              		.cfi_startproc
 249              	.LVL17:
 250 0000 1FB5     		push	{r0, r1, r2, r3, r4, lr}
 251              		.cfi_def_cfa_offset 24
 252              		.cfi_offset 0, -24
 253              		.cfi_offset 1, -20
 254              		.cfi_offset 2, -16
 255              		.cfi_offset 3, -12
 256              		.cfi_offset 4, -8
 257              		.cfi_offset 14, -4
 251:.\Generated_Source\PSoC4/CYBLE_tps.c ****     CYBLE_GATT_HANDLE_VALUE_PAIR_T locHandleValuePair;
 252:.\Generated_Source\PSoC4/CYBLE_tps.c ****     CYBLE_API_RESULT_T apiResult = CYBLE_ERROR_INVALID_PARAMETER;
 258              		.loc 1 252 0
 259 0002 0123     		mov	r3, #1
 253:.\Generated_Source\PSoC4/CYBLE_tps.c **** 
 254:.\Generated_Source\PSoC4/CYBLE_tps.c ****     if((NULL != attrValue) && (CYBLE_TPS_TX_POWER_LEVEL == charIndex) && (CYBLE_TPS_TX_POWER_LEVEL_
 260              		.loc 1 254 0
 261 0004 002A     		cmp	r2, #0
 262 0006 10D0     		beq	.L22
 263              		.loc 1 254 0 is_stmt 0 discriminator 1
 264 0008 0028     		cmp	r0, #0
 265 000a 0ED1     		bne	.L22
 266              		.loc 1 254 0 discriminator 2
 267 000c 9942     		cmp	r1, r3
 268 000e 0CD1     		bne	.L22
 269 0010 111C     		mov	r1, r2
 270              	.LVL18:
 271 0012 021C     		mov	r2, r0
 272              	.LVL19:
 255:.\Generated_Source\PSoC4/CYBLE_tps.c ****     {
 256:.\Generated_Source\PSoC4/CYBLE_tps.c ****         locHandleValuePair.attrHandle = cyBle_tpss.txPowerLevelCharHandle;
 273              		.loc 1 256 0 is_stmt 1
 274 0014 1124     		mov	r4, #17
 275 0016 01A8     		add	r0, sp, #4
 276              	.LVL20:
 257:.\Generated_Source\PSoC4/CYBLE_tps.c ****         locHandleValuePair.value.len = attrSize;
 258:.\Generated_Source\PSoC4/CYBLE_tps.c ****         locHandleValuePair.value.val = (uint8 *)attrValue;
 277              		.loc 1 258 0
 278 0018 0191     		str	r1, [sp, #4]
 259:.\Generated_Source\PSoC4/CYBLE_tps.c ****         
 260:.\Generated_Source\PSoC4/CYBLE_tps.c ****         /* Get Tx Power Level characteristic value from GATT database */
 261:.\Generated_Source\PSoC4/CYBLE_tps.c ****         if(CYBLE_GATT_ERR_NONE == 
 262:.\Generated_Source\PSoC4/CYBLE_tps.c ****             CyBle_GattsReadAttributeValue(&locHandleValuePair, NULL, CYBLE_GATT_DB_LOCALLY_INITIATE
 279              		.loc 1 262 0
 280 001a 111C     		mov	r1, r2
 281              	.LVL21:
 257:.\Generated_Source\PSoC4/CYBLE_tps.c ****         locHandleValuePair.value.len = attrSize;
 282              		.loc 1 257 0
 283 001c 8380     		strh	r3, [r0, #4]
 256:.\Generated_Source\PSoC4/CYBLE_tps.c ****         locHandleValuePair.value.len = attrSize;
 284              		.loc 1 256 0
 285 001e 0481     		strh	r4, [r0, #8]
 286              		.loc 1 262 0
ARM GAS  C:\Users\mohammed\AppData\Local\Temp\ccLrTqRZ.s 			page 11


 287 0020 FFF7FEFF 		bl	CyBle_GattsReadAttributeValue
 288              	.LVL22:
 261:.\Generated_Source\PSoC4/CYBLE_tps.c ****             CyBle_GattsReadAttributeValue(&locHandleValuePair, NULL, CYBLE_GATT_DB_LOCALLY_INITIATE
 289              		.loc 1 261 0
 290 0024 431E     		sub	r3, r0, #1
 291 0026 9841     		sbc	r0, r0, r3
 252:.\Generated_Source\PSoC4/CYBLE_tps.c **** 
 292              		.loc 1 252 0
 293 0028 83B2     		uxth	r3, r0
 294              	.L22:
 295              	.LVL23:
 263:.\Generated_Source\PSoC4/CYBLE_tps.c ****         {
 264:.\Generated_Source\PSoC4/CYBLE_tps.c ****             /* Indicate success */
 265:.\Generated_Source\PSoC4/CYBLE_tps.c ****             apiResult = CYBLE_ERROR_OK;
 266:.\Generated_Source\PSoC4/CYBLE_tps.c ****         }
 267:.\Generated_Source\PSoC4/CYBLE_tps.c ****     }
 268:.\Generated_Source\PSoC4/CYBLE_tps.c ****     
 269:.\Generated_Source\PSoC4/CYBLE_tps.c ****     /* Return status */
 270:.\Generated_Source\PSoC4/CYBLE_tps.c ****     return(apiResult);
 271:.\Generated_Source\PSoC4/CYBLE_tps.c **** }
 296              		.loc 1 271 0
 297 002a 181C     		mov	r0, r3
 298 002c 04B0     		add	sp, sp, #16
 299              		@ sp needed
 300 002e 10BD     		pop	{r4, pc}
 301              		.cfi_endproc
 302              	.LFE6:
 303              		.size	CyBle_TpssGetCharacteristicValue, .-CyBle_TpssGetCharacteristicValue
 304              		.section	.text.CyBle_TpssGetCharacteristicDescriptor,"ax",%progbits
 305              		.align	1
 306              		.global	CyBle_TpssGetCharacteristicDescriptor
 307              		.code	16
 308              		.thumb_func
 309              		.type	CyBle_TpssGetCharacteristicDescriptor, %function
 310              	CyBle_TpssGetCharacteristicDescriptor:
 311              	.LFB7:
 272:.\Generated_Source\PSoC4/CYBLE_tps.c **** 
 273:.\Generated_Source\PSoC4/CYBLE_tps.c **** 
 274:.\Generated_Source\PSoC4/CYBLE_tps.c **** /******************************************************************************
 275:.\Generated_Source\PSoC4/CYBLE_tps.c **** * Function Name: CyBle_TpssGetCharacteristicDescriptor
 276:.\Generated_Source\PSoC4/CYBLE_tps.c **** ***************************************************************************//**
 277:.\Generated_Source\PSoC4/CYBLE_tps.c **** * 
 278:.\Generated_Source\PSoC4/CYBLE_tps.c **** *  Gets characteristic descriptor of specified characteristic of the Tx Power
 279:.\Generated_Source\PSoC4/CYBLE_tps.c **** *  Service.
 280:.\Generated_Source\PSoC4/CYBLE_tps.c **** * 
 281:.\Generated_Source\PSoC4/CYBLE_tps.c **** *  \param charIndex: The index of the characteristic.
 282:.\Generated_Source\PSoC4/CYBLE_tps.c **** *  \param descrIndex: The index of the descriptor.
 283:.\Generated_Source\PSoC4/CYBLE_tps.c **** *  \param attrSize: The size of the characteristic value attribute.
 284:.\Generated_Source\PSoC4/CYBLE_tps.c **** *  \param attrValue: The pointer to the location where characteristic descriptor value
 285:.\Generated_Source\PSoC4/CYBLE_tps.c **** *               data should be stored.
 286:.\Generated_Source\PSoC4/CYBLE_tps.c **** * 
 287:.\Generated_Source\PSoC4/CYBLE_tps.c **** * \return
 288:.\Generated_Source\PSoC4/CYBLE_tps.c **** *  Return value is of type CYBLE_API_RESULT_T.
 289:.\Generated_Source\PSoC4/CYBLE_tps.c **** *   * CYBLE_ERROR_OK - Characteristic Descriptor value was read successfully
 290:.\Generated_Source\PSoC4/CYBLE_tps.c **** *   * CYBLE_ERROR_INVALID_PARAMETER - Validation of input parameters failed
 291:.\Generated_Source\PSoC4/CYBLE_tps.c **** *   * CYBLE_ERROR_GATT_DB_INVALID_ATTR_HANDLE - Optional descriptor is absent
 292:.\Generated_Source\PSoC4/CYBLE_tps.c **** *
ARM GAS  C:\Users\mohammed\AppData\Local\Temp\ccLrTqRZ.s 			page 12


 293:.\Generated_Source\PSoC4/CYBLE_tps.c **** * \events
 294:.\Generated_Source\PSoC4/CYBLE_tps.c **** *  None
 295:.\Generated_Source\PSoC4/CYBLE_tps.c **** *
 296:.\Generated_Source\PSoC4/CYBLE_tps.c **** ******************************************************************************/
 297:.\Generated_Source\PSoC4/CYBLE_tps.c **** CYBLE_API_RESULT_T CyBle_TpssGetCharacteristicDescriptor(CYBLE_TPS_CHAR_INDEX_T charIndex,
 298:.\Generated_Source\PSoC4/CYBLE_tps.c ****                                                          CYBLE_TPS_CHAR_DESCRIPTORS_T descrIndex,
 299:.\Generated_Source\PSoC4/CYBLE_tps.c ****                                                          uint8 attrSize,
 300:.\Generated_Source\PSoC4/CYBLE_tps.c ****                                                          uint8 *attrValue)
 301:.\Generated_Source\PSoC4/CYBLE_tps.c **** {
 312              		.loc 1 301 0
 313              		.cfi_startproc
 314              	.LVL24:
 315 0000 30B5     		push	{r4, r5, lr}
 316              		.cfi_def_cfa_offset 12
 317              		.cfi_offset 4, -12
 318              		.cfi_offset 5, -8
 319              		.cfi_offset 14, -4
 320 0002 051C     		mov	r5, r0
 321 0004 85B0     		sub	sp, sp, #20
 322              		.cfi_def_cfa_offset 32
 323              		.loc 1 301 0
 324 0006 0C1C     		mov	r4, r1
 302:.\Generated_Source\PSoC4/CYBLE_tps.c ****     CYBLE_GATT_HANDLE_VALUE_PAIR_T locHandleValuePair;
 303:.\Generated_Source\PSoC4/CYBLE_tps.c ****     CYBLE_API_RESULT_T apiResult = CYBLE_ERROR_INVALID_PARAMETER;
 325              		.loc 1 303 0
 326 0008 0120     		mov	r0, #1
 327              	.LVL25:
 304:.\Generated_Source\PSoC4/CYBLE_tps.c **** 
 305:.\Generated_Source\PSoC4/CYBLE_tps.c ****     if((charIndex == CYBLE_TPS_TX_POWER_LEVEL) && (descrIndex == CYBLE_TPS_CCCD))
 328              		.loc 1 305 0
 329 000a 002D     		cmp	r5, #0
 330 000c 0DD1     		bne	.L27
 331              		.loc 1 305 0 is_stmt 0 discriminator 1
 332 000e 0029     		cmp	r1, #0
 333 0010 0BD1     		bne	.L27
 306:.\Generated_Source\PSoC4/CYBLE_tps.c ****     {
 307:.\Generated_Source\PSoC4/CYBLE_tps.c ****         if(CYBLE_GATT_INVALID_ATTR_HANDLE_VALUE != cyBle_tpss.txPowerLevelCccdHandle)
 308:.\Generated_Source\PSoC4/CYBLE_tps.c ****         {
 309:.\Generated_Source\PSoC4/CYBLE_tps.c ****             locHandleValuePair.attrHandle = cyBle_tpss.txPowerLevelCccdHandle;
 334              		.loc 1 309 0 is_stmt 1
 335 0012 1221     		mov	r1, #18
 336              	.LVL26:
 337 0014 01A8     		add	r0, sp, #4
 338 0016 0181     		strh	r1, [r0, #8]
 310:.\Generated_Source\PSoC4/CYBLE_tps.c ****             locHandleValuePair.value.len = attrSize;
 339              		.loc 1 310 0
 340 0018 8280     		strh	r2, [r0, #4]
 311:.\Generated_Source\PSoC4/CYBLE_tps.c ****             locHandleValuePair.value.val = (uint8 *) attrValue;
 312:.\Generated_Source\PSoC4/CYBLE_tps.c ****             
 313:.\Generated_Source\PSoC4/CYBLE_tps.c ****             /* Set Client Characteristic Configuration Descriptor of Tx Power Level 
 314:.\Generated_Source\PSoC4/CYBLE_tps.c ****                 characteristic to GATT database.
 315:.\Generated_Source\PSoC4/CYBLE_tps.c ****                 Need to handle return type difference of CyBle_GattsWriteAttributeValue() and
 316:.\Generated_Source\PSoC4/CYBLE_tps.c ****                 CyBle_TpssGetCharacteristicDescriptor(). */
 317:.\Generated_Source\PSoC4/CYBLE_tps.c ****             if(CYBLE_GATT_ERR_NONE == 
 318:.\Generated_Source\PSoC4/CYBLE_tps.c ****                 CyBle_GattsReadAttributeValue(&locHandleValuePair, NULL, CYBLE_GATT_DB_LOCALLY_INIT
 341              		.loc 1 318 0
 342 001a 211C     		mov	r1, r4
ARM GAS  C:\Users\mohammed\AppData\Local\Temp\ccLrTqRZ.s 			page 13


 343 001c 221C     		mov	r2, r4
 344              	.LVL27:
 311:.\Generated_Source\PSoC4/CYBLE_tps.c ****             locHandleValuePair.value.val = (uint8 *) attrValue;
 345              		.loc 1 311 0
 346 001e 0193     		str	r3, [sp, #4]
 347              		.loc 1 318 0
 348 0020 FFF7FEFF 		bl	CyBle_GattsReadAttributeValue
 349              	.LVL28:
 317:.\Generated_Source\PSoC4/CYBLE_tps.c ****                 CyBle_GattsReadAttributeValue(&locHandleValuePair, NULL, CYBLE_GATT_DB_LOCALLY_INIT
 350              		.loc 1 317 0
 351 0024 431E     		sub	r3, r0, #1
 352 0026 9841     		sbc	r0, r0, r3
 303:.\Generated_Source\PSoC4/CYBLE_tps.c **** 
 353              		.loc 1 303 0
 354 0028 80B2     		uxth	r0, r0
 355              	.L27:
 356              	.LVL29:
 319:.\Generated_Source\PSoC4/CYBLE_tps.c ****             {
 320:.\Generated_Source\PSoC4/CYBLE_tps.c ****                 /* Indicate success */
 321:.\Generated_Source\PSoC4/CYBLE_tps.c ****                 apiResult = CYBLE_ERROR_OK;
 322:.\Generated_Source\PSoC4/CYBLE_tps.c ****             }
 323:.\Generated_Source\PSoC4/CYBLE_tps.c ****         }
 324:.\Generated_Source\PSoC4/CYBLE_tps.c ****         else
 325:.\Generated_Source\PSoC4/CYBLE_tps.c ****         {
 326:.\Generated_Source\PSoC4/CYBLE_tps.c ****             apiResult = CYBLE_ERROR_GATT_DB_INVALID_ATTR_HANDLE;
 327:.\Generated_Source\PSoC4/CYBLE_tps.c ****         }
 328:.\Generated_Source\PSoC4/CYBLE_tps.c ****     }
 329:.\Generated_Source\PSoC4/CYBLE_tps.c **** 
 330:.\Generated_Source\PSoC4/CYBLE_tps.c ****     return (apiResult);
 331:.\Generated_Source\PSoC4/CYBLE_tps.c **** }
 357              		.loc 1 331 0
 358 002a 05B0     		add	sp, sp, #20
 359              		@ sp needed
 360 002c 30BD     		pop	{r4, r5, pc}
 361              		.cfi_endproc
 362              	.LFE7:
 363              		.size	CyBle_TpssGetCharacteristicDescriptor, .-CyBle_TpssGetCharacteristicDescriptor
 364              		.section	.text.CyBle_TpssSendNotification,"ax",%progbits
 365              		.align	1
 366              		.global	CyBle_TpssSendNotification
 367              		.code	16
 368              		.thumb_func
 369              		.type	CyBle_TpssSendNotification, %function
 370              	CyBle_TpssSendNotification:
 371              	.LFB8:
 332:.\Generated_Source\PSoC4/CYBLE_tps.c **** 
 333:.\Generated_Source\PSoC4/CYBLE_tps.c **** 
 334:.\Generated_Source\PSoC4/CYBLE_tps.c **** /******************************************************************************
 335:.\Generated_Source\PSoC4/CYBLE_tps.c **** * Function Name: CyBle_TpssSendNotification
 336:.\Generated_Source\PSoC4/CYBLE_tps.c **** ***************************************************************************//**
 337:.\Generated_Source\PSoC4/CYBLE_tps.c **** * 
 338:.\Generated_Source\PSoC4/CYBLE_tps.c **** *  Sends a notification with the characteristic value, as specified by charIndex,
 339:.\Generated_Source\PSoC4/CYBLE_tps.c **** *  to the Client device.
 340:.\Generated_Source\PSoC4/CYBLE_tps.c **** * 
 341:.\Generated_Source\PSoC4/CYBLE_tps.c **** *  The CYBLE_EVT_TPSC_NOTIFICATION event is received by the peer device on 
 342:.\Generated_Source\PSoC4/CYBLE_tps.c **** *  invoking this function.
 343:.\Generated_Source\PSoC4/CYBLE_tps.c **** * 
ARM GAS  C:\Users\mohammed\AppData\Local\Temp\ccLrTqRZ.s 			page 14


 344:.\Generated_Source\PSoC4/CYBLE_tps.c **** *  \param connHandle: The connection handle.
 345:.\Generated_Source\PSoC4/CYBLE_tps.c **** *  \param charIndex: The index of the service characteristic.
 346:.\Generated_Source\PSoC4/CYBLE_tps.c **** *  \param attrSize: The size of the characteristic value attribute.
 347:.\Generated_Source\PSoC4/CYBLE_tps.c **** *  \param attrValue: The pointer to the characteristic value data that should be 
 348:.\Generated_Source\PSoC4/CYBLE_tps.c **** *               sent to the client's device.
 349:.\Generated_Source\PSoC4/CYBLE_tps.c **** * 
 350:.\Generated_Source\PSoC4/CYBLE_tps.c **** * \return
 351:.\Generated_Source\PSoC4/CYBLE_tps.c **** *  Return value is of type CYBLE_API_RESULT_T.
 352:.\Generated_Source\PSoC4/CYBLE_tps.c **** *   * CYBLE_ERROR_OK - The request handled successfully.
 353:.\Generated_Source\PSoC4/CYBLE_tps.c **** *   * CYBLE_ERROR_INVALID_PARAMETER - Validation of input parameter failed.
 354:.\Generated_Source\PSoC4/CYBLE_tps.c **** *   * CYBLE_ERROR_INVALID_OPERATION - Operation is invalid for this.
 355:.\Generated_Source\PSoC4/CYBLE_tps.c **** *                                      characteristic.
 356:.\Generated_Source\PSoC4/CYBLE_tps.c **** *   * CYBLE_ERROR_INVALID_STATE - Connection with client is not established.
 357:.\Generated_Source\PSoC4/CYBLE_tps.c **** *   * CYBLE_ERROR_NTF_DISABLED - Notification is not enabled by the client.
 358:.\Generated_Source\PSoC4/CYBLE_tps.c **** *   * CYBLE_ERROR_MEMORY_ALLOCATION_FAILED - Memory allocation failed.
 359:.\Generated_Source\PSoC4/CYBLE_tps.c **** *
 360:.\Generated_Source\PSoC4/CYBLE_tps.c **** * \events
 361:.\Generated_Source\PSoC4/CYBLE_tps.c **** *  None
 362:.\Generated_Source\PSoC4/CYBLE_tps.c **** *
 363:.\Generated_Source\PSoC4/CYBLE_tps.c **** ******************************************************************************/
 364:.\Generated_Source\PSoC4/CYBLE_tps.c **** CYBLE_API_RESULT_T CyBle_TpssSendNotification(CYBLE_CONN_HANDLE_T connHandle, 
 365:.\Generated_Source\PSoC4/CYBLE_tps.c ****                                               CYBLE_TPS_CHAR_INDEX_T charIndex,
 366:.\Generated_Source\PSoC4/CYBLE_tps.c ****                                               uint8 attrSize,
 367:.\Generated_Source\PSoC4/CYBLE_tps.c ****                                               int8 *attrValue)
 368:.\Generated_Source\PSoC4/CYBLE_tps.c **** {
 372              		.loc 1 368 0
 373              		.cfi_startproc
 374              	.LVL30:
 375 0000 F0B5     		push	{r4, r5, r6, r7, lr}
 376              		.cfi_def_cfa_offset 20
 377              		.cfi_offset 4, -20
 378              		.cfi_offset 5, -16
 379              		.cfi_offset 6, -12
 380              		.cfi_offset 7, -8
 381              		.cfi_offset 14, -4
 382 0002 87B0     		sub	sp, sp, #28
 383              		.cfi_def_cfa_offset 48
 384              		.loc 1 368 0
 385 0004 01AF     		add	r7, sp, #4
 386 0006 3880     		strh	r0, [r7]
 387 0008 0D1C     		mov	r5, r1
 388 000a 161C     		mov	r6, r2
 389 000c 0093     		str	r3, [sp]
 369:.\Generated_Source\PSoC4/CYBLE_tps.c ****     CYBLE_GATTS_HANDLE_VALUE_NTF_T ntfReqParam;
 370:.\Generated_Source\PSoC4/CYBLE_tps.c ****     CYBLE_API_RESULT_T apiResult = CYBLE_ERROR_INVALID_PARAMETER;
 371:.\Generated_Source\PSoC4/CYBLE_tps.c ****   
 372:.\Generated_Source\PSoC4/CYBLE_tps.c ****     if((NULL != attrValue) && (CYBLE_TPS_TX_POWER_LEVEL == charIndex) && (CYBLE_TPS_TX_POWER_LEVEL_
 390              		.loc 1 372 0
 391 000e 002B     		cmp	r3, #0
 392 0010 01D1     		bne	.L31
 393              	.LVL31:
 394              	.L33:
 370:.\Generated_Source\PSoC4/CYBLE_tps.c ****   
 395              		.loc 1 370 0
 396 0012 0120     		mov	r0, #1
 397 0014 27E0     		b	.L32
 398              	.LVL32:
ARM GAS  C:\Users\mohammed\AppData\Local\Temp\ccLrTqRZ.s 			page 15


 399              	.L31:
 400              		.loc 1 372 0 discriminator 1
 401 0016 0029     		cmp	r1, #0
 402 0018 FBD1     		bne	.L33
 403              		.loc 1 372 0 is_stmt 0 discriminator 2
 404 001a 012A     		cmp	r2, #1
 405 001c F9D1     		bne	.L33
 373:.\Generated_Source\PSoC4/CYBLE_tps.c ****     {
 374:.\Generated_Source\PSoC4/CYBLE_tps.c ****         if(CYBLE_IS_NOTIFICATION_ENABLED(cyBle_tpss.txPowerLevelCccdHandle))
 406              		.loc 1 374 0 is_stmt 1
 407 001e 134B     		ldr	r3, .L36
 408              	.LVL33:
 409 0020 FC33     		add	r3, r3, #252
 410 0022 9B6E     		ldr	r3, [r3, #104]
 411 0024 5868     		ldr	r0, [r3, #4]
 412 0026 FFF7FEFF 		bl	CyBle_Get16ByPtr
 413              	.LVL34:
 414 002a 3042     		tst	r0, r6
 415 002c 16D0     		beq	.L34
 375:.\Generated_Source\PSoC4/CYBLE_tps.c ****         {
 376:.\Generated_Source\PSoC4/CYBLE_tps.c ****             /* Fill all fields of write request structure ... */
 377:.\Generated_Source\PSoC4/CYBLE_tps.c ****             ntfReqParam.attrHandle = cyBle_tpss.txPowerLevelCharHandle; 
 416              		.loc 1 377 0
 417 002e 1123     		mov	r3, #17
 418 0030 03AC     		add	r4, sp, #12
 419 0032 2381     		strh	r3, [r4, #8]
 378:.\Generated_Source\PSoC4/CYBLE_tps.c ****             ntfReqParam.value.val = (uint8 *) attrValue;
 420              		.loc 1 378 0
 421 0034 009B     		ldr	r3, [sp]
 379:.\Generated_Source\PSoC4/CYBLE_tps.c ****             ntfReqParam.value.len = attrSize;
 380:.\Generated_Source\PSoC4/CYBLE_tps.c **** 
 381:.\Generated_Source\PSoC4/CYBLE_tps.c ****             /* Set Tx Power Level characteristic value to GATT database.
 382:.\Generated_Source\PSoC4/CYBLE_tps.c ****                 Need to handle return type difference of CyBle_GattsWriteAttributeValue() and
 383:.\Generated_Source\PSoC4/CYBLE_tps.c ****                 CyBle_TpssSetCharacteristicValue(). */
 384:.\Generated_Source\PSoC4/CYBLE_tps.c ****             if(CYBLE_GATT_ERR_NONE == 
 385:.\Generated_Source\PSoC4/CYBLE_tps.c ****                 CyBle_GattsWriteAttributeValue(&ntfReqParam, 0u, NULL, CYBLE_GATT_DB_LOCALLY_INITIA
 422              		.loc 1 385 0
 423 0036 201C     		mov	r0, r4
 378:.\Generated_Source\PSoC4/CYBLE_tps.c ****             ntfReqParam.value.val = (uint8 *) attrValue;
 424              		.loc 1 378 0
 425 0038 0393     		str	r3, [sp, #12]
 426              		.loc 1 385 0
 427 003a 291C     		mov	r1, r5
 428 003c 2A1C     		mov	r2, r5
 429 003e 2B1C     		mov	r3, r5
 379:.\Generated_Source\PSoC4/CYBLE_tps.c ****             ntfReqParam.value.len = attrSize;
 430              		.loc 1 379 0
 431 0040 A680     		strh	r6, [r4, #4]
 432              		.loc 1 385 0
 433 0042 FFF7FEFF 		bl	CyBle_GattsWriteAttributeValue
 434              	.LVL35:
 384:.\Generated_Source\PSoC4/CYBLE_tps.c ****                 CyBle_GattsWriteAttributeValue(&ntfReqParam, 0u, NULL, CYBLE_GATT_DB_LOCALLY_INITIA
 435              		.loc 1 384 0
 436 0046 0028     		cmp	r0, #0
 437 0048 E3D1     		bne	.L33
 386:.\Generated_Source\PSoC4/CYBLE_tps.c ****             {
 387:.\Generated_Source\PSoC4/CYBLE_tps.c ****                 if(CYBLE_STATE_CONNECTED != CyBle_GetState())
ARM GAS  C:\Users\mohammed\AppData\Local\Temp\ccLrTqRZ.s 			page 16


 438              		.loc 1 387 0
 439 004a 094B     		ldr	r3, .L36+4
 440 004c 1B78     		ldrb	r3, [r3]
 441 004e 022B     		cmp	r3, #2
 442 0050 07D1     		bne	.L35
 388:.\Generated_Source\PSoC4/CYBLE_tps.c ****                 {
 389:.\Generated_Source\PSoC4/CYBLE_tps.c ****                     apiResult = CYBLE_ERROR_INVALID_STATE;
 390:.\Generated_Source\PSoC4/CYBLE_tps.c ****                 }
 391:.\Generated_Source\PSoC4/CYBLE_tps.c ****                 else
 392:.\Generated_Source\PSoC4/CYBLE_tps.c ****                 {
 393:.\Generated_Source\PSoC4/CYBLE_tps.c ****                     /* Send notification to client using previously filled structure */
 394:.\Generated_Source\PSoC4/CYBLE_tps.c ****                     apiResult = CyBle_GattsNotification(connHandle, &ntfReqParam);
 443              		.loc 1 394 0
 444 0052 3868     		ldr	r0, [r7]
 445 0054 211C     		mov	r1, r4
 446 0056 FFF7FEFF 		bl	CyBle_GattsNotification
 447              	.LVL36:
 448 005a 04E0     		b	.L32
 449              	.LVL37:
 450              	.L34:
 395:.\Generated_Source\PSoC4/CYBLE_tps.c ****                 }
 396:.\Generated_Source\PSoC4/CYBLE_tps.c ****             }
 397:.\Generated_Source\PSoC4/CYBLE_tps.c ****         }
 398:.\Generated_Source\PSoC4/CYBLE_tps.c ****         else
 399:.\Generated_Source\PSoC4/CYBLE_tps.c ****         {
 400:.\Generated_Source\PSoC4/CYBLE_tps.c ****            apiResult = CYBLE_ERROR_NTF_DISABLED;
 451              		.loc 1 400 0
 452 005c 8020     		mov	r0, #128
 453 005e 4000     		lsl	r0, r0, #1
 454 0060 01E0     		b	.L32
 455              	.L35:
 389:.\Generated_Source\PSoC4/CYBLE_tps.c ****                 }
 456              		.loc 1 389 0
 457 0062 0420     		mov	r0, #4
 458 0064 FF30     		add	r0, r0, #255
 459              	.LVL38:
 460              	.L32:
 401:.\Generated_Source\PSoC4/CYBLE_tps.c ****         }
 402:.\Generated_Source\PSoC4/CYBLE_tps.c ****     }
 403:.\Generated_Source\PSoC4/CYBLE_tps.c **** 
 404:.\Generated_Source\PSoC4/CYBLE_tps.c ****     /* Return status */
 405:.\Generated_Source\PSoC4/CYBLE_tps.c ****     return(apiResult);
 406:.\Generated_Source\PSoC4/CYBLE_tps.c **** }
 461              		.loc 1 406 0
 462 0066 07B0     		add	sp, sp, #28
 463              	.LVL39:
 464              		@ sp needed
 465 0068 F0BD     		pop	{r4, r5, r6, r7, pc}
 466              	.L37:
 467 006a C046     		.align	2
 468              	.L36:
 469 006c 00000000 		.word	cyBle_gattDB
 470 0070 00000000 		.word	cyBle_state
 471              		.cfi_endproc
 472              	.LFE8:
 473              		.size	CyBle_TpssSendNotification, .-CyBle_TpssSendNotification
 474              		.global	cyBle_tpss
ARM GAS  C:\Users\mohammed\AppData\Local\Temp\ccLrTqRZ.s 			page 17


 475              		.section	.rodata
 476              		.align	1
 477              		.type	cyBle_tpss, %object
 478              		.size	cyBle_tpss, 6
 479              	cyBle_tpss:
 480 0000 0F00     		.short	15
 481 0002 1100     		.short	17
 482 0004 1200     		.short	18
 483              		.bss
 484              		.align	2
 485              		.set	.LANCHOR0,. + 0
 486              		.type	CyBle_TpsApplCallback, %object
 487              		.size	CyBle_TpsApplCallback, 4
 488              	CyBle_TpsApplCallback:
 489 0000 00000000 		.space	4
 490              		.text
 491              	.Letext0:
 492              		.file 2 ".\\Generated_Source\\PSoC4\\cytypes.h"
 493              		.file 3 ".\\Generated_Source\\PSoC4\\CYBLE_Stack.h"
 494              		.file 4 ".\\Generated_Source\\PSoC4\\CYBLE_StackGatt.h"
 495              		.file 5 ".\\Generated_Source\\PSoC4\\CYBLE_StackGattServer.h"
 496              		.file 6 ".\\Generated_Source\\PSoC4\\CYBLE_StackGattDb.h"
 497              		.file 7 ".\\Generated_Source\\PSoC4\\CYBLE.h"
 498              		.file 8 ".\\Generated_Source\\PSoC4\\CYBLE_tps.h"
 499              		.file 9 ".\\Generated_Source\\PSoC4\\CYBLE_eventHandler.h"
 500              		.file 10 ".\\Generated_Source\\PSoC4\\CYBLE_gatt.h"