ARM GAS  C:\Users\mohammed\AppData\Local\Temp\ccVcpCgS.s 			page 1


   1              		.cpu cortex-m0
   2              		.fpu softvfp
   3              		.eabi_attribute 20, 1
   4              		.eabi_attribute 21, 1
   5              		.eabi_attribute 23, 3
   6              		.eabi_attribute 24, 1
   7              		.eabi_attribute 25, 1
   8              		.eabi_attribute 26, 1
   9              		.eabi_attribute 30, 4
  10              		.eabi_attribute 34, 0
  11              		.eabi_attribute 18, 4
  12              		.code	16
  13              		.file	"CYBLE_lls.c"
  14              		.text
  15              	.Ltext0:
  16              		.cfi_sections	.debug_frame
  17              		.section	.text.CyBle_LlsInit,"ax",%progbits
  18              		.align	1
  19              		.global	CyBle_LlsInit
  20              		.code	16
  21              		.thumb_func
  22              		.type	CyBle_LlsInit, %function
  23              	CyBle_LlsInit:
  24              	.LFB2:
  25              		.file 1 ".\\Generated_Source\\PSoC4\\CYBLE_lls.c"
   1:.\Generated_Source\PSoC4/CYBLE_lls.c **** /***************************************************************************//**
   2:.\Generated_Source\PSoC4/CYBLE_lls.c **** * \file CYBLE_lls.c
   3:.\Generated_Source\PSoC4/CYBLE_lls.c **** * \version 3.10
   4:.\Generated_Source\PSoC4/CYBLE_lls.c **** * 
   5:.\Generated_Source\PSoC4/CYBLE_lls.c **** * \brief
   6:.\Generated_Source\PSoC4/CYBLE_lls.c **** *  This file contains the source code for the Link Loss Service of the BLE
   7:.\Generated_Source\PSoC4/CYBLE_lls.c **** *  Component.
   8:.\Generated_Source\PSoC4/CYBLE_lls.c **** * 
   9:.\Generated_Source\PSoC4/CYBLE_lls.c **** ********************************************************************************
  10:.\Generated_Source\PSoC4/CYBLE_lls.c **** * \copyright
  11:.\Generated_Source\PSoC4/CYBLE_lls.c **** * Copyright 2014-2016, Cypress Semiconductor Corporation.  All rights reserved.
  12:.\Generated_Source\PSoC4/CYBLE_lls.c **** * You may use this file only in accordance with the license, terms, conditions,
  13:.\Generated_Source\PSoC4/CYBLE_lls.c **** * disclaimers, and limitations in the end user license agreement accompanying
  14:.\Generated_Source\PSoC4/CYBLE_lls.c **** * the software package with which this file was provided.
  15:.\Generated_Source\PSoC4/CYBLE_lls.c **** *******************************************************************************/
  16:.\Generated_Source\PSoC4/CYBLE_lls.c **** 
  17:.\Generated_Source\PSoC4/CYBLE_lls.c **** #include "CYBLE_eventHandler.h"
  18:.\Generated_Source\PSoC4/CYBLE_lls.c **** 
  19:.\Generated_Source\PSoC4/CYBLE_lls.c **** 
  20:.\Generated_Source\PSoC4/CYBLE_lls.c **** static CYBLE_CALLBACK_T CyBle_LlsApplCallback = NULL;
  21:.\Generated_Source\PSoC4/CYBLE_lls.c **** 
  22:.\Generated_Source\PSoC4/CYBLE_lls.c **** #ifdef CYBLE_LLS_SERVER
  23:.\Generated_Source\PSoC4/CYBLE_lls.c ****     
  24:.\Generated_Source\PSoC4/CYBLE_lls.c **** const CYBLE_LLSS_T cyBle_llss =
  25:.\Generated_Source\PSoC4/CYBLE_lls.c **** {
  26:.\Generated_Source\PSoC4/CYBLE_lls.c ****     0x000Cu,    /* Handle of the LLS service */
  27:.\Generated_Source\PSoC4/CYBLE_lls.c ****     0x000Eu,    /* Handle of the Alert Level characteristic */
  28:.\Generated_Source\PSoC4/CYBLE_lls.c **** };
  29:.\Generated_Source\PSoC4/CYBLE_lls.c **** 
  30:.\Generated_Source\PSoC4/CYBLE_lls.c **** #endif /* (CYBLE_LLS_SERVER) */
  31:.\Generated_Source\PSoC4/CYBLE_lls.c **** 
  32:.\Generated_Source\PSoC4/CYBLE_lls.c **** #ifdef CYBLE_LLS_CLIENT
ARM GAS  C:\Users\mohammed\AppData\Local\Temp\ccVcpCgS.s 			page 2


  33:.\Generated_Source\PSoC4/CYBLE_lls.c ****     
  34:.\Generated_Source\PSoC4/CYBLE_lls.c **** CYBLE_LLSC_T cyBle_llsc;
  35:.\Generated_Source\PSoC4/CYBLE_lls.c **** 
  36:.\Generated_Source\PSoC4/CYBLE_lls.c **** /* Internal storage for last request handle to check response */
  37:.\Generated_Source\PSoC4/CYBLE_lls.c **** static CYBLE_GATT_DB_ATTR_HANDLE_T cyBle_llscReqHandle;
  38:.\Generated_Source\PSoC4/CYBLE_lls.c **** 
  39:.\Generated_Source\PSoC4/CYBLE_lls.c **** #endif /* (CYBLE_LLS_CLIENT) */
  40:.\Generated_Source\PSoC4/CYBLE_lls.c **** 
  41:.\Generated_Source\PSoC4/CYBLE_lls.c **** /****************************************************************************** 
  42:.\Generated_Source\PSoC4/CYBLE_lls.c **** * Function Name: CyBle_LlsInit
  43:.\Generated_Source\PSoC4/CYBLE_lls.c **** ***************************************************************************//**
  44:.\Generated_Source\PSoC4/CYBLE_lls.c **** * 
  45:.\Generated_Source\PSoC4/CYBLE_lls.c **** *  This function initializes the Link Loss Service.
  46:.\Generated_Source\PSoC4/CYBLE_lls.c **** * 
  47:.\Generated_Source\PSoC4/CYBLE_lls.c **** * \return
  48:.\Generated_Source\PSoC4/CYBLE_lls.c **** *  None
  49:.\Generated_Source\PSoC4/CYBLE_lls.c **** * 
  50:.\Generated_Source\PSoC4/CYBLE_lls.c **** ******************************************************************************/
  51:.\Generated_Source\PSoC4/CYBLE_lls.c **** void CyBle_LlsInit(void)
  52:.\Generated_Source\PSoC4/CYBLE_lls.c **** {
  26              		.loc 1 52 0
  27              		.cfi_startproc
  53:.\Generated_Source\PSoC4/CYBLE_lls.c **** 
  54:.\Generated_Source\PSoC4/CYBLE_lls.c **** #ifdef CYBLE_LLS_CLIENT
  55:.\Generated_Source\PSoC4/CYBLE_lls.c **** 
  56:.\Generated_Source\PSoC4/CYBLE_lls.c ****     if(cyBle_serverInfo[CYBLE_SRVI_LLS].range.startHandle == CYBLE_GATT_INVALID_ATTR_HANDLE_VALUE)
  57:.\Generated_Source\PSoC4/CYBLE_lls.c ****     {
  58:.\Generated_Source\PSoC4/CYBLE_lls.c ****         cyBle_llsc.alertLevelChar.valueHandle = CYBLE_GATT_INVALID_ATTR_HANDLE_VALUE;
  59:.\Generated_Source\PSoC4/CYBLE_lls.c ****     }
  60:.\Generated_Source\PSoC4/CYBLE_lls.c ****     cyBle_llscReqHandle = CYBLE_GATT_INVALID_ATTR_HANDLE_VALUE;
  61:.\Generated_Source\PSoC4/CYBLE_lls.c ****     
  62:.\Generated_Source\PSoC4/CYBLE_lls.c **** #endif /* (CYBLE_LLS_CLIENT) */
  63:.\Generated_Source\PSoC4/CYBLE_lls.c **** }
  28              		.loc 1 63 0
  29              		@ sp needed
  30 0000 7047     		bx	lr
  31              		.cfi_endproc
  32              	.LFE2:
  33              		.size	CyBle_LlsInit, .-CyBle_LlsInit
  34              		.section	.text.CyBle_LlsRegisterAttrCallback,"ax",%progbits
  35              		.align	1
  36              		.global	CyBle_LlsRegisterAttrCallback
  37              		.code	16
  38              		.thumb_func
  39              		.type	CyBle_LlsRegisterAttrCallback, %function
  40              	CyBle_LlsRegisterAttrCallback:
  41              	.LFB3:
  64:.\Generated_Source\PSoC4/CYBLE_lls.c **** 
  65:.\Generated_Source\PSoC4/CYBLE_lls.c **** 
  66:.\Generated_Source\PSoC4/CYBLE_lls.c **** /****************************************************************************** 
  67:.\Generated_Source\PSoC4/CYBLE_lls.c **** * Function Name: CyBle_LlsRegisterAttrCallback
  68:.\Generated_Source\PSoC4/CYBLE_lls.c **** ***************************************************************************//**
  69:.\Generated_Source\PSoC4/CYBLE_lls.c **** * 
  70:.\Generated_Source\PSoC4/CYBLE_lls.c **** *  Registers a callback function for service specific attribute operations.
  71:.\Generated_Source\PSoC4/CYBLE_lls.c **** *  Service specific write requests from peer device will not be handled with
  72:.\Generated_Source\PSoC4/CYBLE_lls.c **** *  unregistered callback function.
  73:.\Generated_Source\PSoC4/CYBLE_lls.c **** * 
ARM GAS  C:\Users\mohammed\AppData\Local\Temp\ccVcpCgS.s 			page 3


  74:.\Generated_Source\PSoC4/CYBLE_lls.c **** *  \param callbackFunc: An application layer event callback function to receive 
  75:.\Generated_Source\PSoC4/CYBLE_lls.c **** *                    events from the BLE Component. The definition of 
  76:.\Generated_Source\PSoC4/CYBLE_lls.c **** *                    CYBLE_CALLBACK_T for Link Loss Service is: \n
  77:.\Generated_Source\PSoC4/CYBLE_lls.c **** *                    typedef void (* CYBLE_CALLBACK_T) (uint32 eventCode, 
  78:.\Generated_Source\PSoC4/CYBLE_lls.c **** *                                                       void *eventParam)
  79:.\Generated_Source\PSoC4/CYBLE_lls.c **** *                    * eventCode indicates the event that triggered this 
  80:.\Generated_Source\PSoC4/CYBLE_lls.c **** *                      callback (e.g. CYBLE_EVT_LLSS_NOTIFICATION_ENABLED).
  81:.\Generated_Source\PSoC4/CYBLE_lls.c **** *                    * eventParam contains the parameters corresponding to the 
  82:.\Generated_Source\PSoC4/CYBLE_lls.c **** *                      current event. (e.g. pointer to CYBLE_LLS_CHAR_VALUE_T
  83:.\Generated_Source\PSoC4/CYBLE_lls.c **** *                      structure that contains details of the characteristic 
  84:.\Generated_Source\PSoC4/CYBLE_lls.c **** *                      for which notification enabled event was triggered).
  85:.\Generated_Source\PSoC4/CYBLE_lls.c **** *
  86:.\Generated_Source\PSoC4/CYBLE_lls.c **** * \return
  87:.\Generated_Source\PSoC4/CYBLE_lls.c **** *  None
  88:.\Generated_Source\PSoC4/CYBLE_lls.c **** *
  89:.\Generated_Source\PSoC4/CYBLE_lls.c **** * \events
  90:.\Generated_Source\PSoC4/CYBLE_lls.c **** *  None
  91:.\Generated_Source\PSoC4/CYBLE_lls.c **** *
  92:.\Generated_Source\PSoC4/CYBLE_lls.c **** * \sideeffect
  93:.\Generated_Source\PSoC4/CYBLE_lls.c **** *  The *eventParams in the callback function should not be used by the 
  94:.\Generated_Source\PSoC4/CYBLE_lls.c **** *  application once the callback function execution is finished. Otherwise this
  95:.\Generated_Source\PSoC4/CYBLE_lls.c **** *  data may become corrupted.
  96:.\Generated_Source\PSoC4/CYBLE_lls.c **** * 
  97:.\Generated_Source\PSoC4/CYBLE_lls.c **** ******************************************************************************/
  98:.\Generated_Source\PSoC4/CYBLE_lls.c **** void CyBle_LlsRegisterAttrCallback(CYBLE_CALLBACK_T callbackFunc)
  99:.\Generated_Source\PSoC4/CYBLE_lls.c **** {
  42              		.loc 1 99 0
  43              		.cfi_startproc
  44              	.LVL0:
 100:.\Generated_Source\PSoC4/CYBLE_lls.c ****     CyBle_LlsApplCallback = callbackFunc;
  45              		.loc 1 100 0
  46 0000 014B     		ldr	r3, .L3
 101:.\Generated_Source\PSoC4/CYBLE_lls.c **** }
  47              		.loc 1 101 0
  48              		@ sp needed
 100:.\Generated_Source\PSoC4/CYBLE_lls.c ****     CyBle_LlsApplCallback = callbackFunc;
  49              		.loc 1 100 0
  50 0002 1860     		str	r0, [r3]
  51              		.loc 1 101 0
  52 0004 7047     		bx	lr
  53              	.L4:
  54 0006 C046     		.align	2
  55              	.L3:
  56 0008 00000000 		.word	.LANCHOR0
  57              		.cfi_endproc
  58              	.LFE3:
  59              		.size	CyBle_LlsRegisterAttrCallback, .-CyBle_LlsRegisterAttrCallback
  60              		.section	.text.CyBle_LlssConnectEventHandler,"ax",%progbits
  61              		.align	1
  62              		.global	CyBle_LlssConnectEventHandler
  63              		.code	16
  64              		.thumb_func
  65              		.type	CyBle_LlssConnectEventHandler, %function
  66              	CyBle_LlssConnectEventHandler:
  67              	.LFB4:
 102:.\Generated_Source\PSoC4/CYBLE_lls.c **** 
 103:.\Generated_Source\PSoC4/CYBLE_lls.c **** 
ARM GAS  C:\Users\mohammed\AppData\Local\Temp\ccVcpCgS.s 			page 4


 104:.\Generated_Source\PSoC4/CYBLE_lls.c **** #ifdef CYBLE_LLS_SERVER
 105:.\Generated_Source\PSoC4/CYBLE_lls.c **** 
 106:.\Generated_Source\PSoC4/CYBLE_lls.c **** /****************************************************************************** 
 107:.\Generated_Source\PSoC4/CYBLE_lls.c **** * Function Name: CyBle_LlssConnectEventHandler
 108:.\Generated_Source\PSoC4/CYBLE_lls.c **** ***************************************************************************//**
 109:.\Generated_Source\PSoC4/CYBLE_lls.c **** * 
 110:.\Generated_Source\PSoC4/CYBLE_lls.c **** *  Handles the Connection Indication event for Link Loss Service. 
 111:.\Generated_Source\PSoC4/CYBLE_lls.c **** * 
 112:.\Generated_Source\PSoC4/CYBLE_lls.c **** * \return
 113:.\Generated_Source\PSoC4/CYBLE_lls.c **** *  None
 114:.\Generated_Source\PSoC4/CYBLE_lls.c **** * 
 115:.\Generated_Source\PSoC4/CYBLE_lls.c **** ******************************************************************************/
 116:.\Generated_Source\PSoC4/CYBLE_lls.c **** void CyBle_LlssConnectEventHandler(void)
 117:.\Generated_Source\PSoC4/CYBLE_lls.c **** {
  68              		.loc 1 117 0
  69              		.cfi_startproc
  70 0000 1FB5     		push	{r0, r1, r2, r3, r4, lr}
  71              		.cfi_def_cfa_offset 24
  72              		.cfi_offset 0, -24
  73              		.cfi_offset 1, -20
  74              		.cfi_offset 2, -16
  75              		.cfi_offset 3, -12
  76              		.cfi_offset 4, -8
  77              		.cfi_offset 14, -4
 118:.\Generated_Source\PSoC4/CYBLE_lls.c ****     uint8 tmpAlertLevel = CYBLE_NO_ALERT;
  78              		.loc 1 118 0
  79 0002 6B46     		mov	r3, sp
 119:.\Generated_Source\PSoC4/CYBLE_lls.c ****     CYBLE_GATT_HANDLE_VALUE_PAIR_T llsHandleValuePair;
 120:.\Generated_Source\PSoC4/CYBLE_lls.c ****     
 121:.\Generated_Source\PSoC4/CYBLE_lls.c ****     llsHandleValuePair.attrHandle = cyBle_llss.alertLevelCharHandle;
  80              		.loc 1 121 0
  81 0004 0E21     		mov	r1, #14
 118:.\Generated_Source\PSoC4/CYBLE_lls.c ****     uint8 tmpAlertLevel = CYBLE_NO_ALERT;
  82              		.loc 1 118 0
  83 0006 DA1C     		add	r2, r3, #3
  84 0008 0023     		mov	r3, #0
  85              		.loc 1 121 0
  86 000a 01A8     		add	r0, sp, #4
  87 000c 0181     		strh	r1, [r0, #8]
 122:.\Generated_Source\PSoC4/CYBLE_lls.c ****     llsHandleValuePair.value.len = CYBLE_LLS_ALERT_LEVEL_SIZE;
  88              		.loc 1 122 0
  89 000e 0D39     		sub	r1, r1, #13
 118:.\Generated_Source\PSoC4/CYBLE_lls.c ****     uint8 tmpAlertLevel = CYBLE_NO_ALERT;
  90              		.loc 1 118 0
  91 0010 1370     		strb	r3, [r2]
 123:.\Generated_Source\PSoC4/CYBLE_lls.c ****     llsHandleValuePair.value.val = &tmpAlertLevel;
  92              		.loc 1 123 0
  93 0012 0192     		str	r2, [sp, #4]
 122:.\Generated_Source\PSoC4/CYBLE_lls.c ****     llsHandleValuePair.value.len = CYBLE_LLS_ALERT_LEVEL_SIZE;
  94              		.loc 1 122 0
  95 0014 8180     		strh	r1, [r0, #4]
 124:.\Generated_Source\PSoC4/CYBLE_lls.c ****     
 125:.\Generated_Source\PSoC4/CYBLE_lls.c ****     /* Input parameters validation passed, so save Alert Level */
 126:.\Generated_Source\PSoC4/CYBLE_lls.c ****     (void) CyBle_GattsWriteAttributeValue(&llsHandleValuePair, 0u, NULL, CYBLE_GATT_DB_LOCALLY_INIT
  96              		.loc 1 126 0
  97 0016 1A1C     		mov	r2, r3
  98 0018 191C     		mov	r1, r3
ARM GAS  C:\Users\mohammed\AppData\Local\Temp\ccVcpCgS.s 			page 5


  99 001a FFF7FEFF 		bl	CyBle_GattsWriteAttributeValue
 100              	.LVL1:
 127:.\Generated_Source\PSoC4/CYBLE_lls.c **** }
 101              		.loc 1 127 0
 102 001e 05B0     		add	sp, sp, #20
 103              		@ sp needed
 104 0020 00BD     		pop	{pc}
 105              		.cfi_endproc
 106              	.LFE4:
 107              		.size	CyBle_LlssConnectEventHandler, .-CyBle_LlssConnectEventHandler
 108              		.section	.text.CyBle_LlssWriteEventHandler,"ax",%progbits
 109              		.align	1
 110              		.global	CyBle_LlssWriteEventHandler
 111              		.code	16
 112              		.thumb_func
 113              		.type	CyBle_LlssWriteEventHandler, %function
 114              	CyBle_LlssWriteEventHandler:
 115              	.LFB5:
 128:.\Generated_Source\PSoC4/CYBLE_lls.c **** 
 129:.\Generated_Source\PSoC4/CYBLE_lls.c **** 
 130:.\Generated_Source\PSoC4/CYBLE_lls.c **** /****************************************************************************** 
 131:.\Generated_Source\PSoC4/CYBLE_lls.c **** * Function Name: CyBle_LlssWriteEventHandler
 132:.\Generated_Source\PSoC4/CYBLE_lls.c **** ***************************************************************************//**
 133:.\Generated_Source\PSoC4/CYBLE_lls.c **** * 
 134:.\Generated_Source\PSoC4/CYBLE_lls.c **** *  Handles the Write Request Event for the Link Loss service.
 135:.\Generated_Source\PSoC4/CYBLE_lls.c **** * 
 136:.\Generated_Source\PSoC4/CYBLE_lls.c **** *  \param CYBLE_GATTS_WRITE_REQ_PARAM_T * eventParam:  the pointer to the data structure
 137:.\Generated_Source\PSoC4/CYBLE_lls.c **** *                                               specified by the event.
 138:.\Generated_Source\PSoC4/CYBLE_lls.c **** * 
 139:.\Generated_Source\PSoC4/CYBLE_lls.c **** * \return
 140:.\Generated_Source\PSoC4/CYBLE_lls.c **** *  CYBLE_GATT_ERR_CODE_T: API result returns one of the following status values:
 141:.\Generated_Source\PSoC4/CYBLE_lls.c **** *   * CYBLE_GATT_ERR_NONE - The Alert Level Characteristic was written successfully
 142:.\Generated_Source\PSoC4/CYBLE_lls.c **** *   * CYBLE_GATT_ERR_UNLIKELY_ERROR - An Internal Stack error occurred
 143:.\Generated_Source\PSoC4/CYBLE_lls.c **** *   * CYBLE_GATT_ERR_INVALID_ATTRIBUTE_LEN - The Data length for the Alert Level
 144:.\Generated_Source\PSoC4/CYBLE_lls.c **** *                                             Characteristic handle is invalid
 145:.\Generated_Source\PSoC4/CYBLE_lls.c **** *   * CYBLE_GATT_ERR_INVALID_HANDLE - Alert Level Characteristic handle is invalid
 146:.\Generated_Source\PSoC4/CYBLE_lls.c **** *   * CYBLE_GATT_ERR_OUT_OF_RANGE - Value is out of allowed range
 147:.\Generated_Source\PSoC4/CYBLE_lls.c **** * 
 148:.\Generated_Source\PSoC4/CYBLE_lls.c **** ******************************************************************************/
 149:.\Generated_Source\PSoC4/CYBLE_lls.c **** CYBLE_GATT_ERR_CODE_T CyBle_LlssWriteEventHandler(CYBLE_GATTS_WRITE_REQ_PARAM_T *eventParam)
 150:.\Generated_Source\PSoC4/CYBLE_lls.c **** {
 116              		.loc 1 150 0
 117              		.cfi_startproc
 118              	.LVL2:
 119 0000 F7B5     		push	{r0, r1, r2, r4, r5, r6, r7, lr}
 120              		.cfi_def_cfa_offset 32
 121              		.cfi_offset 0, -32
 122              		.cfi_offset 1, -28
 123              		.cfi_offset 2, -24
 124              		.cfi_offset 4, -20
 125              		.cfi_offset 5, -16
 126              		.cfi_offset 6, -12
 127              		.cfi_offset 7, -8
 128              		.cfi_offset 14, -4
 151:.\Generated_Source\PSoC4/CYBLE_lls.c ****     CYBLE_LLS_CHAR_VALUE_T wrReqParam;
 152:.\Generated_Source\PSoC4/CYBLE_lls.c ****     CYBLE_GATT_ERR_CODE_T gattErr = CYBLE_GATT_ERR_NONE;
 153:.\Generated_Source\PSoC4/CYBLE_lls.c **** 
ARM GAS  C:\Users\mohammed\AppData\Local\Temp\ccVcpCgS.s 			page 6


 154:.\Generated_Source\PSoC4/CYBLE_lls.c ****     if(NULL != CyBle_LlsApplCallback)
 129              		.loc 1 154 0
 130 0002 164E     		ldr	r6, .L14
 152:.\Generated_Source\PSoC4/CYBLE_lls.c **** 
 131              		.loc 1 152 0
 132 0004 3568     		ldr	r5, [r6]
 133              		.loc 1 154 0
 134 0006 002D     		cmp	r5, #0
 135 0008 26D0     		beq	.L7
 155:.\Generated_Source\PSoC4/CYBLE_lls.c ****     {
 156:.\Generated_Source\PSoC4/CYBLE_lls.c ****         if(cyBle_llss.alertLevelCharHandle == eventParam->handleValPair.attrHandle)
 136              		.loc 1 156 0
 137 000a 8389     		ldrh	r3, [r0, #12]
 152:.\Generated_Source\PSoC4/CYBLE_lls.c **** 
 138              		.loc 1 152 0
 139 000c 0025     		mov	r5, #0
 140              		.loc 1 156 0
 141 000e 0E2B     		cmp	r3, #14
 142 0010 22D1     		bne	.L7
 157:.\Generated_Source\PSoC4/CYBLE_lls.c ****         {
 158:.\Generated_Source\PSoC4/CYBLE_lls.c ****             /* Check if attribute handle is handle of Alert Level characteristic of 
 159:.\Generated_Source\PSoC4/CYBLE_lls.c ****                Link Loss service. */
 160:.\Generated_Source\PSoC4/CYBLE_lls.c ****             if ((CYBLE_HIGH_ALERT >= eventParam->handleValPair.value.val[0u]))
 143              		.loc 1 160 0
 144 0012 4368     		ldr	r3, [r0, #4]
 161:.\Generated_Source\PSoC4/CYBLE_lls.c ****             {
 162:.\Generated_Source\PSoC4/CYBLE_lls.c ****                 if(CYBLE_LLS_ALERT_LEVEL_SIZE == eventParam->handleValPair.value.len)
 163:.\Generated_Source\PSoC4/CYBLE_lls.c ****                 {
 164:.\Generated_Source\PSoC4/CYBLE_lls.c ****                     /* Input parameters validation passed, so save Alert Level */
 165:.\Generated_Source\PSoC4/CYBLE_lls.c ****                     gattErr = CyBle_GattsWriteAttributeValue(&eventParam->handleValPair, 0u, 
 166:.\Generated_Source\PSoC4/CYBLE_lls.c ****                                 &eventParam->connHandle, CYBLE_GATT_DB_PEER_INITIATED);
 167:.\Generated_Source\PSoC4/CYBLE_lls.c ****                     
 168:.\Generated_Source\PSoC4/CYBLE_lls.c ****                     /* Send callback to user if no error occurred while writing Alert Level */
 169:.\Generated_Source\PSoC4/CYBLE_lls.c ****                     if(CYBLE_GATT_ERR_NONE == gattErr)
 170:.\Generated_Source\PSoC4/CYBLE_lls.c ****                     {
 171:.\Generated_Source\PSoC4/CYBLE_lls.c ****                         wrReqParam.connHandle = eventParam->connHandle;
 172:.\Generated_Source\PSoC4/CYBLE_lls.c ****                         wrReqParam.charIndex = CYBLE_LLS_ALERT_LEVEL;
 173:.\Generated_Source\PSoC4/CYBLE_lls.c ****                         wrReqParam.value = &eventParam->handleValPair.value;
 174:.\Generated_Source\PSoC4/CYBLE_lls.c ****                         
 175:.\Generated_Source\PSoC4/CYBLE_lls.c ****                         CyBle_LlsApplCallback((uint32) CYBLE_EVT_LLSS_WRITE_CHAR_REQ, (void *) &wrR
 176:.\Generated_Source\PSoC4/CYBLE_lls.c ****                     }
 177:.\Generated_Source\PSoC4/CYBLE_lls.c ****                 }
 178:.\Generated_Source\PSoC4/CYBLE_lls.c ****                 else
 179:.\Generated_Source\PSoC4/CYBLE_lls.c ****                 {
 180:.\Generated_Source\PSoC4/CYBLE_lls.c ****                     gattErr = CYBLE_GATT_ERR_INVALID_ATTRIBUTE_LEN;
 181:.\Generated_Source\PSoC4/CYBLE_lls.c ****                 }
 182:.\Generated_Source\PSoC4/CYBLE_lls.c ****             }
 183:.\Generated_Source\PSoC4/CYBLE_lls.c ****             else
 184:.\Generated_Source\PSoC4/CYBLE_lls.c ****             {
 185:.\Generated_Source\PSoC4/CYBLE_lls.c ****                 gattErr = CYBLE_GATT_ERR_OUT_OF_RANGE;
 145              		.loc 1 185 0
 146 0014 FF35     		add	r5, r5, #255
 160:.\Generated_Source\PSoC4/CYBLE_lls.c ****             {
 147              		.loc 1 160 0
 148 0016 1B78     		ldrb	r3, [r3]
 149 0018 022B     		cmp	r3, #2
 150 001a 18D8     		bhi	.L8
ARM GAS  C:\Users\mohammed\AppData\Local\Temp\ccVcpCgS.s 			page 7


 162:.\Generated_Source\PSoC4/CYBLE_lls.c ****                 {
 151              		.loc 1 162 0
 152 001c 0389     		ldrh	r3, [r0, #8]
 180:.\Generated_Source\PSoC4/CYBLE_lls.c ****                 }
 153              		.loc 1 180 0
 154 001e F23D     		sub	r5, r5, #242
 162:.\Generated_Source\PSoC4/CYBLE_lls.c ****                 {
 155              		.loc 1 162 0
 156 0020 012B     		cmp	r3, #1
 157 0022 14D1     		bne	.L8
 158 0024 041C     		mov	r4, r0
 165:.\Generated_Source\PSoC4/CYBLE_lls.c ****                                 &eventParam->connHandle, CYBLE_GATT_DB_PEER_INITIATED);
 159              		.loc 1 165 0
 160 0026 071D     		add	r7, r0, #4
 161 0028 381C     		mov	r0, r7
 162              	.LVL3:
 163 002a 0021     		mov	r1, #0
 164 002c 221C     		mov	r2, r4
 165 002e 3F33     		add	r3, r3, #63
 166 0030 FFF7FEFF 		bl	CyBle_GattsWriteAttributeValue
 167              	.LVL4:
 168 0034 051E     		sub	r5, r0, #0
 169              	.LVL5:
 169:.\Generated_Source\PSoC4/CYBLE_lls.c ****                     {
 170              		.loc 1 169 0
 171 0036 0AD1     		bne	.L8
 171:.\Generated_Source\PSoC4/CYBLE_lls.c ****                         wrReqParam.charIndex = CYBLE_LLS_ALERT_LEVEL;
 172              		.loc 1 171 0
 173 0038 6A46     		mov	r2, sp
 174 003a 2388     		ldrh	r3, [r4]
 173:.\Generated_Source\PSoC4/CYBLE_lls.c ****                         
 175              		.loc 1 173 0
 176 003c 0197     		str	r7, [sp, #4]
 171:.\Generated_Source\PSoC4/CYBLE_lls.c ****                         wrReqParam.charIndex = CYBLE_LLS_ALERT_LEVEL;
 177              		.loc 1 171 0
 178 003e 1380     		strh	r3, [r2]
 172:.\Generated_Source\PSoC4/CYBLE_lls.c ****                         wrReqParam.value = &eventParam->handleValPair.value;
 179              		.loc 1 172 0
 180 0040 6B46     		mov	r3, sp
 181 0042 9870     		strb	r0, [r3, #2]
 175:.\Generated_Source\PSoC4/CYBLE_lls.c ****                     }
 182              		.loc 1 175 0
 183 0044 BC20     		mov	r0, #188
 184              	.LVL6:
 185 0046 3368     		ldr	r3, [r6]
 186 0048 FF30     		add	r0, r0, #255
 187 004a 6946     		mov	r1, sp
 188 004c 9847     		blx	r3
 189              	.LVL7:
 190              	.L8:
 186:.\Generated_Source\PSoC4/CYBLE_lls.c ****             }
 187:.\Generated_Source\PSoC4/CYBLE_lls.c ****             
 188:.\Generated_Source\PSoC4/CYBLE_lls.c ****             /* Indicate that request was handled */
 189:.\Generated_Source\PSoC4/CYBLE_lls.c ****             cyBle_eventHandlerFlag &= (uint8)~CYBLE_CALLBACK;
 191              		.loc 1 189 0
 192 004e 0121     		mov	r1, #1
 193 0050 034A     		ldr	r2, .L14+4
ARM GAS  C:\Users\mohammed\AppData\Local\Temp\ccVcpCgS.s 			page 8


 194 0052 1378     		ldrb	r3, [r2]
 195 0054 8B43     		bic	r3, r1
 196 0056 1370     		strb	r3, [r2]
 197              	.LVL8:
 198              	.L7:
 190:.\Generated_Source\PSoC4/CYBLE_lls.c ****         }
 191:.\Generated_Source\PSoC4/CYBLE_lls.c ****     }
 192:.\Generated_Source\PSoC4/CYBLE_lls.c ****         
 193:.\Generated_Source\PSoC4/CYBLE_lls.c ****     return(gattErr);
 194:.\Generated_Source\PSoC4/CYBLE_lls.c **** }
 199              		.loc 1 194 0
 200 0058 281C     		mov	r0, r5
 201              		@ sp needed
 202              	.LVL9:
 203 005a FEBD     		pop	{r1, r2, r3, r4, r5, r6, r7, pc}
 204              	.L15:
 205              		.align	2
 206              	.L14:
 207 005c 00000000 		.word	.LANCHOR0
 208 0060 00000000 		.word	cyBle_eventHandlerFlag
 209              		.cfi_endproc
 210              	.LFE5:
 211              		.size	CyBle_LlssWriteEventHandler, .-CyBle_LlssWriteEventHandler
 212              		.section	.text.CyBle_LlssGetCharacteristicValue,"ax",%progbits
 213              		.align	1
 214              		.global	CyBle_LlssGetCharacteristicValue
 215              		.code	16
 216              		.thumb_func
 217              		.type	CyBle_LlssGetCharacteristicValue, %function
 218              	CyBle_LlssGetCharacteristicValue:
 219              	.LFB6:
 195:.\Generated_Source\PSoC4/CYBLE_lls.c **** 
 196:.\Generated_Source\PSoC4/CYBLE_lls.c **** 
 197:.\Generated_Source\PSoC4/CYBLE_lls.c **** /****************************************************************************** 
 198:.\Generated_Source\PSoC4/CYBLE_lls.c **** * Function Name: CyBle_LlssGetCharacteristicValue
 199:.\Generated_Source\PSoC4/CYBLE_lls.c **** ***************************************************************************//**
 200:.\Generated_Source\PSoC4/CYBLE_lls.c **** * 
 201:.\Generated_Source\PSoC4/CYBLE_lls.c **** *  Gets an Alert Level characteristic value of the service, which is identified
 202:.\Generated_Source\PSoC4/CYBLE_lls.c **** *  by charIndex.
 203:.\Generated_Source\PSoC4/CYBLE_lls.c **** * 
 204:.\Generated_Source\PSoC4/CYBLE_lls.c **** *  \param charIndex: The index of an Alert Level characteristic.
 205:.\Generated_Source\PSoC4/CYBLE_lls.c **** *  \param attrSize: The size of the Alert Level characteristic value attribute.
 206:.\Generated_Source\PSoC4/CYBLE_lls.c **** *  \param attrValue: The pointer to the location where an Alert Level characteristic
 207:.\Generated_Source\PSoC4/CYBLE_lls.c **** *               value data should be stored.
 208:.\Generated_Source\PSoC4/CYBLE_lls.c **** * 
 209:.\Generated_Source\PSoC4/CYBLE_lls.c **** * \return
 210:.\Generated_Source\PSoC4/CYBLE_lls.c **** *  Return value is of type CYBLE_API_RESULT_T.
 211:.\Generated_Source\PSoC4/CYBLE_lls.c **** *   * CYBLE_ERROR_OK - The characteristic value was read successfully
 212:.\Generated_Source\PSoC4/CYBLE_lls.c **** *   * CYBLE_ERROR_INVALID_PARAMETER - Validation of the input parameters failed
 213:.\Generated_Source\PSoC4/CYBLE_lls.c **** *
 214:.\Generated_Source\PSoC4/CYBLE_lls.c **** * \events
 215:.\Generated_Source\PSoC4/CYBLE_lls.c **** *  None
 216:.\Generated_Source\PSoC4/CYBLE_lls.c **** *
 217:.\Generated_Source\PSoC4/CYBLE_lls.c **** ******************************************************************************/
 218:.\Generated_Source\PSoC4/CYBLE_lls.c **** CYBLE_API_RESULT_T CyBle_LlssGetCharacteristicValue(CYBLE_LLS_CHAR_INDEX_T charIndex, uint8 attrSiz
 219:.\Generated_Source\PSoC4/CYBLE_lls.c **** {
 220              		.loc 1 219 0
ARM GAS  C:\Users\mohammed\AppData\Local\Temp\ccVcpCgS.s 			page 9


 221              		.cfi_startproc
 222              	.LVL10:
 223 0000 1FB5     		push	{r0, r1, r2, r3, r4, lr}
 224              		.cfi_def_cfa_offset 24
 225              		.cfi_offset 0, -24
 226              		.cfi_offset 1, -20
 227              		.cfi_offset 2, -16
 228              		.cfi_offset 3, -12
 229              		.cfi_offset 4, -8
 230              		.cfi_offset 14, -4
 220:.\Generated_Source\PSoC4/CYBLE_lls.c ****     CYBLE_GATT_HANDLE_VALUE_PAIR_T llsHandleValuePair;
 221:.\Generated_Source\PSoC4/CYBLE_lls.c ****     CYBLE_API_RESULT_T apiResult = CYBLE_ERROR_INVALID_PARAMETER;
 231              		.loc 1 221 0
 232 0002 0123     		mov	r3, #1
 222:.\Generated_Source\PSoC4/CYBLE_lls.c **** 
 223:.\Generated_Source\PSoC4/CYBLE_lls.c ****     if((NULL != attrValue) && (CYBLE_LLS_ALERT_LEVEL == charIndex) && (CYBLE_LLS_ALERT_LEVEL_SIZE =
 233              		.loc 1 223 0
 234 0004 002A     		cmp	r2, #0
 235 0006 10D0     		beq	.L17
 236              		.loc 1 223 0 is_stmt 0 discriminator 1
 237 0008 0028     		cmp	r0, #0
 238 000a 0ED1     		bne	.L17
 239              		.loc 1 223 0 discriminator 2
 240 000c 9942     		cmp	r1, r3
 241 000e 0CD1     		bne	.L17
 242 0010 111C     		mov	r1, r2
 243              	.LVL11:
 244 0012 021C     		mov	r2, r0
 245              	.LVL12:
 224:.\Generated_Source\PSoC4/CYBLE_lls.c ****     {
 225:.\Generated_Source\PSoC4/CYBLE_lls.c ****         llsHandleValuePair.attrHandle = cyBle_llss.alertLevelCharHandle;
 246              		.loc 1 225 0 is_stmt 1
 247 0014 0E24     		mov	r4, #14
 248 0016 01A8     		add	r0, sp, #4
 249              	.LVL13:
 226:.\Generated_Source\PSoC4/CYBLE_lls.c ****         llsHandleValuePair.value.len = attrSize;
 227:.\Generated_Source\PSoC4/CYBLE_lls.c ****         llsHandleValuePair.value.val = attrValue;
 250              		.loc 1 227 0
 251 0018 0191     		str	r1, [sp, #4]
 228:.\Generated_Source\PSoC4/CYBLE_lls.c ****         
 229:.\Generated_Source\PSoC4/CYBLE_lls.c ****         /* Get Alert Level characteristic value from GATT database */
 230:.\Generated_Source\PSoC4/CYBLE_lls.c ****         if(CYBLE_GATT_ERR_NONE == 
 231:.\Generated_Source\PSoC4/CYBLE_lls.c ****             CyBle_GattsReadAttributeValue(&llsHandleValuePair, NULL, CYBLE_GATT_DB_LOCALLY_INITIATE
 252              		.loc 1 231 0
 253 001a 111C     		mov	r1, r2
 254              	.LVL14:
 226:.\Generated_Source\PSoC4/CYBLE_lls.c ****         llsHandleValuePair.value.len = attrSize;
 255              		.loc 1 226 0
 256 001c 8380     		strh	r3, [r0, #4]
 225:.\Generated_Source\PSoC4/CYBLE_lls.c ****         llsHandleValuePair.value.len = attrSize;
 257              		.loc 1 225 0
 258 001e 0481     		strh	r4, [r0, #8]
 259              		.loc 1 231 0
 260 0020 FFF7FEFF 		bl	CyBle_GattsReadAttributeValue
 261              	.LVL15:
 230:.\Generated_Source\PSoC4/CYBLE_lls.c ****             CyBle_GattsReadAttributeValue(&llsHandleValuePair, NULL, CYBLE_GATT_DB_LOCALLY_INITIATE
 262              		.loc 1 230 0
ARM GAS  C:\Users\mohammed\AppData\Local\Temp\ccVcpCgS.s 			page 10


 263 0024 431E     		sub	r3, r0, #1
 264 0026 9841     		sbc	r0, r0, r3
 221:.\Generated_Source\PSoC4/CYBLE_lls.c **** 
 265              		.loc 1 221 0
 266 0028 83B2     		uxth	r3, r0
 267              	.L17:
 268              	.LVL16:
 232:.\Generated_Source\PSoC4/CYBLE_lls.c ****         {
 233:.\Generated_Source\PSoC4/CYBLE_lls.c ****             /* Indicate success */
 234:.\Generated_Source\PSoC4/CYBLE_lls.c ****             apiResult = CYBLE_ERROR_OK;
 235:.\Generated_Source\PSoC4/CYBLE_lls.c ****         }
 236:.\Generated_Source\PSoC4/CYBLE_lls.c ****     }
 237:.\Generated_Source\PSoC4/CYBLE_lls.c ****     
 238:.\Generated_Source\PSoC4/CYBLE_lls.c ****     /* Return status */
 239:.\Generated_Source\PSoC4/CYBLE_lls.c ****     return(apiResult);
 240:.\Generated_Source\PSoC4/CYBLE_lls.c **** }
 269              		.loc 1 240 0
 270 002a 181C     		mov	r0, r3
 271 002c 04B0     		add	sp, sp, #16
 272              		@ sp needed
 273 002e 10BD     		pop	{r4, pc}
 274              		.cfi_endproc
 275              	.LFE6:
 276              		.size	CyBle_LlssGetCharacteristicValue, .-CyBle_LlssGetCharacteristicValue
 277              		.global	cyBle_llss
 278              		.section	.rodata
 279              		.align	1
 280              		.type	cyBle_llss, %object
 281              		.size	cyBle_llss, 4
 282              	cyBle_llss:
 283 0000 0C00     		.short	12
 284 0002 0E00     		.short	14
 285              		.bss
 286              		.align	2
 287              		.set	.LANCHOR0,. + 0
 288              		.type	CyBle_LlsApplCallback, %object
 289              		.size	CyBle_LlsApplCallback, 4
 290              	CyBle_LlsApplCallback:
 291 0000 00000000 		.space	4
 292              		.text
 293              	.Letext0:
 294              		.file 2 ".\\Generated_Source\\PSoC4\\cytypes.h"
 295              		.file 3 ".\\Generated_Source\\PSoC4\\CYBLE_Stack.h"
 296              		.file 4 ".\\Generated_Source\\PSoC4\\CYBLE_StackGatt.h"
 297              		.file 5 ".\\Generated_Source\\PSoC4\\CYBLE_StackGattServer.h"
 298              		.file 6 ".\\Generated_Source\\PSoC4\\CYBLE.h"
 299              		.file 7 ".\\Generated_Source\\PSoC4\\CYBLE_lls.h"
 300              		.file 8 ".\\Generated_Source\\PSoC4\\CYBLE_eventHandler.h"
 301              		.file 9 ".\\Generated_Source\\PSoC4\\CYBLE_StackGattDb.h"