ARM GAS  C:\Users\mohammed\AppData\Local\Temp\ccmI5n8g.s 			page 1


   1              		.cpu cortex-m0
   2              		.fpu softvfp
   3              		.eabi_attribute 20, 1
   4              		.eabi_attribute 21, 1
   5              		.eabi_attribute 23, 3
   6              		.eabi_attribute 24, 1
   7              		.eabi_attribute 25, 1
   8              		.eabi_attribute 26, 1
   9              		.eabi_attribute 30, 4
  10              		.eabi_attribute 34, 0
  11              		.eabi_attribute 18, 4
  12              		.code	16
  13              		.file	"main.c"
  14              		.text
  15              	.Ltext0:
  16              		.cfi_sections	.debug_frame
  17              		.section	.text.ButtonPressInt,"ax",%progbits
  18              		.align	1
  19              		.global	ButtonPressInt
  20              		.code	16
  21              		.thumb_func
  22              		.type	ButtonPressInt, %function
  23              	ButtonPressInt:
  24              	.LFB39:
  25              		.file 1 ".\\main.c"
   1:.\main.c      **** /*******************************************************************************
   2:.\main.c      **** * File Name: main.c
   3:.\main.c      **** *
   4:.\main.c      **** * Version: 1.0
   5:.\main.c      **** *
   6:.\main.c      **** * Description:
   7:.\main.c      **** *  This is source code for the CYBLE Proximity Profile example project. In this
   8:.\main.c      **** *  example project the CYBLE component is configured for Proximity Reporter
   9:.\main.c      **** *  profile role.
  10:.\main.c      **** *
  11:.\main.c      **** ********************************************************************************
  12:.\main.c      **** * Copyright 2015, Cypress Semiconductor Corporation.  All rights reserved.
  13:.\main.c      **** * You may use this file only in accordance with the license, terms, conditions,
  14:.\main.c      **** * disclaimers, and limitations in the end user license agreement accompanying
  15:.\main.c      **** * the software package with which this file was provided.
  16:.\main.c      **** *******************************************************************************/
  17:.\main.c      **** 
  18:.\main.c      **** #include "common.h"
  19:.\main.c      **** 
  20:.\main.c      **** 
  21:.\main.c      **** /***************************************
  22:.\main.c      **** *          API Constants
  23:.\main.c      **** ***************************************/
  24:.\main.c      **** #define DISCONNECTED                        (0u)
  25:.\main.c      **** #define ADVERTISING                         (1u)
  26:.\main.c      **** #define CONNECTED                           (2u)
  27:.\main.c      **** 
  28:.\main.c      **** #define ALERT_TO                            (5u)
  29:.\main.c      **** #define BLINK_DELAY                         (90u)
  30:.\main.c      **** #define ALERT_BLINK_DELAY                   (20u)
  31:.\main.c      **** 
  32:.\main.c      **** 
ARM GAS  C:\Users\mohammed\AppData\Local\Temp\ccmI5n8g.s 			page 2


  33:.\main.c      **** /***************************************
  34:.\main.c      **** *        Global Variables
  35:.\main.c      **** ***************************************/
  36:.\main.c      **** CYBLE_CONN_HANDLE_T  connectionHandle;
  37:.\main.c      **** uint8                ledState = LED_OFF;
  38:.\main.c      **** uint8                advLedState = LED_OFF;
  39:.\main.c      **** uint8                alertLedState = LED_OFF;
  40:.\main.c      **** uint16               alertBlinkDelayCount;
  41:.\main.c      **** uint16               advBlinkDelayCount;
  42:.\main.c      **** uint8                displayAlertMessage = YES;
  43:.\main.c      **** uint8                buttonState = BUTTON_IS_NOT_PRESSED;
  44:.\main.c      **** uint8                customDataVal;
  45:.\main.c      **** uint8*               customDataPtr;
  46:.\main.c      **** 
  47:.\main.c      **** 
  48:.\main.c      **** uint16 ms_count = 0;
  49:.\main.c      ****  
  50:.\main.c      **** CY_ISR(MY_ISR) {
  51:.\main.c      ****     ms_count++;
  52:.\main.c      ****      
  53:.\main.c      ****     if(ms_count == 1000) { // 1 second
  54:.\main.c      ****         LED_Write(!LED_Read()); // Toggle LED
  55:.\main.c      ****         ms_count = 0; // reset ms counter
  56:.\main.c      ****     }
  57:.\main.c      **** }
  58:.\main.c      **** 
  59:.\main.c      **** /*******************************************************************************
  60:.\main.c      **** * Function Name: AppCallBack
  61:.\main.c      **** ********************************************************************************
  62:.\main.c      **** *
  63:.\main.c      **** * Summary:
  64:.\main.c      **** *  This is an event callback function to receive events from the CYBLE Component.
  65:.\main.c      **** *
  66:.\main.c      **** * Parameters:
  67:.\main.c      **** *  uint8 event:       Event from the CYBLE component.
  68:.\main.c      **** *  void* eventParams: A structure instance for corresponding event type. The
  69:.\main.c      **** *                     list of events structure is described in the component
  70:.\main.c      **** *                     datasheet.
  71:.\main.c      **** *
  72:.\main.c      **** * Return:
  73:.\main.c      **** *  None
  74:.\main.c      **** *
  75:.\main.c      **** *******************************************************************************/
  76:.\main.c      **** void AppCallBack(uint32 event, void *eventParam)
  77:.\main.c      **** {
  78:.\main.c      ****     CYBLE_API_RESULT_T apiResult;
  79:.\main.c      ****     CYBLE_GAP_BD_ADDR_T localAddr;
  80:.\main.c      ****     uint8 i;
  81:.\main.c      ****     CYBLE_GATTS_WRITE_REQ_PARAM_T *wrReqParam;
  82:.\main.c      ****     switch(event)
  83:.\main.c      ****     {
  84:.\main.c      ****     /**********************************************************
  85:.\main.c      ****     *                       General Events
  86:.\main.c      ****     ***********************************************************/
  87:.\main.c      ****     case CYBLE_EVT_STACK_ON: /* This event is received when the component is Started */
  88:.\main.c      ****         //DBG_PRINTF("Bluetooth On. Device address is: ");
  89:.\main.c      ****         localAddr.type = 0u;
ARM GAS  C:\Users\mohammed\AppData\Local\Temp\ccmI5n8g.s 			page 3


  90:.\main.c      ****         CyBle_GetDeviceAddress(&localAddr);
  91:.\main.c      ****         for(i = CYBLE_GAP_BD_ADDR_SIZE; i > 0u; i--)
  92:.\main.c      ****         {
  93:.\main.c      ****             //DBG_PRINTF("%2.2x", localAddr.bdAddr[i-1]);
  94:.\main.c      ****         }
  95:.\main.c      ****         //DBG_PRINTF("\r\n");
  96:.\main.c      **** 
  97:.\main.c      ****         /* Enter discoverable mode so that the remote Client could find the device. */
  98:.\main.c      ****         apiResult = CyBle_GappStartAdvertisement(CYBLE_ADVERTISING_FAST);
  99:.\main.c      **** 
 100:.\main.c      ****         if(apiResult != CYBLE_ERROR_OK)
 101:.\main.c      ****         {
 102:.\main.c      ****             //DBG_PRINTF("StartAdvertisement API Error: %d \r\n", apiResult);
 103:.\main.c      ****         }
 104:.\main.c      ****         break;
 105:.\main.c      **** 
 106:.\main.c      ****     case CYBLE_EVT_TIMEOUT:
 107:.\main.c      ****         /* Possible timeout event parameter values:
 108:.\main.c      ****         * CYBLE_GAP_ADV_MODE_TO -> GAP limited discoverable mode timeout;
 109:.\main.c      ****         * CYBLE_GAP_AUTH_TO -> GAP pairing process timeout.
 110:.\main.c      ****         */
 111:.\main.c      ****         if(CYBLE_GAP_ADV_MODE_TO == *(uint8 *) eventParam)
 112:.\main.c      ****         {
 113:.\main.c      ****             //DBG_PRINTF("Advertisement timeout occurred. Advertisement will be disabled.\r\n");
 114:.\main.c      ****         }
 115:.\main.c      ****         else
 116:.\main.c      ****         {
 117:.\main.c      ****             //DBG_PRINTF("Timeout occurred.\r\n");
 118:.\main.c      ****         }
 119:.\main.c      ****         break;
 120:.\main.c      **** 
 121:.\main.c      ****     case CYBLE_EVT_HARDWARE_ERROR:    /* This event indicates that some internal HW error has occur
 122:.\main.c      ****         //DBG_PRINTF("Hardware Error \r\n");
 123:.\main.c      ****         break;
 124:.\main.c      **** 
 125:.\main.c      ****     case CYBLE_EVT_HCI_STATUS:
 126:.\main.c      ****         //DBG_PRINTF("HCI Error. Error code is %x.\r\n", *(uint8 *) eventParam);
 127:.\main.c      ****         break;
 128:.\main.c      **** 
 129:.\main.c      ****     /**********************************************************
 130:.\main.c      ****     *                       GAP Events
 131:.\main.c      ****     ***********************************************************/
 132:.\main.c      ****     case CYBLE_EVT_GAPP_ADVERTISEMENT_START_STOP:
 133:.\main.c      ****         if(CyBle_GetState() == CYBLE_STATE_DISCONNECTED)
 134:.\main.c      ****         {   
 135:.\main.c      ****             /* Fast and slow advertising period complete, go to low power  
 136:.\main.c      ****              * mode (Hibernate mode) and wait for an external
 137:.\main.c      ****              * user event to wake up the device again */
 138:.\main.c      ****             //DBG_PRINTF("Hibernate \r\n");
 139:.\main.c      ****             Disconnect_LED_Write(LED_ON);
 140:.\main.c      ****             Advertising_LED_Write(LED_OFF);
 141:.\main.c      ****             Alert_LED_Write(LED_OFF);
 142:.\main.c      ****         #if (DEBUG_UART_ENABLED == ENABLED)
 143:.\main.c      ****             while((UART_DEB_SpiUartGetTxBufferSize() + UART_DEB_GET_TX_FIFO_SR_VALID) != 0);
 144:.\main.c      ****         #endif /* (DEBUG_UART_ENABLED == ENABLED) */
 145:.\main.c      ****             SW2_ClearInterrupt();
 146:.\main.c      ****             SW2_Interrupt_ClearPending();
ARM GAS  C:\Users\mohammed\AppData\Local\Temp\ccmI5n8g.s 			page 4


 147:.\main.c      ****             SW2_Interrupt_Start();
 148:.\main.c      ****             CySysPmHibernate();
 149:.\main.c      ****         }
 150:.\main.c      ****         break;
 151:.\main.c      **** 
 152:.\main.c      ****     case CYBLE_EVT_GAP_DEVICE_CONNECTED:
 153:.\main.c      ****         //DBG_PRINTF("CYBLE_EVT_GAP_DEVICE_CONNECTED: %d \r\n", connectionHandle.bdHandle);
 154:.\main.c      ****         break;
 155:.\main.c      **** 
 156:.\main.c      ****     case CYBLE_EVT_GAP_DEVICE_DISCONNECTED:
 157:.\main.c      ****         //DBG_PRINTF("CYBLE_EVT_GAP_DEVICE_DISCONNECTED\r\n");
 158:.\main.c      ****         /* Enter discoverable mode so that remote Client could find the device. */
 159:.\main.c      ****         apiResult = CyBle_GappStartAdvertisement(CYBLE_ADVERTISING_FAST);
 160:.\main.c      ****         connectionHandle.bdHandle = 0u;
 161:.\main.c      ****         llsAlertTOCounter = 0;
 162:.\main.c      ****         if(apiResult != CYBLE_ERROR_OK)
 163:.\main.c      ****         {
 164:.\main.c      ****             //DBG_PRINTF("StartAdvertisement API Error: %d\r\n", apiResult);
 165:.\main.c      ****         }
 166:.\main.c      ****         break;
 167:.\main.c      **** 
 168:.\main.c      ****     /**********************************************************
 169:.\main.c      ****     *                       GATT Events
 170:.\main.c      ****     ***********************************************************/
 171:.\main.c      ****     case CYBLE_EVT_GATT_CONNECT_IND:
 172:.\main.c      ****         /* GATT connection was established */
 173:.\main.c      ****         connectionHandle = *(CYBLE_CONN_HANDLE_T *) eventParam;
 174:.\main.c      ****         //DBG_PRINTF("CYBLE_EVT_GATT_CONNECT_IND: %x\r\n", connectionHandle.attId);
 175:.\main.c      ****         break;
 176:.\main.c      **** 
 177:.\main.c      ****     case CYBLE_EVT_GATT_DISCONNECT_IND:
 178:.\main.c      ****         /* GATT connection was disabled */
 179:.\main.c      ****         //DBG_PRINTF("CYBLE_EVT_GATT_DISCONNECT_IND:\r\n");
 180:.\main.c      ****         connectionHandle.attId = 0u;
 181:.\main.c      **** 
 182:.\main.c      ****         /* Get the LLS Alert Level from the GATT database */
 183:.\main.c      ****         (void) CyBle_LlssGetCharacteristicValue(CYBLE_LLS_ALERT_LEVEL, CYBLE_LLS_ALERT_LEVEL_SIZE, 
 184:.\main.c      ****    
 185:.\main.c      **** //        CYBLE_GATT_HANDLE_VALUE_PAIR_T llsHandleValuePair;
 186:.\main.c      **** //        llsHandleValuePair.attrHandle = cyBle_customs[0].customServHandle;
 187:.\main.c      **** //        llsHandleValuePair.value.len = CYBLE_CUSTOMS_SERVICE_COUNT;
 188:.\main.c      **** //        llsHandleValuePair.value.val = &countOfLed;
 189:.\main.c      **** //         /* Get Alert Level characteristic value from GATT database */
 190:.\main.c      **** //        if(CYBLE_GATT_ERR_NONE == 
 191:.\main.c      **** //            CyBle_GattsReadAttributeValue(&llsHandleValuePair, NULL, CYBLE_GATT_DB_LOCALLY_INITIA
 192:.\main.c      **** //        {
 193:.\main.c      **** //            /* Indicate success */
 194:.\main.c      **** //            apiResult = CYBLE_ERROR_OK;
 195:.\main.c      **** //        }
 196:.\main.c      ****         break;
 197:.\main.c      **** 
 198:.\main.c      ****     case CYBLE_EVT_GATTS_XCNHG_MTU_REQ:
 199:.\main.c      ****         break;
 200:.\main.c      **** 
 201:.\main.c      ****     case CYBLE_EVT_GATTS_INDICATION_ENABLED:
 202:.\main.c      ****         break;
 203:.\main.c      ****         
ARM GAS  C:\Users\mohammed\AppData\Local\Temp\ccmI5n8g.s 			page 5


 204:.\main.c      ****     case CYBLE_EVT_GATTS_WRITE_REQ:
 205:.\main.c      ****         wrReqParam = (CYBLE_GATTS_WRITE_REQ_PARAM_T *) eventParam;
 206:.\main.c      ****         
 207:.\main.c      ****         if(CYBLE_CUSTOM_SERVICE_CUSTOM_CHARACTERISTIC_CHAR_HANDLE == wrReqParam->handleValPair.attr
 208:.\main.c      **** 			{
 209:.\main.c      **** 				/* Extract the Write value sent by the Client for CapSense Slider CCCD */
 210:.\main.c      ****                 customDataVal = wrReqParam->handleValPair.value.val[CYBLE_CUSTOM_SERVICE_CUSTOM_CHA
 211:.\main.c      ****                 customDataPtr = wrReqParam->handleValPair.value.val;
 212:.\main.c      ****                 uint8 data[100];
 213:.\main.c      ****                 memset(data,0,100);
 214:.\main.c      ****                 memcpy(data,customDataPtr,wrReqParam->handleValPair.value.len);
 215:.\main.c      ****                 //memcpy(data,customDataPtr,wrReqParam->handleValPair.value.len);
 216:.\main.c      ****                 //printf("Received data:\r\n");
 217:.\main.c      ****                 printf("%s \r\n", data);
 218:.\main.c      ****                 //UART_DEB_UartPutString("hello");
 219:.\main.c      **** 				
 220:.\main.c      ****             }
 221:.\main.c      **** 
 222:.\main.c      ****     case CYBLE_EVT_GATTS_READ_CHAR_VAL_ACCESS_REQ:
 223:.\main.c      ****         /* Triggered on server side when client sends read request and when
 224:.\main.c      ****         * characteristic has CYBLE_GATT_DB_ATTR_CHAR_VAL_RD_EVENT property set.
 225:.\main.c      ****         * This event could be ignored by application unless it need to response
 226:.\main.c      ****         * by error response which needs to be set in gattErrorCode field of
 227:.\main.c      ****         * event parameter. */
 228:.\main.c      ****         ////DBG_PRINTF("CYBLE_EVT_GATTS_READ_CHAR_VAL_ACCESS_REQ: handle: %x \r\n", 
 229:.\main.c      ****         //    ((CYBLE_GATTS_CHAR_VAL_READ_REQ_T *)eventParam)->attrHandle);
 230:.\main.c      ****         break;
 231:.\main.c      **** 
 232:.\main.c      ****     /**********************************************************
 233:.\main.c      ****     *                       Other Events
 234:.\main.c      ****     ***********************************************************/
 235:.\main.c      ****     case CYBLE_EVT_PENDING_FLASH_WRITE:
 236:.\main.c      ****         /* Inform application that flash write is pending. Stack internal data 
 237:.\main.c      ****         * structures are modified and require to be stored in Flash using 
 238:.\main.c      ****         * CyBle_StoreBondingData() */
 239:.\main.c      ****         ////DBG_PRINTF("CYBLE_EVT_PENDING_FLASH_WRITE\r\n");
 240:.\main.c      ****         break;
 241:.\main.c      **** 
 242:.\main.c      ****     default:
 243:.\main.c      ****         ////DBG_PRINTF("OTHER event: %lx \r\n", event);
 244:.\main.c      ****         break;
 245:.\main.c      ****     }
 246:.\main.c      **** }
 247:.\main.c      **** 
 248:.\main.c      **** 
 249:.\main.c      **** /*******************************************************************************
 250:.\main.c      **** * Function Name: SW_Interrupt
 251:.\main.c      **** ********************************************************************************
 252:.\main.c      **** *
 253:.\main.c      **** * Summary:
 254:.\main.c      **** *   Handles the mechanical button press.
 255:.\main.c      **** *
 256:.\main.c      **** * Parameters:
 257:.\main.c      **** *   None
 258:.\main.c      **** *
 259:.\main.c      **** * Return:
 260:.\main.c      **** *   None
ARM GAS  C:\Users\mohammed\AppData\Local\Temp\ccmI5n8g.s 			page 6


 261:.\main.c      **** *
 262:.\main.c      **** *******************************************************************************/
 263:.\main.c      **** CY_ISR(ButtonPressInt)
 264:.\main.c      **** {
  26              		.loc 1 264 0
  27              		.cfi_startproc
 265:.\main.c      ****     buttonState = BUTTON_IS_PRESSED;
  28              		.loc 1 265 0
  29 0000 0122     		mov	r2, #1
 264:.\main.c      ****     buttonState = BUTTON_IS_PRESSED;
  30              		.loc 1 264 0
  31 0002 08B5     		push	{r3, lr}
  32              		.cfi_def_cfa_offset 8
  33              		.cfi_offset 3, -8
  34              		.cfi_offset 14, -4
  35              		.loc 1 265 0
  36 0004 024B     		ldr	r3, .L2
 266:.\main.c      **** 
 267:.\main.c      ****     SW2_ClearInterrupt();
 268:.\main.c      **** }
  37              		.loc 1 268 0
  38              		@ sp needed
 265:.\main.c      **** 
  39              		.loc 1 265 0
  40 0006 1A70     		strb	r2, [r3]
 267:.\main.c      **** }
  41              		.loc 1 267 0
  42 0008 FFF7FEFF 		bl	SW2_ClearInterrupt
  43              	.LVL0:
  44              		.loc 1 268 0
  45 000c 08BD     		pop	{r3, pc}
  46              	.L3:
  47 000e C046     		.align	2
  48              	.L2:
  49 0010 00000000 		.word	.LANCHOR0
  50              		.cfi_endproc
  51              	.LFE39:
  52              		.size	ButtonPressInt, .-ButtonPressInt
  53              		.section	.text.AppCallBack,"ax",%progbits
  54              		.align	1
  55              		.global	AppCallBack
  56              		.code	16
  57              		.thumb_func
  58              		.type	AppCallBack, %function
  59              	AppCallBack:
  60              	.LFB38:
  77:.\main.c      ****     CYBLE_API_RESULT_T apiResult;
  61              		.loc 1 77 0
  62              		.cfi_startproc
  63              	.LVL1:
  64 0000 30B5     		push	{r4, r5, lr}
  65              		.cfi_def_cfa_offset 12
  66              		.cfi_offset 4, -12
  67              		.cfi_offset 5, -8
  68              		.cfi_offset 14, -4
  69 0002 0C1C     		mov	r4, r1
  70 0004 9BB0     		sub	sp, sp, #108
ARM GAS  C:\Users\mohammed\AppData\Local\Temp\ccmI5n8g.s 			page 7


  71              		.cfi_def_cfa_offset 120
  82:.\main.c      ****     {
  72              		.loc 1 82 0
  73 0006 2828     		cmp	r0, #40
  74 0008 37D0     		beq	.L6
  75 000a 04D8     		bhi	.L7
  76 000c 0128     		cmp	r0, #1
  77 000e 0DD0     		beq	.L8
  78 0010 2628     		cmp	r0, #38
  79 0012 14D0     		beq	.L9
  80 0014 59E0     		b	.L4
  81              	.L7:
  82 0016 4228     		cmp	r0, #66
  83 0018 38D0     		beq	.L10
  84 001a 4C28     		cmp	r0, #76
  85 001c 3ED0     		beq	.L11
  86 001e 4128     		cmp	r0, #65
  87 0020 53D1     		bne	.L4
 173:.\main.c      ****         //DBG_PRINTF("CYBLE_EVT_GATT_CONNECT_IND: %x\r\n", connectionHandle.attId);
  88              		.loc 1 173 0
  89 0022 0222     		mov	r2, #2
  90 0024 2A48     		ldr	r0, .L15
  91              	.LVL2:
  92 0026 FFF7FEFF 		bl	memcpy
  93              	.LVL3:
 175:.\main.c      **** 
  94              		.loc 1 175 0
  95 002a 4EE0     		b	.L4
  96              	.LVL4:
  97              	.L8:
  89:.\main.c      ****         CyBle_GetDeviceAddress(&localAddr);
  98              		.loc 1 89 0
  99 002c 0024     		mov	r4, #0
 100 002e 01A8     		add	r0, sp, #4
 101              	.LVL5:
 102 0030 8471     		strb	r4, [r0, #6]
  90:.\main.c      ****         for(i = CYBLE_GAP_BD_ADDR_SIZE; i > 0u; i--)
 103              		.loc 1 90 0
 104 0032 FFF7FEFF 		bl	CyBle_GetDeviceAddress
 105              	.LVL6:
  98:.\main.c      **** 
 106              		.loc 1 98 0
 107 0036 201C     		mov	r0, r4
 108 0038 FFF7FEFF 		bl	CyBle_GappStartAdvertisement
 109              	.LVL7:
 104:.\main.c      **** 
 110              		.loc 1 104 0
 111 003c 45E0     		b	.L4
 112              	.LVL8:
 113              	.L9:
 133:.\main.c      ****         {   
 114              		.loc 1 133 0
 115 003e 254B     		ldr	r3, .L15+4
 116 0040 1B78     		ldrb	r3, [r3]
 117 0042 042B     		cmp	r3, #4
 118 0044 41D1     		bne	.L4
 139:.\main.c      ****             Advertising_LED_Write(LED_OFF);
ARM GAS  C:\Users\mohammed\AppData\Local\Temp\ccmI5n8g.s 			page 8


 119              		.loc 1 139 0
 120 0046 0020     		mov	r0, #0
 121              	.LVL9:
 122 0048 FFF7FEFF 		bl	Disconnect_LED_Write
 123              	.LVL10:
 140:.\main.c      ****             Alert_LED_Write(LED_OFF);
 124              		.loc 1 140 0
 125 004c 0120     		mov	r0, #1
 126 004e FFF7FEFF 		bl	Advertising_LED_Write
 127              	.LVL11:
 141:.\main.c      ****         #if (DEBUG_UART_ENABLED == ENABLED)
 128              		.loc 1 141 0
 129 0052 0120     		mov	r0, #1
 130 0054 FFF7FEFF 		bl	Alert_LED_Write
 131              	.LVL12:
 132              	.L13:
 143:.\main.c      ****         #endif /* (DEBUG_UART_ENABLED == ENABLED) */
 133              		.loc 1 143 0 discriminator 5
 134 0058 FFF7FEFF 		bl	UART_DEB_SpiUartGetTxBufferSize
 135              	.LVL13:
 136 005c 1E4B     		ldr	r3, .L15+8
 137 005e 1B68     		ldr	r3, [r3]
 138 0060 1B04     		lsl	r3, r3, #16
 139 0062 DB17     		asr	r3, r3, #31
 140 0064 8342     		cmp	r3, r0
 141 0066 F7D1     		bne	.L13
 145:.\main.c      ****             SW2_Interrupt_ClearPending();
 142              		.loc 1 145 0
 143 0068 FFF7FEFF 		bl	SW2_ClearInterrupt
 144              	.LVL14:
 146:.\main.c      ****             SW2_Interrupt_Start();
 145              		.loc 1 146 0
 146 006c FFF7FEFF 		bl	SW2_Interrupt_ClearPending
 147              	.LVL15:
 147:.\main.c      ****             CySysPmHibernate();
 148              		.loc 1 147 0
 149 0070 FFF7FEFF 		bl	SW2_Interrupt_Start
 150              	.LVL16:
 148:.\main.c      ****         }
 151              		.loc 1 148 0
 152 0074 FFF7FEFF 		bl	CySysPmHibernate
 153              	.LVL17:
 154 0078 27E0     		b	.L4
 155              	.LVL18:
 156              	.L6:
 159:.\main.c      ****         connectionHandle.bdHandle = 0u;
 157              		.loc 1 159 0
 158 007a 0020     		mov	r0, #0
 159              	.LVL19:
 160 007c FFF7FEFF 		bl	CyBle_GappStartAdvertisement
 161              	.LVL20:
 160:.\main.c      ****         llsAlertTOCounter = 0;
 162              		.loc 1 160 0
 163 0080 0023     		mov	r3, #0
 164 0082 134A     		ldr	r2, .L15
 165 0084 1370     		strb	r3, [r2]
 161:.\main.c      ****         if(apiResult != CYBLE_ERROR_OK)
ARM GAS  C:\Users\mohammed\AppData\Local\Temp\ccmI5n8g.s 			page 9


 166              		.loc 1 161 0
 167 0086 154A     		ldr	r2, .L15+12
 168 0088 1370     		strb	r3, [r2]
 166:.\main.c      **** 
 169              		.loc 1 166 0
 170 008a 1EE0     		b	.L4
 171              	.LVL21:
 172              	.L10:
 180:.\main.c      **** 
 173              		.loc 1 180 0
 174 008c 0020     		mov	r0, #0
 175              	.LVL22:
 176 008e 104B     		ldr	r3, .L15
 183:.\main.c      ****    
 177              		.loc 1 183 0
 178 0090 0121     		mov	r1, #1
 179              	.LVL23:
 180 0092 134A     		ldr	r2, .L15+16
 180:.\main.c      **** 
 181              		.loc 1 180 0
 182 0094 5870     		strb	r0, [r3, #1]
 183:.\main.c      ****    
 183              		.loc 1 183 0
 184 0096 FFF7FEFF 		bl	CyBle_LlssGetCharacteristicValue
 185              	.LVL24:
 196:.\main.c      **** 
 186              		.loc 1 196 0
 187 009a 16E0     		b	.L4
 188              	.LVL25:
 189              	.L11:
 207:.\main.c      **** 			{
 190              		.loc 1 207 0
 191 009c 8B89     		ldrh	r3, [r1, #12]
 192 009e 152B     		cmp	r3, #21
 193 00a0 13D1     		bne	.L4
 194              	.LBB2:
 210:.\main.c      ****                 customDataPtr = wrReqParam->handleValPair.value.val;
 195              		.loc 1 210 0
 196 00a2 4D68     		ldr	r5, [r1, #4]
 197 00a4 0F4B     		ldr	r3, .L15+20
 198 00a6 2A78     		ldrb	r2, [r5]
 213:.\main.c      ****                 memcpy(data,customDataPtr,wrReqParam->handleValPair.value.len);
 199              		.loc 1 213 0
 200 00a8 0021     		mov	r1, #0
 201              	.LVL26:
 210:.\main.c      ****                 customDataPtr = wrReqParam->handleValPair.value.val;
 202              		.loc 1 210 0
 203 00aa 1A70     		strb	r2, [r3]
 211:.\main.c      ****                 uint8 data[100];
 204              		.loc 1 211 0
 205 00ac 0E4B     		ldr	r3, .L15+24
 213:.\main.c      ****                 memcpy(data,customDataPtr,wrReqParam->handleValPair.value.len);
 206              		.loc 1 213 0
 207 00ae 6422     		mov	r2, #100
 208 00b0 01A8     		add	r0, sp, #4
 209              	.LVL27:
 211:.\main.c      ****                 uint8 data[100];
ARM GAS  C:\Users\mohammed\AppData\Local\Temp\ccmI5n8g.s 			page 10


 210              		.loc 1 211 0
 211 00b2 1D60     		str	r5, [r3]
 213:.\main.c      ****                 memcpy(data,customDataPtr,wrReqParam->handleValPair.value.len);
 212              		.loc 1 213 0
 213 00b4 FFF7FEFF 		bl	memset
 214              	.LVL28:
 214:.\main.c      ****                 //memcpy(data,customDataPtr,wrReqParam->handleValPair.value.len);
 215              		.loc 1 214 0
 216 00b8 291C     		mov	r1, r5
 217 00ba 2289     		ldrh	r2, [r4, #8]
 218 00bc 01A8     		add	r0, sp, #4
 219 00be FFF7FEFF 		bl	memcpy
 220              	.LVL29:
 217:.\main.c      ****                 //UART_DEB_UartPutString("hello");
 221              		.loc 1 217 0
 222 00c2 0A48     		ldr	r0, .L15+28
 223 00c4 01A9     		add	r1, sp, #4
 224 00c6 FFF7FEFF 		bl	printf
 225              	.LVL30:
 226              	.L4:
 227              	.LBE2:
 246:.\main.c      **** 
 228              		.loc 1 246 0
 229 00ca 1BB0     		add	sp, sp, #108
 230              		@ sp needed
 231 00cc 30BD     		pop	{r4, r5, pc}
 232              	.L16:
 233 00ce C046     		.align	2
 234              	.L15:
 235 00d0 00000000 		.word	connectionHandle
 236 00d4 00000000 		.word	cyBle_state
 237 00d8 08022440 		.word	1076101640
 238 00dc 00000000 		.word	llsAlertTOCounter
 239 00e0 00000000 		.word	alertLevel
 240 00e4 00000000 		.word	customDataVal
 241 00e8 00000000 		.word	customDataPtr
 242 00ec 00000000 		.word	.LC7
 243              		.cfi_endproc
 244              	.LFE38:
 245              		.size	AppCallBack, .-AppCallBack
 246              		.section	.text.MY_ISR,"ax",%progbits
 247              		.align	1
 248              		.global	MY_ISR
 249              		.code	16
 250              		.thumb_func
 251              		.type	MY_ISR, %function
 252              	MY_ISR:
 253              	.LFB37:
  50:.\main.c      ****     ms_count++;
 254              		.loc 1 50 0
 255              		.cfi_startproc
  53:.\main.c      ****         LED_Write(!LED_Read()); // Toggle LED
 256              		.loc 1 53 0
 257 0000 FA22     		mov	r2, #250
  50:.\main.c      ****     ms_count++;
 258              		.loc 1 50 0
 259 0002 10B5     		push	{r4, lr}
ARM GAS  C:\Users\mohammed\AppData\Local\Temp\ccmI5n8g.s 			page 11


 260              		.cfi_def_cfa_offset 8
 261              		.cfi_offset 4, -8
 262              		.cfi_offset 14, -4
  51:.\main.c      ****      
 263              		.loc 1 51 0
 264 0004 084C     		ldr	r4, .L19
  53:.\main.c      ****         LED_Write(!LED_Read()); // Toggle LED
 265              		.loc 1 53 0
 266 0006 9200     		lsl	r2, r2, #2
  51:.\main.c      ****      
 267              		.loc 1 51 0
 268 0008 6388     		ldrh	r3, [r4, #2]
 269 000a 0133     		add	r3, r3, #1
 270 000c 9BB2     		uxth	r3, r3
 271 000e 6380     		strh	r3, [r4, #2]
  53:.\main.c      ****         LED_Write(!LED_Read()); // Toggle LED
 272              		.loc 1 53 0
 273 0010 9342     		cmp	r3, r2
 274 0012 08D1     		bne	.L17
 275              	.LBB5:
 276              	.LBB6:
  54:.\main.c      ****         ms_count = 0; // reset ms counter
 277              		.loc 1 54 0
 278 0014 FFF7FEFF 		bl	LED_Read
 279              	.LVL31:
 280 0018 4342     		neg	r3, r0
 281 001a 5841     		adc	r0, r0, r3
 282 001c C0B2     		uxtb	r0, r0
 283 001e FFF7FEFF 		bl	LED_Write
 284              	.LVL32:
  55:.\main.c      ****     }
 285              		.loc 1 55 0
 286 0022 0023     		mov	r3, #0
 287 0024 6380     		strh	r3, [r4, #2]
 288              	.L17:
 289              	.LBE6:
 290              	.LBE5:
  57:.\main.c      **** 
 291              		.loc 1 57 0
 292              		@ sp needed
 293 0026 10BD     		pop	{r4, pc}
 294              	.L20:
 295              		.align	2
 296              	.L19:
 297 0028 00000000 		.word	.LANCHOR0
 298              		.cfi_endproc
 299              	.LFE37:
 300              		.size	MY_ISR, .-MY_ISR
 301              		.section	.text.Timer_Interrupt,"ax",%progbits
 302              		.align	1
 303              		.global	Timer_Interrupt
 304              		.code	16
 305              		.thumb_func
 306              		.type	Timer_Interrupt, %function
 307              	Timer_Interrupt:
 308              	.LFB41:
 269:.\main.c      **** 
ARM GAS  C:\Users\mohammed\AppData\Local\Temp\ccmI5n8g.s 			page 12


 270:.\main.c      **** 
 271:.\main.c      **** /*******************************************************************************
 272:.\main.c      **** * Function Name: WDT_Start
 273:.\main.c      **** ********************************************************************************
 274:.\main.c      **** *
 275:.\main.c      **** * Summary:
 276:.\main.c      **** *  Configures and starts Watchdog timer to trigger an interrupt every second.
 277:.\main.c      **** *
 278:.\main.c      **** * Parameters:
 279:.\main.c      **** *   None
 280:.\main.c      **** *
 281:.\main.c      **** * Return:
 282:.\main.c      **** *   None
 283:.\main.c      **** *
 284:.\main.c      **** *******************************************************************************/
 285:.\main.c      **** void WDT_Start(void)
 286:.\main.c      **** {
 287:.\main.c      ****     /* Unlock the WDT registers for modification */
 288:.\main.c      ****     CySysWdtUnlock();
 289:.\main.c      ****     /* Setup ISR callback */
 290:.\main.c      ****     WDT_Interrupt_StartEx(&Timer_Interrupt);
 291:.\main.c      ****     /* Write the mode to generate interrupt on match */
 292:.\main.c      ****     CySysWdtWriteMode(WDT_COUNTER, CY_SYS_WDT_MODE_INT);
 293:.\main.c      ****     /* Configure the WDT counter clear on a match setting */
 294:.\main.c      ****     CySysWdtWriteClearOnMatch(WDT_COUNTER, WDT_COUNTER_ENABLE);
 295:.\main.c      ****     /* Configure the WDT counter match comparison value */
 296:.\main.c      ****     CySysWdtWriteMatch(WDT_COUNTER, WDT_COUNT_PERIOD);
 297:.\main.c      ****     /* Reset WDT counter */
 298:.\main.c      ****     CySysWdtResetCounters(WDT_COUNTER);
 299:.\main.c      ****     /* Enable the specified WDT counter */
 300:.\main.c      ****     CySysWdtEnable(WDT_COUNTER_MASK);
 301:.\main.c      ****     /* Lock out configuration changes to the Watchdog timer registers */
 302:.\main.c      ****     CySysWdtLock();
 303:.\main.c      **** }
 304:.\main.c      **** 
 305:.\main.c      **** 
 306:.\main.c      **** /*******************************************************************************
 307:.\main.c      **** * Function Name: Timer_Interrupt
 308:.\main.c      **** ********************************************************************************
 309:.\main.c      **** *
 310:.\main.c      **** * Summary:
 311:.\main.c      **** *  Handles the Interrupt Service Routine for the WDT timer.
 312:.\main.c      **** *
 313:.\main.c      **** * Parameters:
 314:.\main.c      **** *   None
 315:.\main.c      **** *
 316:.\main.c      **** * Return:
 317:.\main.c      **** *   None
 318:.\main.c      **** *
 319:.\main.c      **** *******************************************************************************/
 320:.\main.c      **** CY_ISR(Timer_Interrupt)
 321:.\main.c      **** {
 309              		.loc 1 321 0
 310              		.cfi_startproc
 311 0000 08B5     		push	{r3, lr}
 312              		.cfi_def_cfa_offset 8
 313              		.cfi_offset 3, -8
ARM GAS  C:\Users\mohammed\AppData\Local\Temp\ccmI5n8g.s 			page 13


 314              		.cfi_offset 14, -4
 322:.\main.c      ****     if(CySysWdtGetInterruptSource() & WDT_INTERRUPT_SOURCE)
 315              		.loc 1 322 0
 316 0002 FFF7FEFF 		bl	CySysWdtGetInterruptSource
 317              	.LVL33:
 318 0006 4305     		lsl	r3, r0, #21
 319 0008 14D5     		bpl	.L21
 320              	.LBB9:
 321              	.LBB10:
 323:.\main.c      ****     {
 324:.\main.c      ****         if(CyBle_GetState() != CYBLE_STATE_CONNECTED)
 322              		.loc 1 324 0
 323 000a 0B4B     		ldr	r3, .L37
 324 000c 1B78     		ldrb	r3, [r3]
 325 000e 022B     		cmp	r3, #2
 326 0010 0CD0     		beq	.L23
 325:.\main.c      ****         {
 326:.\main.c      ****             if((llsAlertTOCounter != ALERT_TO) && (alertLevel != CYBLE_NO_ALERT))
 327              		.loc 1 326 0
 328 0012 0A49     		ldr	r1, .L37+4
 329 0014 0A4A     		ldr	r2, .L37+8
 330 0016 0B78     		ldrb	r3, [r1]
 331 0018 052B     		cmp	r3, #5
 332 001a 05D0     		beq	.L24
 333 001c 1078     		ldrb	r0, [r2]
 334 001e 0028     		cmp	r0, #0
 335 0020 02D0     		beq	.L24
 327:.\main.c      ****             {
 328:.\main.c      ****                 /* Update alert timeout */
 329:.\main.c      ****                 llsAlertTOCounter++;
 336              		.loc 1 329 0
 337 0022 0133     		add	r3, r3, #1
 338 0024 0B70     		strb	r3, [r1]
 339 0026 01E0     		b	.L23
 340              	.L24:
 330:.\main.c      ****             }
 331:.\main.c      ****             else
 332:.\main.c      ****             {
 333:.\main.c      ****                 alertLevel = CYBLE_NO_ALERT;
 341              		.loc 1 333 0
 342 0028 0023     		mov	r3, #0
 343 002a 1370     		strb	r3, [r2]
 344              	.L23:
 334:.\main.c      ****                 
 335:.\main.c      ****                 /* Clear alert timeout */
 336:.\main.c      ****                 //llsAlertTOCounter = 0u;
 337:.\main.c      ****             }
 338:.\main.c      ****         }
 339:.\main.c      ****         /* Clear interrupt request */
 340:.\main.c      ****         CySysWdtClearInterrupt(WDT_INTERRUPT_SOURCE);
 345              		.loc 1 340 0
 346 002c 8020     		mov	r0, #128
 347 002e C000     		lsl	r0, r0, #3
 348 0030 FFF7FEFF 		bl	CySysWdtClearInterrupt
 349              	.LVL34:
 350              	.L21:
 351              	.LBE10:
ARM GAS  C:\Users\mohammed\AppData\Local\Temp\ccmI5n8g.s 			page 14


 352              	.LBE9:
 341:.\main.c      ****     }
 342:.\main.c      **** }
 353              		.loc 1 342 0
 354              		@ sp needed
 355 0034 08BD     		pop	{r3, pc}
 356              	.L38:
 357 0036 C046     		.align	2
 358              	.L37:
 359 0038 00000000 		.word	cyBle_state
 360 003c 00000000 		.word	llsAlertTOCounter
 361 0040 00000000 		.word	alertLevel
 362              		.cfi_endproc
 363              	.LFE41:
 364              		.size	Timer_Interrupt, .-Timer_Interrupt
 365              		.section	.text.WDT_Start,"ax",%progbits
 366              		.align	1
 367              		.global	WDT_Start
 368              		.code	16
 369              		.thumb_func
 370              		.type	WDT_Start, %function
 371              	WDT_Start:
 372              	.LFB40:
 286:.\main.c      ****     /* Unlock the WDT registers for modification */
 373              		.loc 1 286 0
 374              		.cfi_startproc
 375 0000 08B5     		push	{r3, lr}
 376              		.cfi_def_cfa_offset 8
 377              		.cfi_offset 3, -8
 378              		.cfi_offset 14, -4
 288:.\main.c      ****     /* Setup ISR callback */
 379              		.loc 1 288 0
 380 0002 FFF7FEFF 		bl	CySysWdtUnlock
 381              	.LVL35:
 290:.\main.c      ****     /* Write the mode to generate interrupt on match */
 382              		.loc 1 290 0
 383 0006 0C48     		ldr	r0, .L40
 384 0008 FFF7FEFF 		bl	WDT_Interrupt_StartEx
 385              	.LVL36:
 292:.\main.c      ****     /* Configure the WDT counter clear on a match setting */
 386              		.loc 1 292 0
 387 000c 0120     		mov	r0, #1
 388 000e 011C     		mov	r1, r0
 389 0010 FFF7FEFF 		bl	CySysWdtSetMode
 390              	.LVL37:
 294:.\main.c      ****     /* Configure the WDT counter match comparison value */
 391              		.loc 1 294 0
 392 0014 0120     		mov	r0, #1
 393 0016 011C     		mov	r1, r0
 394 0018 FFF7FEFF 		bl	CySysWdtSetClearOnMatch
 395              	.LVL38:
 296:.\main.c      ****     /* Reset WDT counter */
 396              		.loc 1 296 0
 397 001c 0749     		ldr	r1, .L40+4
 398 001e 0120     		mov	r0, #1
 399 0020 FFF7FEFF 		bl	CySysWdtSetMatch
 400              	.LVL39:
ARM GAS  C:\Users\mohammed\AppData\Local\Temp\ccmI5n8g.s 			page 15


 298:.\main.c      ****     /* Enable the specified WDT counter */
 401              		.loc 1 298 0
 402 0024 0120     		mov	r0, #1
 403 0026 FFF7FEFF 		bl	CySysWdtResetCounters
 404              	.LVL40:
 300:.\main.c      ****     /* Lock out configuration changes to the Watchdog timer registers */
 405              		.loc 1 300 0
 406 002a 8020     		mov	r0, #128
 407 002c 4000     		lsl	r0, r0, #1
 408 002e FFF7FEFF 		bl	CySysWdtEnable
 409              	.LVL41:
 303:.\main.c      **** 
 410              		.loc 1 303 0
 411              		@ sp needed
 302:.\main.c      **** }
 412              		.loc 1 302 0
 413 0032 FFF7FEFF 		bl	CySysWdtLock
 414              	.LVL42:
 303:.\main.c      **** 
 415              		.loc 1 303 0
 416 0036 08BD     		pop	{r3, pc}
 417              	.L41:
 418              		.align	2
 419              	.L40:
 420 0038 00000000 		.word	Timer_Interrupt
 421 003c FF7F0000 		.word	32767
 422              		.cfi_endproc
 423              	.LFE40:
 424              		.size	WDT_Start, .-WDT_Start
 425              		.section	.text.HandleLeds,"ax",%progbits
 426              		.align	1
 427              		.global	HandleLeds
 428              		.code	16
 429              		.thumb_func
 430              		.type	HandleLeds, %function
 431              	HandleLeds:
 432              	.LFB42:
 343:.\main.c      **** 
 344:.\main.c      **** 
 345:.\main.c      **** /*******************************************************************************
 346:.\main.c      **** * Function Name: HandleLeds
 347:.\main.c      **** ********************************************************************************
 348:.\main.c      **** *
 349:.\main.c      **** * Summary:
 350:.\main.c      **** *  Handles indications on Advertising, Disconnection and Alert LEDs. Also it
 351:.\main.c      **** *  implements timeout after which Alert LED is cleared if it was previously set.
 352:.\main.c      **** *
 353:.\main.c      **** * Parameters:
 354:.\main.c      **** *   None
 355:.\main.c      **** *
 356:.\main.c      **** * Return:
 357:.\main.c      **** *   None
 358:.\main.c      **** *
 359:.\main.c      **** *******************************************************************************/
 360:.\main.c      **** void HandleLeds(void)
 361:.\main.c      **** {
 433              		.loc 1 361 0
ARM GAS  C:\Users\mohammed\AppData\Local\Temp\ccmI5n8g.s 			page 16


 434              		.cfi_startproc
 435              	.LVL43:
 362:.\main.c      ****     uint8 advertisingIsOn = 0u;
 363:.\main.c      ****     
 364:.\main.c      ****     /* If in disconnected state ... */
 365:.\main.c      ****     if(CyBle_GetState() == CYBLE_STATE_DISCONNECTED)
 436              		.loc 1 365 0
 437 0000 2E4B     		ldr	r3, .L69
 361:.\main.c      ****     uint8 advertisingIsOn = 0u;
 438              		.loc 1 361 0
 439 0002 10B5     		push	{r4, lr}
 440              		.cfi_def_cfa_offset 8
 441              		.cfi_offset 4, -8
 442              		.cfi_offset 14, -4
 443              		.loc 1 365 0
 444 0004 1A78     		ldrb	r2, [r3]
 445 0006 1C1C     		mov	r4, r3
 366:.\main.c      ****     {
 367:.\main.c      ****         /* ... turn on disconnect indication LED and turn off rest of the LEDs. */
 368:.\main.c      ****         Disconnect_LED_Write(LED_OFF);
 446              		.loc 1 368 0
 447 0008 0120     		mov	r0, #1
 365:.\main.c      ****     {
 448              		.loc 1 365 0
 449 000a 042A     		cmp	r2, #4
 450 000c 0AD0     		beq	.L66
 369:.\main.c      ****         Advertising_LED_Write(LED_OFF);
 370:.\main.c      ****         Alert_LED_Write(LED_OFF);
 371:.\main.c      ****     }
 372:.\main.c      ****     /* In advertising state ... */
 373:.\main.c      ****     else if(CyBle_GetState() == CYBLE_STATE_ADVERTISING)
 374:.\main.c      ****     {
 375:.\main.c      ****         /* ... turn off disconnect indication and alert LEDs ... */
 376:.\main.c      ****         Disconnect_LED_Write(LED_OFF);
 377:.\main.c      ****         Alert_LED_Write(LED_OFF);
 378:.\main.c      ****         advertisingIsOn++;
 379:.\main.c      ****     }
 380:.\main.c      ****     /* In connected State ... */
 381:.\main.c      ****     else
 382:.\main.c      ****     {
 383:.\main.c      ****         /* ... turn off all LEDs. */
 384:.\main.c      ****         Disconnect_LED_Write(LED_ON);
 451              		.loc 1 384 0
 452 000e 0020     		mov	r0, #0
 373:.\main.c      ****     {
 453              		.loc 1 373 0
 454 0010 032A     		cmp	r2, #3
 455 0012 07D1     		bne	.L66
 376:.\main.c      ****         Alert_LED_Write(LED_OFF);
 456              		.loc 1 376 0
 457 0014 0120     		mov	r0, #1
 458 0016 FFF7FEFF 		bl	Disconnect_LED_Write
 459              	.LVL44:
 377:.\main.c      ****         advertisingIsOn++;
 460              		.loc 1 377 0
 461 001a 0120     		mov	r0, #1
 462 001c FFF7FEFF 		bl	Alert_LED_Write
ARM GAS  C:\Users\mohammed\AppData\Local\Temp\ccmI5n8g.s 			page 17


 463              	.LVL45:
 378:.\main.c      ****     }
 464              		.loc 1 378 0
 465 0020 0122     		mov	r2, #1
 466 0022 08E0     		b	.L44
 467              	.LVL46:
 468              	.L66:
 469              		.loc 1 384 0
 470 0024 FFF7FEFF 		bl	Disconnect_LED_Write
 471              	.LVL47:
 385:.\main.c      ****         Advertising_LED_Write(LED_OFF);
 472              		.loc 1 385 0
 473 0028 0120     		mov	r0, #1
 474 002a FFF7FEFF 		bl	Advertising_LED_Write
 475              	.LVL48:
 386:.\main.c      ****         Alert_LED_Write(LED_OFF);
 476              		.loc 1 386 0
 477 002e 0120     		mov	r0, #1
 478 0030 FFF7FEFF 		bl	Alert_LED_Write
 479              	.LVL49:
 362:.\main.c      ****     
 480              		.loc 1 362 0
 481 0034 0022     		mov	r2, #0
 482              	.LVL50:
 483              	.L44:
 387:.\main.c      **** //        if(customDataVal == 1)
 388:.\main.c      **** //        {
 389:.\main.c      **** //           Alert_LED_Write(LED_ON);
 390:.\main.c      **** //           Advertising_LED_Write(LED_OFF);
 391:.\main.c      **** //        }
 392:.\main.c      **** //        else
 393:.\main.c      **** //        {
 394:.\main.c      **** //            Advertising_LED_Write(LED_ON);
 395:.\main.c      **** //            Alert_LED_Write(LED_OFF);   
 396:.\main.c      **** //        }
 397:.\main.c      ****     }
 398:.\main.c      **** 
 399:.\main.c      ****     if(CyBle_GetState() != CYBLE_STATE_CONNECTED)
 484              		.loc 1 399 0
 485 0036 2378     		ldrb	r3, [r4]
 486 0038 022B     		cmp	r3, #2
 487 003a 3ED0     		beq	.L42
 400:.\main.c      ****     {
 401:.\main.c      ****         /* If "Mild Alert" is set by the Client then blink alert LED */
 402:.\main.c      ****         if((CYBLE_MILD_ALERT == alertLevel) && (llsAlertTOCounter != ALERT_TO))
 488              		.loc 1 402 0
 489 003c 204B     		ldr	r3, .L69+4
 490 003e 214C     		ldr	r4, .L69+8
 491 0040 1B78     		ldrb	r3, [r3]
 492 0042 012B     		cmp	r3, #1
 493 0044 19D1     		bne	.L47
 494              		.loc 1 402 0 is_stmt 0 discriminator 1
 495 0046 204B     		ldr	r3, .L69+12
 496 0048 1B78     		ldrb	r3, [r3]
 497 004a 052B     		cmp	r3, #5
 498 004c 20D0     		beq	.L48
 403:.\main.c      ****         {
ARM GAS  C:\Users\mohammed\AppData\Local\Temp\ccmI5n8g.s 			page 18


 404:.\main.c      ****             if(displayAlertMessage == YES)
 499              		.loc 1 404 0 is_stmt 1
 500 004e 2378     		ldrb	r3, [r4]
 501 0050 012B     		cmp	r3, #1
 502 0052 01D1     		bne	.L49
 405:.\main.c      ****             {
 406:.\main.c      ****                 //DBG_PRINTF("Device started alerting with \"Mild Alert\"\r\n");
 407:.\main.c      ****                 displayAlertMessage = NO;
 503              		.loc 1 407 0
 504 0054 0023     		mov	r3, #0
 505 0056 2370     		strb	r3, [r4]
 506              	.L49:
 408:.\main.c      ****             }
 409:.\main.c      **** 
 410:.\main.c      ****             /* Switch state of alert LED to make blinking */
 411:.\main.c      ****             if(alertBlinkDelayCount == ALERT_BLINK_DELAY)
 507              		.loc 1 411 0
 508 0058 1C4B     		ldr	r3, .L69+16
 509 005a 1988     		ldrh	r1, [r3]
 510 005c 1429     		cmp	r1, #20
 511 005e 08D1     		bne	.L50
 412:.\main.c      ****             {
 413:.\main.c      ****                 if(alertLedState == LED_OFF)
 512              		.loc 1 413 0
 513 0060 6078     		ldrb	r0, [r4, #1]
 514 0062 0021     		mov	r1, #0
 515 0064 0128     		cmp	r0, #1
 516 0066 01D1     		bne	.L51
 414:.\main.c      ****                 {
 415:.\main.c      ****                     alertLedState = LED_ON;
 517              		.loc 1 415 0
 518 0068 6170     		strb	r1, [r4, #1]
 519 006a 01E0     		b	.L52
 520              	.L51:
 416:.\main.c      ****                 }
 417:.\main.c      ****                 else
 418:.\main.c      ****                 {
 419:.\main.c      ****                     alertLedState = LED_OFF;
 521              		.loc 1 419 0
 522 006c 0120     		mov	r0, #1
 523 006e 6070     		strb	r0, [r4, #1]
 524              	.L52:
 420:.\main.c      ****                 }
 421:.\main.c      ****                 alertBlinkDelayCount = 0u;
 525              		.loc 1 421 0
 526 0070 1980     		strh	r1, [r3]
 527              	.L50:
 422:.\main.c      ****             }
 423:.\main.c      ****             alertBlinkDelayCount++;
 528              		.loc 1 423 0
 529 0072 1988     		ldrh	r1, [r3]
 530 0074 0131     		add	r1, r1, #1
 531 0076 1980     		strh	r1, [r3]
 532 0078 0DE0     		b	.L53
 533              	.L47:
 424:.\main.c      ****         }
 425:.\main.c      ****         /* For "High Alert" turn alert LED on */
ARM GAS  C:\Users\mohammed\AppData\Local\Temp\ccmI5n8g.s 			page 19


 426:.\main.c      ****         else if((alertLevel == CYBLE_HIGH_ALERT) && (llsAlertTOCounter != ALERT_TO))
 534              		.loc 1 426 0
 535 007a 022B     		cmp	r3, #2
 536 007c 08D1     		bne	.L48
 537              		.loc 1 426 0 is_stmt 0 discriminator 1
 538 007e 124B     		ldr	r3, .L69+12
 539 0080 1B78     		ldrb	r3, [r3]
 540 0082 052B     		cmp	r3, #5
 541 0084 04D0     		beq	.L48
 427:.\main.c      ****         {
 428:.\main.c      ****             if(displayAlertMessage == YES)
 542              		.loc 1 428 0 is_stmt 1
 543 0086 2178     		ldrb	r1, [r4]
 544 0088 0023     		mov	r3, #0
 545 008a 0129     		cmp	r1, #1
 546 008c 02D1     		bne	.L67
 547 008e 00E0     		b	.L68
 548              	.L48:
 429:.\main.c      ****             {
 430:.\main.c      ****                 //DBG_PRINTF("Device started alerting with \"High Alert\"\r\n");
 431:.\main.c      ****                 displayAlertMessage = NO;
 432:.\main.c      ****             }
 433:.\main.c      ****             //printf("Setting alert\r\n");
 434:.\main.c      ****             alertLedState = LED_ON;
 435:.\main.c      ****         }
 436:.\main.c      ****         /* In case of "No Alert" turn alert LED off */
 437:.\main.c      ****         else
 438:.\main.c      ****         {
 439:.\main.c      ****             displayAlertMessage = YES;
 549              		.loc 1 439 0
 550 0090 0123     		mov	r3, #1
 551              	.L68:
 552 0092 2370     		strb	r3, [r4]
 553              	.L67:
 440:.\main.c      ****             //printf("Resetting alert\r\n");
 441:.\main.c      ****             alertLedState = LED_OFF;
 554              		.loc 1 441 0
 555 0094 6370     		strb	r3, [r4, #1]
 556              	.L53:
 442:.\main.c      ****         }
 443:.\main.c      **** 
 444:.\main.c      ****         if((advertisingIsOn != 0u) /*&& (llsAlertTOCounter == 0u)*/)
 557              		.loc 1 444 0
 558 0096 002A     		cmp	r2, #0
 559 0098 09D0     		beq	.L55
 445:.\main.c      ****         {
 446:.\main.c      ****             /* ... and blink advertisement indication LED. */
 447:.\main.c      ****             /*if(advBlinkDelayCount == BLINK_DELAY)
 448:.\main.c      ****             {
 449:.\main.c      ****                 if(advLedState == LED_OFF)
 450:.\main.c      ****                 {
 451:.\main.c      ****                     advLedState = LED_ON;
 452:.\main.c      ****                 }
 453:.\main.c      ****                 else
 454:.\main.c      ****                 {
 455:.\main.c      ****                     advLedState = LED_OFF;
 456:.\main.c      ****                 }
ARM GAS  C:\Users\mohammed\AppData\Local\Temp\ccmI5n8g.s 			page 20


 457:.\main.c      ****                 advBlinkDelayCount = 0u;
 458:.\main.c      ****             }
 459:.\main.c      **** 
 460:.\main.c      ****             advBlinkDelayCount++;
 461:.\main.c      **** 
 462:.\main.c      ****             Advertising_LED_Write(advLedState);*/
 463:.\main.c      ****             Advertising_LED_Write(LED_ON);
 560              		.loc 1 463 0
 561 009a 0020     		mov	r0, #0
 562 009c FFF7FEFF 		bl	Advertising_LED_Write
 563              	.LVL51:
 464:.\main.c      ****             Alert_LED_Write(LED_OFF);
 564              		.loc 1 464 0
 565 00a0 0120     		mov	r0, #1
 566 00a2 FFF7FEFF 		bl	Alert_LED_Write
 567              	.LVL52:
 465:.\main.c      ****             Disconnect_LED_Write(LED_OFF);
 568              		.loc 1 465 0
 569 00a6 0120     		mov	r0, #1
 570 00a8 FFF7FEFF 		bl	Disconnect_LED_Write
 571              	.LVL53:
 572 00ac 02E0     		b	.L56
 573              	.LVL54:
 574              	.L55:
 466:.\main.c      ****         }
 467:.\main.c      ****         else
 468:.\main.c      ****         {
 469:.\main.c      ****             Advertising_LED_Write(LED_OFF);
 575              		.loc 1 469 0
 576 00ae 0120     		mov	r0, #1
 577 00b0 FFF7FEFF 		bl	Advertising_LED_Write
 578              	.LVL55:
 579              	.L56:
 470:.\main.c      ****         }
 471:.\main.c      ****         ///printf("llsAlertTOCounter: %x\r\n", llsAlertTOCounter);
 472:.\main.c      ****         //printf("Writing alert value as %d\r\n",alertLedState);
 473:.\main.c      ****         Alert_LED_Write(alertLedState);
 580              		.loc 1 473 0
 581 00b4 6078     		ldrb	r0, [r4, #1]
 582 00b6 FFF7FEFF 		bl	Alert_LED_Write
 583              	.LVL56:
 584              	.L42:
 474:.\main.c      ****     }
 475:.\main.c      **** }
 585              		.loc 1 475 0
 586              		@ sp needed
 587 00ba 10BD     		pop	{r4, pc}
 588              	.L70:
 589              		.align	2
 590              	.L69:
 591 00bc 00000000 		.word	cyBle_state
 592 00c0 00000000 		.word	alertLevel
 593 00c4 00000000 		.word	.LANCHOR1
 594 00c8 00000000 		.word	llsAlertTOCounter
 595 00cc 00000000 		.word	alertBlinkDelayCount
 596              		.cfi_endproc
 597              	.LFE42:
ARM GAS  C:\Users\mohammed\AppData\Local\Temp\ccmI5n8g.s 			page 21


 598              		.size	HandleLeds, .-HandleLeds
 599              		.section	.text.startup.main,"ax",%progbits
 600              		.align	1
 601              		.global	main
 602              		.code	16
 603              		.thumb_func
 604              		.type	main, %function
 605              	main:
 606              	.LFB44:
 476:.\main.c      **** 
 477:.\main.c      **** 
 478:.\main.c      **** /*******************************************************************************
 479:.\main.c      **** * Function Name: LowPowerImplementation()
 480:.\main.c      **** ********************************************************************************
 481:.\main.c      **** * Summary:
 482:.\main.c      **** * Implements low power in the project.
 483:.\main.c      **** *
 484:.\main.c      **** * Parameters:
 485:.\main.c      **** * None
 486:.\main.c      **** *
 487:.\main.c      **** * Return:
 488:.\main.c      **** * None
 489:.\main.c      **** *
 490:.\main.c      **** * Theory:
 491:.\main.c      **** * The function tries to enter deep sleep as much as possible - whenever the 
 492:.\main.c      **** * BLE is idle and the UART transmission/reception is not happening. At all other
 493:.\main.c      **** * times, the function tries to enter CPU sleep.
 494:.\main.c      **** *
 495:.\main.c      **** *******************************************************************************/
 496:.\main.c      **** static void LowPowerImplementation(void)
 497:.\main.c      **** {
 498:.\main.c      ****     CYBLE_LP_MODE_T bleMode;
 499:.\main.c      ****     uint8 interruptStatus;
 500:.\main.c      ****     
 501:.\main.c      ****     /* For advertising and connected states, implement deep sleep 
 502:.\main.c      ****      * functionality to achieve low power in the system. For more details
 503:.\main.c      ****      * on the low power implementation, refer to the Low Power Application 
 504:.\main.c      ****      * Note.
 505:.\main.c      ****      */
 506:.\main.c      ****     if((CyBle_GetState() == CYBLE_STATE_ADVERTISING) || 
 507:.\main.c      ****        (CyBle_GetState() == CYBLE_STATE_CONNECTED))
 508:.\main.c      ****     {
 509:.\main.c      ****         /* Request BLE subsystem to enter into Deep-Sleep mode between connection and advertising i
 510:.\main.c      ****         bleMode = CyBle_EnterLPM(CYBLE_BLESS_DEEPSLEEP);
 511:.\main.c      ****         /* Disable global interrupts */
 512:.\main.c      ****         interruptStatus = CyEnterCriticalSection();
 513:.\main.c      ****         /* When BLE subsystem has been put into Deep-Sleep mode */
 514:.\main.c      ****         if(bleMode == CYBLE_BLESS_DEEPSLEEP)
 515:.\main.c      ****         {
 516:.\main.c      ****             /* And it is still there or ECO is on */
 517:.\main.c      ****             if((CyBle_GetBleSsState() == CYBLE_BLESS_STATE_ECO_ON) || 
 518:.\main.c      ****                (CyBle_GetBleSsState() == CYBLE_BLESS_STATE_DEEPSLEEP))
 519:.\main.c      ****             {
 520:.\main.c      ****             #if (DEBUG_UART_ENABLED == ENABLED)
 521:.\main.c      ****                 /* Put the CPU into the Deep-Sleep mode when all debug information has been sent */
 522:.\main.c      ****                 if((UART_DEB_SpiUartGetTxBufferSize() + UART_DEB_GET_TX_FIFO_SR_VALID) == 0u)
 523:.\main.c      ****                 {
ARM GAS  C:\Users\mohammed\AppData\Local\Temp\ccmI5n8g.s 			page 22


 524:.\main.c      ****                     CySysPmDeepSleep();
 525:.\main.c      ****                 }
 526:.\main.c      ****                 else /* Put the CPU into Sleep mode and let SCB to continue sending debug data */
 527:.\main.c      ****                 {
 528:.\main.c      ****                     CySysPmSleep();
 529:.\main.c      ****                 }
 530:.\main.c      ****             #else
 531:.\main.c      ****                 CySysPmDeepSleep();
 532:.\main.c      ****             #endif /* (DEBUG_UART_ENABLED == ENABLED) */
 533:.\main.c      ****             }
 534:.\main.c      ****         }
 535:.\main.c      ****         else /* When BLE subsystem has been put into Sleep mode or is active */
 536:.\main.c      ****         {
 537:.\main.c      ****             /* And hardware doesn't finish Tx/Rx opeation - put the CPU into Sleep mode */
 538:.\main.c      ****             if(CyBle_GetBleSsState() != CYBLE_BLESS_STATE_EVENT_CLOSE)
 539:.\main.c      ****             {
 540:.\main.c      ****                 CySysPmSleep();
 541:.\main.c      ****             }
 542:.\main.c      ****         }
 543:.\main.c      ****         /* Enable global interrupt */
 544:.\main.c      ****         CyExitCriticalSection(interruptStatus);
 545:.\main.c      ****     }
 546:.\main.c      **** }
 547:.\main.c      **** 
 548:.\main.c      **** 
 549:.\main.c      **** /*******************************************************************************
 550:.\main.c      **** * Function Name: main()
 551:.\main.c      **** ********************************************************************************
 552:.\main.c      **** * Summary:
 553:.\main.c      **** *  Main function for the project.
 554:.\main.c      **** *
 555:.\main.c      **** * Parameters:
 556:.\main.c      **** *  None
 557:.\main.c      **** *
 558:.\main.c      **** * Return:
 559:.\main.c      **** *  None
 560:.\main.c      **** *
 561:.\main.c      **** * Theory:
 562:.\main.c      **** *  The function starts BLE and UART components.
 563:.\main.c      **** *  This function process all BLE events and also implements the low power 
 564:.\main.c      **** *  functionality.
 565:.\main.c      **** *
 566:.\main.c      **** *******************************************************************************/
 567:.\main.c      **** int main()
 568:.\main.c      **** {
 607              		.loc 1 568 0
 608              		.cfi_startproc
 609 0000 F7B5     		push	{r0, r1, r2, r4, r5, r6, r7, lr}
 610              		.cfi_def_cfa_offset 32
 611              		.cfi_offset 0, -32
 612              		.cfi_offset 1, -28
 613              		.cfi_offset 2, -24
 614              		.cfi_offset 4, -20
 615              		.cfi_offset 5, -16
 616              		.cfi_offset 6, -12
 617              		.cfi_offset 7, -8
 618              		.cfi_offset 14, -4
ARM GAS  C:\Users\mohammed\AppData\Local\Temp\ccmI5n8g.s 			page 23


 569:.\main.c      ****     CYBLE_API_RESULT_T apiResult;
 570:.\main.c      ****     CYBLE_BLESS_PWR_IN_DB_T txPower;
 571:.\main.c      ****     int8 intTxPowerLevel;
 572:.\main.c      **** 
 573:.\main.c      ****     Timer_1_Start();
 619              		.loc 1 573 0
 620 0002 FFF7FEFF 		bl	Timer_1_Start
 621              	.LVL57:
 574:.\main.c      ****     isr_1_StartEx(MY_ISR);
 622              		.loc 1 574 0
 623 0006 5748     		ldr	r0, .L92
 624 0008 FFF7FEFF 		bl	isr_1_StartEx
 625              	.LVL58:
 575:.\main.c      ****     
 576:.\main.c      ****     CyGlobalIntEnable;
 626              		.loc 1 576 0
 627              	@ 576 ".\main.c" 1
 628 000c 62B6     		CPSIE   i
 629              	@ 0 "" 2
 577:.\main.c      ****     
 578:.\main.c      ****    UART_DEB_Start();
 579:.\main.c      **** 
 580:.\main.c      ****     /* Turn off all of the LEDs */
 581:.\main.c      ****     Disconnect_LED_Write(LED_OFF);
 582:.\main.c      ****     Advertising_LED_Write(LED_OFF);
 583:.\main.c      ****     Alert_LED_Write(LED_OFF);
 584:.\main.c      **** 
 585:.\main.c      ****     /* Start CYBLE component and register generic event handler */
 586:.\main.c      ****     CyBle_Start(AppCallBack);
 587:.\main.c      **** 
 588:.\main.c      ****     SW2_Interrupt_StartEx(&ButtonPressInt);
 589:.\main.c      **** 
 590:.\main.c      ****     /* Register the event handler for LLS specific events */
 591:.\main.c      ****     CyBle_LlsRegisterAttrCallback(LlsServiceAppEventHandler);
 592:.\main.c      **** 
 593:.\main.c      ****     /* Register the event handler for TPS specific events */
 594:.\main.c      ****     CyBle_TpsRegisterAttrCallback(TpsServiceAppEventHandler);
 595:.\main.c      ****     
 596:.\main.c      **** 
 597:.\main.c      ****     WDT_Start();
 598:.\main.c      **** 	
 599:.\main.c      **** #if (DEBUG_UART_ENABLED == ENABLED)
 600:.\main.c      ****     UART_DEB_Start();
 601:.\main.c      **** #endif /* (DEBUG_UART_ENABLED == ENABLED) */
 602:.\main.c      ****     
 603:.\main.c      ****     /* Set Tx power level for connection channels to +3 dBm */
 604:.\main.c      ****     txPower.bleSsChId = CYBLE_LL_CONN_CH_TYPE;
 630              		.loc 1 604 0
 631              		.code	16
 632 000e 0125     		mov	r5, #1
 605:.\main.c      ****     txPower.blePwrLevelInDbm = CYBLE_LL_PWR_LVL_3_DBM;
 633              		.loc 1 605 0
 634 0010 0826     		mov	r6, #8
 578:.\main.c      **** 
 635              		.loc 1 578 0
 636 0012 FFF7FEFF 		bl	UART_DEB_Start
 637              	.LVL59:
ARM GAS  C:\Users\mohammed\AppData\Local\Temp\ccmI5n8g.s 			page 24


 581:.\main.c      ****     Advertising_LED_Write(LED_OFF);
 638              		.loc 1 581 0
 639 0016 0120     		mov	r0, #1
 640 0018 FFF7FEFF 		bl	Disconnect_LED_Write
 641              	.LVL60:
 582:.\main.c      ****     Alert_LED_Write(LED_OFF);
 642              		.loc 1 582 0
 643 001c 0120     		mov	r0, #1
 644 001e FFF7FEFF 		bl	Advertising_LED_Write
 645              	.LVL61:
 583:.\main.c      **** 
 646              		.loc 1 583 0
 647 0022 0120     		mov	r0, #1
 648 0024 FFF7FEFF 		bl	Alert_LED_Write
 649              	.LVL62:
 586:.\main.c      **** 
 650              		.loc 1 586 0
 651 0028 4F48     		ldr	r0, .L92+4
 652 002a FFF7FEFF 		bl	CyBle_Start
 653              	.LVL63:
 588:.\main.c      **** 
 654              		.loc 1 588 0
 655 002e 4F48     		ldr	r0, .L92+8
 656 0030 FFF7FEFF 		bl	SW2_Interrupt_StartEx
 657              	.LVL64:
 591:.\main.c      **** 
 658              		.loc 1 591 0
 659 0034 4E48     		ldr	r0, .L92+12
 604:.\main.c      ****     txPower.blePwrLevelInDbm = CYBLE_LL_PWR_LVL_3_DBM;
 660              		.loc 1 604 0
 661 0036 01AC     		add	r4, sp, #4
 591:.\main.c      **** 
 662              		.loc 1 591 0
 663 0038 FFF7FEFF 		bl	CyBle_LlsRegisterAttrCallback
 664              	.LVL65:
 594:.\main.c      ****     
 665              		.loc 1 594 0
 666 003c 4D48     		ldr	r0, .L92+16
 667 003e FFF7FEFF 		bl	CyBle_TpsRegisterAttrCallback
 668              	.LVL66:
 597:.\main.c      **** 	
 669              		.loc 1 597 0
 670 0042 FFF7FEFF 		bl	WDT_Start
 671              	.LVL67:
 600:.\main.c      **** #endif /* (DEBUG_UART_ENABLED == ENABLED) */
 672              		.loc 1 600 0
 673 0046 FFF7FEFF 		bl	UART_DEB_Start
 674              	.LVL68:
 606:.\main.c      ****     apiResult = CyBle_SetTxPowerLevel(&txPower);
 675              		.loc 1 606 0
 676 004a 201C     		mov	r0, r4
 604:.\main.c      ****     txPower.blePwrLevelInDbm = CYBLE_LL_PWR_LVL_3_DBM;
 677              		.loc 1 604 0
 678 004c 6570     		strb	r5, [r4, #1]
 605:.\main.c      ****     apiResult = CyBle_SetTxPowerLevel(&txPower);
 679              		.loc 1 605 0
 680 004e 2670     		strb	r6, [r4]
ARM GAS  C:\Users\mohammed\AppData\Local\Temp\ccmI5n8g.s 			page 25


 681              		.loc 1 606 0
 682 0050 FFF7FEFF 		bl	CyBle_SetTxPowerLevel
 683              	.LVL69:
 684 0054 071E     		sub	r7, r0, #0
 685              	.LVL70:
 607:.\main.c      **** 
 608:.\main.c      ****     if(apiResult == CYBLE_ERROR_OK)
 686              		.loc 1 608 0
 687 0056 10D1     		bne	.L88
 609:.\main.c      ****     {
 610:.\main.c      ****         /* Convert power level to numeric int8 value */
 611:.\main.c      ****         intTxPowerLevel = ConvertTxPowerlevelToInt8(txPower.blePwrLevelInDbm);
 688              		.loc 1 611 0
 689 0058 2078     		ldrb	r0, [r4]
 690              	.LVL71:
 691 005a FFF7FEFF 		bl	ConvertTxPowerlevelToInt8
 692              	.LVL72:
 693 005e 6B46     		mov	r3, sp
 694 0060 D870     		strb	r0, [r3, #3]
 612:.\main.c      **** 
 613:.\main.c      ****         /* Set Tx power level for advertisement channels to +3 dBm */
 614:.\main.c      ****         txPower.bleSsChId = CYBLE_LL_ADV_CH_TYPE;
 615:.\main.c      ****         txPower.blePwrLevelInDbm = CYBLE_LL_PWR_LVL_3_DBM;
 616:.\main.c      ****         apiResult = CyBle_SetTxPowerLevel(&txPower);
 695              		.loc 1 616 0
 696 0062 201C     		mov	r0, r4
 614:.\main.c      ****         txPower.blePwrLevelInDbm = CYBLE_LL_PWR_LVL_3_DBM;
 697              		.loc 1 614 0
 698 0064 6770     		strb	r7, [r4, #1]
 615:.\main.c      ****         apiResult = CyBle_SetTxPowerLevel(&txPower);
 699              		.loc 1 615 0
 700 0066 2670     		strb	r6, [r4]
 701              		.loc 1 616 0
 702 0068 FFF7FEFF 		bl	CyBle_SetTxPowerLevel
 703              	.LVL73:
 617:.\main.c      ****         
 618:.\main.c      ****         if(apiResult == CYBLE_ERROR_OK)
 704              		.loc 1 618 0
 705 006c 0028     		cmp	r0, #0
 706 006e 04D1     		bne	.L88
 619:.\main.c      ****         {
 620:.\main.c      ****             /* Write the new Tx power level value to the GATT database */
 621:.\main.c      ****             apiResult = CyBle_TpssSetCharacteristicValue(CYBLE_TPS_TX_POWER_LEVEL,
 707              		.loc 1 621 0
 708 0070 6B46     		mov	r3, sp
 709 0072 291C     		mov	r1, r5
 710 0074 DA1C     		add	r2, r3, #3
 711 0076 FFF7FEFF 		bl	CyBle_TpssSetCharacteristicValue
 712              	.LVL74:
 713              	.L88:
 622:.\main.c      ****                                                          CYBLE_TPS_TX_POWER_LEVEL_SIZE,
 623:.\main.c      ****                                                          &intTxPowerLevel);
 624:.\main.c      **** 
 625:.\main.c      ****             if(apiResult != CYBLE_ERROR_OK)
 626:.\main.c      ****             {
 627:.\main.c      ****                 //DBG_PRINTF("CyBle_TpssSetCharacteristicValue() error.\r\n");
 628:.\main.c      ****             }
ARM GAS  C:\Users\mohammed\AppData\Local\Temp\ccmI5n8g.s 			page 26


 629:.\main.c      ****             
 630:.\main.c      ****             /* Display new Tx Power Level value */
 631:.\main.c      ****             //DBG_PRINTF("Tx power level is set to %d dBm\r\n", intTxPowerLevel);
 632:.\main.c      ****         }
 633:.\main.c      ****     }
 634:.\main.c      **** 
 635:.\main.c      ****     while(1)
 636:.\main.c      ****     {
 637:.\main.c      ****         /* CyBle_ProcessEvents() allows BLE stack to process pending events */
 638:.\main.c      ****         CyBle_ProcessEvents();
 714              		.loc 1 638 0
 715 007a FFF7FEFF 		bl	CyBle_ProcessEvents
 716              	.LVL75:
 717              	.LBB13:
 718              	.LBB14:
 506:.\main.c      ****        (CyBle_GetState() == CYBLE_STATE_CONNECTED))
 719              		.loc 1 506 0
 720 007e 3E4D     		ldr	r5, .L92+20
 721 0080 2B78     		ldrb	r3, [r5]
 722 0082 023B     		sub	r3, r3, #2
 723 0084 012B     		cmp	r3, #1
 724 0086 25D8     		bhi	.L75
 510:.\main.c      ****         /* Disable global interrupts */
 725              		.loc 1 510 0
 726 0088 0320     		mov	r0, #3
 727 008a FFF7FEFF 		bl	CyBle_EnterLPM
 728              	.LVL76:
 729 008e 071C     		mov	r7, r0
 730              	.LVL77:
 512:.\main.c      ****         /* When BLE subsystem has been put into Deep-Sleep mode */
 731              		.loc 1 512 0
 732 0090 FFF7FEFF 		bl	CyEnterCriticalSection
 733              	.LVL78:
 734 0094 061C     		mov	r6, r0
 735              	.LVL79:
 514:.\main.c      ****         {
 736              		.loc 1 514 0
 737 0096 032F     		cmp	r7, #3
 738 0098 13D1     		bne	.L76
 517:.\main.c      ****                (CyBle_GetBleSsState() == CYBLE_BLESS_STATE_DEEPSLEEP))
 739              		.loc 1 517 0
 740 009a FFF7FEFF 		bl	CyBle_GetBleSsState
 741              	.LVL80:
 742 009e 0428     		cmp	r0, #4
 743 00a0 0AD1     		bne	.L77
 744              	.L80:
 522:.\main.c      ****                 {
 745              		.loc 1 522 0
 746 00a2 FFF7FEFF 		bl	UART_DEB_SpiUartGetTxBufferSize
 747              	.LVL81:
 748 00a6 354B     		ldr	r3, .L92+24
 749 00a8 1B68     		ldr	r3, [r3]
 750 00aa 1B04     		lsl	r3, r3, #16
 751 00ac DB17     		asr	r3, r3, #31
 752 00ae 8342     		cmp	r3, r0
 753 00b0 0BD1     		bne	.L79
 524:.\main.c      ****                 }
ARM GAS  C:\Users\mohammed\AppData\Local\Temp\ccmI5n8g.s 			page 27


 754              		.loc 1 524 0
 755 00b2 FFF7FEFF 		bl	CySysPmDeepSleep
 756              	.LVL82:
 757 00b6 0AE0     		b	.L81
 758              	.L77:
 518:.\main.c      ****             {
 759              		.loc 1 518 0
 760 00b8 FFF7FEFF 		bl	CyBle_GetBleSsState
 761              	.LVL83:
 517:.\main.c      ****                (CyBle_GetBleSsState() == CYBLE_BLESS_STATE_DEEPSLEEP))
 762              		.loc 1 517 0
 763 00bc 0628     		cmp	r0, #6
 764 00be 06D1     		bne	.L81
 765 00c0 EFE7     		b	.L80
 766              	.L76:
 538:.\main.c      ****             {
 767              		.loc 1 538 0
 768 00c2 FFF7FEFF 		bl	CyBle_GetBleSsState
 769              	.LVL84:
 770 00c6 0228     		cmp	r0, #2
 771 00c8 01D0     		beq	.L81
 772              	.L79:
 528:.\main.c      ****                 }
 773              		.loc 1 528 0
 774 00ca FFF7FEFF 		bl	CySysPmSleep
 775              	.LVL85:
 776              	.L81:
 544:.\main.c      ****     }
 777              		.loc 1 544 0
 778 00ce 301C     		mov	r0, r6
 779 00d0 FFF7FEFF 		bl	CyExitCriticalSection
 780              	.LVL86:
 781              	.L75:
 782              	.LBE14:
 783              	.LBE13:
 639:.\main.c      **** 
 640:.\main.c      ****         /* To achieve low power in the device */
 641:.\main.c      ****         LowPowerImplementation();
 642:.\main.c      ****         //printf("llsAlertTOCounter: %x\r\n", llsAlertTOCounter);
 643:.\main.c      ****         ////DBG_PRINTF("llsAlertTOCounter: %x\r\n", llsAlertTOCounter);
 644:.\main.c      ****         if((CyBle_GetState() != CYBLE_STATE_CONNECTED) && (CyBle_GetState() != CYBLE_STATE_ADVERTIS
 784              		.loc 1 644 0
 785 00d4 2B78     		ldrb	r3, [r5]
 786 00d6 2A4D     		ldr	r5, .L92+28
 787 00d8 023B     		sub	r3, r3, #2
 788 00da 012B     		cmp	r3, #1
 789 00dc 06D9     		bls	.L83
 645:.\main.c      ****         {
 646:.\main.c      ****             if(buttonState == BUTTON_IS_PRESSED)
 790              		.loc 1 646 0
 791 00de 2B78     		ldrb	r3, [r5]
 792 00e0 012B     		cmp	r3, #1
 793 00e2 3CD1     		bne	.L84
 647:.\main.c      ****             {
 648:.\main.c      ****                 /* Start advertisement */
 649:.\main.c      ****                 if(CYBLE_ERROR_OK == CyBle_GappStartAdvertisement(CYBLE_ADVERTISING_FAST))
 794              		.loc 1 649 0
ARM GAS  C:\Users\mohammed\AppData\Local\Temp\ccmI5n8g.s 			page 28


 795 00e4 0020     		mov	r0, #0
 796 00e6 FFF7FEFF 		bl	CyBle_GappStartAdvertisement
 797              	.LVL87:
 798 00ea 36E0     		b	.L86
 799              	.L83:
 650:.\main.c      ****                 {
 651:.\main.c      ****                     //DBG_PRINTF("Device has entered Limited Discovery mode \r\n");
 652:.\main.c      ****                 }
 653:.\main.c      **** 
 654:.\main.c      ****                 /* Reset button state */
 655:.\main.c      ****                 buttonState = BUTTON_IS_NOT_PRESSED;
 656:.\main.c      ****             }
 657:.\main.c      ****         }
 658:.\main.c      ****         else
 659:.\main.c      ****         {
 660:.\main.c      ****             /* Decrease Tx power level of BLE radio if button is pressed */
 661:.\main.c      ****             if(buttonState == BUTTON_IS_PRESSED)
 800              		.loc 1 661 0
 801 00ec 2E78     		ldrb	r6, [r5]
 802 00ee 012E     		cmp	r6, #1
 803 00f0 35D1     		bne	.L84
 662:.\main.c      ****             {
 663:.\main.c      ****                 /* Specify connection channels for reading Tx power level */
 664:.\main.c      ****                 txPower.bleSsChId = CYBLE_LL_CONN_CH_TYPE;
 665:.\main.c      **** 
 666:.\main.c      ****                 /* Get current Tx power level */
 667:.\main.c      ****                 CyBle_GetTxPowerLevel(&txPower);
 804              		.loc 1 667 0
 805 00f2 201C     		mov	r0, r4
 664:.\main.c      **** 
 806              		.loc 1 664 0
 807 00f4 6670     		strb	r6, [r4, #1]
 808              		.loc 1 667 0
 809 00f6 FFF7FEFF 		bl	CyBle_GetTxPowerLevel
 810              	.LVL88:
 668:.\main.c      **** 
 669:.\main.c      ****                 /* Decrease the Tx power level by one scale */
 670:.\main.c      ****                 DecreaseTxPowerLevelValue(&txPower.blePwrLevelInDbm);
 811              		.loc 1 670 0
 812 00fa 201C     		mov	r0, r4
 813 00fc FFF7FEFF 		bl	DecreaseTxPowerLevelValue
 814              	.LVL89:
 671:.\main.c      **** 
 672:.\main.c      ****                 /* Set the new Tx power level */
 673:.\main.c      ****                 apiResult = CyBle_SetTxPowerLevel(&txPower);
 815              		.loc 1 673 0
 816 0100 201C     		mov	r0, r4
 817 0102 FFF7FEFF 		bl	CyBle_SetTxPowerLevel
 818              	.LVL90:
 819 0106 071E     		sub	r7, r0, #0
 820              	.LVL91:
 674:.\main.c      **** 
 675:.\main.c      ****                 if(apiResult == CYBLE_ERROR_OK)
 821              		.loc 1 675 0
 822 0108 27D1     		bne	.L86
 676:.\main.c      ****                 {
 677:.\main.c      ****                     /* Convert power level to numeric int8 value */
ARM GAS  C:\Users\mohammed\AppData\Local\Temp\ccmI5n8g.s 			page 29


 678:.\main.c      ****                     intTxPowerLevel = ConvertTxPowerlevelToInt8(txPower.blePwrLevelInDbm);
 823              		.loc 1 678 0
 824 010a 2078     		ldrb	r0, [r4]
 825              	.LVL92:
 826 010c FFF7FEFF 		bl	ConvertTxPowerlevelToInt8
 827              	.LVL93:
 828 0110 6B46     		mov	r3, sp
 829 0112 D870     		strb	r0, [r3, #3]
 679:.\main.c      **** 
 680:.\main.c      ****                     /* Specify advertisement channels for reading Tx power level */
 681:.\main.c      ****                     txPower.bleSsChId = CYBLE_LL_ADV_CH_TYPE;
 682:.\main.c      **** 
 683:.\main.c      ****                     /* Get current Tx power level */
 684:.\main.c      ****                     CyBle_GetTxPowerLevel(&txPower);
 830              		.loc 1 684 0
 831 0114 201C     		mov	r0, r4
 681:.\main.c      **** 
 832              		.loc 1 681 0
 833 0116 6770     		strb	r7, [r4, #1]
 834              		.loc 1 684 0
 835 0118 FFF7FEFF 		bl	CyBle_GetTxPowerLevel
 836              	.LVL94:
 685:.\main.c      **** 
 686:.\main.c      ****                     /* Decrease the Tx power level by one scale for the advertisement channels */
 687:.\main.c      ****                     DecreaseTxPowerLevelValue(&txPower.blePwrLevelInDbm);
 837              		.loc 1 687 0
 838 011c 201C     		mov	r0, r4
 839 011e FFF7FEFF 		bl	DecreaseTxPowerLevelValue
 840              	.LVL95:
 688:.\main.c      **** 
 689:.\main.c      ****                     /* Set the new Tx power level for advertisement channels */
 690:.\main.c      ****                     apiResult = CyBle_SetTxPowerLevel(&txPower);
 841              		.loc 1 690 0
 842 0122 201C     		mov	r0, r4
 843 0124 FFF7FEFF 		bl	CyBle_SetTxPowerLevel
 844              	.LVL96:
 691:.\main.c      **** 
 692:.\main.c      ****                     /* Write the new Tx power level value to the GATT database */
 693:.\main.c      ****                     apiResult = CyBle_TpssSetCharacteristicValue(CYBLE_TPS_TX_POWER_LEVEL,
 845              		.loc 1 693 0
 846 0128 6B46     		mov	r3, sp
 847 012a 311C     		mov	r1, r6
 848 012c 381C     		mov	r0, r7
 849 012e DA1C     		add	r2, r3, #3
 850 0130 FFF7FEFF 		bl	CyBle_TpssSetCharacteristicValue
 851              	.LVL97:
 852 0134 011E     		sub	r1, r0, #0
 853              	.LVL98:
 694:.\main.c      ****                                                             CYBLE_TPS_TX_POWER_LEVEL_SIZE,
 695:.\main.c      ****                                                             &intTxPowerLevel);
 696:.\main.c      **** 
 697:.\main.c      ****                     if(apiResult == CYBLE_ERROR_OK)
 854              		.loc 1 697 0
 855 0136 10D1     		bne	.L86
 698:.\main.c      ****                     {
 699:.\main.c      ****                         /* Display new Tx Power Level value */
 700:.\main.c      ****                         //DBG_PRINTF("Tx power level is set to %d dBm\r\n", intTxPowerLevel);
ARM GAS  C:\Users\mohammed\AppData\Local\Temp\ccmI5n8g.s 			page 30


 701:.\main.c      **** 
 702:.\main.c      ****                         if((YES == isTpsNotificationEnabled) && (YES == isTpsNotificationPending)) 
 856              		.loc 1 702 0
 857 0138 124B     		ldr	r3, .L92+32
 858 013a 1B78     		ldrb	r3, [r3]
 859 013c 012B     		cmp	r3, #1
 860 013e 0CD1     		bne	.L86
 861              		.loc 1 702 0 is_stmt 0 discriminator 1
 862 0140 114B     		ldr	r3, .L92+36
 863 0142 1A78     		ldrb	r2, [r3]
 864 0144 012A     		cmp	r2, #1
 865 0146 08D1     		bne	.L86
 703:.\main.c      ****                         {
 704:.\main.c      ****                             /* Send notification to the Client */
 705:.\main.c      ****                             apiResult = CyBle_TpssSendNotification(connectionHandle, CYBLE_TPS_TX_P
 866              		.loc 1 705 0 is_stmt 1
 867 0148 1048     		ldr	r0, .L92+40
 868              	.LVL99:
 869 014a 0378     		ldrb	r3, [r0]
 870 014c 4078     		ldrb	r0, [r0, #1]
 871 014e 0002     		lsl	r0, r0, #8
 872 0150 1843     		orr	r0, r3
 873 0152 6B46     		mov	r3, sp
 874 0154 0333     		add	r3, r3, #3
 875 0156 FFF7FEFF 		bl	CyBle_TpssSendNotification
 876              	.LVL100:
 877              	.L86:
 706:.\main.c      ****                                                                    CYBLE_TPS_TX_POWER_LEVEL_SIZE, &
 707:.\main.c      **** 
 708:.\main.c      ****                             if(apiResult == CYBLE_ERROR_OK)
 709:.\main.c      ****                             {
 710:.\main.c      ****                                 //DBG_PRINTF("New Tx power level value was notified to the Client\r
 711:.\main.c      ****                             }
 712:.\main.c      ****                             else
 713:.\main.c      ****                             {
 714:.\main.c      ****                                 //DBG_PRINTF("Failed to send notification to the Client\r\n");
 715:.\main.c      ****                             }
 716:.\main.c      ****                         }
 717:.\main.c      ****                     }
 718:.\main.c      ****                 }
 719:.\main.c      ****                 /* Reset button state */
 720:.\main.c      ****                 buttonState = BUTTON_IS_NOT_PRESSED;
 878              		.loc 1 720 0
 879 015a 0023     		mov	r3, #0
 880 015c 2B70     		strb	r3, [r5]
 881              	.L84:
 721:.\main.c      ****             }
 722:.\main.c      ****         }
 723:.\main.c      **** 
 724:.\main.c      ****         HandleLeds();
 882              		.loc 1 724 0
 883 015e FFF7FEFF 		bl	HandleLeds
 884              	.LVL101:
 725:.\main.c      ****     }
 885              		.loc 1 725 0
 886 0162 8AE7     		b	.L88
 887              	.L93:
ARM GAS  C:\Users\mohammed\AppData\Local\Temp\ccmI5n8g.s 			page 31


 888              		.align	2
 889              	.L92:
 890 0164 00000000 		.word	MY_ISR
 891 0168 00000000 		.word	AppCallBack
 892 016c 00000000 		.word	ButtonPressInt
 893 0170 00000000 		.word	LlsServiceAppEventHandler
 894 0174 00000000 		.word	TpsServiceAppEventHandler
 895 0178 00000000 		.word	cyBle_state
 896 017c 08022440 		.word	1076101640
 897 0180 00000000 		.word	.LANCHOR0
 898 0184 00000000 		.word	isTpsNotificationEnabled
 899 0188 00000000 		.word	isTpsNotificationPending
 900 018c 00000000 		.word	connectionHandle
 901              		.cfi_endproc
 902              	.LFE44:
 903              		.size	main, .-main
 904              		.global	ms_count
 905              		.comm	customDataPtr,4,4
 906              		.comm	customDataVal,1,1
 907              		.global	buttonState
 908              		.global	displayAlertMessage
 909              		.comm	advBlinkDelayCount,2,2
 910              		.comm	alertBlinkDelayCount,2,2
 911              		.global	alertLedState
 912              		.global	advLedState
 913              		.global	ledState
 914              		.comm	connectionHandle,2,1
 915              		.section	.rodata.str1.1,"aMS",%progbits,1
 916              	.LC7:
 917 0000 2573200D 		.ascii	"%s \015\012\000"
 917      0A00
 918              		.data
 919              		.set	.LANCHOR1,. + 0
 920              		.type	displayAlertMessage, %object
 921              		.size	displayAlertMessage, 1
 922              	displayAlertMessage:
 923 0000 01       		.byte	1
 924              		.type	alertLedState, %object
 925              		.size	alertLedState, 1
 926              	alertLedState:
 927 0001 01       		.byte	1
 928              		.type	advLedState, %object
 929              		.size	advLedState, 1
 930              	advLedState:
 931 0002 01       		.byte	1
 932              		.type	ledState, %object
 933              		.size	ledState, 1
 934              	ledState:
 935 0003 01       		.byte	1
 936              		.bss
 937              		.align	1
 938              		.set	.LANCHOR0,. + 0
 939              		.type	buttonState, %object
 940              		.size	buttonState, 1
 941              	buttonState:
 942 0000 00       		.space	1
 943 0001 00       		.space	1
ARM GAS  C:\Users\mohammed\AppData\Local\Temp\ccmI5n8g.s 			page 32


 944              		.type	ms_count, %object
 945              		.size	ms_count, 2
 946              	ms_count:
 947 0002 0000     		.space	2
 948              		.text
 949              	.Letext0:
 950              		.file 2 "Generated_Source\\PSoC4/cytypes.h"
 951              		.file 3 "Generated_Source\\PSoC4/CYBLE_Stack.h"
 952              		.file 4 "Generated_Source\\PSoC4/CYBLE_StackHostMain.h"
 953              		.file 5 "Generated_Source\\PSoC4/CYBLE_StackGatt.h"
 954              		.file 6 "Generated_Source\\PSoC4/CYBLE_StackGattServer.h"
 955              		.file 7 "Generated_Source\\PSoC4/CYBLE.h"
 956              		.file 8 "Generated_Source\\PSoC4/CYBLE_lls.h"
 957              		.file 9 "Generated_Source\\PSoC4/CYBLE_tps.h"
 958              		.file 10 "Generated_Source\\PSoC4/CYBLE_eventHandler.h"
 959              		.file 11 ".\\lls.h"
 960              		.file 12 ".\\tps.h"
 961              		.file 13 "c:\\program files (x86)\\cypress\\psoc creator\\3.3\\psoc creator\\import\\gnu\\arm\\4.9
 962              		.file 14 "Generated_Source\\PSoC4/Disconnect_LED.h"
 963              		.file 15 "Generated_Source\\PSoC4/Advertising_LED.h"
 964              		.file 16 "Generated_Source\\PSoC4/Alert_LED.h"
 965              		.file 17 "Generated_Source\\PSoC4/SW2.h"
 966              		.file 18 "Generated_Source\\PSoC4/UART_DEB_SPI_UART.h"
 967              		.file 19 "Generated_Source\\PSoC4/SW2_Interrupt.h"
 968              		.file 20 "Generated_Source\\PSoC4/cyPm.h"
 969              		.file 21 "Generated_Source\\PSoC4/LED.h"
 970              		.file 22 "Generated_Source\\PSoC4/CyLFClk.h"
 971              		.file 23 "Generated_Source\\PSoC4/WDT_Interrupt.h"
 972              		.file 24 "Generated_Source\\PSoC4/CyLib.h"
 973              		.file 25 "Generated_Source\\PSoC4/Timer_1.h"
 974              		.file 26 "Generated_Source\\PSoC4/isr_1.h"
 975              		.file 27 "Generated_Source\\PSoC4/UART_DEB.h"