ARM GAS  C:\Users\mohammed\AppData\Local\Temp\ccVUHqpw.s 			page 1


   1              		.cpu cortex-m0
   2              		.fpu softvfp
   3              		.eabi_attribute 20, 1
   4              		.eabi_attribute 21, 1
   5              		.eabi_attribute 23, 3
   6              		.eabi_attribute 24, 1
   7              		.eabi_attribute 25, 1
   8              		.eabi_attribute 26, 1
   9              		.eabi_attribute 30, 4
  10              		.eabi_attribute 34, 0
  11              		.eabi_attribute 18, 4
  12              		.code	16
  13              		.file	"Timer_1.c"
  14              		.text
  15              	.Ltext0:
  16              		.cfi_sections	.debug_frame
  17              		.section	.text.Timer_1_Enable,"ax",%progbits
  18              		.align	1
  19              		.global	Timer_1_Enable
  20              		.code	16
  21              		.thumb_func
  22              		.type	Timer_1_Enable, %function
  23              	Timer_1_Enable:
  24              	.LFB3:
  25              		.file 1 ".\\Generated_Source\\PSoC4\\Timer_1.c"
   1:.\Generated_Source\PSoC4/Timer_1.c **** /*******************************************************************************
   2:.\Generated_Source\PSoC4/Timer_1.c **** * File Name: Timer_1.c
   3:.\Generated_Source\PSoC4/Timer_1.c **** * Version 2.70
   4:.\Generated_Source\PSoC4/Timer_1.c **** *
   5:.\Generated_Source\PSoC4/Timer_1.c **** * Description:
   6:.\Generated_Source\PSoC4/Timer_1.c **** *  The Timer component consists of a 8, 16, 24 or 32-bit timer with
   7:.\Generated_Source\PSoC4/Timer_1.c **** *  a selectable period between 2 and 2^Width - 1.  The timer may free run
   8:.\Generated_Source\PSoC4/Timer_1.c **** *  or be used as a capture timer as well.  The capture can be initiated
   9:.\Generated_Source\PSoC4/Timer_1.c **** *  by a positive or negative edge signal as well as via software.
  10:.\Generated_Source\PSoC4/Timer_1.c **** *  A trigger input can be programmed to enable the timer on rising edge
  11:.\Generated_Source\PSoC4/Timer_1.c **** *  falling edge, either edge or continous run.
  12:.\Generated_Source\PSoC4/Timer_1.c **** *  Interrupts may be generated due to a terminal count condition
  13:.\Generated_Source\PSoC4/Timer_1.c **** *  or a capture event.
  14:.\Generated_Source\PSoC4/Timer_1.c **** *
  15:.\Generated_Source\PSoC4/Timer_1.c **** * Note:
  16:.\Generated_Source\PSoC4/Timer_1.c **** *
  17:.\Generated_Source\PSoC4/Timer_1.c **** ********************************************************************************
  18:.\Generated_Source\PSoC4/Timer_1.c **** * Copyright 2008-2014, Cypress Semiconductor Corporation.  All rights reserved.
  19:.\Generated_Source\PSoC4/Timer_1.c **** * You may use this file only in accordance with the license, terms, conditions,
  20:.\Generated_Source\PSoC4/Timer_1.c **** * disclaimers, and limitations in the end user license agreement accompanying
  21:.\Generated_Source\PSoC4/Timer_1.c **** * the software package with which this file was provided.
  22:.\Generated_Source\PSoC4/Timer_1.c **** ********************************************************************************/
  23:.\Generated_Source\PSoC4/Timer_1.c **** 
  24:.\Generated_Source\PSoC4/Timer_1.c **** #include "Timer_1.h"
  25:.\Generated_Source\PSoC4/Timer_1.c **** 
  26:.\Generated_Source\PSoC4/Timer_1.c **** uint8 Timer_1_initVar = 0u;
  27:.\Generated_Source\PSoC4/Timer_1.c **** 
  28:.\Generated_Source\PSoC4/Timer_1.c **** 
  29:.\Generated_Source\PSoC4/Timer_1.c **** /*******************************************************************************
  30:.\Generated_Source\PSoC4/Timer_1.c **** * Function Name: Timer_1_Init
  31:.\Generated_Source\PSoC4/Timer_1.c **** ********************************************************************************
  32:.\Generated_Source\PSoC4/Timer_1.c **** *
ARM GAS  C:\Users\mohammed\AppData\Local\Temp\ccVUHqpw.s 			page 2


  33:.\Generated_Source\PSoC4/Timer_1.c **** * Summary:
  34:.\Generated_Source\PSoC4/Timer_1.c **** *  Initialize to the schematic state
  35:.\Generated_Source\PSoC4/Timer_1.c **** *
  36:.\Generated_Source\PSoC4/Timer_1.c **** * Parameters:
  37:.\Generated_Source\PSoC4/Timer_1.c **** *  void
  38:.\Generated_Source\PSoC4/Timer_1.c **** *
  39:.\Generated_Source\PSoC4/Timer_1.c **** * Return:
  40:.\Generated_Source\PSoC4/Timer_1.c **** *  void
  41:.\Generated_Source\PSoC4/Timer_1.c **** *
  42:.\Generated_Source\PSoC4/Timer_1.c **** *******************************************************************************/
  43:.\Generated_Source\PSoC4/Timer_1.c **** void Timer_1_Init(void) 
  44:.\Generated_Source\PSoC4/Timer_1.c **** {
  45:.\Generated_Source\PSoC4/Timer_1.c ****     #if(!Timer_1_UsingFixedFunction)
  46:.\Generated_Source\PSoC4/Timer_1.c ****             /* Interrupt State Backup for Critical Region*/
  47:.\Generated_Source\PSoC4/Timer_1.c ****             uint8 Timer_1_interruptState;
  48:.\Generated_Source\PSoC4/Timer_1.c ****     #endif /* Interrupt state back up for Fixed Function only */
  49:.\Generated_Source\PSoC4/Timer_1.c **** 
  50:.\Generated_Source\PSoC4/Timer_1.c ****     #if (Timer_1_UsingFixedFunction)
  51:.\Generated_Source\PSoC4/Timer_1.c ****         /* Clear all bits but the enable bit (if it's already set) for Timer operation */
  52:.\Generated_Source\PSoC4/Timer_1.c ****         Timer_1_CONTROL &= Timer_1_CTRL_ENABLE;
  53:.\Generated_Source\PSoC4/Timer_1.c **** 
  54:.\Generated_Source\PSoC4/Timer_1.c ****         /* Clear the mode bits for continuous run mode */
  55:.\Generated_Source\PSoC4/Timer_1.c ****         #if (CY_PSOC5A)
  56:.\Generated_Source\PSoC4/Timer_1.c ****             Timer_1_CONTROL2 &= ((uint8)(~Timer_1_CTRL_MODE_MASK));
  57:.\Generated_Source\PSoC4/Timer_1.c ****         #endif /* Clear bits in CONTROL2 only in PSOC5A */
  58:.\Generated_Source\PSoC4/Timer_1.c **** 
  59:.\Generated_Source\PSoC4/Timer_1.c ****         #if (CY_PSOC3 || CY_PSOC5LP)
  60:.\Generated_Source\PSoC4/Timer_1.c ****             Timer_1_CONTROL3 &= ((uint8)(~Timer_1_CTRL_MODE_MASK));
  61:.\Generated_Source\PSoC4/Timer_1.c ****         #endif /* CONTROL3 register exists only in PSoC3 OR PSoC5LP */
  62:.\Generated_Source\PSoC4/Timer_1.c **** 
  63:.\Generated_Source\PSoC4/Timer_1.c ****         /* Check if One Shot mode is enabled i.e. RunMode !=0*/
  64:.\Generated_Source\PSoC4/Timer_1.c ****         #if (Timer_1_RunModeUsed != 0x0u)
  65:.\Generated_Source\PSoC4/Timer_1.c ****             /* Set 3rd bit of Control register to enable one shot mode */
  66:.\Generated_Source\PSoC4/Timer_1.c ****             Timer_1_CONTROL |= 0x04u;
  67:.\Generated_Source\PSoC4/Timer_1.c ****         #endif /* One Shot enabled only when RunModeUsed is not Continuous*/
  68:.\Generated_Source\PSoC4/Timer_1.c **** 
  69:.\Generated_Source\PSoC4/Timer_1.c ****         #if (Timer_1_RunModeUsed == 2)
  70:.\Generated_Source\PSoC4/Timer_1.c ****             #if (CY_PSOC5A)
  71:.\Generated_Source\PSoC4/Timer_1.c ****                 /* Set last 2 bits of control2 register if one shot(halt on
  72:.\Generated_Source\PSoC4/Timer_1.c ****                 interrupt) is enabled*/
  73:.\Generated_Source\PSoC4/Timer_1.c ****                 Timer_1_CONTROL2 |= 0x03u;
  74:.\Generated_Source\PSoC4/Timer_1.c ****             #endif /* Set One-Shot Halt on Interrupt bit in CONTROL2 for PSoC5A */
  75:.\Generated_Source\PSoC4/Timer_1.c **** 
  76:.\Generated_Source\PSoC4/Timer_1.c ****             #if (CY_PSOC3 || CY_PSOC5LP)
  77:.\Generated_Source\PSoC4/Timer_1.c ****                 /* Set last 2 bits of control3 register if one shot(halt on
  78:.\Generated_Source\PSoC4/Timer_1.c ****                 interrupt) is enabled*/
  79:.\Generated_Source\PSoC4/Timer_1.c ****                 Timer_1_CONTROL3 |= 0x03u;
  80:.\Generated_Source\PSoC4/Timer_1.c ****             #endif /* Set One-Shot Halt on Interrupt bit in CONTROL3 for PSoC3 or PSoC5LP */
  81:.\Generated_Source\PSoC4/Timer_1.c **** 
  82:.\Generated_Source\PSoC4/Timer_1.c ****         #endif /* Remove section if One Shot Halt on Interrupt is not enabled */
  83:.\Generated_Source\PSoC4/Timer_1.c **** 
  84:.\Generated_Source\PSoC4/Timer_1.c ****         #if (Timer_1_UsingHWEnable != 0)
  85:.\Generated_Source\PSoC4/Timer_1.c ****             #if (CY_PSOC5A)
  86:.\Generated_Source\PSoC4/Timer_1.c ****                 /* Set the default Run Mode of the Timer to Continuous */
  87:.\Generated_Source\PSoC4/Timer_1.c ****                 Timer_1_CONTROL2 |= Timer_1_CTRL_MODE_PULSEWIDTH;
  88:.\Generated_Source\PSoC4/Timer_1.c ****             #endif /* Set Continuous Run Mode in CONTROL2 for PSoC5A */
  89:.\Generated_Source\PSoC4/Timer_1.c **** 
ARM GAS  C:\Users\mohammed\AppData\Local\Temp\ccVUHqpw.s 			page 3


  90:.\Generated_Source\PSoC4/Timer_1.c ****             #if (CY_PSOC3 || CY_PSOC5LP)
  91:.\Generated_Source\PSoC4/Timer_1.c ****                 /* Clear and Set ROD and COD bits of CFG2 register */
  92:.\Generated_Source\PSoC4/Timer_1.c ****                 Timer_1_CONTROL3 &= ((uint8)(~Timer_1_CTRL_RCOD_MASK));
  93:.\Generated_Source\PSoC4/Timer_1.c ****                 Timer_1_CONTROL3 |= Timer_1_CTRL_RCOD;
  94:.\Generated_Source\PSoC4/Timer_1.c **** 
  95:.\Generated_Source\PSoC4/Timer_1.c ****                 /* Clear and Enable the HW enable bit in CFG2 register */
  96:.\Generated_Source\PSoC4/Timer_1.c ****                 Timer_1_CONTROL3 &= ((uint8)(~Timer_1_CTRL_ENBL_MASK));
  97:.\Generated_Source\PSoC4/Timer_1.c ****                 Timer_1_CONTROL3 |= Timer_1_CTRL_ENBL;
  98:.\Generated_Source\PSoC4/Timer_1.c **** 
  99:.\Generated_Source\PSoC4/Timer_1.c ****                 /* Set the default Run Mode of the Timer to Continuous */
 100:.\Generated_Source\PSoC4/Timer_1.c ****                 Timer_1_CONTROL3 |= Timer_1_CTRL_MODE_CONTINUOUS;
 101:.\Generated_Source\PSoC4/Timer_1.c ****             #endif /* Set Continuous Run Mode in CONTROL3 for PSoC3ES3 or PSoC5A */
 102:.\Generated_Source\PSoC4/Timer_1.c **** 
 103:.\Generated_Source\PSoC4/Timer_1.c ****         #endif /* Configure Run Mode with hardware enable */
 104:.\Generated_Source\PSoC4/Timer_1.c **** 
 105:.\Generated_Source\PSoC4/Timer_1.c ****         /* Clear and Set SYNCTC and SYNCCMP bits of RT1 register */
 106:.\Generated_Source\PSoC4/Timer_1.c ****         Timer_1_RT1 &= ((uint8)(~Timer_1_RT1_MASK));
 107:.\Generated_Source\PSoC4/Timer_1.c ****         Timer_1_RT1 |= Timer_1_SYNC;
 108:.\Generated_Source\PSoC4/Timer_1.c **** 
 109:.\Generated_Source\PSoC4/Timer_1.c ****         /*Enable DSI Sync all all inputs of the Timer*/
 110:.\Generated_Source\PSoC4/Timer_1.c ****         Timer_1_RT1 &= ((uint8)(~Timer_1_SYNCDSI_MASK));
 111:.\Generated_Source\PSoC4/Timer_1.c ****         Timer_1_RT1 |= Timer_1_SYNCDSI_EN;
 112:.\Generated_Source\PSoC4/Timer_1.c **** 
 113:.\Generated_Source\PSoC4/Timer_1.c ****         /* Set the IRQ to use the status register interrupts */
 114:.\Generated_Source\PSoC4/Timer_1.c ****         Timer_1_CONTROL2 |= Timer_1_CTRL2_IRQ_SEL;
 115:.\Generated_Source\PSoC4/Timer_1.c ****     #endif /* Configuring registers of fixed function implementation */
 116:.\Generated_Source\PSoC4/Timer_1.c **** 
 117:.\Generated_Source\PSoC4/Timer_1.c ****     /* Set Initial values from Configuration */
 118:.\Generated_Source\PSoC4/Timer_1.c ****     Timer_1_WritePeriod(Timer_1_INIT_PERIOD);
 119:.\Generated_Source\PSoC4/Timer_1.c ****     Timer_1_WriteCounter(Timer_1_INIT_PERIOD);
 120:.\Generated_Source\PSoC4/Timer_1.c **** 
 121:.\Generated_Source\PSoC4/Timer_1.c ****     #if (Timer_1_UsingHWCaptureCounter)/* Capture counter is enabled */
 122:.\Generated_Source\PSoC4/Timer_1.c ****         Timer_1_CAPTURE_COUNT_CTRL |= Timer_1_CNTR_ENABLE;
 123:.\Generated_Source\PSoC4/Timer_1.c ****         Timer_1_SetCaptureCount(Timer_1_INIT_CAPTURE_COUNT);
 124:.\Generated_Source\PSoC4/Timer_1.c ****     #endif /* Configure capture counter value */
 125:.\Generated_Source\PSoC4/Timer_1.c **** 
 126:.\Generated_Source\PSoC4/Timer_1.c ****     #if (!Timer_1_UsingFixedFunction)
 127:.\Generated_Source\PSoC4/Timer_1.c ****         #if (Timer_1_SoftwareCaptureMode)
 128:.\Generated_Source\PSoC4/Timer_1.c ****             Timer_1_SetCaptureMode(Timer_1_INIT_CAPTURE_MODE);
 129:.\Generated_Source\PSoC4/Timer_1.c ****         #endif /* Set Capture Mode for UDB implementation if capture mode is software controlled */
 130:.\Generated_Source\PSoC4/Timer_1.c **** 
 131:.\Generated_Source\PSoC4/Timer_1.c ****         #if (Timer_1_SoftwareTriggerMode)
 132:.\Generated_Source\PSoC4/Timer_1.c ****             #if (!Timer_1_UDB_CONTROL_REG_REMOVED)
 133:.\Generated_Source\PSoC4/Timer_1.c ****                 if (0u == (Timer_1_CONTROL & Timer_1__B_TIMER__TM_SOFTWARE))
 134:.\Generated_Source\PSoC4/Timer_1.c ****                 {
 135:.\Generated_Source\PSoC4/Timer_1.c ****                     Timer_1_SetTriggerMode(Timer_1_INIT_TRIGGER_MODE);
 136:.\Generated_Source\PSoC4/Timer_1.c ****                 }
 137:.\Generated_Source\PSoC4/Timer_1.c ****             #endif /* (!Timer_1_UDB_CONTROL_REG_REMOVED) */
 138:.\Generated_Source\PSoC4/Timer_1.c ****         #endif /* Set trigger mode for UDB Implementation if trigger mode is software controlled */
 139:.\Generated_Source\PSoC4/Timer_1.c **** 
 140:.\Generated_Source\PSoC4/Timer_1.c ****         /* CyEnterCriticalRegion and CyExitCriticalRegion are used to mark following region critica
 141:.\Generated_Source\PSoC4/Timer_1.c ****         /* Enter Critical Region*/
 142:.\Generated_Source\PSoC4/Timer_1.c ****         Timer_1_interruptState = CyEnterCriticalSection();
 143:.\Generated_Source\PSoC4/Timer_1.c **** 
 144:.\Generated_Source\PSoC4/Timer_1.c ****         /* Use the interrupt output of the status register for IRQ output */
 145:.\Generated_Source\PSoC4/Timer_1.c ****         Timer_1_STATUS_AUX_CTRL |= Timer_1_STATUS_ACTL_INT_EN_MASK;
 146:.\Generated_Source\PSoC4/Timer_1.c **** 
ARM GAS  C:\Users\mohammed\AppData\Local\Temp\ccVUHqpw.s 			page 4


 147:.\Generated_Source\PSoC4/Timer_1.c ****         /* Exit Critical Region*/
 148:.\Generated_Source\PSoC4/Timer_1.c ****         CyExitCriticalSection(Timer_1_interruptState);
 149:.\Generated_Source\PSoC4/Timer_1.c **** 
 150:.\Generated_Source\PSoC4/Timer_1.c ****         #if (Timer_1_EnableTriggerMode)
 151:.\Generated_Source\PSoC4/Timer_1.c ****             Timer_1_EnableTrigger();
 152:.\Generated_Source\PSoC4/Timer_1.c ****         #endif /* Set Trigger enable bit for UDB implementation in the control register*/
 153:.\Generated_Source\PSoC4/Timer_1.c **** 		
 154:.\Generated_Source\PSoC4/Timer_1.c **** 		
 155:.\Generated_Source\PSoC4/Timer_1.c ****         #if (Timer_1_InterruptOnCaptureCount && !Timer_1_UDB_CONTROL_REG_REMOVED)
 156:.\Generated_Source\PSoC4/Timer_1.c ****             Timer_1_SetInterruptCount(Timer_1_INIT_INT_CAPTURE_COUNT);
 157:.\Generated_Source\PSoC4/Timer_1.c ****         #endif /* Set interrupt count in UDB implementation if interrupt count feature is checked.*
 158:.\Generated_Source\PSoC4/Timer_1.c **** 
 159:.\Generated_Source\PSoC4/Timer_1.c ****         Timer_1_ClearFIFO();
 160:.\Generated_Source\PSoC4/Timer_1.c ****     #endif /* Configure additional features of UDB implementation */
 161:.\Generated_Source\PSoC4/Timer_1.c **** 
 162:.\Generated_Source\PSoC4/Timer_1.c ****     Timer_1_SetInterruptMode(Timer_1_INIT_INTERRUPT_MODE);
 163:.\Generated_Source\PSoC4/Timer_1.c **** }
 164:.\Generated_Source\PSoC4/Timer_1.c **** 
 165:.\Generated_Source\PSoC4/Timer_1.c **** 
 166:.\Generated_Source\PSoC4/Timer_1.c **** /*******************************************************************************
 167:.\Generated_Source\PSoC4/Timer_1.c **** * Function Name: Timer_1_Enable
 168:.\Generated_Source\PSoC4/Timer_1.c **** ********************************************************************************
 169:.\Generated_Source\PSoC4/Timer_1.c **** *
 170:.\Generated_Source\PSoC4/Timer_1.c **** * Summary:
 171:.\Generated_Source\PSoC4/Timer_1.c **** *  Enable the Timer
 172:.\Generated_Source\PSoC4/Timer_1.c **** *
 173:.\Generated_Source\PSoC4/Timer_1.c **** * Parameters:
 174:.\Generated_Source\PSoC4/Timer_1.c **** *  void
 175:.\Generated_Source\PSoC4/Timer_1.c **** *
 176:.\Generated_Source\PSoC4/Timer_1.c **** * Return:
 177:.\Generated_Source\PSoC4/Timer_1.c **** *  void
 178:.\Generated_Source\PSoC4/Timer_1.c **** *
 179:.\Generated_Source\PSoC4/Timer_1.c **** *******************************************************************************/
 180:.\Generated_Source\PSoC4/Timer_1.c **** void Timer_1_Enable(void) 
 181:.\Generated_Source\PSoC4/Timer_1.c **** {
  26              		.loc 1 181 0
  27              		.cfi_startproc
 182:.\Generated_Source\PSoC4/Timer_1.c ****     /* Globally Enable the Fixed Function Block chosen */
 183:.\Generated_Source\PSoC4/Timer_1.c ****     #if (Timer_1_UsingFixedFunction)
 184:.\Generated_Source\PSoC4/Timer_1.c ****         Timer_1_GLOBAL_ENABLE |= Timer_1_BLOCK_EN_MASK;
 185:.\Generated_Source\PSoC4/Timer_1.c ****         Timer_1_GLOBAL_STBY_ENABLE |= Timer_1_BLOCK_STBY_EN_MASK;
 186:.\Generated_Source\PSoC4/Timer_1.c ****     #endif /* Set Enable bit for enabling Fixed function timer*/
 187:.\Generated_Source\PSoC4/Timer_1.c **** 
 188:.\Generated_Source\PSoC4/Timer_1.c ****     /* Remove assignment if control register is removed */
 189:.\Generated_Source\PSoC4/Timer_1.c ****     #if (!Timer_1_UDB_CONTROL_REG_REMOVED || Timer_1_UsingFixedFunction)
 190:.\Generated_Source\PSoC4/Timer_1.c ****         Timer_1_CONTROL |= Timer_1_CTRL_ENABLE;
  28              		.loc 1 190 0
  29 0000 8023     		mov	r3, #128
  30 0002 024A     		ldr	r2, .L2
 191:.\Generated_Source\PSoC4/Timer_1.c ****     #endif /* Remove assignment if control register is removed */
 192:.\Generated_Source\PSoC4/Timer_1.c **** }
  31              		.loc 1 192 0
  32              		@ sp needed
 190:.\Generated_Source\PSoC4/Timer_1.c ****     #endif /* Remove assignment if control register is removed */
  33              		.loc 1 190 0
  34 0004 1178     		ldrb	r1, [r2]
  35 0006 0B43     		orr	r3, r1
ARM GAS  C:\Users\mohammed\AppData\Local\Temp\ccVUHqpw.s 			page 5


  36 0008 1370     		strb	r3, [r2]
  37              		.loc 1 192 0
  38 000a 7047     		bx	lr
  39              	.L3:
  40              		.align	2
  41              	.L2:
  42 000c 73000F40 		.word	1074724979
  43              		.cfi_endproc
  44              	.LFE3:
  45              		.size	Timer_1_Enable, .-Timer_1_Enable
  46              		.section	.text.Timer_1_Stop,"ax",%progbits
  47              		.align	1
  48              		.global	Timer_1_Stop
  49              		.code	16
  50              		.thumb_func
  51              		.type	Timer_1_Stop, %function
  52              	Timer_1_Stop:
  53              	.LFB5:
 193:.\Generated_Source\PSoC4/Timer_1.c **** 
 194:.\Generated_Source\PSoC4/Timer_1.c **** 
 195:.\Generated_Source\PSoC4/Timer_1.c **** /*******************************************************************************
 196:.\Generated_Source\PSoC4/Timer_1.c **** * Function Name: Timer_1_Start
 197:.\Generated_Source\PSoC4/Timer_1.c **** ********************************************************************************
 198:.\Generated_Source\PSoC4/Timer_1.c **** *
 199:.\Generated_Source\PSoC4/Timer_1.c **** * Summary:
 200:.\Generated_Source\PSoC4/Timer_1.c **** *  The start function initializes the timer with the default values, the
 201:.\Generated_Source\PSoC4/Timer_1.c **** *  enables the timerto begin counting.  It does not enable interrupts,
 202:.\Generated_Source\PSoC4/Timer_1.c **** *  the EnableInt command should be called if interrupt generation is required.
 203:.\Generated_Source\PSoC4/Timer_1.c **** *
 204:.\Generated_Source\PSoC4/Timer_1.c **** * Parameters:
 205:.\Generated_Source\PSoC4/Timer_1.c **** *  void
 206:.\Generated_Source\PSoC4/Timer_1.c **** *
 207:.\Generated_Source\PSoC4/Timer_1.c **** * Return:
 208:.\Generated_Source\PSoC4/Timer_1.c **** *  void
 209:.\Generated_Source\PSoC4/Timer_1.c **** *
 210:.\Generated_Source\PSoC4/Timer_1.c **** * Global variables:
 211:.\Generated_Source\PSoC4/Timer_1.c **** *  Timer_1_initVar: Is modified when this function is called for the
 212:.\Generated_Source\PSoC4/Timer_1.c **** *   first time. Is used to ensure that initialization happens only once.
 213:.\Generated_Source\PSoC4/Timer_1.c **** *
 214:.\Generated_Source\PSoC4/Timer_1.c **** *******************************************************************************/
 215:.\Generated_Source\PSoC4/Timer_1.c **** void Timer_1_Start(void) 
 216:.\Generated_Source\PSoC4/Timer_1.c **** {
 217:.\Generated_Source\PSoC4/Timer_1.c ****     if(Timer_1_initVar == 0u)
 218:.\Generated_Source\PSoC4/Timer_1.c ****     {
 219:.\Generated_Source\PSoC4/Timer_1.c ****         Timer_1_Init();
 220:.\Generated_Source\PSoC4/Timer_1.c **** 
 221:.\Generated_Source\PSoC4/Timer_1.c ****         Timer_1_initVar = 1u;   /* Clear this bit for Initialization */
 222:.\Generated_Source\PSoC4/Timer_1.c ****     }
 223:.\Generated_Source\PSoC4/Timer_1.c **** 
 224:.\Generated_Source\PSoC4/Timer_1.c ****     /* Enable the Timer */
 225:.\Generated_Source\PSoC4/Timer_1.c ****     Timer_1_Enable();
 226:.\Generated_Source\PSoC4/Timer_1.c **** }
 227:.\Generated_Source\PSoC4/Timer_1.c **** 
 228:.\Generated_Source\PSoC4/Timer_1.c **** 
 229:.\Generated_Source\PSoC4/Timer_1.c **** /*******************************************************************************
 230:.\Generated_Source\PSoC4/Timer_1.c **** * Function Name: Timer_1_Stop
 231:.\Generated_Source\PSoC4/Timer_1.c **** ********************************************************************************
ARM GAS  C:\Users\mohammed\AppData\Local\Temp\ccVUHqpw.s 			page 6


 232:.\Generated_Source\PSoC4/Timer_1.c **** *
 233:.\Generated_Source\PSoC4/Timer_1.c **** * Summary:
 234:.\Generated_Source\PSoC4/Timer_1.c **** *  The stop function halts the timer, but does not change any modes or disable
 235:.\Generated_Source\PSoC4/Timer_1.c **** *  interrupts.
 236:.\Generated_Source\PSoC4/Timer_1.c **** *
 237:.\Generated_Source\PSoC4/Timer_1.c **** * Parameters:
 238:.\Generated_Source\PSoC4/Timer_1.c **** *  void
 239:.\Generated_Source\PSoC4/Timer_1.c **** *
 240:.\Generated_Source\PSoC4/Timer_1.c **** * Return:
 241:.\Generated_Source\PSoC4/Timer_1.c **** *  void
 242:.\Generated_Source\PSoC4/Timer_1.c **** *
 243:.\Generated_Source\PSoC4/Timer_1.c **** * Side Effects: If the Enable mode is set to Hardware only then this function
 244:.\Generated_Source\PSoC4/Timer_1.c **** *               has no effect on the operation of the timer.
 245:.\Generated_Source\PSoC4/Timer_1.c **** *
 246:.\Generated_Source\PSoC4/Timer_1.c **** *******************************************************************************/
 247:.\Generated_Source\PSoC4/Timer_1.c **** void Timer_1_Stop(void) 
 248:.\Generated_Source\PSoC4/Timer_1.c **** {
  54              		.loc 1 248 0
  55              		.cfi_startproc
 249:.\Generated_Source\PSoC4/Timer_1.c ****     /* Disable Timer */
 250:.\Generated_Source\PSoC4/Timer_1.c ****     #if(!Timer_1_UDB_CONTROL_REG_REMOVED || Timer_1_UsingFixedFunction)
 251:.\Generated_Source\PSoC4/Timer_1.c ****         Timer_1_CONTROL &= ((uint8)(~Timer_1_CTRL_ENABLE));
  56              		.loc 1 251 0
  57 0000 7F23     		mov	r3, #127
  58 0002 024A     		ldr	r2, .L5
 252:.\Generated_Source\PSoC4/Timer_1.c ****     #endif /* Remove assignment if control register is removed */
 253:.\Generated_Source\PSoC4/Timer_1.c **** 
 254:.\Generated_Source\PSoC4/Timer_1.c ****     /* Globally disable the Fixed Function Block chosen */
 255:.\Generated_Source\PSoC4/Timer_1.c ****     #if (Timer_1_UsingFixedFunction)
 256:.\Generated_Source\PSoC4/Timer_1.c ****         Timer_1_GLOBAL_ENABLE &= ((uint8)(~Timer_1_BLOCK_EN_MASK));
 257:.\Generated_Source\PSoC4/Timer_1.c ****         Timer_1_GLOBAL_STBY_ENABLE &= ((uint8)(~Timer_1_BLOCK_STBY_EN_MASK));
 258:.\Generated_Source\PSoC4/Timer_1.c ****     #endif /* Disable global enable for the Timer Fixed function block to stop the Timer*/
 259:.\Generated_Source\PSoC4/Timer_1.c **** }
  59              		.loc 1 259 0
  60              		@ sp needed
 251:.\Generated_Source\PSoC4/Timer_1.c ****     #endif /* Remove assignment if control register is removed */
  61              		.loc 1 251 0
  62 0004 1178     		ldrb	r1, [r2]
  63 0006 0B40     		and	r3, r1
  64 0008 1370     		strb	r3, [r2]
  65              		.loc 1 259 0
  66 000a 7047     		bx	lr
  67              	.L6:
  68              		.align	2
  69              	.L5:
  70 000c 73000F40 		.word	1074724979
  71              		.cfi_endproc
  72              	.LFE5:
  73              		.size	Timer_1_Stop, .-Timer_1_Stop
  74              		.section	.text.Timer_1_SetInterruptMode,"ax",%progbits
  75              		.align	1
  76              		.global	Timer_1_SetInterruptMode
  77              		.code	16
  78              		.thumb_func
  79              		.type	Timer_1_SetInterruptMode, %function
  80              	Timer_1_SetInterruptMode:
  81              	.LFB6:
ARM GAS  C:\Users\mohammed\AppData\Local\Temp\ccVUHqpw.s 			page 7


 260:.\Generated_Source\PSoC4/Timer_1.c **** 
 261:.\Generated_Source\PSoC4/Timer_1.c **** 
 262:.\Generated_Source\PSoC4/Timer_1.c **** /*******************************************************************************
 263:.\Generated_Source\PSoC4/Timer_1.c **** * Function Name: Timer_1_SetInterruptMode
 264:.\Generated_Source\PSoC4/Timer_1.c **** ********************************************************************************
 265:.\Generated_Source\PSoC4/Timer_1.c **** *
 266:.\Generated_Source\PSoC4/Timer_1.c **** * Summary:
 267:.\Generated_Source\PSoC4/Timer_1.c **** *  This function selects which of the interrupt inputs may cause an interrupt.
 268:.\Generated_Source\PSoC4/Timer_1.c **** *  The twosources are caputure and terminal.  One, both or neither may
 269:.\Generated_Source\PSoC4/Timer_1.c **** *  be selected.
 270:.\Generated_Source\PSoC4/Timer_1.c **** *
 271:.\Generated_Source\PSoC4/Timer_1.c **** * Parameters:
 272:.\Generated_Source\PSoC4/Timer_1.c **** *  interruptMode:   This parameter is used to enable interrups on either/or
 273:.\Generated_Source\PSoC4/Timer_1.c **** *                   terminal count or capture.
 274:.\Generated_Source\PSoC4/Timer_1.c **** *
 275:.\Generated_Source\PSoC4/Timer_1.c **** * Return:
 276:.\Generated_Source\PSoC4/Timer_1.c **** *  void
 277:.\Generated_Source\PSoC4/Timer_1.c **** *
 278:.\Generated_Source\PSoC4/Timer_1.c **** *******************************************************************************/
 279:.\Generated_Source\PSoC4/Timer_1.c **** void Timer_1_SetInterruptMode(uint8 interruptMode) 
 280:.\Generated_Source\PSoC4/Timer_1.c **** {
  82              		.loc 1 280 0
  83              		.cfi_startproc
  84              	.LVL0:
 281:.\Generated_Source\PSoC4/Timer_1.c ****     Timer_1_STATUS_MASK = interruptMode;
  85              		.loc 1 281 0
  86 0000 014B     		ldr	r3, .L8
 282:.\Generated_Source\PSoC4/Timer_1.c **** }
  87              		.loc 1 282 0
  88              		@ sp needed
 281:.\Generated_Source\PSoC4/Timer_1.c ****     Timer_1_STATUS_MASK = interruptMode;
  89              		.loc 1 281 0
  90 0002 1870     		strb	r0, [r3]
  91              		.loc 1 282 0
  92 0004 7047     		bx	lr
  93              	.L9:
  94 0006 C046     		.align	2
  95              	.L8:
  96 0008 83000F40 		.word	1074724995
  97              		.cfi_endproc
  98              	.LFE6:
  99              		.size	Timer_1_SetInterruptMode, .-Timer_1_SetInterruptMode
 100              		.section	.text.Timer_1_SoftwareCapture,"ax",%progbits
 101              		.align	1
 102              		.global	Timer_1_SoftwareCapture
 103              		.code	16
 104              		.thumb_func
 105              		.type	Timer_1_SoftwareCapture, %function
 106              	Timer_1_SoftwareCapture:
 107              	.LFB7:
 283:.\Generated_Source\PSoC4/Timer_1.c **** 
 284:.\Generated_Source\PSoC4/Timer_1.c **** 
 285:.\Generated_Source\PSoC4/Timer_1.c **** /*******************************************************************************
 286:.\Generated_Source\PSoC4/Timer_1.c **** * Function Name: Timer_1_SoftwareCapture
 287:.\Generated_Source\PSoC4/Timer_1.c **** ********************************************************************************
 288:.\Generated_Source\PSoC4/Timer_1.c **** *
 289:.\Generated_Source\PSoC4/Timer_1.c **** * Summary:
ARM GAS  C:\Users\mohammed\AppData\Local\Temp\ccVUHqpw.s 			page 8


 290:.\Generated_Source\PSoC4/Timer_1.c **** *  This function forces a capture independent of the capture signal.
 291:.\Generated_Source\PSoC4/Timer_1.c **** *
 292:.\Generated_Source\PSoC4/Timer_1.c **** * Parameters:
 293:.\Generated_Source\PSoC4/Timer_1.c **** *  void
 294:.\Generated_Source\PSoC4/Timer_1.c **** *
 295:.\Generated_Source\PSoC4/Timer_1.c **** * Return:
 296:.\Generated_Source\PSoC4/Timer_1.c **** *  void
 297:.\Generated_Source\PSoC4/Timer_1.c **** *
 298:.\Generated_Source\PSoC4/Timer_1.c **** * Side Effects:
 299:.\Generated_Source\PSoC4/Timer_1.c **** *  An existing hardware capture could be overwritten.
 300:.\Generated_Source\PSoC4/Timer_1.c **** *
 301:.\Generated_Source\PSoC4/Timer_1.c **** *******************************************************************************/
 302:.\Generated_Source\PSoC4/Timer_1.c **** void Timer_1_SoftwareCapture(void) 
 303:.\Generated_Source\PSoC4/Timer_1.c **** {
 108              		.loc 1 303 0
 109              		.cfi_startproc
 304:.\Generated_Source\PSoC4/Timer_1.c ****     /* Generate a software capture by reading the counter register */
 305:.\Generated_Source\PSoC4/Timer_1.c ****     #if(Timer_1_UsingFixedFunction)
 306:.\Generated_Source\PSoC4/Timer_1.c ****         (void)CY_GET_REG16(Timer_1_COUNTER_LSB_PTR);
 307:.\Generated_Source\PSoC4/Timer_1.c ****     #else
 308:.\Generated_Source\PSoC4/Timer_1.c ****         (void)CY_GET_REG8(Timer_1_COUNTER_LSB_PTR_8BIT);
 110              		.loc 1 308 0
 111 0000 014B     		ldr	r3, .L11
 309:.\Generated_Source\PSoC4/Timer_1.c ****     #endif/* (Timer_1_UsingFixedFunction) */
 310:.\Generated_Source\PSoC4/Timer_1.c ****     /* Capture Data is now in the FIFO */
 311:.\Generated_Source\PSoC4/Timer_1.c **** }
 112              		.loc 1 311 0
 113              		@ sp needed
 308:.\Generated_Source\PSoC4/Timer_1.c ****     #endif/* (Timer_1_UsingFixedFunction) */
 114              		.loc 1 308 0
 115 0002 1B78     		ldrb	r3, [r3]
 116              		.loc 1 311 0
 117 0004 7047     		bx	lr
 118              	.L12:
 119 0006 C046     		.align	2
 120              	.L11:
 121 0008 02000F40 		.word	1074724866
 122              		.cfi_endproc
 123              	.LFE7:
 124              		.size	Timer_1_SoftwareCapture, .-Timer_1_SoftwareCapture
 125              		.section	.text.Timer_1_ReadStatusRegister,"ax",%progbits
 126              		.align	1
 127              		.global	Timer_1_ReadStatusRegister
 128              		.code	16
 129              		.thumb_func
 130              		.type	Timer_1_ReadStatusRegister, %function
 131              	Timer_1_ReadStatusRegister:
 132              	.LFB8:
 312:.\Generated_Source\PSoC4/Timer_1.c **** 
 313:.\Generated_Source\PSoC4/Timer_1.c **** 
 314:.\Generated_Source\PSoC4/Timer_1.c **** /*******************************************************************************
 315:.\Generated_Source\PSoC4/Timer_1.c **** * Function Name: Timer_1_ReadStatusRegister
 316:.\Generated_Source\PSoC4/Timer_1.c **** ********************************************************************************
 317:.\Generated_Source\PSoC4/Timer_1.c **** *
 318:.\Generated_Source\PSoC4/Timer_1.c **** * Summary:
 319:.\Generated_Source\PSoC4/Timer_1.c **** *  Reads the status register and returns it's state. This function should use
 320:.\Generated_Source\PSoC4/Timer_1.c **** *  defined types for the bit-field information as the bits in this register may
ARM GAS  C:\Users\mohammed\AppData\Local\Temp\ccVUHqpw.s 			page 9


 321:.\Generated_Source\PSoC4/Timer_1.c **** *  be permuteable.
 322:.\Generated_Source\PSoC4/Timer_1.c **** *
 323:.\Generated_Source\PSoC4/Timer_1.c **** * Parameters:
 324:.\Generated_Source\PSoC4/Timer_1.c **** *  void
 325:.\Generated_Source\PSoC4/Timer_1.c **** *
 326:.\Generated_Source\PSoC4/Timer_1.c **** * Return:
 327:.\Generated_Source\PSoC4/Timer_1.c **** *  The contents of the status register
 328:.\Generated_Source\PSoC4/Timer_1.c **** *
 329:.\Generated_Source\PSoC4/Timer_1.c **** * Side Effects:
 330:.\Generated_Source\PSoC4/Timer_1.c **** *  Status register bits may be clear on read.
 331:.\Generated_Source\PSoC4/Timer_1.c **** *
 332:.\Generated_Source\PSoC4/Timer_1.c **** *******************************************************************************/
 333:.\Generated_Source\PSoC4/Timer_1.c **** uint8   Timer_1_ReadStatusRegister(void) 
 334:.\Generated_Source\PSoC4/Timer_1.c **** {
 133              		.loc 1 334 0
 134              		.cfi_startproc
 335:.\Generated_Source\PSoC4/Timer_1.c ****     return (Timer_1_STATUS);
 135              		.loc 1 335 0
 136 0000 014B     		ldr	r3, .L14
 336:.\Generated_Source\PSoC4/Timer_1.c **** }
 137              		.loc 1 336 0
 138              		@ sp needed
 335:.\Generated_Source\PSoC4/Timer_1.c ****     return (Timer_1_STATUS);
 139              		.loc 1 335 0
 140 0002 1878     		ldrb	r0, [r3]
 141 0004 C0B2     		uxtb	r0, r0
 142              		.loc 1 336 0
 143 0006 7047     		bx	lr
 144              	.L15:
 145              		.align	2
 146              	.L14:
 147 0008 63000F40 		.word	1074724963
 148              		.cfi_endproc
 149              	.LFE8:
 150              		.size	Timer_1_ReadStatusRegister, .-Timer_1_ReadStatusRegister
 151              		.section	.text.Timer_1_ReadControlRegister,"ax",%progbits
 152              		.align	1
 153              		.global	Timer_1_ReadControlRegister
 154              		.code	16
 155              		.thumb_func
 156              		.type	Timer_1_ReadControlRegister, %function
 157              	Timer_1_ReadControlRegister:
 158              	.LFB9:
 337:.\Generated_Source\PSoC4/Timer_1.c **** 
 338:.\Generated_Source\PSoC4/Timer_1.c **** 
 339:.\Generated_Source\PSoC4/Timer_1.c **** #if (!Timer_1_UDB_CONTROL_REG_REMOVED) /* Remove API if control register is unused */
 340:.\Generated_Source\PSoC4/Timer_1.c **** 
 341:.\Generated_Source\PSoC4/Timer_1.c **** 
 342:.\Generated_Source\PSoC4/Timer_1.c **** /*******************************************************************************
 343:.\Generated_Source\PSoC4/Timer_1.c **** * Function Name: Timer_1_ReadControlRegister
 344:.\Generated_Source\PSoC4/Timer_1.c **** ********************************************************************************
 345:.\Generated_Source\PSoC4/Timer_1.c **** *
 346:.\Generated_Source\PSoC4/Timer_1.c **** * Summary:
 347:.\Generated_Source\PSoC4/Timer_1.c **** *  Reads the control register and returns it's value.
 348:.\Generated_Source\PSoC4/Timer_1.c **** *
 349:.\Generated_Source\PSoC4/Timer_1.c **** * Parameters:
 350:.\Generated_Source\PSoC4/Timer_1.c **** *  void
ARM GAS  C:\Users\mohammed\AppData\Local\Temp\ccVUHqpw.s 			page 10


 351:.\Generated_Source\PSoC4/Timer_1.c **** *
 352:.\Generated_Source\PSoC4/Timer_1.c **** * Return:
 353:.\Generated_Source\PSoC4/Timer_1.c **** *  The contents of the control register
 354:.\Generated_Source\PSoC4/Timer_1.c **** *
 355:.\Generated_Source\PSoC4/Timer_1.c **** *******************************************************************************/
 356:.\Generated_Source\PSoC4/Timer_1.c **** uint8 Timer_1_ReadControlRegister(void) 
 357:.\Generated_Source\PSoC4/Timer_1.c **** {
 159              		.loc 1 357 0
 160              		.cfi_startproc
 358:.\Generated_Source\PSoC4/Timer_1.c ****     #if (!Timer_1_UDB_CONTROL_REG_REMOVED) 
 359:.\Generated_Source\PSoC4/Timer_1.c ****         return ((uint8)Timer_1_CONTROL);
 161              		.loc 1 359 0
 162 0000 014B     		ldr	r3, .L17
 360:.\Generated_Source\PSoC4/Timer_1.c ****     #else
 361:.\Generated_Source\PSoC4/Timer_1.c ****         return (0);
 362:.\Generated_Source\PSoC4/Timer_1.c ****     #endif /* (!Timer_1_UDB_CONTROL_REG_REMOVED) */
 363:.\Generated_Source\PSoC4/Timer_1.c **** }
 163              		.loc 1 363 0
 164              		@ sp needed
 359:.\Generated_Source\PSoC4/Timer_1.c ****     #else
 165              		.loc 1 359 0
 166 0002 1878     		ldrb	r0, [r3]
 167 0004 C0B2     		uxtb	r0, r0
 168              		.loc 1 363 0
 169 0006 7047     		bx	lr
 170              	.L18:
 171              		.align	2
 172              	.L17:
 173 0008 73000F40 		.word	1074724979
 174              		.cfi_endproc
 175              	.LFE9:
 176              		.size	Timer_1_ReadControlRegister, .-Timer_1_ReadControlRegister
 177              		.section	.text.Timer_1_WriteControlRegister,"ax",%progbits
 178              		.align	1
 179              		.global	Timer_1_WriteControlRegister
 180              		.code	16
 181              		.thumb_func
 182              		.type	Timer_1_WriteControlRegister, %function
 183              	Timer_1_WriteControlRegister:
 184              	.LFB10:
 364:.\Generated_Source\PSoC4/Timer_1.c **** 
 365:.\Generated_Source\PSoC4/Timer_1.c **** 
 366:.\Generated_Source\PSoC4/Timer_1.c **** /*******************************************************************************
 367:.\Generated_Source\PSoC4/Timer_1.c **** * Function Name: Timer_1_WriteControlRegister
 368:.\Generated_Source\PSoC4/Timer_1.c **** ********************************************************************************
 369:.\Generated_Source\PSoC4/Timer_1.c **** *
 370:.\Generated_Source\PSoC4/Timer_1.c **** * Summary:
 371:.\Generated_Source\PSoC4/Timer_1.c **** *  Sets the bit-field of the control register.
 372:.\Generated_Source\PSoC4/Timer_1.c **** *
 373:.\Generated_Source\PSoC4/Timer_1.c **** * Parameters:
 374:.\Generated_Source\PSoC4/Timer_1.c **** *  control: The contents of the control register
 375:.\Generated_Source\PSoC4/Timer_1.c **** *
 376:.\Generated_Source\PSoC4/Timer_1.c **** * Return:
 377:.\Generated_Source\PSoC4/Timer_1.c **** *
 378:.\Generated_Source\PSoC4/Timer_1.c **** *******************************************************************************/
 379:.\Generated_Source\PSoC4/Timer_1.c **** void Timer_1_WriteControlRegister(uint8 control) 
 380:.\Generated_Source\PSoC4/Timer_1.c **** {
ARM GAS  C:\Users\mohammed\AppData\Local\Temp\ccVUHqpw.s 			page 11


 185              		.loc 1 380 0
 186              		.cfi_startproc
 187              	.LVL1:
 381:.\Generated_Source\PSoC4/Timer_1.c ****     #if (!Timer_1_UDB_CONTROL_REG_REMOVED) 
 382:.\Generated_Source\PSoC4/Timer_1.c ****         Timer_1_CONTROL = control;
 188              		.loc 1 382 0
 189 0000 014B     		ldr	r3, .L20
 383:.\Generated_Source\PSoC4/Timer_1.c ****     #else
 384:.\Generated_Source\PSoC4/Timer_1.c ****         control = 0u;
 385:.\Generated_Source\PSoC4/Timer_1.c ****     #endif /* (!Timer_1_UDB_CONTROL_REG_REMOVED) */
 386:.\Generated_Source\PSoC4/Timer_1.c **** }
 190              		.loc 1 386 0
 191              		@ sp needed
 382:.\Generated_Source\PSoC4/Timer_1.c ****     #else
 192              		.loc 1 382 0
 193 0002 1870     		strb	r0, [r3]
 194              		.loc 1 386 0
 195 0004 7047     		bx	lr
 196              	.L21:
 197 0006 C046     		.align	2
 198              	.L20:
 199 0008 73000F40 		.word	1074724979
 200              		.cfi_endproc
 201              	.LFE10:
 202              		.size	Timer_1_WriteControlRegister, .-Timer_1_WriteControlRegister
 203              		.section	.text.Timer_1_ReadPeriod,"ax",%progbits
 204              		.align	1
 205              		.global	Timer_1_ReadPeriod
 206              		.code	16
 207              		.thumb_func
 208              		.type	Timer_1_ReadPeriod, %function
 209              	Timer_1_ReadPeriod:
 210              	.LFB11:
 387:.\Generated_Source\PSoC4/Timer_1.c **** 
 388:.\Generated_Source\PSoC4/Timer_1.c **** #endif /* Remove API if control register is unused */
 389:.\Generated_Source\PSoC4/Timer_1.c **** 
 390:.\Generated_Source\PSoC4/Timer_1.c **** 
 391:.\Generated_Source\PSoC4/Timer_1.c **** /*******************************************************************************
 392:.\Generated_Source\PSoC4/Timer_1.c **** * Function Name: Timer_1_ReadPeriod
 393:.\Generated_Source\PSoC4/Timer_1.c **** ********************************************************************************
 394:.\Generated_Source\PSoC4/Timer_1.c **** *
 395:.\Generated_Source\PSoC4/Timer_1.c **** * Summary:
 396:.\Generated_Source\PSoC4/Timer_1.c **** *  This function returns the current value of the Period.
 397:.\Generated_Source\PSoC4/Timer_1.c **** *
 398:.\Generated_Source\PSoC4/Timer_1.c **** * Parameters:
 399:.\Generated_Source\PSoC4/Timer_1.c **** *  void
 400:.\Generated_Source\PSoC4/Timer_1.c **** *
 401:.\Generated_Source\PSoC4/Timer_1.c **** * Return:
 402:.\Generated_Source\PSoC4/Timer_1.c **** *  The present value of the counter.
 403:.\Generated_Source\PSoC4/Timer_1.c **** *
 404:.\Generated_Source\PSoC4/Timer_1.c **** *******************************************************************************/
 405:.\Generated_Source\PSoC4/Timer_1.c **** uint16 Timer_1_ReadPeriod(void) 
 406:.\Generated_Source\PSoC4/Timer_1.c **** {
 211              		.loc 1 406 0
 212              		.cfi_startproc
 407:.\Generated_Source\PSoC4/Timer_1.c ****    #if(Timer_1_UsingFixedFunction)
 408:.\Generated_Source\PSoC4/Timer_1.c ****        return ((uint16)CY_GET_REG16(Timer_1_PERIOD_LSB_PTR));
ARM GAS  C:\Users\mohammed\AppData\Local\Temp\ccVUHqpw.s 			page 12


 409:.\Generated_Source\PSoC4/Timer_1.c ****    #else
 410:.\Generated_Source\PSoC4/Timer_1.c ****        return (CY_GET_REG16(Timer_1_PERIOD_LSB_PTR));
 213              		.loc 1 410 0
 214 0000 014B     		ldr	r3, .L23
 411:.\Generated_Source\PSoC4/Timer_1.c ****    #endif /* (Timer_1_UsingFixedFunction) */
 412:.\Generated_Source\PSoC4/Timer_1.c **** }
 215              		.loc 1 412 0
 216              		@ sp needed
 410:.\Generated_Source\PSoC4/Timer_1.c ****    #endif /* (Timer_1_UsingFixedFunction) */
 217              		.loc 1 410 0
 218 0002 1888     		ldrh	r0, [r3]
 219 0004 80B2     		uxth	r0, r0
 220              		.loc 1 412 0
 221 0006 7047     		bx	lr
 222              	.L24:
 223              		.align	2
 224              	.L23:
 225 0008 44100F40 		.word	1074729028
 226              		.cfi_endproc
 227              	.LFE11:
 228              		.size	Timer_1_ReadPeriod, .-Timer_1_ReadPeriod
 229              		.section	.text.Timer_1_WritePeriod,"ax",%progbits
 230              		.align	1
 231              		.global	Timer_1_WritePeriod
 232              		.code	16
 233              		.thumb_func
 234              		.type	Timer_1_WritePeriod, %function
 235              	Timer_1_WritePeriod:
 236              	.LFB12:
 413:.\Generated_Source\PSoC4/Timer_1.c **** 
 414:.\Generated_Source\PSoC4/Timer_1.c **** 
 415:.\Generated_Source\PSoC4/Timer_1.c **** /*******************************************************************************
 416:.\Generated_Source\PSoC4/Timer_1.c **** * Function Name: Timer_1_WritePeriod
 417:.\Generated_Source\PSoC4/Timer_1.c **** ********************************************************************************
 418:.\Generated_Source\PSoC4/Timer_1.c **** *
 419:.\Generated_Source\PSoC4/Timer_1.c **** * Summary:
 420:.\Generated_Source\PSoC4/Timer_1.c **** *  This function is used to change the period of the counter.  The new period
 421:.\Generated_Source\PSoC4/Timer_1.c **** *  will be loaded the next time terminal count is detected.
 422:.\Generated_Source\PSoC4/Timer_1.c **** *
 423:.\Generated_Source\PSoC4/Timer_1.c **** * Parameters:
 424:.\Generated_Source\PSoC4/Timer_1.c **** *  period: This value may be between 1 and (2^Resolution)-1.  A value of 0 will
 425:.\Generated_Source\PSoC4/Timer_1.c **** *          result in the counter remaining at zero.
 426:.\Generated_Source\PSoC4/Timer_1.c **** *
 427:.\Generated_Source\PSoC4/Timer_1.c **** * Return:
 428:.\Generated_Source\PSoC4/Timer_1.c **** *  void
 429:.\Generated_Source\PSoC4/Timer_1.c **** *
 430:.\Generated_Source\PSoC4/Timer_1.c **** *******************************************************************************/
 431:.\Generated_Source\PSoC4/Timer_1.c **** void Timer_1_WritePeriod(uint16 period) 
 432:.\Generated_Source\PSoC4/Timer_1.c **** {
 237              		.loc 1 432 0
 238              		.cfi_startproc
 239              	.LVL2:
 433:.\Generated_Source\PSoC4/Timer_1.c ****     #if(Timer_1_UsingFixedFunction)
 434:.\Generated_Source\PSoC4/Timer_1.c ****         uint16 period_temp = (uint16)period;
 435:.\Generated_Source\PSoC4/Timer_1.c ****         CY_SET_REG16(Timer_1_PERIOD_LSB_PTR, period_temp);
 436:.\Generated_Source\PSoC4/Timer_1.c ****     #else
 437:.\Generated_Source\PSoC4/Timer_1.c ****         CY_SET_REG16(Timer_1_PERIOD_LSB_PTR, period);
ARM GAS  C:\Users\mohammed\AppData\Local\Temp\ccVUHqpw.s 			page 13


 240              		.loc 1 437 0
 241 0000 014B     		ldr	r3, .L26
 438:.\Generated_Source\PSoC4/Timer_1.c ****     #endif /*Write Period value with appropriate resolution suffix depending on UDB or fixed functi
 439:.\Generated_Source\PSoC4/Timer_1.c **** }
 242              		.loc 1 439 0
 243              		@ sp needed
 437:.\Generated_Source\PSoC4/Timer_1.c ****     #endif /*Write Period value with appropriate resolution suffix depending on UDB or fixed functi
 244              		.loc 1 437 0
 245 0002 1880     		strh	r0, [r3]
 246              		.loc 1 439 0
 247 0004 7047     		bx	lr
 248              	.L27:
 249 0006 C046     		.align	2
 250              	.L26:
 251 0008 44100F40 		.word	1074729028
 252              		.cfi_endproc
 253              	.LFE12:
 254              		.size	Timer_1_WritePeriod, .-Timer_1_WritePeriod
 255              		.section	.text.Timer_1_ReadCapture,"ax",%progbits
 256              		.align	1
 257              		.global	Timer_1_ReadCapture
 258              		.code	16
 259              		.thumb_func
 260              		.type	Timer_1_ReadCapture, %function
 261              	Timer_1_ReadCapture:
 262              	.LFB13:
 440:.\Generated_Source\PSoC4/Timer_1.c **** 
 441:.\Generated_Source\PSoC4/Timer_1.c **** 
 442:.\Generated_Source\PSoC4/Timer_1.c **** /*******************************************************************************
 443:.\Generated_Source\PSoC4/Timer_1.c **** * Function Name: Timer_1_ReadCapture
 444:.\Generated_Source\PSoC4/Timer_1.c **** ********************************************************************************
 445:.\Generated_Source\PSoC4/Timer_1.c **** *
 446:.\Generated_Source\PSoC4/Timer_1.c **** * Summary:
 447:.\Generated_Source\PSoC4/Timer_1.c **** *  This function returns the last value captured.
 448:.\Generated_Source\PSoC4/Timer_1.c **** *
 449:.\Generated_Source\PSoC4/Timer_1.c **** * Parameters:
 450:.\Generated_Source\PSoC4/Timer_1.c **** *  void
 451:.\Generated_Source\PSoC4/Timer_1.c **** *
 452:.\Generated_Source\PSoC4/Timer_1.c **** * Return:
 453:.\Generated_Source\PSoC4/Timer_1.c **** *  Present Capture value.
 454:.\Generated_Source\PSoC4/Timer_1.c **** *
 455:.\Generated_Source\PSoC4/Timer_1.c **** *******************************************************************************/
 456:.\Generated_Source\PSoC4/Timer_1.c **** uint16 Timer_1_ReadCapture(void) 
 457:.\Generated_Source\PSoC4/Timer_1.c **** {
 263              		.loc 1 457 0
 264              		.cfi_startproc
 458:.\Generated_Source\PSoC4/Timer_1.c ****    #if(Timer_1_UsingFixedFunction)
 459:.\Generated_Source\PSoC4/Timer_1.c ****        return ((uint16)CY_GET_REG16(Timer_1_CAPTURE_LSB_PTR));
 460:.\Generated_Source\PSoC4/Timer_1.c ****    #else
 461:.\Generated_Source\PSoC4/Timer_1.c ****        return (CY_GET_REG16(Timer_1_CAPTURE_LSB_PTR));
 265              		.loc 1 461 0
 266 0000 014B     		ldr	r3, .L29
 462:.\Generated_Source\PSoC4/Timer_1.c ****    #endif /* (Timer_1_UsingFixedFunction) */
 463:.\Generated_Source\PSoC4/Timer_1.c **** }
 267              		.loc 1 463 0
 268              		@ sp needed
 461:.\Generated_Source\PSoC4/Timer_1.c ****    #endif /* (Timer_1_UsingFixedFunction) */
ARM GAS  C:\Users\mohammed\AppData\Local\Temp\ccVUHqpw.s 			page 14


 269              		.loc 1 461 0
 270 0002 1888     		ldrh	r0, [r3]
 271 0004 80B2     		uxth	r0, r0
 272              		.loc 1 463 0
 273 0006 7047     		bx	lr
 274              	.L30:
 275              		.align	2
 276              	.L29:
 277 0008 84100F40 		.word	1074729092
 278              		.cfi_endproc
 279              	.LFE13:
 280              		.size	Timer_1_ReadCapture, .-Timer_1_ReadCapture
 281              		.section	.text.Timer_1_WriteCounter,"ax",%progbits
 282              		.align	1
 283              		.global	Timer_1_WriteCounter
 284              		.code	16
 285              		.thumb_func
 286              		.type	Timer_1_WriteCounter, %function
 287              	Timer_1_WriteCounter:
 288              	.LFB14:
 464:.\Generated_Source\PSoC4/Timer_1.c **** 
 465:.\Generated_Source\PSoC4/Timer_1.c **** 
 466:.\Generated_Source\PSoC4/Timer_1.c **** /*******************************************************************************
 467:.\Generated_Source\PSoC4/Timer_1.c **** * Function Name: Timer_1_WriteCounter
 468:.\Generated_Source\PSoC4/Timer_1.c **** ********************************************************************************
 469:.\Generated_Source\PSoC4/Timer_1.c **** *
 470:.\Generated_Source\PSoC4/Timer_1.c **** * Summary:
 471:.\Generated_Source\PSoC4/Timer_1.c **** *  This funtion is used to set the counter to a specific value
 472:.\Generated_Source\PSoC4/Timer_1.c **** *
 473:.\Generated_Source\PSoC4/Timer_1.c **** * Parameters:
 474:.\Generated_Source\PSoC4/Timer_1.c **** *  counter:  New counter value.
 475:.\Generated_Source\PSoC4/Timer_1.c **** *
 476:.\Generated_Source\PSoC4/Timer_1.c **** * Return:
 477:.\Generated_Source\PSoC4/Timer_1.c **** *  void
 478:.\Generated_Source\PSoC4/Timer_1.c **** *
 479:.\Generated_Source\PSoC4/Timer_1.c **** *******************************************************************************/
 480:.\Generated_Source\PSoC4/Timer_1.c **** void Timer_1_WriteCounter(uint16 counter) 
 481:.\Generated_Source\PSoC4/Timer_1.c **** {
 289              		.loc 1 481 0
 290              		.cfi_startproc
 291              	.LVL3:
 482:.\Generated_Source\PSoC4/Timer_1.c ****    #if(Timer_1_UsingFixedFunction)
 483:.\Generated_Source\PSoC4/Timer_1.c ****         /* This functionality is removed until a FixedFunction HW update to
 484:.\Generated_Source\PSoC4/Timer_1.c ****          * allow this register to be written
 485:.\Generated_Source\PSoC4/Timer_1.c ****          */
 486:.\Generated_Source\PSoC4/Timer_1.c ****         CY_SET_REG16(Timer_1_COUNTER_LSB_PTR, (uint16)counter);
 487:.\Generated_Source\PSoC4/Timer_1.c ****         
 488:.\Generated_Source\PSoC4/Timer_1.c ****     #else
 489:.\Generated_Source\PSoC4/Timer_1.c ****         CY_SET_REG16(Timer_1_COUNTER_LSB_PTR, counter);
 292              		.loc 1 489 0
 293 0000 014B     		ldr	r3, .L32
 490:.\Generated_Source\PSoC4/Timer_1.c ****     #endif /* Set Write Counter only for the UDB implementation (Write Counter not available in fix
 491:.\Generated_Source\PSoC4/Timer_1.c **** }
 294              		.loc 1 491 0
 295              		@ sp needed
 489:.\Generated_Source\PSoC4/Timer_1.c ****     #endif /* Set Write Counter only for the UDB implementation (Write Counter not available in fix
 296              		.loc 1 489 0
ARM GAS  C:\Users\mohammed\AppData\Local\Temp\ccVUHqpw.s 			page 15


 297 0002 1880     		strh	r0, [r3]
 298              		.loc 1 491 0
 299 0004 7047     		bx	lr
 300              	.L33:
 301 0006 C046     		.align	2
 302              	.L32:
 303 0008 04100F40 		.word	1074728964
 304              		.cfi_endproc
 305              	.LFE14:
 306              		.size	Timer_1_WriteCounter, .-Timer_1_WriteCounter
 307              		.section	.text.Timer_1_ReadCounter,"ax",%progbits
 308              		.align	1
 309              		.global	Timer_1_ReadCounter
 310              		.code	16
 311              		.thumb_func
 312              		.type	Timer_1_ReadCounter, %function
 313              	Timer_1_ReadCounter:
 314              	.LFB15:
 492:.\Generated_Source\PSoC4/Timer_1.c **** 
 493:.\Generated_Source\PSoC4/Timer_1.c **** 
 494:.\Generated_Source\PSoC4/Timer_1.c **** /*******************************************************************************
 495:.\Generated_Source\PSoC4/Timer_1.c **** * Function Name: Timer_1_ReadCounter
 496:.\Generated_Source\PSoC4/Timer_1.c **** ********************************************************************************
 497:.\Generated_Source\PSoC4/Timer_1.c **** *
 498:.\Generated_Source\PSoC4/Timer_1.c **** * Summary:
 499:.\Generated_Source\PSoC4/Timer_1.c **** *  This function returns the current counter value.
 500:.\Generated_Source\PSoC4/Timer_1.c **** *
 501:.\Generated_Source\PSoC4/Timer_1.c **** * Parameters:
 502:.\Generated_Source\PSoC4/Timer_1.c **** *  void
 503:.\Generated_Source\PSoC4/Timer_1.c **** *
 504:.\Generated_Source\PSoC4/Timer_1.c **** * Return:
 505:.\Generated_Source\PSoC4/Timer_1.c **** *  Present compare value.
 506:.\Generated_Source\PSoC4/Timer_1.c **** *
 507:.\Generated_Source\PSoC4/Timer_1.c **** *******************************************************************************/
 508:.\Generated_Source\PSoC4/Timer_1.c **** uint16 Timer_1_ReadCounter(void) 
 509:.\Generated_Source\PSoC4/Timer_1.c **** {
 315              		.loc 1 509 0
 316              		.cfi_startproc
 510:.\Generated_Source\PSoC4/Timer_1.c ****     /* Force capture by reading Accumulator */
 511:.\Generated_Source\PSoC4/Timer_1.c ****     /* Must first do a software capture to be able to read the counter */
 512:.\Generated_Source\PSoC4/Timer_1.c ****     /* It is up to the user code to make sure there isn't already captured data in the FIFO */
 513:.\Generated_Source\PSoC4/Timer_1.c ****     #if(Timer_1_UsingFixedFunction)
 514:.\Generated_Source\PSoC4/Timer_1.c ****         (void)CY_GET_REG16(Timer_1_COUNTER_LSB_PTR);
 515:.\Generated_Source\PSoC4/Timer_1.c ****     #else
 516:.\Generated_Source\PSoC4/Timer_1.c ****         (void)CY_GET_REG8(Timer_1_COUNTER_LSB_PTR_8BIT);
 317              		.loc 1 516 0
 318 0000 024B     		ldr	r3, .L35
 517:.\Generated_Source\PSoC4/Timer_1.c ****     #endif/* (Timer_1_UsingFixedFunction) */
 518:.\Generated_Source\PSoC4/Timer_1.c **** 
 519:.\Generated_Source\PSoC4/Timer_1.c ****     /* Read the data from the FIFO (or capture register for Fixed Function)*/
 520:.\Generated_Source\PSoC4/Timer_1.c ****     #if(Timer_1_UsingFixedFunction)
 521:.\Generated_Source\PSoC4/Timer_1.c ****         return ((uint16)CY_GET_REG16(Timer_1_CAPTURE_LSB_PTR));
 522:.\Generated_Source\PSoC4/Timer_1.c ****     #else
 523:.\Generated_Source\PSoC4/Timer_1.c ****         return (CY_GET_REG16(Timer_1_CAPTURE_LSB_PTR));
 524:.\Generated_Source\PSoC4/Timer_1.c ****     #endif /* (Timer_1_UsingFixedFunction) */
 525:.\Generated_Source\PSoC4/Timer_1.c **** }
 319              		.loc 1 525 0
ARM GAS  C:\Users\mohammed\AppData\Local\Temp\ccVUHqpw.s 			page 16


 320              		@ sp needed
 516:.\Generated_Source\PSoC4/Timer_1.c ****     #endif/* (Timer_1_UsingFixedFunction) */
 321              		.loc 1 516 0
 322 0002 1B78     		ldrb	r3, [r3]
 523:.\Generated_Source\PSoC4/Timer_1.c ****     #endif /* (Timer_1_UsingFixedFunction) */
 323              		.loc 1 523 0
 324 0004 024B     		ldr	r3, .L35+4
 325 0006 1888     		ldrh	r0, [r3]
 326 0008 80B2     		uxth	r0, r0
 327              		.loc 1 525 0
 328 000a 7047     		bx	lr
 329              	.L36:
 330              		.align	2
 331              	.L35:
 332 000c 02000F40 		.word	1074724866
 333 0010 84100F40 		.word	1074729092
 334              		.cfi_endproc
 335              	.LFE15:
 336              		.size	Timer_1_ReadCounter, .-Timer_1_ReadCounter
 337              		.section	.text.Timer_1_ClearFIFO,"ax",%progbits
 338              		.align	1
 339              		.global	Timer_1_ClearFIFO
 340              		.code	16
 341              		.thumb_func
 342              		.type	Timer_1_ClearFIFO, %function
 343              	Timer_1_ClearFIFO:
 344              	.LFB16:
 526:.\Generated_Source\PSoC4/Timer_1.c **** 
 527:.\Generated_Source\PSoC4/Timer_1.c **** 
 528:.\Generated_Source\PSoC4/Timer_1.c **** #if(!Timer_1_UsingFixedFunction) /* UDB Specific Functions */
 529:.\Generated_Source\PSoC4/Timer_1.c **** 
 530:.\Generated_Source\PSoC4/Timer_1.c ****     
 531:.\Generated_Source\PSoC4/Timer_1.c **** /*******************************************************************************
 532:.\Generated_Source\PSoC4/Timer_1.c ****  * The functions below this point are only available using the UDB
 533:.\Generated_Source\PSoC4/Timer_1.c ****  * implementation.  If a feature is selected, then the API is enabled.
 534:.\Generated_Source\PSoC4/Timer_1.c ****  ******************************************************************************/
 535:.\Generated_Source\PSoC4/Timer_1.c **** 
 536:.\Generated_Source\PSoC4/Timer_1.c **** 
 537:.\Generated_Source\PSoC4/Timer_1.c **** #if (Timer_1_SoftwareCaptureMode)
 538:.\Generated_Source\PSoC4/Timer_1.c **** 
 539:.\Generated_Source\PSoC4/Timer_1.c **** 
 540:.\Generated_Source\PSoC4/Timer_1.c **** /*******************************************************************************
 541:.\Generated_Source\PSoC4/Timer_1.c **** * Function Name: Timer_1_SetCaptureMode
 542:.\Generated_Source\PSoC4/Timer_1.c **** ********************************************************************************
 543:.\Generated_Source\PSoC4/Timer_1.c **** *
 544:.\Generated_Source\PSoC4/Timer_1.c **** * Summary:
 545:.\Generated_Source\PSoC4/Timer_1.c **** *  This function sets the capture mode to either rising or falling edge.
 546:.\Generated_Source\PSoC4/Timer_1.c **** *
 547:.\Generated_Source\PSoC4/Timer_1.c **** * Parameters:
 548:.\Generated_Source\PSoC4/Timer_1.c **** *  captureMode: This parameter sets the capture mode of the UDB capture feature
 549:.\Generated_Source\PSoC4/Timer_1.c **** *  The parameter values are defined using the
 550:.\Generated_Source\PSoC4/Timer_1.c **** *  #define Timer_1__B_TIMER__CM_NONE 0
 551:.\Generated_Source\PSoC4/Timer_1.c **** #define Timer_1__B_TIMER__CM_RISINGEDGE 1
 552:.\Generated_Source\PSoC4/Timer_1.c **** #define Timer_1__B_TIMER__CM_FALLINGEDGE 2
 553:.\Generated_Source\PSoC4/Timer_1.c **** #define Timer_1__B_TIMER__CM_EITHEREDGE 3
 554:.\Generated_Source\PSoC4/Timer_1.c **** #define Timer_1__B_TIMER__CM_SOFTWARE 4
 555:.\Generated_Source\PSoC4/Timer_1.c ****  identifiers
ARM GAS  C:\Users\mohammed\AppData\Local\Temp\ccVUHqpw.s 			page 17


 556:.\Generated_Source\PSoC4/Timer_1.c **** *  The following are the possible values of the parameter
 557:.\Generated_Source\PSoC4/Timer_1.c **** *  Timer_1__B_TIMER__CM_NONE        - Set Capture mode to None
 558:.\Generated_Source\PSoC4/Timer_1.c **** *  Timer_1__B_TIMER__CM_RISINGEDGE  - Rising edge of Capture input
 559:.\Generated_Source\PSoC4/Timer_1.c **** *  Timer_1__B_TIMER__CM_FALLINGEDGE - Falling edge of Capture input
 560:.\Generated_Source\PSoC4/Timer_1.c **** *  Timer_1__B_TIMER__CM_EITHEREDGE  - Either edge of Capture input
 561:.\Generated_Source\PSoC4/Timer_1.c **** *
 562:.\Generated_Source\PSoC4/Timer_1.c **** * Return:
 563:.\Generated_Source\PSoC4/Timer_1.c **** *  void
 564:.\Generated_Source\PSoC4/Timer_1.c **** *
 565:.\Generated_Source\PSoC4/Timer_1.c **** *******************************************************************************/
 566:.\Generated_Source\PSoC4/Timer_1.c **** void Timer_1_SetCaptureMode(uint8 captureMode) 
 567:.\Generated_Source\PSoC4/Timer_1.c **** {
 568:.\Generated_Source\PSoC4/Timer_1.c ****     /* This must only set to two bits of the control register associated */
 569:.\Generated_Source\PSoC4/Timer_1.c ****     captureMode = ((uint8)((uint8)captureMode << Timer_1_CTRL_CAP_MODE_SHIFT));
 570:.\Generated_Source\PSoC4/Timer_1.c ****     captureMode &= (Timer_1_CTRL_CAP_MODE_MASK);
 571:.\Generated_Source\PSoC4/Timer_1.c **** 
 572:.\Generated_Source\PSoC4/Timer_1.c ****     #if (!Timer_1_UDB_CONTROL_REG_REMOVED)
 573:.\Generated_Source\PSoC4/Timer_1.c ****         /* Clear the Current Setting */
 574:.\Generated_Source\PSoC4/Timer_1.c ****         Timer_1_CONTROL &= ((uint8)(~Timer_1_CTRL_CAP_MODE_MASK));
 575:.\Generated_Source\PSoC4/Timer_1.c **** 
 576:.\Generated_Source\PSoC4/Timer_1.c ****         /* Write The New Setting */
 577:.\Generated_Source\PSoC4/Timer_1.c ****         Timer_1_CONTROL |= captureMode;
 578:.\Generated_Source\PSoC4/Timer_1.c ****     #endif /* (!Timer_1_UDB_CONTROL_REG_REMOVED) */
 579:.\Generated_Source\PSoC4/Timer_1.c **** }
 580:.\Generated_Source\PSoC4/Timer_1.c **** #endif /* Remove API if Capture Mode is not Software Controlled */
 581:.\Generated_Source\PSoC4/Timer_1.c **** 
 582:.\Generated_Source\PSoC4/Timer_1.c **** 
 583:.\Generated_Source\PSoC4/Timer_1.c **** #if (Timer_1_SoftwareTriggerMode)
 584:.\Generated_Source\PSoC4/Timer_1.c **** 
 585:.\Generated_Source\PSoC4/Timer_1.c **** 
 586:.\Generated_Source\PSoC4/Timer_1.c **** /*******************************************************************************
 587:.\Generated_Source\PSoC4/Timer_1.c **** * Function Name: Timer_1_SetTriggerMode
 588:.\Generated_Source\PSoC4/Timer_1.c **** ********************************************************************************
 589:.\Generated_Source\PSoC4/Timer_1.c **** *
 590:.\Generated_Source\PSoC4/Timer_1.c **** * Summary:
 591:.\Generated_Source\PSoC4/Timer_1.c **** *  This function sets the trigger input mode
 592:.\Generated_Source\PSoC4/Timer_1.c **** *
 593:.\Generated_Source\PSoC4/Timer_1.c **** * Parameters:
 594:.\Generated_Source\PSoC4/Timer_1.c **** *  triggerMode: Pass one of the pre-defined Trigger Modes (except Software)
 595:.\Generated_Source\PSoC4/Timer_1.c ****     #define Timer_1__B_TIMER__TM_NONE 0x00u
 596:.\Generated_Source\PSoC4/Timer_1.c ****     #define Timer_1__B_TIMER__TM_RISINGEDGE 0x04u
 597:.\Generated_Source\PSoC4/Timer_1.c ****     #define Timer_1__B_TIMER__TM_FALLINGEDGE 0x08u
 598:.\Generated_Source\PSoC4/Timer_1.c ****     #define Timer_1__B_TIMER__TM_EITHEREDGE 0x0Cu
 599:.\Generated_Source\PSoC4/Timer_1.c ****     #define Timer_1__B_TIMER__TM_SOFTWARE 0x10u
 600:.\Generated_Source\PSoC4/Timer_1.c **** *
 601:.\Generated_Source\PSoC4/Timer_1.c **** * Return:
 602:.\Generated_Source\PSoC4/Timer_1.c **** *  void
 603:.\Generated_Source\PSoC4/Timer_1.c **** *
 604:.\Generated_Source\PSoC4/Timer_1.c **** *******************************************************************************/
 605:.\Generated_Source\PSoC4/Timer_1.c **** void Timer_1_SetTriggerMode(uint8 triggerMode) 
 606:.\Generated_Source\PSoC4/Timer_1.c **** {
 607:.\Generated_Source\PSoC4/Timer_1.c ****     /* This must only set to two bits of the control register associated */
 608:.\Generated_Source\PSoC4/Timer_1.c ****     triggerMode &= Timer_1_CTRL_TRIG_MODE_MASK;
 609:.\Generated_Source\PSoC4/Timer_1.c **** 
 610:.\Generated_Source\PSoC4/Timer_1.c ****     #if (!Timer_1_UDB_CONTROL_REG_REMOVED)   /* Remove assignment if control register is removed */
 611:.\Generated_Source\PSoC4/Timer_1.c ****     
 612:.\Generated_Source\PSoC4/Timer_1.c ****         /* Clear the Current Setting */
ARM GAS  C:\Users\mohammed\AppData\Local\Temp\ccVUHqpw.s 			page 18


 613:.\Generated_Source\PSoC4/Timer_1.c ****         Timer_1_CONTROL &= ((uint8)(~Timer_1_CTRL_TRIG_MODE_MASK));
 614:.\Generated_Source\PSoC4/Timer_1.c **** 
 615:.\Generated_Source\PSoC4/Timer_1.c ****         /* Write The New Setting */
 616:.\Generated_Source\PSoC4/Timer_1.c ****         Timer_1_CONTROL |= (triggerMode | Timer_1__B_TIMER__TM_SOFTWARE);
 617:.\Generated_Source\PSoC4/Timer_1.c ****     #endif /* Remove code section if control register is not used */
 618:.\Generated_Source\PSoC4/Timer_1.c **** }
 619:.\Generated_Source\PSoC4/Timer_1.c **** #endif /* Remove API if Trigger Mode is not Software Controlled */
 620:.\Generated_Source\PSoC4/Timer_1.c **** 
 621:.\Generated_Source\PSoC4/Timer_1.c **** #if (Timer_1_EnableTriggerMode)
 622:.\Generated_Source\PSoC4/Timer_1.c **** 
 623:.\Generated_Source\PSoC4/Timer_1.c **** 
 624:.\Generated_Source\PSoC4/Timer_1.c **** /*******************************************************************************
 625:.\Generated_Source\PSoC4/Timer_1.c **** * Function Name: Timer_1_EnableTrigger
 626:.\Generated_Source\PSoC4/Timer_1.c **** ********************************************************************************
 627:.\Generated_Source\PSoC4/Timer_1.c **** *
 628:.\Generated_Source\PSoC4/Timer_1.c **** * Summary:
 629:.\Generated_Source\PSoC4/Timer_1.c **** *  Sets the control bit enabling Hardware Trigger mode
 630:.\Generated_Source\PSoC4/Timer_1.c **** *
 631:.\Generated_Source\PSoC4/Timer_1.c **** * Parameters:
 632:.\Generated_Source\PSoC4/Timer_1.c **** *  void
 633:.\Generated_Source\PSoC4/Timer_1.c **** *
 634:.\Generated_Source\PSoC4/Timer_1.c **** * Return:
 635:.\Generated_Source\PSoC4/Timer_1.c **** *  void
 636:.\Generated_Source\PSoC4/Timer_1.c **** *
 637:.\Generated_Source\PSoC4/Timer_1.c **** *******************************************************************************/
 638:.\Generated_Source\PSoC4/Timer_1.c **** void Timer_1_EnableTrigger(void) 
 639:.\Generated_Source\PSoC4/Timer_1.c **** {
 640:.\Generated_Source\PSoC4/Timer_1.c ****     #if (!Timer_1_UDB_CONTROL_REG_REMOVED)   /* Remove assignment if control register is removed */
 641:.\Generated_Source\PSoC4/Timer_1.c ****         Timer_1_CONTROL |= Timer_1_CTRL_TRIG_EN;
 642:.\Generated_Source\PSoC4/Timer_1.c ****     #endif /* Remove code section if control register is not used */
 643:.\Generated_Source\PSoC4/Timer_1.c **** }
 644:.\Generated_Source\PSoC4/Timer_1.c **** 
 645:.\Generated_Source\PSoC4/Timer_1.c **** 
 646:.\Generated_Source\PSoC4/Timer_1.c **** /*******************************************************************************
 647:.\Generated_Source\PSoC4/Timer_1.c **** * Function Name: Timer_1_DisableTrigger
 648:.\Generated_Source\PSoC4/Timer_1.c **** ********************************************************************************
 649:.\Generated_Source\PSoC4/Timer_1.c **** *
 650:.\Generated_Source\PSoC4/Timer_1.c **** * Summary:
 651:.\Generated_Source\PSoC4/Timer_1.c **** *  Clears the control bit enabling Hardware Trigger mode
 652:.\Generated_Source\PSoC4/Timer_1.c **** *
 653:.\Generated_Source\PSoC4/Timer_1.c **** * Parameters:
 654:.\Generated_Source\PSoC4/Timer_1.c **** *  void
 655:.\Generated_Source\PSoC4/Timer_1.c **** *
 656:.\Generated_Source\PSoC4/Timer_1.c **** * Return:
 657:.\Generated_Source\PSoC4/Timer_1.c **** *  void
 658:.\Generated_Source\PSoC4/Timer_1.c **** *
 659:.\Generated_Source\PSoC4/Timer_1.c **** *******************************************************************************/
 660:.\Generated_Source\PSoC4/Timer_1.c **** void Timer_1_DisableTrigger(void) 
 661:.\Generated_Source\PSoC4/Timer_1.c **** {
 662:.\Generated_Source\PSoC4/Timer_1.c ****     #if (!Timer_1_UDB_CONTROL_REG_REMOVED )   /* Remove assignment if control register is removed *
 663:.\Generated_Source\PSoC4/Timer_1.c ****         Timer_1_CONTROL &= ((uint8)(~Timer_1_CTRL_TRIG_EN));
 664:.\Generated_Source\PSoC4/Timer_1.c ****     #endif /* Remove code section if control register is not used */
 665:.\Generated_Source\PSoC4/Timer_1.c **** }
 666:.\Generated_Source\PSoC4/Timer_1.c **** #endif /* Remove API is Trigger Mode is set to None */
 667:.\Generated_Source\PSoC4/Timer_1.c **** 
 668:.\Generated_Source\PSoC4/Timer_1.c **** #if(Timer_1_InterruptOnCaptureCount)
 669:.\Generated_Source\PSoC4/Timer_1.c **** 
ARM GAS  C:\Users\mohammed\AppData\Local\Temp\ccVUHqpw.s 			page 19


 670:.\Generated_Source\PSoC4/Timer_1.c **** 
 671:.\Generated_Source\PSoC4/Timer_1.c **** /*******************************************************************************
 672:.\Generated_Source\PSoC4/Timer_1.c **** * Function Name: Timer_1_SetInterruptCount
 673:.\Generated_Source\PSoC4/Timer_1.c **** ********************************************************************************
 674:.\Generated_Source\PSoC4/Timer_1.c **** *
 675:.\Generated_Source\PSoC4/Timer_1.c **** * Summary:
 676:.\Generated_Source\PSoC4/Timer_1.c **** *  This function sets the capture count before an interrupt is triggered.
 677:.\Generated_Source\PSoC4/Timer_1.c **** *
 678:.\Generated_Source\PSoC4/Timer_1.c **** * Parameters:
 679:.\Generated_Source\PSoC4/Timer_1.c **** *  interruptCount:  A value between 0 and 3 is valid.  If the value is 0, then
 680:.\Generated_Source\PSoC4/Timer_1.c **** *                   an interrupt will occur each time a capture occurs.
 681:.\Generated_Source\PSoC4/Timer_1.c **** *                   A value of 1 to 3 will cause the interrupt
 682:.\Generated_Source\PSoC4/Timer_1.c **** *                   to delay by the same number of captures.
 683:.\Generated_Source\PSoC4/Timer_1.c **** *
 684:.\Generated_Source\PSoC4/Timer_1.c **** * Return:
 685:.\Generated_Source\PSoC4/Timer_1.c **** *  void
 686:.\Generated_Source\PSoC4/Timer_1.c **** *
 687:.\Generated_Source\PSoC4/Timer_1.c **** *******************************************************************************/
 688:.\Generated_Source\PSoC4/Timer_1.c **** void Timer_1_SetInterruptCount(uint8 interruptCount) 
 689:.\Generated_Source\PSoC4/Timer_1.c **** {
 690:.\Generated_Source\PSoC4/Timer_1.c ****     /* This must only set to two bits of the control register associated */
 691:.\Generated_Source\PSoC4/Timer_1.c ****     interruptCount &= Timer_1_CTRL_INTCNT_MASK;
 692:.\Generated_Source\PSoC4/Timer_1.c **** 
 693:.\Generated_Source\PSoC4/Timer_1.c ****     #if (!Timer_1_UDB_CONTROL_REG_REMOVED)
 694:.\Generated_Source\PSoC4/Timer_1.c ****         /* Clear the Current Setting */
 695:.\Generated_Source\PSoC4/Timer_1.c ****         Timer_1_CONTROL &= ((uint8)(~Timer_1_CTRL_INTCNT_MASK));
 696:.\Generated_Source\PSoC4/Timer_1.c ****         /* Write The New Setting */
 697:.\Generated_Source\PSoC4/Timer_1.c ****         Timer_1_CONTROL |= interruptCount;
 698:.\Generated_Source\PSoC4/Timer_1.c ****     #endif /* (!Timer_1_UDB_CONTROL_REG_REMOVED) */
 699:.\Generated_Source\PSoC4/Timer_1.c **** }
 700:.\Generated_Source\PSoC4/Timer_1.c **** #endif /* Timer_1_InterruptOnCaptureCount */
 701:.\Generated_Source\PSoC4/Timer_1.c **** 
 702:.\Generated_Source\PSoC4/Timer_1.c **** 
 703:.\Generated_Source\PSoC4/Timer_1.c **** #if (Timer_1_UsingHWCaptureCounter)
 704:.\Generated_Source\PSoC4/Timer_1.c **** 
 705:.\Generated_Source\PSoC4/Timer_1.c **** 
 706:.\Generated_Source\PSoC4/Timer_1.c **** /*******************************************************************************
 707:.\Generated_Source\PSoC4/Timer_1.c **** * Function Name: Timer_1_SetCaptureCount
 708:.\Generated_Source\PSoC4/Timer_1.c **** ********************************************************************************
 709:.\Generated_Source\PSoC4/Timer_1.c **** *
 710:.\Generated_Source\PSoC4/Timer_1.c **** * Summary:
 711:.\Generated_Source\PSoC4/Timer_1.c **** *  This function sets the capture count
 712:.\Generated_Source\PSoC4/Timer_1.c **** *
 713:.\Generated_Source\PSoC4/Timer_1.c **** * Parameters:
 714:.\Generated_Source\PSoC4/Timer_1.c **** *  captureCount: A value between 2 and 127 inclusive is valid.  A value of 1
 715:.\Generated_Source\PSoC4/Timer_1.c **** *                to 127 will cause the interrupt to delay by the same number of
 716:.\Generated_Source\PSoC4/Timer_1.c **** *                captures.
 717:.\Generated_Source\PSoC4/Timer_1.c **** *
 718:.\Generated_Source\PSoC4/Timer_1.c **** * Return:
 719:.\Generated_Source\PSoC4/Timer_1.c **** *  void
 720:.\Generated_Source\PSoC4/Timer_1.c **** *
 721:.\Generated_Source\PSoC4/Timer_1.c **** *******************************************************************************/
 722:.\Generated_Source\PSoC4/Timer_1.c **** void Timer_1_SetCaptureCount(uint8 captureCount) 
 723:.\Generated_Source\PSoC4/Timer_1.c **** {
 724:.\Generated_Source\PSoC4/Timer_1.c ****     Timer_1_CAP_COUNT = captureCount;
 725:.\Generated_Source\PSoC4/Timer_1.c **** }
 726:.\Generated_Source\PSoC4/Timer_1.c **** 
ARM GAS  C:\Users\mohammed\AppData\Local\Temp\ccVUHqpw.s 			page 20


 727:.\Generated_Source\PSoC4/Timer_1.c **** 
 728:.\Generated_Source\PSoC4/Timer_1.c **** /*******************************************************************************
 729:.\Generated_Source\PSoC4/Timer_1.c **** * Function Name: Timer_1_ReadCaptureCount
 730:.\Generated_Source\PSoC4/Timer_1.c **** ********************************************************************************
 731:.\Generated_Source\PSoC4/Timer_1.c **** *
 732:.\Generated_Source\PSoC4/Timer_1.c **** * Summary:
 733:.\Generated_Source\PSoC4/Timer_1.c **** *  This function reads the capture count setting
 734:.\Generated_Source\PSoC4/Timer_1.c **** *
 735:.\Generated_Source\PSoC4/Timer_1.c **** * Parameters:
 736:.\Generated_Source\PSoC4/Timer_1.c **** *  void
 737:.\Generated_Source\PSoC4/Timer_1.c **** *
 738:.\Generated_Source\PSoC4/Timer_1.c **** * Return:
 739:.\Generated_Source\PSoC4/Timer_1.c **** *  Returns the Capture Count Setting
 740:.\Generated_Source\PSoC4/Timer_1.c **** *
 741:.\Generated_Source\PSoC4/Timer_1.c **** *******************************************************************************/
 742:.\Generated_Source\PSoC4/Timer_1.c **** uint8 Timer_1_ReadCaptureCount(void) 
 743:.\Generated_Source\PSoC4/Timer_1.c **** {
 744:.\Generated_Source\PSoC4/Timer_1.c ****     return ((uint8)Timer_1_CAP_COUNT);
 745:.\Generated_Source\PSoC4/Timer_1.c **** }
 746:.\Generated_Source\PSoC4/Timer_1.c **** #endif /* Timer_1_UsingHWCaptureCounter */
 747:.\Generated_Source\PSoC4/Timer_1.c **** 
 748:.\Generated_Source\PSoC4/Timer_1.c **** 
 749:.\Generated_Source\PSoC4/Timer_1.c **** /*******************************************************************************
 750:.\Generated_Source\PSoC4/Timer_1.c **** * Function Name: Timer_1_ClearFIFO
 751:.\Generated_Source\PSoC4/Timer_1.c **** ********************************************************************************
 752:.\Generated_Source\PSoC4/Timer_1.c **** *
 753:.\Generated_Source\PSoC4/Timer_1.c **** * Summary:
 754:.\Generated_Source\PSoC4/Timer_1.c **** *  This function clears all capture data from the capture FIFO
 755:.\Generated_Source\PSoC4/Timer_1.c **** *
 756:.\Generated_Source\PSoC4/Timer_1.c **** * Parameters:
 757:.\Generated_Source\PSoC4/Timer_1.c **** *  void
 758:.\Generated_Source\PSoC4/Timer_1.c **** *
 759:.\Generated_Source\PSoC4/Timer_1.c **** * Return:
 760:.\Generated_Source\PSoC4/Timer_1.c **** *  void
 761:.\Generated_Source\PSoC4/Timer_1.c **** *
 762:.\Generated_Source\PSoC4/Timer_1.c **** *******************************************************************************/
 763:.\Generated_Source\PSoC4/Timer_1.c **** void Timer_1_ClearFIFO(void) 
 764:.\Generated_Source\PSoC4/Timer_1.c **** {
 345              		.loc 1 764 0
 346              		.cfi_startproc
 347              	.L38:
 348              	.LBB12:
 349              	.LBB13:
 335:.\Generated_Source\PSoC4/Timer_1.c **** }
 350              		.loc 1 335 0
 351 0000 034B     		ldr	r3, .L42
 352 0002 1B78     		ldrb	r3, [r3]
 353              	.LBE13:
 354              	.LBE12:
 765:.\Generated_Source\PSoC4/Timer_1.c ****     while(0u != (Timer_1_ReadStatusRegister() & Timer_1_STATUS_FIFONEMP))
 355              		.loc 1 765 0
 356 0004 1B07     		lsl	r3, r3, #28
 357 0006 02D5     		bpl	.L41
 358              	.LBB14:
 359              	.LBB15:
 461:.\Generated_Source\PSoC4/Timer_1.c ****    #endif /* (Timer_1_UsingFixedFunction) */
 360              		.loc 1 461 0
ARM GAS  C:\Users\mohammed\AppData\Local\Temp\ccVUHqpw.s 			page 21


 361 0008 024B     		ldr	r3, .L42+4
 362 000a 1B88     		ldrh	r3, [r3]
 363 000c F8E7     		b	.L38
 364              	.L41:
 365              	.LBE15:
 366              	.LBE14:
 766:.\Generated_Source\PSoC4/Timer_1.c ****     {
 767:.\Generated_Source\PSoC4/Timer_1.c ****         (void)Timer_1_ReadCapture();
 768:.\Generated_Source\PSoC4/Timer_1.c ****     }
 769:.\Generated_Source\PSoC4/Timer_1.c **** }
 367              		.loc 1 769 0
 368              		@ sp needed
 369 000e 7047     		bx	lr
 370              	.L43:
 371              		.align	2
 372              	.L42:
 373 0010 63000F40 		.word	1074724963
 374 0014 84100F40 		.word	1074729092
 375              		.cfi_endproc
 376              	.LFE16:
 377              		.size	Timer_1_ClearFIFO, .-Timer_1_ClearFIFO
 378              		.section	.text.Timer_1_Init,"ax",%progbits
 379              		.align	1
 380              		.global	Timer_1_Init
 381              		.code	16
 382              		.thumb_func
 383              		.type	Timer_1_Init, %function
 384              	Timer_1_Init:
 385              	.LFB2:
  44:.\Generated_Source\PSoC4/Timer_1.c ****     #if(!Timer_1_UsingFixedFunction)
 386              		.loc 1 44 0
 387              		.cfi_startproc
 388              	.LVL4:
 389 0000 08B5     		push	{r3, lr}
 390              		.cfi_def_cfa_offset 8
 391              		.cfi_offset 3, -8
 392              		.cfi_offset 14, -4
 393              	.LBB16:
 394              	.LBB17:
 437:.\Generated_Source\PSoC4/Timer_1.c ****     #endif /*Write Period value with appropriate resolution suffix depending on UDB or fixed functi
 395              		.loc 1 437 0
 396 0002 0A4A     		ldr	r2, .L45
 397 0004 0A4B     		ldr	r3, .L45+4
 398              	.LBE17:
 399              	.LBE16:
 163:.\Generated_Source\PSoC4/Timer_1.c **** 
 400              		.loc 1 163 0
 401              		@ sp needed
 402              	.LBB19:
 403              	.LBB18:
 437:.\Generated_Source\PSoC4/Timer_1.c ****     #endif /*Write Period value with appropriate resolution suffix depending on UDB or fixed functi
 404              		.loc 1 437 0
 405 0006 1380     		strh	r3, [r2]
 406              	.LVL5:
 407              	.LBE18:
 408              	.LBE19:
 409              	.LBB20:
ARM GAS  C:\Users\mohammed\AppData\Local\Temp\ccVUHqpw.s 			page 22


 410              	.LBB21:
 489:.\Generated_Source\PSoC4/Timer_1.c ****     #endif /* Set Write Counter only for the UDB implementation (Write Counter not available in fix
 411              		.loc 1 489 0
 412 0008 0A4A     		ldr	r2, .L45+8
 413 000a 1380     		strh	r3, [r2]
 414              	.LBE21:
 415              	.LBE20:
 142:.\Generated_Source\PSoC4/Timer_1.c **** 
 416              		.loc 1 142 0
 417 000c FFF7FEFF 		bl	CyEnterCriticalSection
 418              	.LVL6:
 145:.\Generated_Source\PSoC4/Timer_1.c **** 
 419              		.loc 1 145 0
 420 0010 1021     		mov	r1, #16
 421 0012 094A     		ldr	r2, .L45+12
 422 0014 1378     		ldrb	r3, [r2]
 423 0016 0B43     		orr	r3, r1
 424 0018 1370     		strb	r3, [r2]
 148:.\Generated_Source\PSoC4/Timer_1.c **** 
 425              		.loc 1 148 0
 426 001a FFF7FEFF 		bl	CyExitCriticalSection
 427              	.LVL7:
 159:.\Generated_Source\PSoC4/Timer_1.c ****     #endif /* Configure additional features of UDB implementation */
 428              		.loc 1 159 0
 429 001e FFF7FEFF 		bl	Timer_1_ClearFIFO
 430              	.LVL8:
 431              	.LBB22:
 432              	.LBB23:
 281:.\Generated_Source\PSoC4/Timer_1.c **** }
 433              		.loc 1 281 0
 434 0022 0022     		mov	r2, #0
 435 0024 054B     		ldr	r3, .L45+16
 436 0026 1A70     		strb	r2, [r3]
 437              	.LBE23:
 438              	.LBE22:
 163:.\Generated_Source\PSoC4/Timer_1.c **** 
 439              		.loc 1 163 0
 440 0028 08BD     		pop	{r3, pc}
 441              	.L46:
 442 002a C046     		.align	2
 443              	.L45:
 444 002c 44100F40 		.word	1074729028
 445 0030 BF5D0000 		.word	23999
 446 0034 04100F40 		.word	1074728964
 447 0038 93000F40 		.word	1074725011
 448 003c 83000F40 		.word	1074724995
 449              		.cfi_endproc
 450              	.LFE2:
 451              		.size	Timer_1_Init, .-Timer_1_Init
 452              		.section	.text.Timer_1_Start,"ax",%progbits
 453              		.align	1
 454              		.global	Timer_1_Start
 455              		.code	16
 456              		.thumb_func
 457              		.type	Timer_1_Start, %function
 458              	Timer_1_Start:
 459              	.LFB4:
ARM GAS  C:\Users\mohammed\AppData\Local\Temp\ccVUHqpw.s 			page 23


 216:.\Generated_Source\PSoC4/Timer_1.c ****     if(Timer_1_initVar == 0u)
 460              		.loc 1 216 0
 461              		.cfi_startproc
 462 0000 10B5     		push	{r4, lr}
 463              		.cfi_def_cfa_offset 8
 464              		.cfi_offset 4, -8
 465              		.cfi_offset 14, -4
 217:.\Generated_Source\PSoC4/Timer_1.c ****     {
 466              		.loc 1 217 0
 467 0002 054C     		ldr	r4, .L49
 468 0004 2378     		ldrb	r3, [r4]
 469 0006 002B     		cmp	r3, #0
 470 0008 03D1     		bne	.L48
 219:.\Generated_Source\PSoC4/Timer_1.c **** 
 471              		.loc 1 219 0
 472 000a FFF7FEFF 		bl	Timer_1_Init
 473              	.LVL9:
 221:.\Generated_Source\PSoC4/Timer_1.c ****     }
 474              		.loc 1 221 0
 475 000e 0123     		mov	r3, #1
 476 0010 2370     		strb	r3, [r4]
 477              	.L48:
 225:.\Generated_Source\PSoC4/Timer_1.c **** }
 478              		.loc 1 225 0
 479 0012 FFF7FEFF 		bl	Timer_1_Enable
 480              	.LVL10:
 226:.\Generated_Source\PSoC4/Timer_1.c **** 
 481              		.loc 1 226 0
 482              		@ sp needed
 483 0016 10BD     		pop	{r4, pc}
 484              	.L50:
 485              		.align	2
 486              	.L49:
 487 0018 00000000 		.word	.LANCHOR0
 488              		.cfi_endproc
 489              	.LFE4:
 490              		.size	Timer_1_Start, .-Timer_1_Start
 491              		.global	Timer_1_initVar
 492              		.bss
 493              		.set	.LANCHOR0,. + 0
 494              		.type	Timer_1_initVar, %object
 495              		.size	Timer_1_initVar, 1
 496              	Timer_1_initVar:
 497 0000 00       		.space	1
 498              		.text
 499              	.Letext0:
 500              		.file 2 ".\\Generated_Source\\PSoC4\\cytypes.h"
 501              		.file 3 ".\\Generated_Source\\PSoC4\\CyLib.h"