ARM GAS  C:\Users\mohammed\AppData\Local\Temp\cckEOzaj.s 			page 1


   1              		.cpu cortex-m0
   2              		.fpu softvfp
   3              		.eabi_attribute 20, 1
   4              		.eabi_attribute 21, 1
   5              		.eabi_attribute 23, 3
   6              		.eabi_attribute 24, 1
   7              		.eabi_attribute 25, 1
   8              		.eabi_attribute 26, 1
   9              		.eabi_attribute 30, 4
  10              		.eabi_attribute 34, 0
  11              		.eabi_attribute 18, 4
  12              		.code	16
  13              		.file	"UART_DEB.c"
  14              		.text
  15              	.Ltext0:
  16              		.cfi_sections	.debug_frame
  17              		.section	.text.UART_DEB_Init,"ax",%progbits
  18              		.align	1
  19              		.global	UART_DEB_Init
  20              		.code	16
  21              		.thumb_func
  22              		.type	UART_DEB_Init, %function
  23              	UART_DEB_Init:
  24              	.LFB2:
  25              		.file 1 ".\\Generated_Source\\PSoC4\\UART_DEB.c"
   1:.\Generated_Source\PSoC4/UART_DEB.c **** /*******************************************************************************
   2:.\Generated_Source\PSoC4/UART_DEB.c **** * File Name: UART_DEB.c
   3:.\Generated_Source\PSoC4/UART_DEB.c **** * Version 3.10
   4:.\Generated_Source\PSoC4/UART_DEB.c **** *
   5:.\Generated_Source\PSoC4/UART_DEB.c **** * Description:
   6:.\Generated_Source\PSoC4/UART_DEB.c **** *  This file provides the source code to the API for the SCB Component.
   7:.\Generated_Source\PSoC4/UART_DEB.c **** *
   8:.\Generated_Source\PSoC4/UART_DEB.c **** * Note:
   9:.\Generated_Source\PSoC4/UART_DEB.c **** *
  10:.\Generated_Source\PSoC4/UART_DEB.c **** *******************************************************************************
  11:.\Generated_Source\PSoC4/UART_DEB.c **** * Copyright 2013-2015, Cypress Semiconductor Corporation.  All rights reserved.
  12:.\Generated_Source\PSoC4/UART_DEB.c **** * You may use this file only in accordance with the license, terms, conditions,
  13:.\Generated_Source\PSoC4/UART_DEB.c **** * disclaimers, and limitations in the end user license agreement accompanying
  14:.\Generated_Source\PSoC4/UART_DEB.c **** * the software package with which this file was provided.
  15:.\Generated_Source\PSoC4/UART_DEB.c **** *******************************************************************************/
  16:.\Generated_Source\PSoC4/UART_DEB.c **** 
  17:.\Generated_Source\PSoC4/UART_DEB.c **** #include "UART_DEB_PVT.h"
  18:.\Generated_Source\PSoC4/UART_DEB.c **** 
  19:.\Generated_Source\PSoC4/UART_DEB.c **** #if (UART_DEB_SCB_MODE_I2C_INC)
  20:.\Generated_Source\PSoC4/UART_DEB.c ****     #include "UART_DEB_I2C_PVT.h"
  21:.\Generated_Source\PSoC4/UART_DEB.c **** #endif /* (UART_DEB_SCB_MODE_I2C_INC) */
  22:.\Generated_Source\PSoC4/UART_DEB.c **** 
  23:.\Generated_Source\PSoC4/UART_DEB.c **** #if (UART_DEB_SCB_MODE_EZI2C_INC)
  24:.\Generated_Source\PSoC4/UART_DEB.c ****     #include "UART_DEB_EZI2C_PVT.h"
  25:.\Generated_Source\PSoC4/UART_DEB.c **** #endif /* (UART_DEB_SCB_MODE_EZI2C_INC) */
  26:.\Generated_Source\PSoC4/UART_DEB.c **** 
  27:.\Generated_Source\PSoC4/UART_DEB.c **** #if (UART_DEB_SCB_MODE_SPI_INC || UART_DEB_SCB_MODE_UART_INC)
  28:.\Generated_Source\PSoC4/UART_DEB.c ****     #include "UART_DEB_SPI_UART_PVT.h"
  29:.\Generated_Source\PSoC4/UART_DEB.c **** #endif /* (UART_DEB_SCB_MODE_SPI_INC || UART_DEB_SCB_MODE_UART_INC) */
  30:.\Generated_Source\PSoC4/UART_DEB.c **** 
  31:.\Generated_Source\PSoC4/UART_DEB.c **** 
  32:.\Generated_Source\PSoC4/UART_DEB.c **** /***************************************
ARM GAS  C:\Users\mohammed\AppData\Local\Temp\cckEOzaj.s 			page 2


  33:.\Generated_Source\PSoC4/UART_DEB.c **** *    Run Time Configuration Vars
  34:.\Generated_Source\PSoC4/UART_DEB.c **** ***************************************/
  35:.\Generated_Source\PSoC4/UART_DEB.c **** 
  36:.\Generated_Source\PSoC4/UART_DEB.c **** /* Stores internal component configuration for Unconfigured mode */
  37:.\Generated_Source\PSoC4/UART_DEB.c **** #if (UART_DEB_SCB_MODE_UNCONFIG_CONST_CFG)
  38:.\Generated_Source\PSoC4/UART_DEB.c ****     /* Common configuration variables */
  39:.\Generated_Source\PSoC4/UART_DEB.c ****     uint8 UART_DEB_scbMode = UART_DEB_SCB_MODE_UNCONFIG;
  40:.\Generated_Source\PSoC4/UART_DEB.c ****     uint8 UART_DEB_scbEnableWake;
  41:.\Generated_Source\PSoC4/UART_DEB.c ****     uint8 UART_DEB_scbEnableIntr;
  42:.\Generated_Source\PSoC4/UART_DEB.c **** 
  43:.\Generated_Source\PSoC4/UART_DEB.c ****     /* I2C configuration variables */
  44:.\Generated_Source\PSoC4/UART_DEB.c ****     uint8 UART_DEB_mode;
  45:.\Generated_Source\PSoC4/UART_DEB.c ****     uint8 UART_DEB_acceptAddr;
  46:.\Generated_Source\PSoC4/UART_DEB.c **** 
  47:.\Generated_Source\PSoC4/UART_DEB.c ****     /* SPI/UART configuration variables */
  48:.\Generated_Source\PSoC4/UART_DEB.c ****     volatile uint8 * UART_DEB_rxBuffer;
  49:.\Generated_Source\PSoC4/UART_DEB.c ****     uint8  UART_DEB_rxDataBits;
  50:.\Generated_Source\PSoC4/UART_DEB.c ****     uint32 UART_DEB_rxBufferSize;
  51:.\Generated_Source\PSoC4/UART_DEB.c **** 
  52:.\Generated_Source\PSoC4/UART_DEB.c ****     volatile uint8 * UART_DEB_txBuffer;
  53:.\Generated_Source\PSoC4/UART_DEB.c ****     uint8  UART_DEB_txDataBits;
  54:.\Generated_Source\PSoC4/UART_DEB.c ****     uint32 UART_DEB_txBufferSize;
  55:.\Generated_Source\PSoC4/UART_DEB.c **** 
  56:.\Generated_Source\PSoC4/UART_DEB.c ****     /* EZI2C configuration variables */
  57:.\Generated_Source\PSoC4/UART_DEB.c ****     uint8 UART_DEB_numberOfAddr;
  58:.\Generated_Source\PSoC4/UART_DEB.c ****     uint8 UART_DEB_subAddrSize;
  59:.\Generated_Source\PSoC4/UART_DEB.c **** #endif /* (UART_DEB_SCB_MODE_UNCONFIG_CONST_CFG) */
  60:.\Generated_Source\PSoC4/UART_DEB.c **** 
  61:.\Generated_Source\PSoC4/UART_DEB.c **** 
  62:.\Generated_Source\PSoC4/UART_DEB.c **** /***************************************
  63:.\Generated_Source\PSoC4/UART_DEB.c **** *     Common SCB Vars
  64:.\Generated_Source\PSoC4/UART_DEB.c **** ***************************************/
  65:.\Generated_Source\PSoC4/UART_DEB.c **** 
  66:.\Generated_Source\PSoC4/UART_DEB.c **** uint8 UART_DEB_initVar = 0u;
  67:.\Generated_Source\PSoC4/UART_DEB.c **** 
  68:.\Generated_Source\PSoC4/UART_DEB.c **** #if (UART_DEB_SCB_IRQ_INTERNAL)
  69:.\Generated_Source\PSoC4/UART_DEB.c **** #if !defined (CY_REMOVE_UART_DEB_CUSTOM_INTR_HANDLER)
  70:.\Generated_Source\PSoC4/UART_DEB.c ****     void (*UART_DEB_customIntrHandler)(void) = NULL;
  71:.\Generated_Source\PSoC4/UART_DEB.c **** #endif /* !defined (CY_REMOVE_UART_DEB_CUSTOM_INTR_HANDLER) */
  72:.\Generated_Source\PSoC4/UART_DEB.c **** #endif /* (UART_DEB_SCB_IRQ_INTERNAL) */
  73:.\Generated_Source\PSoC4/UART_DEB.c **** 
  74:.\Generated_Source\PSoC4/UART_DEB.c **** 
  75:.\Generated_Source\PSoC4/UART_DEB.c **** /***************************************
  76:.\Generated_Source\PSoC4/UART_DEB.c **** *    Private Function Prototypes
  77:.\Generated_Source\PSoC4/UART_DEB.c **** ***************************************/
  78:.\Generated_Source\PSoC4/UART_DEB.c **** 
  79:.\Generated_Source\PSoC4/UART_DEB.c **** static void UART_DEB_ScbEnableIntr(void);
  80:.\Generated_Source\PSoC4/UART_DEB.c **** static void UART_DEB_ScbModeStop(void);
  81:.\Generated_Source\PSoC4/UART_DEB.c **** static void UART_DEB_ScbModePostEnable(void);
  82:.\Generated_Source\PSoC4/UART_DEB.c **** 
  83:.\Generated_Source\PSoC4/UART_DEB.c **** 
  84:.\Generated_Source\PSoC4/UART_DEB.c **** /*******************************************************************************
  85:.\Generated_Source\PSoC4/UART_DEB.c **** * Function Name: UART_DEB_Init
  86:.\Generated_Source\PSoC4/UART_DEB.c **** ********************************************************************************
  87:.\Generated_Source\PSoC4/UART_DEB.c **** *
  88:.\Generated_Source\PSoC4/UART_DEB.c **** * Summary:
  89:.\Generated_Source\PSoC4/UART_DEB.c **** *  Initializes the SCB component to operate in one of the selected
ARM GAS  C:\Users\mohammed\AppData\Local\Temp\cckEOzaj.s 			page 3


  90:.\Generated_Source\PSoC4/UART_DEB.c **** *  configurations: I2C, SPI, UART or EZI2C.
  91:.\Generated_Source\PSoC4/UART_DEB.c **** *  When the configuration is set to "Unconfigured SCB", this function does
  92:.\Generated_Source\PSoC4/UART_DEB.c **** *  not do any initialization. Use mode-specific initialization APIs instead:
  93:.\Generated_Source\PSoC4/UART_DEB.c **** *  SCB_I2CInit, SCB_SpiInit, SCB_UartInit or SCB_EzI2CInit.
  94:.\Generated_Source\PSoC4/UART_DEB.c **** *
  95:.\Generated_Source\PSoC4/UART_DEB.c **** * Parameters:
  96:.\Generated_Source\PSoC4/UART_DEB.c **** *  None
  97:.\Generated_Source\PSoC4/UART_DEB.c **** *
  98:.\Generated_Source\PSoC4/UART_DEB.c **** * Return:
  99:.\Generated_Source\PSoC4/UART_DEB.c **** *  None
 100:.\Generated_Source\PSoC4/UART_DEB.c **** *
 101:.\Generated_Source\PSoC4/UART_DEB.c **** *******************************************************************************/
 102:.\Generated_Source\PSoC4/UART_DEB.c **** void UART_DEB_Init(void)
 103:.\Generated_Source\PSoC4/UART_DEB.c **** {
  26              		.loc 1 103 0
  27              		.cfi_startproc
  28 0000 08B5     		push	{r3, lr}
  29              		.cfi_def_cfa_offset 8
  30              		.cfi_offset 3, -8
  31              		.cfi_offset 14, -4
 104:.\Generated_Source\PSoC4/UART_DEB.c **** #if (UART_DEB_SCB_MODE_UNCONFIG_CONST_CFG)
 105:.\Generated_Source\PSoC4/UART_DEB.c ****     if (UART_DEB_SCB_MODE_UNCONFIG_RUNTM_CFG)
 106:.\Generated_Source\PSoC4/UART_DEB.c ****     {
 107:.\Generated_Source\PSoC4/UART_DEB.c ****         UART_DEB_initVar = 0u;
 108:.\Generated_Source\PSoC4/UART_DEB.c ****     }
 109:.\Generated_Source\PSoC4/UART_DEB.c ****     else
 110:.\Generated_Source\PSoC4/UART_DEB.c ****     {
 111:.\Generated_Source\PSoC4/UART_DEB.c ****         /* Initialization was done before this function call */
 112:.\Generated_Source\PSoC4/UART_DEB.c ****     }
 113:.\Generated_Source\PSoC4/UART_DEB.c **** 
 114:.\Generated_Source\PSoC4/UART_DEB.c **** #elif (UART_DEB_SCB_MODE_I2C_CONST_CFG)
 115:.\Generated_Source\PSoC4/UART_DEB.c ****     UART_DEB_I2CInit();
 116:.\Generated_Source\PSoC4/UART_DEB.c **** 
 117:.\Generated_Source\PSoC4/UART_DEB.c **** #elif (UART_DEB_SCB_MODE_SPI_CONST_CFG)
 118:.\Generated_Source\PSoC4/UART_DEB.c ****     UART_DEB_SpiInit();
 119:.\Generated_Source\PSoC4/UART_DEB.c **** 
 120:.\Generated_Source\PSoC4/UART_DEB.c **** #elif (UART_DEB_SCB_MODE_UART_CONST_CFG)
 121:.\Generated_Source\PSoC4/UART_DEB.c ****     UART_DEB_UartInit();
  32              		.loc 1 121 0
  33 0002 FFF7FEFF 		bl	UART_DEB_UartInit
  34              	.LVL0:
 122:.\Generated_Source\PSoC4/UART_DEB.c **** 
 123:.\Generated_Source\PSoC4/UART_DEB.c **** #elif (UART_DEB_SCB_MODE_EZI2C_CONST_CFG)
 124:.\Generated_Source\PSoC4/UART_DEB.c ****     UART_DEB_EzI2CInit();
 125:.\Generated_Source\PSoC4/UART_DEB.c **** 
 126:.\Generated_Source\PSoC4/UART_DEB.c **** #endif /* (UART_DEB_SCB_MODE_UNCONFIG_CONST_CFG) */
 127:.\Generated_Source\PSoC4/UART_DEB.c **** }
  35              		.loc 1 127 0
  36              		@ sp needed
  37 0006 08BD     		pop	{r3, pc}
  38              		.cfi_endproc
  39              	.LFE2:
  40              		.size	UART_DEB_Init, .-UART_DEB_Init
  41              		.section	.text.UART_DEB_Enable,"ax",%progbits
  42              		.align	1
  43              		.global	UART_DEB_Enable
  44              		.code	16
ARM GAS  C:\Users\mohammed\AppData\Local\Temp\cckEOzaj.s 			page 4


  45              		.thumb_func
  46              		.type	UART_DEB_Enable, %function
  47              	UART_DEB_Enable:
  48              	.LFB3:
 128:.\Generated_Source\PSoC4/UART_DEB.c **** 
 129:.\Generated_Source\PSoC4/UART_DEB.c **** 
 130:.\Generated_Source\PSoC4/UART_DEB.c **** /*******************************************************************************
 131:.\Generated_Source\PSoC4/UART_DEB.c **** * Function Name: UART_DEB_Enable
 132:.\Generated_Source\PSoC4/UART_DEB.c **** ********************************************************************************
 133:.\Generated_Source\PSoC4/UART_DEB.c **** *
 134:.\Generated_Source\PSoC4/UART_DEB.c **** * Summary:
 135:.\Generated_Source\PSoC4/UART_DEB.c **** *  Enables the SCB component operation.
 136:.\Generated_Source\PSoC4/UART_DEB.c **** *  The SCB configuration should be not changed when the component is enabled.
 137:.\Generated_Source\PSoC4/UART_DEB.c **** *  Any configuration changes should be made after disabling the component.
 138:.\Generated_Source\PSoC4/UART_DEB.c **** *
 139:.\Generated_Source\PSoC4/UART_DEB.c **** * Parameters:
 140:.\Generated_Source\PSoC4/UART_DEB.c **** *  None
 141:.\Generated_Source\PSoC4/UART_DEB.c **** *
 142:.\Generated_Source\PSoC4/UART_DEB.c **** * Return:
 143:.\Generated_Source\PSoC4/UART_DEB.c **** *  None
 144:.\Generated_Source\PSoC4/UART_DEB.c **** *
 145:.\Generated_Source\PSoC4/UART_DEB.c **** *******************************************************************************/
 146:.\Generated_Source\PSoC4/UART_DEB.c **** void UART_DEB_Enable(void)
 147:.\Generated_Source\PSoC4/UART_DEB.c **** {
  49              		.loc 1 147 0
  50              		.cfi_startproc
 148:.\Generated_Source\PSoC4/UART_DEB.c **** #if (UART_DEB_SCB_MODE_UNCONFIG_CONST_CFG)
 149:.\Generated_Source\PSoC4/UART_DEB.c ****     /* Enable SCB block, only if it is already configured */
 150:.\Generated_Source\PSoC4/UART_DEB.c ****     if (!UART_DEB_SCB_MODE_UNCONFIG_RUNTM_CFG)
 151:.\Generated_Source\PSoC4/UART_DEB.c ****     {
 152:.\Generated_Source\PSoC4/UART_DEB.c ****         UART_DEB_CTRL_REG |= UART_DEB_CTRL_ENABLED;
 153:.\Generated_Source\PSoC4/UART_DEB.c **** 
 154:.\Generated_Source\PSoC4/UART_DEB.c ****         UART_DEB_ScbEnableIntr();
 155:.\Generated_Source\PSoC4/UART_DEB.c **** 
 156:.\Generated_Source\PSoC4/UART_DEB.c ****         /* Call PostEnable function specific to current operation mode */
 157:.\Generated_Source\PSoC4/UART_DEB.c ****         UART_DEB_ScbModePostEnable();
 158:.\Generated_Source\PSoC4/UART_DEB.c ****     }
 159:.\Generated_Source\PSoC4/UART_DEB.c **** #else
 160:.\Generated_Source\PSoC4/UART_DEB.c ****     UART_DEB_CTRL_REG |= UART_DEB_CTRL_ENABLED;
  51              		.loc 1 160 0
  52 0000 8021     		mov	r1, #128
  53 0002 044A     		ldr	r2, .L3
 147:.\Generated_Source\PSoC4/UART_DEB.c **** #if (UART_DEB_SCB_MODE_UNCONFIG_CONST_CFG)
  54              		.loc 1 147 0
  55 0004 08B5     		push	{r3, lr}
  56              		.cfi_def_cfa_offset 8
  57              		.cfi_offset 3, -8
  58              		.cfi_offset 14, -4
  59              		.loc 1 160 0
  60 0006 1368     		ldr	r3, [r2]
  61 0008 0906     		lsl	r1, r1, #24
  62 000a 0B43     		orr	r3, r1
  63 000c 1360     		str	r3, [r2]
  64              	.LBB10:
  65              	.LBB11:
 161:.\Generated_Source\PSoC4/UART_DEB.c **** 
 162:.\Generated_Source\PSoC4/UART_DEB.c ****     UART_DEB_ScbEnableIntr();
ARM GAS  C:\Users\mohammed\AppData\Local\Temp\cckEOzaj.s 			page 5


 163:.\Generated_Source\PSoC4/UART_DEB.c **** 
 164:.\Generated_Source\PSoC4/UART_DEB.c ****     /* Call PostEnable function specific to current operation mode */
 165:.\Generated_Source\PSoC4/UART_DEB.c ****     UART_DEB_ScbModePostEnable();
 166:.\Generated_Source\PSoC4/UART_DEB.c **** #endif /* (UART_DEB_SCB_MODE_UNCONFIG_CONST_CFG) */
 167:.\Generated_Source\PSoC4/UART_DEB.c **** }
 168:.\Generated_Source\PSoC4/UART_DEB.c **** 
 169:.\Generated_Source\PSoC4/UART_DEB.c **** 
 170:.\Generated_Source\PSoC4/UART_DEB.c **** /*******************************************************************************
 171:.\Generated_Source\PSoC4/UART_DEB.c **** * Function Name: UART_DEB_Start
 172:.\Generated_Source\PSoC4/UART_DEB.c **** ********************************************************************************
 173:.\Generated_Source\PSoC4/UART_DEB.c **** *
 174:.\Generated_Source\PSoC4/UART_DEB.c **** * Summary:
 175:.\Generated_Source\PSoC4/UART_DEB.c **** *  Invokes SCB_Init() and SCB_Enable().
 176:.\Generated_Source\PSoC4/UART_DEB.c **** *  After this function call, the component is enabled and ready for operation.
 177:.\Generated_Source\PSoC4/UART_DEB.c **** *  When configuration is set to "Unconfigured SCB", the component must first be
 178:.\Generated_Source\PSoC4/UART_DEB.c **** *  initialized to operate in one of the following configurations: I2C, SPI, UART
 179:.\Generated_Source\PSoC4/UART_DEB.c **** *  or EZ I2C. Otherwise this function does not enable the component.
 180:.\Generated_Source\PSoC4/UART_DEB.c **** *
 181:.\Generated_Source\PSoC4/UART_DEB.c **** * Parameters:
 182:.\Generated_Source\PSoC4/UART_DEB.c **** *  None
 183:.\Generated_Source\PSoC4/UART_DEB.c **** *
 184:.\Generated_Source\PSoC4/UART_DEB.c **** * Return:
 185:.\Generated_Source\PSoC4/UART_DEB.c **** *  None
 186:.\Generated_Source\PSoC4/UART_DEB.c **** *
 187:.\Generated_Source\PSoC4/UART_DEB.c **** * Global variables:
 188:.\Generated_Source\PSoC4/UART_DEB.c **** *  UART_DEB_initVar - used to check initial configuration, modified
 189:.\Generated_Source\PSoC4/UART_DEB.c **** *  on first function call.
 190:.\Generated_Source\PSoC4/UART_DEB.c **** *
 191:.\Generated_Source\PSoC4/UART_DEB.c **** *******************************************************************************/
 192:.\Generated_Source\PSoC4/UART_DEB.c **** void UART_DEB_Start(void)
 193:.\Generated_Source\PSoC4/UART_DEB.c **** {
 194:.\Generated_Source\PSoC4/UART_DEB.c ****     if (0u == UART_DEB_initVar)
 195:.\Generated_Source\PSoC4/UART_DEB.c ****     {
 196:.\Generated_Source\PSoC4/UART_DEB.c ****         UART_DEB_Init();
 197:.\Generated_Source\PSoC4/UART_DEB.c ****         UART_DEB_initVar = 1u; /* Component was initialized */
 198:.\Generated_Source\PSoC4/UART_DEB.c ****     }
 199:.\Generated_Source\PSoC4/UART_DEB.c **** 
 200:.\Generated_Source\PSoC4/UART_DEB.c ****     UART_DEB_Enable();
 201:.\Generated_Source\PSoC4/UART_DEB.c **** }
 202:.\Generated_Source\PSoC4/UART_DEB.c **** 
 203:.\Generated_Source\PSoC4/UART_DEB.c **** 
 204:.\Generated_Source\PSoC4/UART_DEB.c **** /*******************************************************************************
 205:.\Generated_Source\PSoC4/UART_DEB.c **** * Function Name: UART_DEB_Stop
 206:.\Generated_Source\PSoC4/UART_DEB.c **** ********************************************************************************
 207:.\Generated_Source\PSoC4/UART_DEB.c **** *
 208:.\Generated_Source\PSoC4/UART_DEB.c **** * Summary:
 209:.\Generated_Source\PSoC4/UART_DEB.c **** *  Disables the SCB component and its interrupt.
 210:.\Generated_Source\PSoC4/UART_DEB.c **** *  It also disables all TX interrupt sources so as not to cause an unexpected
 211:.\Generated_Source\PSoC4/UART_DEB.c **** *  interrupt trigger because after the component is enabled, the TX FIFO 
 212:.\Generated_Source\PSoC4/UART_DEB.c **** *  is empty.
 213:.\Generated_Source\PSoC4/UART_DEB.c **** *
 214:.\Generated_Source\PSoC4/UART_DEB.c **** * Parameters:
 215:.\Generated_Source\PSoC4/UART_DEB.c **** *  None
 216:.\Generated_Source\PSoC4/UART_DEB.c **** *
 217:.\Generated_Source\PSoC4/UART_DEB.c **** * Return:
 218:.\Generated_Source\PSoC4/UART_DEB.c **** *  None
 219:.\Generated_Source\PSoC4/UART_DEB.c **** * 
ARM GAS  C:\Users\mohammed\AppData\Local\Temp\cckEOzaj.s 			page 6


 220:.\Generated_Source\PSoC4/UART_DEB.c **** *******************************************************************************/
 221:.\Generated_Source\PSoC4/UART_DEB.c **** void UART_DEB_Stop(void)
 222:.\Generated_Source\PSoC4/UART_DEB.c **** {
 223:.\Generated_Source\PSoC4/UART_DEB.c **** #if (UART_DEB_SCB_IRQ_INTERNAL)
 224:.\Generated_Source\PSoC4/UART_DEB.c ****     UART_DEB_DisableInt();
 225:.\Generated_Source\PSoC4/UART_DEB.c **** #endif /* (UART_DEB_SCB_IRQ_INTERNAL) */
 226:.\Generated_Source\PSoC4/UART_DEB.c **** 
 227:.\Generated_Source\PSoC4/UART_DEB.c ****     /* Call Stop function specific to current operation mode */
 228:.\Generated_Source\PSoC4/UART_DEB.c ****     UART_DEB_ScbModeStop();
 229:.\Generated_Source\PSoC4/UART_DEB.c **** 
 230:.\Generated_Source\PSoC4/UART_DEB.c ****     /* Disable SCB IP */
 231:.\Generated_Source\PSoC4/UART_DEB.c ****     UART_DEB_CTRL_REG &= (uint32) ~UART_DEB_CTRL_ENABLED;
 232:.\Generated_Source\PSoC4/UART_DEB.c **** 
 233:.\Generated_Source\PSoC4/UART_DEB.c ****     /* Disable all TX interrupt sources so as not to cause an unexpected
 234:.\Generated_Source\PSoC4/UART_DEB.c ****     * interrupt trigger because after the component is enabled, the TX FIFO
 235:.\Generated_Source\PSoC4/UART_DEB.c ****     * is empty.
 236:.\Generated_Source\PSoC4/UART_DEB.c ****     * For SCB IP v0, it is critical as it does not mask-out interrupt
 237:.\Generated_Source\PSoC4/UART_DEB.c ****     * sources when they are disabled. This can cause a code lock-up in the
 238:.\Generated_Source\PSoC4/UART_DEB.c ****     * interrupt handler because TX FIFO cannot be loaded after the block
 239:.\Generated_Source\PSoC4/UART_DEB.c ****     * is disabled.
 240:.\Generated_Source\PSoC4/UART_DEB.c ****     */
 241:.\Generated_Source\PSoC4/UART_DEB.c ****     UART_DEB_SetTxInterruptMode(UART_DEB_NO_INTR_SOURCES);
 242:.\Generated_Source\PSoC4/UART_DEB.c **** 
 243:.\Generated_Source\PSoC4/UART_DEB.c **** #if (UART_DEB_SCB_IRQ_INTERNAL)
 244:.\Generated_Source\PSoC4/UART_DEB.c ****     UART_DEB_ClearPendingInt();
 245:.\Generated_Source\PSoC4/UART_DEB.c **** #endif /* (UART_DEB_SCB_IRQ_INTERNAL) */
 246:.\Generated_Source\PSoC4/UART_DEB.c **** }
 247:.\Generated_Source\PSoC4/UART_DEB.c **** 
 248:.\Generated_Source\PSoC4/UART_DEB.c **** 
 249:.\Generated_Source\PSoC4/UART_DEB.c **** /*******************************************************************************
 250:.\Generated_Source\PSoC4/UART_DEB.c **** * Function Name: UART_DEB_SetRxFifoLevel
 251:.\Generated_Source\PSoC4/UART_DEB.c **** ********************************************************************************
 252:.\Generated_Source\PSoC4/UART_DEB.c **** *
 253:.\Generated_Source\PSoC4/UART_DEB.c **** * Summary:
 254:.\Generated_Source\PSoC4/UART_DEB.c **** *  Sets level in the RX FIFO to generate a RX level interrupt.
 255:.\Generated_Source\PSoC4/UART_DEB.c **** *  When the RX FIFO has more entries than the RX FIFO level an RX level
 256:.\Generated_Source\PSoC4/UART_DEB.c **** *  interrupt request is generated.
 257:.\Generated_Source\PSoC4/UART_DEB.c **** *
 258:.\Generated_Source\PSoC4/UART_DEB.c **** * Parameters:
 259:.\Generated_Source\PSoC4/UART_DEB.c **** *  level: Level in the RX FIFO to generate RX level interrupt.
 260:.\Generated_Source\PSoC4/UART_DEB.c **** *         The range of valid level values is between 0 and RX FIFO depth - 1.
 261:.\Generated_Source\PSoC4/UART_DEB.c **** *
 262:.\Generated_Source\PSoC4/UART_DEB.c **** * Return:
 263:.\Generated_Source\PSoC4/UART_DEB.c **** *  None
 264:.\Generated_Source\PSoC4/UART_DEB.c **** *
 265:.\Generated_Source\PSoC4/UART_DEB.c **** *******************************************************************************/
 266:.\Generated_Source\PSoC4/UART_DEB.c **** void UART_DEB_SetRxFifoLevel(uint32 level)
 267:.\Generated_Source\PSoC4/UART_DEB.c **** {
 268:.\Generated_Source\PSoC4/UART_DEB.c ****     uint32 rxFifoCtrl;
 269:.\Generated_Source\PSoC4/UART_DEB.c **** 
 270:.\Generated_Source\PSoC4/UART_DEB.c ****     rxFifoCtrl = UART_DEB_RX_FIFO_CTRL_REG;
 271:.\Generated_Source\PSoC4/UART_DEB.c **** 
 272:.\Generated_Source\PSoC4/UART_DEB.c ****     rxFifoCtrl &= ((uint32) ~UART_DEB_RX_FIFO_CTRL_TRIGGER_LEVEL_MASK); /* Clear level mask bits */
 273:.\Generated_Source\PSoC4/UART_DEB.c ****     rxFifoCtrl |= ((uint32) (UART_DEB_RX_FIFO_CTRL_TRIGGER_LEVEL_MASK & level));
 274:.\Generated_Source\PSoC4/UART_DEB.c **** 
 275:.\Generated_Source\PSoC4/UART_DEB.c ****     UART_DEB_RX_FIFO_CTRL_REG = rxFifoCtrl;
 276:.\Generated_Source\PSoC4/UART_DEB.c **** }
ARM GAS  C:\Users\mohammed\AppData\Local\Temp\cckEOzaj.s 			page 7


 277:.\Generated_Source\PSoC4/UART_DEB.c **** 
 278:.\Generated_Source\PSoC4/UART_DEB.c **** 
 279:.\Generated_Source\PSoC4/UART_DEB.c **** /*******************************************************************************
 280:.\Generated_Source\PSoC4/UART_DEB.c **** * Function Name: UART_DEB_SetTxFifoLevel
 281:.\Generated_Source\PSoC4/UART_DEB.c **** ********************************************************************************
 282:.\Generated_Source\PSoC4/UART_DEB.c **** *
 283:.\Generated_Source\PSoC4/UART_DEB.c **** * Summary:
 284:.\Generated_Source\PSoC4/UART_DEB.c **** *  Sets level in the TX FIFO to generate a TX level interrupt.
 285:.\Generated_Source\PSoC4/UART_DEB.c **** *  When the TX FIFO has more entries than the TX FIFO level an TX level
 286:.\Generated_Source\PSoC4/UART_DEB.c **** *  interrupt request is generated.
 287:.\Generated_Source\PSoC4/UART_DEB.c **** *
 288:.\Generated_Source\PSoC4/UART_DEB.c **** * Parameters:
 289:.\Generated_Source\PSoC4/UART_DEB.c **** *  level: Level in the TX FIFO to generate TX level interrupt.
 290:.\Generated_Source\PSoC4/UART_DEB.c **** *         The range of valid level values is between 0 and TX FIFO depth - 1.
 291:.\Generated_Source\PSoC4/UART_DEB.c **** *
 292:.\Generated_Source\PSoC4/UART_DEB.c **** * Return:
 293:.\Generated_Source\PSoC4/UART_DEB.c **** *  None
 294:.\Generated_Source\PSoC4/UART_DEB.c **** *
 295:.\Generated_Source\PSoC4/UART_DEB.c **** *******************************************************************************/
 296:.\Generated_Source\PSoC4/UART_DEB.c **** void UART_DEB_SetTxFifoLevel(uint32 level)
 297:.\Generated_Source\PSoC4/UART_DEB.c **** {
 298:.\Generated_Source\PSoC4/UART_DEB.c ****     uint32 txFifoCtrl;
 299:.\Generated_Source\PSoC4/UART_DEB.c **** 
 300:.\Generated_Source\PSoC4/UART_DEB.c ****     txFifoCtrl = UART_DEB_TX_FIFO_CTRL_REG;
 301:.\Generated_Source\PSoC4/UART_DEB.c **** 
 302:.\Generated_Source\PSoC4/UART_DEB.c ****     txFifoCtrl &= ((uint32) ~UART_DEB_TX_FIFO_CTRL_TRIGGER_LEVEL_MASK); /* Clear level mask bits */
 303:.\Generated_Source\PSoC4/UART_DEB.c ****     txFifoCtrl |= ((uint32) (UART_DEB_TX_FIFO_CTRL_TRIGGER_LEVEL_MASK & level));
 304:.\Generated_Source\PSoC4/UART_DEB.c **** 
 305:.\Generated_Source\PSoC4/UART_DEB.c ****     UART_DEB_TX_FIFO_CTRL_REG = txFifoCtrl;
 306:.\Generated_Source\PSoC4/UART_DEB.c **** }
 307:.\Generated_Source\PSoC4/UART_DEB.c **** 
 308:.\Generated_Source\PSoC4/UART_DEB.c **** 
 309:.\Generated_Source\PSoC4/UART_DEB.c **** #if (UART_DEB_SCB_IRQ_INTERNAL)
 310:.\Generated_Source\PSoC4/UART_DEB.c ****     /*******************************************************************************
 311:.\Generated_Source\PSoC4/UART_DEB.c ****     * Function Name: UART_DEB_SetCustomInterruptHandler
 312:.\Generated_Source\PSoC4/UART_DEB.c ****     ********************************************************************************
 313:.\Generated_Source\PSoC4/UART_DEB.c ****     *
 314:.\Generated_Source\PSoC4/UART_DEB.c ****     * Summary:
 315:.\Generated_Source\PSoC4/UART_DEB.c ****     *  Registers a function to be called by the internal interrupt handler.
 316:.\Generated_Source\PSoC4/UART_DEB.c ****     *  First the function that is registered is called, then the internal interrupt
 317:.\Generated_Source\PSoC4/UART_DEB.c ****     *  handler performs any operation such as software buffer management functions
 318:.\Generated_Source\PSoC4/UART_DEB.c ****     *  before the interrupt returns.  It is the user's responsibility not to break
 319:.\Generated_Source\PSoC4/UART_DEB.c ****     *  the software buffer operations. Only one custom handler is supported, which
 320:.\Generated_Source\PSoC4/UART_DEB.c ****     *  is the function provided by the most recent call.
 321:.\Generated_Source\PSoC4/UART_DEB.c ****     *  At the initialization time no custom handler is registered.
 322:.\Generated_Source\PSoC4/UART_DEB.c ****     *
 323:.\Generated_Source\PSoC4/UART_DEB.c ****     * Parameters:
 324:.\Generated_Source\PSoC4/UART_DEB.c ****     *  func: Pointer to the function to register.
 325:.\Generated_Source\PSoC4/UART_DEB.c ****     *        The value NULL indicates to remove the current custom interrupt
 326:.\Generated_Source\PSoC4/UART_DEB.c ****     *        handler.
 327:.\Generated_Source\PSoC4/UART_DEB.c ****     *
 328:.\Generated_Source\PSoC4/UART_DEB.c ****     * Return:
 329:.\Generated_Source\PSoC4/UART_DEB.c ****     *  None
 330:.\Generated_Source\PSoC4/UART_DEB.c ****     *
 331:.\Generated_Source\PSoC4/UART_DEB.c ****     *******************************************************************************/
 332:.\Generated_Source\PSoC4/UART_DEB.c ****     void UART_DEB_SetCustomInterruptHandler(void (*func)(void))
 333:.\Generated_Source\PSoC4/UART_DEB.c ****     {
ARM GAS  C:\Users\mohammed\AppData\Local\Temp\cckEOzaj.s 			page 8


 334:.\Generated_Source\PSoC4/UART_DEB.c ****     #if !defined (CY_REMOVE_UART_DEB_CUSTOM_INTR_HANDLER)
 335:.\Generated_Source\PSoC4/UART_DEB.c ****         UART_DEB_customIntrHandler = func; /* Register interrupt handler */
 336:.\Generated_Source\PSoC4/UART_DEB.c ****     #else
 337:.\Generated_Source\PSoC4/UART_DEB.c ****         if (NULL != func)
 338:.\Generated_Source\PSoC4/UART_DEB.c ****         {
 339:.\Generated_Source\PSoC4/UART_DEB.c ****             /* Suppress compiler warning */
 340:.\Generated_Source\PSoC4/UART_DEB.c ****         }
 341:.\Generated_Source\PSoC4/UART_DEB.c ****     #endif /* !defined (CY_REMOVE_UART_DEB_CUSTOM_INTR_HANDLER) */
 342:.\Generated_Source\PSoC4/UART_DEB.c ****     }
 343:.\Generated_Source\PSoC4/UART_DEB.c **** #endif /* (UART_DEB_SCB_IRQ_INTERNAL) */
 344:.\Generated_Source\PSoC4/UART_DEB.c **** 
 345:.\Generated_Source\PSoC4/UART_DEB.c **** 
 346:.\Generated_Source\PSoC4/UART_DEB.c **** /*******************************************************************************
 347:.\Generated_Source\PSoC4/UART_DEB.c **** * Function Name: UART_DEB_ScbModeEnableIntr
 348:.\Generated_Source\PSoC4/UART_DEB.c **** ********************************************************************************
 349:.\Generated_Source\PSoC4/UART_DEB.c **** *
 350:.\Generated_Source\PSoC4/UART_DEB.c **** * Summary:
 351:.\Generated_Source\PSoC4/UART_DEB.c **** *  Enables an interrupt for a specific mode.
 352:.\Generated_Source\PSoC4/UART_DEB.c **** *
 353:.\Generated_Source\PSoC4/UART_DEB.c **** * Parameters:
 354:.\Generated_Source\PSoC4/UART_DEB.c **** *  None
 355:.\Generated_Source\PSoC4/UART_DEB.c **** *
 356:.\Generated_Source\PSoC4/UART_DEB.c **** * Return:
 357:.\Generated_Source\PSoC4/UART_DEB.c **** *  None
 358:.\Generated_Source\PSoC4/UART_DEB.c **** *
 359:.\Generated_Source\PSoC4/UART_DEB.c **** *******************************************************************************/
 360:.\Generated_Source\PSoC4/UART_DEB.c **** static void UART_DEB_ScbEnableIntr(void)
 361:.\Generated_Source\PSoC4/UART_DEB.c **** {
 362:.\Generated_Source\PSoC4/UART_DEB.c **** #if (UART_DEB_SCB_IRQ_INTERNAL)
 363:.\Generated_Source\PSoC4/UART_DEB.c ****     /* Enable interrupt in NVIC */
 364:.\Generated_Source\PSoC4/UART_DEB.c ****     #if (UART_DEB_SCB_MODE_UNCONFIG_CONST_CFG)
 365:.\Generated_Source\PSoC4/UART_DEB.c ****         if (0u != UART_DEB_scbEnableIntr)
 366:.\Generated_Source\PSoC4/UART_DEB.c ****         {
 367:.\Generated_Source\PSoC4/UART_DEB.c ****             UART_DEB_EnableInt();
 368:.\Generated_Source\PSoC4/UART_DEB.c ****         }
 369:.\Generated_Source\PSoC4/UART_DEB.c **** 
 370:.\Generated_Source\PSoC4/UART_DEB.c ****     #else
 371:.\Generated_Source\PSoC4/UART_DEB.c ****         UART_DEB_EnableInt();
 372:.\Generated_Source\PSoC4/UART_DEB.c **** 
 373:.\Generated_Source\PSoC4/UART_DEB.c ****     #endif /* (UART_DEB_SCB_MODE_UNCONFIG_CONST_CFG) */
 374:.\Generated_Source\PSoC4/UART_DEB.c **** #endif /* (UART_DEB_SCB_IRQ_INTERNAL) */
 375:.\Generated_Source\PSoC4/UART_DEB.c **** }
 376:.\Generated_Source\PSoC4/UART_DEB.c **** 
 377:.\Generated_Source\PSoC4/UART_DEB.c **** 
 378:.\Generated_Source\PSoC4/UART_DEB.c **** /*******************************************************************************
 379:.\Generated_Source\PSoC4/UART_DEB.c **** * Function Name: UART_DEB_ScbModePostEnable
 380:.\Generated_Source\PSoC4/UART_DEB.c **** ********************************************************************************
 381:.\Generated_Source\PSoC4/UART_DEB.c **** *
 382:.\Generated_Source\PSoC4/UART_DEB.c **** * Summary:
 383:.\Generated_Source\PSoC4/UART_DEB.c **** *  Calls the PostEnable function for a specific operation mode.
 384:.\Generated_Source\PSoC4/UART_DEB.c **** *
 385:.\Generated_Source\PSoC4/UART_DEB.c **** * Parameters:
 386:.\Generated_Source\PSoC4/UART_DEB.c **** *  None
 387:.\Generated_Source\PSoC4/UART_DEB.c **** *
 388:.\Generated_Source\PSoC4/UART_DEB.c **** * Return:
 389:.\Generated_Source\PSoC4/UART_DEB.c **** *  None
 390:.\Generated_Source\PSoC4/UART_DEB.c **** *
ARM GAS  C:\Users\mohammed\AppData\Local\Temp\cckEOzaj.s 			page 9


 391:.\Generated_Source\PSoC4/UART_DEB.c **** *******************************************************************************/
 392:.\Generated_Source\PSoC4/UART_DEB.c **** static void UART_DEB_ScbModePostEnable(void)
 393:.\Generated_Source\PSoC4/UART_DEB.c **** {
 394:.\Generated_Source\PSoC4/UART_DEB.c **** #if (UART_DEB_SCB_MODE_UNCONFIG_CONST_CFG)
 395:.\Generated_Source\PSoC4/UART_DEB.c **** #if (!UART_DEB_CY_SCBIP_V1)
 396:.\Generated_Source\PSoC4/UART_DEB.c ****     if (UART_DEB_SCB_MODE_SPI_RUNTM_CFG)
 397:.\Generated_Source\PSoC4/UART_DEB.c ****     {
 398:.\Generated_Source\PSoC4/UART_DEB.c ****         UART_DEB_SpiPostEnable();
 399:.\Generated_Source\PSoC4/UART_DEB.c ****     }
 400:.\Generated_Source\PSoC4/UART_DEB.c ****     else if (UART_DEB_SCB_MODE_UART_RUNTM_CFG)
 401:.\Generated_Source\PSoC4/UART_DEB.c ****     {
 402:.\Generated_Source\PSoC4/UART_DEB.c ****         UART_DEB_UartPostEnable();
 403:.\Generated_Source\PSoC4/UART_DEB.c ****     }
 404:.\Generated_Source\PSoC4/UART_DEB.c ****     else
 405:.\Generated_Source\PSoC4/UART_DEB.c ****     {
 406:.\Generated_Source\PSoC4/UART_DEB.c ****         /* Unknown mode: do nothing */
 407:.\Generated_Source\PSoC4/UART_DEB.c ****     }
 408:.\Generated_Source\PSoC4/UART_DEB.c **** #endif /* (!UART_DEB_CY_SCBIP_V1) */
 409:.\Generated_Source\PSoC4/UART_DEB.c **** 
 410:.\Generated_Source\PSoC4/UART_DEB.c **** #elif (UART_DEB_SCB_MODE_SPI_CONST_CFG)
 411:.\Generated_Source\PSoC4/UART_DEB.c ****     UART_DEB_SpiPostEnable();
 412:.\Generated_Source\PSoC4/UART_DEB.c **** 
 413:.\Generated_Source\PSoC4/UART_DEB.c **** #elif (UART_DEB_SCB_MODE_UART_CONST_CFG)
 414:.\Generated_Source\PSoC4/UART_DEB.c ****     UART_DEB_UartPostEnable();
  66              		.loc 1 414 0
  67 000e FFF7FEFF 		bl	UART_DEB_UartPostEnable
  68              	.LVL1:
  69              	.LBE11:
  70              	.LBE10:
 167:.\Generated_Source\PSoC4/UART_DEB.c **** 
  71              		.loc 1 167 0
  72              		@ sp needed
  73 0012 08BD     		pop	{r3, pc}
  74              	.L4:
  75              		.align	2
  76              	.L3:
  77 0014 00002440 		.word	1076101120
  78              		.cfi_endproc
  79              	.LFE3:
  80              		.size	UART_DEB_Enable, .-UART_DEB_Enable
  81              		.section	.text.UART_DEB_Start,"ax",%progbits
  82              		.align	1
  83              		.global	UART_DEB_Start
  84              		.code	16
  85              		.thumb_func
  86              		.type	UART_DEB_Start, %function
  87              	UART_DEB_Start:
  88              	.LFB4:
 193:.\Generated_Source\PSoC4/UART_DEB.c ****     if (0u == UART_DEB_initVar)
  89              		.loc 1 193 0
  90              		.cfi_startproc
  91 0000 10B5     		push	{r4, lr}
  92              		.cfi_def_cfa_offset 8
  93              		.cfi_offset 4, -8
  94              		.cfi_offset 14, -4
 194:.\Generated_Source\PSoC4/UART_DEB.c ****     {
  95              		.loc 1 194 0
ARM GAS  C:\Users\mohammed\AppData\Local\Temp\cckEOzaj.s 			page 10


  96 0002 054C     		ldr	r4, .L8
  97 0004 2378     		ldrb	r3, [r4]
  98 0006 002B     		cmp	r3, #0
  99 0008 03D1     		bne	.L6
 100              	.LBB12:
 101              	.LBB13:
 121:.\Generated_Source\PSoC4/UART_DEB.c **** 
 102              		.loc 1 121 0
 103 000a FFF7FEFF 		bl	UART_DEB_UartInit
 104              	.LVL2:
 105              	.LBE13:
 106              	.LBE12:
 197:.\Generated_Source\PSoC4/UART_DEB.c ****     }
 107              		.loc 1 197 0
 108 000e 0123     		mov	r3, #1
 109 0010 2370     		strb	r3, [r4]
 110              	.L6:
 200:.\Generated_Source\PSoC4/UART_DEB.c **** }
 111              		.loc 1 200 0
 112 0012 FFF7FEFF 		bl	UART_DEB_Enable
 113              	.LVL3:
 201:.\Generated_Source\PSoC4/UART_DEB.c **** 
 114              		.loc 1 201 0
 115              		@ sp needed
 116 0016 10BD     		pop	{r4, pc}
 117              	.L9:
 118              		.align	2
 119              	.L8:
 120 0018 00000000 		.word	.LANCHOR0
 121              		.cfi_endproc
 122              	.LFE4:
 123              		.size	UART_DEB_Start, .-UART_DEB_Start
 124              		.section	.text.UART_DEB_Stop,"ax",%progbits
 125              		.align	1
 126              		.global	UART_DEB_Stop
 127              		.code	16
 128              		.thumb_func
 129              		.type	UART_DEB_Stop, %function
 130              	UART_DEB_Stop:
 131              	.LFB5:
 222:.\Generated_Source\PSoC4/UART_DEB.c **** #if (UART_DEB_SCB_IRQ_INTERNAL)
 132              		.loc 1 222 0
 133              		.cfi_startproc
 134 0000 08B5     		push	{r3, lr}
 135              		.cfi_def_cfa_offset 8
 136              		.cfi_offset 3, -8
 137              		.cfi_offset 14, -4
 138              	.LBB14:
 139              	.LBB15:
 415:.\Generated_Source\PSoC4/UART_DEB.c **** 
 416:.\Generated_Source\PSoC4/UART_DEB.c **** #else
 417:.\Generated_Source\PSoC4/UART_DEB.c ****     /* Unknown mode: do nothing */
 418:.\Generated_Source\PSoC4/UART_DEB.c **** #endif /* (UART_DEB_SCB_MODE_UNCONFIG_CONST_CFG) */
 419:.\Generated_Source\PSoC4/UART_DEB.c **** }
 420:.\Generated_Source\PSoC4/UART_DEB.c **** 
 421:.\Generated_Source\PSoC4/UART_DEB.c **** 
 422:.\Generated_Source\PSoC4/UART_DEB.c **** /*******************************************************************************
ARM GAS  C:\Users\mohammed\AppData\Local\Temp\cckEOzaj.s 			page 11


 423:.\Generated_Source\PSoC4/UART_DEB.c **** * Function Name: UART_DEB_ScbModeStop
 424:.\Generated_Source\PSoC4/UART_DEB.c **** ********************************************************************************
 425:.\Generated_Source\PSoC4/UART_DEB.c **** *
 426:.\Generated_Source\PSoC4/UART_DEB.c **** * Summary:
 427:.\Generated_Source\PSoC4/UART_DEB.c **** *  Calls the Stop function for a specific operation mode.
 428:.\Generated_Source\PSoC4/UART_DEB.c **** *
 429:.\Generated_Source\PSoC4/UART_DEB.c **** * Parameters:
 430:.\Generated_Source\PSoC4/UART_DEB.c **** *  None
 431:.\Generated_Source\PSoC4/UART_DEB.c **** *
 432:.\Generated_Source\PSoC4/UART_DEB.c **** * Return:
 433:.\Generated_Source\PSoC4/UART_DEB.c **** *  None
 434:.\Generated_Source\PSoC4/UART_DEB.c **** *
 435:.\Generated_Source\PSoC4/UART_DEB.c **** *******************************************************************************/
 436:.\Generated_Source\PSoC4/UART_DEB.c **** static void UART_DEB_ScbModeStop(void)
 437:.\Generated_Source\PSoC4/UART_DEB.c **** {
 438:.\Generated_Source\PSoC4/UART_DEB.c **** #if (UART_DEB_SCB_MODE_UNCONFIG_CONST_CFG)
 439:.\Generated_Source\PSoC4/UART_DEB.c ****     if (UART_DEB_SCB_MODE_I2C_RUNTM_CFG)
 440:.\Generated_Source\PSoC4/UART_DEB.c ****     {
 441:.\Generated_Source\PSoC4/UART_DEB.c ****         UART_DEB_I2CStop();
 442:.\Generated_Source\PSoC4/UART_DEB.c ****     }
 443:.\Generated_Source\PSoC4/UART_DEB.c ****     else if (UART_DEB_SCB_MODE_EZI2C_RUNTM_CFG)
 444:.\Generated_Source\PSoC4/UART_DEB.c ****     {
 445:.\Generated_Source\PSoC4/UART_DEB.c ****         UART_DEB_EzI2CStop();
 446:.\Generated_Source\PSoC4/UART_DEB.c ****     }
 447:.\Generated_Source\PSoC4/UART_DEB.c **** #if (!UART_DEB_CY_SCBIP_V1)
 448:.\Generated_Source\PSoC4/UART_DEB.c ****     else if (UART_DEB_SCB_MODE_SPI_RUNTM_CFG)
 449:.\Generated_Source\PSoC4/UART_DEB.c ****     {
 450:.\Generated_Source\PSoC4/UART_DEB.c ****         UART_DEB_SpiStop();
 451:.\Generated_Source\PSoC4/UART_DEB.c ****     }
 452:.\Generated_Source\PSoC4/UART_DEB.c ****     else if (UART_DEB_SCB_MODE_UART_RUNTM_CFG)
 453:.\Generated_Source\PSoC4/UART_DEB.c ****     {
 454:.\Generated_Source\PSoC4/UART_DEB.c ****         UART_DEB_UartStop();
 455:.\Generated_Source\PSoC4/UART_DEB.c ****     }
 456:.\Generated_Source\PSoC4/UART_DEB.c **** #endif /* (!UART_DEB_CY_SCBIP_V1) */
 457:.\Generated_Source\PSoC4/UART_DEB.c ****     else
 458:.\Generated_Source\PSoC4/UART_DEB.c ****     {
 459:.\Generated_Source\PSoC4/UART_DEB.c ****         /* Unknown mode: do nothing */
 460:.\Generated_Source\PSoC4/UART_DEB.c ****     }
 461:.\Generated_Source\PSoC4/UART_DEB.c **** #elif (UART_DEB_SCB_MODE_I2C_CONST_CFG)
 462:.\Generated_Source\PSoC4/UART_DEB.c ****     UART_DEB_I2CStop();
 463:.\Generated_Source\PSoC4/UART_DEB.c **** 
 464:.\Generated_Source\PSoC4/UART_DEB.c **** #elif (UART_DEB_SCB_MODE_EZI2C_CONST_CFG)
 465:.\Generated_Source\PSoC4/UART_DEB.c ****     UART_DEB_EzI2CStop();
 466:.\Generated_Source\PSoC4/UART_DEB.c **** 
 467:.\Generated_Source\PSoC4/UART_DEB.c **** #elif (UART_DEB_SCB_MODE_SPI_CONST_CFG)
 468:.\Generated_Source\PSoC4/UART_DEB.c ****     UART_DEB_SpiStop();
 469:.\Generated_Source\PSoC4/UART_DEB.c **** 
 470:.\Generated_Source\PSoC4/UART_DEB.c **** #elif (UART_DEB_SCB_MODE_UART_CONST_CFG)
 471:.\Generated_Source\PSoC4/UART_DEB.c ****     UART_DEB_UartStop();
 140              		.loc 1 471 0
 141 0002 FFF7FEFF 		bl	UART_DEB_UartStop
 142              	.LVL4:
 143              	.LBE15:
 144              	.LBE14:
 231:.\Generated_Source\PSoC4/UART_DEB.c **** 
 145              		.loc 1 231 0
 146 0006 044A     		ldr	r2, .L11
ARM GAS  C:\Users\mohammed\AppData\Local\Temp\cckEOzaj.s 			page 12


 246:.\Generated_Source\PSoC4/UART_DEB.c **** 
 147              		.loc 1 246 0
 148              		@ sp needed
 231:.\Generated_Source\PSoC4/UART_DEB.c **** 
 149              		.loc 1 231 0
 150 0008 1368     		ldr	r3, [r2]
 151 000a 5B00     		lsl	r3, r3, #1
 152 000c 5B08     		lsr	r3, r3, #1
 153 000e 1360     		str	r3, [r2]
 241:.\Generated_Source\PSoC4/UART_DEB.c **** 
 154              		.loc 1 241 0
 155 0010 0022     		mov	r2, #0
 156 0012 024B     		ldr	r3, .L11+4
 157 0014 1A60     		str	r2, [r3]
 246:.\Generated_Source\PSoC4/UART_DEB.c **** 
 158              		.loc 1 246 0
 159 0016 08BD     		pop	{r3, pc}
 160              	.L12:
 161              		.align	2
 162              	.L11:
 163 0018 00002440 		.word	1076101120
 164 001c 880F2440 		.word	1076105096
 165              		.cfi_endproc
 166              	.LFE5:
 167              		.size	UART_DEB_Stop, .-UART_DEB_Stop
 168              		.section	.text.UART_DEB_SetRxFifoLevel,"ax",%progbits
 169              		.align	1
 170              		.global	UART_DEB_SetRxFifoLevel
 171              		.code	16
 172              		.thumb_func
 173              		.type	UART_DEB_SetRxFifoLevel, %function
 174              	UART_DEB_SetRxFifoLevel:
 175              	.LFB6:
 267:.\Generated_Source\PSoC4/UART_DEB.c ****     uint32 rxFifoCtrl;
 176              		.loc 1 267 0
 177              		.cfi_startproc
 178              	.LVL5:
 272:.\Generated_Source\PSoC4/UART_DEB.c ****     rxFifoCtrl |= ((uint32) (UART_DEB_RX_FIFO_CTRL_TRIGGER_LEVEL_MASK & level));
 179              		.loc 1 272 0
 180 0000 0F22     		mov	r2, #15
 270:.\Generated_Source\PSoC4/UART_DEB.c **** 
 181              		.loc 1 270 0
 182 0002 0349     		ldr	r1, .L14
 273:.\Generated_Source\PSoC4/UART_DEB.c **** 
 183              		.loc 1 273 0
 184 0004 1040     		and	r0, r2
 185              	.LVL6:
 270:.\Generated_Source\PSoC4/UART_DEB.c **** 
 186              		.loc 1 270 0
 187 0006 0B68     		ldr	r3, [r1]
 188              	.LVL7:
 276:.\Generated_Source\PSoC4/UART_DEB.c **** 
 189              		.loc 1 276 0
 190              		@ sp needed
 272:.\Generated_Source\PSoC4/UART_DEB.c ****     rxFifoCtrl |= ((uint32) (UART_DEB_RX_FIFO_CTRL_TRIGGER_LEVEL_MASK & level));
 191              		.loc 1 272 0
 192 0008 9343     		bic	r3, r2
ARM GAS  C:\Users\mohammed\AppData\Local\Temp\cckEOzaj.s 			page 13


 193              	.LVL8:
 273:.\Generated_Source\PSoC4/UART_DEB.c **** 
 194              		.loc 1 273 0
 195 000a 1843     		orr	r0, r3
 196              	.LVL9:
 275:.\Generated_Source\PSoC4/UART_DEB.c **** }
 197              		.loc 1 275 0
 198 000c 0860     		str	r0, [r1]
 276:.\Generated_Source\PSoC4/UART_DEB.c **** 
 199              		.loc 1 276 0
 200 000e 7047     		bx	lr
 201              	.L15:
 202              		.align	2
 203              	.L14:
 204 0010 04032440 		.word	1076101892
 205              		.cfi_endproc
 206              	.LFE6:
 207              		.size	UART_DEB_SetRxFifoLevel, .-UART_DEB_SetRxFifoLevel
 208              		.section	.text.UART_DEB_SetTxFifoLevel,"ax",%progbits
 209              		.align	1
 210              		.global	UART_DEB_SetTxFifoLevel
 211              		.code	16
 212              		.thumb_func
 213              		.type	UART_DEB_SetTxFifoLevel, %function
 214              	UART_DEB_SetTxFifoLevel:
 215              	.LFB7:
 297:.\Generated_Source\PSoC4/UART_DEB.c ****     uint32 txFifoCtrl;
 216              		.loc 1 297 0
 217              		.cfi_startproc
 218              	.LVL10:
 302:.\Generated_Source\PSoC4/UART_DEB.c ****     txFifoCtrl |= ((uint32) (UART_DEB_TX_FIFO_CTRL_TRIGGER_LEVEL_MASK & level));
 219              		.loc 1 302 0
 220 0000 0F22     		mov	r2, #15
 300:.\Generated_Source\PSoC4/UART_DEB.c **** 
 221              		.loc 1 300 0
 222 0002 0349     		ldr	r1, .L17
 303:.\Generated_Source\PSoC4/UART_DEB.c **** 
 223              		.loc 1 303 0
 224 0004 1040     		and	r0, r2
 225              	.LVL11:
 300:.\Generated_Source\PSoC4/UART_DEB.c **** 
 226              		.loc 1 300 0
 227 0006 0B68     		ldr	r3, [r1]
 228              	.LVL12:
 306:.\Generated_Source\PSoC4/UART_DEB.c **** 
 229              		.loc 1 306 0
 230              		@ sp needed
 302:.\Generated_Source\PSoC4/UART_DEB.c ****     txFifoCtrl |= ((uint32) (UART_DEB_TX_FIFO_CTRL_TRIGGER_LEVEL_MASK & level));
 231              		.loc 1 302 0
 232 0008 9343     		bic	r3, r2
 233              	.LVL13:
 303:.\Generated_Source\PSoC4/UART_DEB.c **** 
 234              		.loc 1 303 0
 235 000a 1843     		orr	r0, r3
 236              	.LVL14:
 305:.\Generated_Source\PSoC4/UART_DEB.c **** }
 237              		.loc 1 305 0
ARM GAS  C:\Users\mohammed\AppData\Local\Temp\cckEOzaj.s 			page 14


 238 000c 0860     		str	r0, [r1]
 306:.\Generated_Source\PSoC4/UART_DEB.c **** 
 239              		.loc 1 306 0
 240 000e 7047     		bx	lr
 241              	.L18:
 242              		.align	2
 243              	.L17:
 244 0010 04022440 		.word	1076101636
 245              		.cfi_endproc
 246              	.LFE7:
 247              		.size	UART_DEB_SetTxFifoLevel, .-UART_DEB_SetTxFifoLevel
 248              		.global	UART_DEB_initVar
 249              		.bss
 250              		.set	.LANCHOR0,. + 0
 251              		.type	UART_DEB_initVar, %object
 252              		.size	UART_DEB_initVar, 1
 253              	UART_DEB_initVar:
 254 0000 00       		.space	1
 255              		.text
 256              	.Letext0:
 257              		.file 2 "Generated_Source\\PSoC4/cytypes.h"
 258              		.file 3 ".\\Generated_Source\\PSoC4\\UART_DEB_SPI_UART_PVT.h"