ARM GAS  C:\Users\mohammed\AppData\Local\Temp\ccQQZNIO.s 			page 1


   1              		.cpu cortex-m0
   2              		.fpu softvfp
   3              		.eabi_attribute 20, 1
   4              		.eabi_attribute 21, 1
   5              		.eabi_attribute 23, 3
   6              		.eabi_attribute 24, 1
   7              		.eabi_attribute 25, 1
   8              		.eabi_attribute 26, 1
   9              		.eabi_attribute 30, 4
  10              		.eabi_attribute 34, 0
  11              		.eabi_attribute 18, 4
  12              		.code	16
  13              		.file	"UART_DEB_UART.c"
  14              		.text
  15              	.Ltext0:
  16              		.cfi_sections	.debug_frame
  17              		.section	.text.UART_DEB_UartInit,"ax",%progbits
  18              		.align	1
  19              		.global	UART_DEB_UartInit
  20              		.code	16
  21              		.thumb_func
  22              		.type	UART_DEB_UartInit, %function
  23              	UART_DEB_UartInit:
  24              	.LFB2:
  25              		.file 1 ".\\Generated_Source\\PSoC4\\UART_DEB_UART.c"
   1:.\Generated_Source\PSoC4/UART_DEB_UART.c **** /*******************************************************************************
   2:.\Generated_Source\PSoC4/UART_DEB_UART.c **** * File Name: UART_DEB_UART.c
   3:.\Generated_Source\PSoC4/UART_DEB_UART.c **** * Version 3.10
   4:.\Generated_Source\PSoC4/UART_DEB_UART.c **** *
   5:.\Generated_Source\PSoC4/UART_DEB_UART.c **** * Description:
   6:.\Generated_Source\PSoC4/UART_DEB_UART.c **** *  This file provides the source code to the API for the SCB Component in
   7:.\Generated_Source\PSoC4/UART_DEB_UART.c **** *  UART mode.
   8:.\Generated_Source\PSoC4/UART_DEB_UART.c **** *
   9:.\Generated_Source\PSoC4/UART_DEB_UART.c **** * Note:
  10:.\Generated_Source\PSoC4/UART_DEB_UART.c **** *
  11:.\Generated_Source\PSoC4/UART_DEB_UART.c **** *******************************************************************************
  12:.\Generated_Source\PSoC4/UART_DEB_UART.c **** * Copyright 2013-2015, Cypress Semiconductor Corporation.  All rights reserved.
  13:.\Generated_Source\PSoC4/UART_DEB_UART.c **** * You may use this file only in accordance with the license, terms, conditions,
  14:.\Generated_Source\PSoC4/UART_DEB_UART.c **** * disclaimers, and limitations in the end user license agreement accompanying
  15:.\Generated_Source\PSoC4/UART_DEB_UART.c **** * the software package with which this file was provided.
  16:.\Generated_Source\PSoC4/UART_DEB_UART.c **** *******************************************************************************/
  17:.\Generated_Source\PSoC4/UART_DEB_UART.c **** 
  18:.\Generated_Source\PSoC4/UART_DEB_UART.c **** #include "UART_DEB_PVT.h"
  19:.\Generated_Source\PSoC4/UART_DEB_UART.c **** #include "UART_DEB_SPI_UART_PVT.h"
  20:.\Generated_Source\PSoC4/UART_DEB_UART.c **** #include "cyapicallbacks.h"
  21:.\Generated_Source\PSoC4/UART_DEB_UART.c **** 
  22:.\Generated_Source\PSoC4/UART_DEB_UART.c **** #if(UART_DEB_SCB_MODE_UNCONFIG_CONST_CFG)
  23:.\Generated_Source\PSoC4/UART_DEB_UART.c **** 
  24:.\Generated_Source\PSoC4/UART_DEB_UART.c ****     /***************************************
  25:.\Generated_Source\PSoC4/UART_DEB_UART.c ****     *  Configuration Structure Initialization
  26:.\Generated_Source\PSoC4/UART_DEB_UART.c ****     ***************************************/
  27:.\Generated_Source\PSoC4/UART_DEB_UART.c **** 
  28:.\Generated_Source\PSoC4/UART_DEB_UART.c ****     const UART_DEB_UART_INIT_STRUCT UART_DEB_configUart =
  29:.\Generated_Source\PSoC4/UART_DEB_UART.c ****     {
  30:.\Generated_Source\PSoC4/UART_DEB_UART.c ****         UART_DEB_UART_SUB_MODE,
  31:.\Generated_Source\PSoC4/UART_DEB_UART.c ****         UART_DEB_UART_DIRECTION,
  32:.\Generated_Source\PSoC4/UART_DEB_UART.c ****         UART_DEB_UART_DATA_BITS_NUM,
ARM GAS  C:\Users\mohammed\AppData\Local\Temp\ccQQZNIO.s 			page 2


  33:.\Generated_Source\PSoC4/UART_DEB_UART.c ****         UART_DEB_UART_PARITY_TYPE,
  34:.\Generated_Source\PSoC4/UART_DEB_UART.c ****         UART_DEB_UART_STOP_BITS_NUM,
  35:.\Generated_Source\PSoC4/UART_DEB_UART.c ****         UART_DEB_UART_OVS_FACTOR,
  36:.\Generated_Source\PSoC4/UART_DEB_UART.c ****         UART_DEB_UART_IRDA_LOW_POWER,
  37:.\Generated_Source\PSoC4/UART_DEB_UART.c ****         UART_DEB_UART_MEDIAN_FILTER_ENABLE,
  38:.\Generated_Source\PSoC4/UART_DEB_UART.c ****         UART_DEB_UART_RETRY_ON_NACK,
  39:.\Generated_Source\PSoC4/UART_DEB_UART.c ****         UART_DEB_UART_IRDA_POLARITY,
  40:.\Generated_Source\PSoC4/UART_DEB_UART.c ****         UART_DEB_UART_DROP_ON_PARITY_ERR,
  41:.\Generated_Source\PSoC4/UART_DEB_UART.c ****         UART_DEB_UART_DROP_ON_FRAME_ERR,
  42:.\Generated_Source\PSoC4/UART_DEB_UART.c ****         UART_DEB_UART_WAKE_ENABLE,
  43:.\Generated_Source\PSoC4/UART_DEB_UART.c ****         0u,
  44:.\Generated_Source\PSoC4/UART_DEB_UART.c ****         NULL,
  45:.\Generated_Source\PSoC4/UART_DEB_UART.c ****         0u,
  46:.\Generated_Source\PSoC4/UART_DEB_UART.c ****         NULL,
  47:.\Generated_Source\PSoC4/UART_DEB_UART.c ****         UART_DEB_UART_MP_MODE_ENABLE,
  48:.\Generated_Source\PSoC4/UART_DEB_UART.c ****         UART_DEB_UART_MP_ACCEPT_ADDRESS,
  49:.\Generated_Source\PSoC4/UART_DEB_UART.c ****         UART_DEB_UART_MP_RX_ADDRESS,
  50:.\Generated_Source\PSoC4/UART_DEB_UART.c ****         UART_DEB_UART_MP_RX_ADDRESS_MASK,
  51:.\Generated_Source\PSoC4/UART_DEB_UART.c ****         (uint32) UART_DEB_SCB_IRQ_INTERNAL,
  52:.\Generated_Source\PSoC4/UART_DEB_UART.c ****         UART_DEB_UART_INTR_RX_MASK,
  53:.\Generated_Source\PSoC4/UART_DEB_UART.c ****         UART_DEB_UART_RX_TRIGGER_LEVEL,
  54:.\Generated_Source\PSoC4/UART_DEB_UART.c ****         UART_DEB_UART_INTR_TX_MASK,
  55:.\Generated_Source\PSoC4/UART_DEB_UART.c ****         UART_DEB_UART_TX_TRIGGER_LEVEL,
  56:.\Generated_Source\PSoC4/UART_DEB_UART.c ****         (uint8) UART_DEB_UART_BYTE_MODE_ENABLE,
  57:.\Generated_Source\PSoC4/UART_DEB_UART.c ****         (uint8) UART_DEB_UART_CTS_ENABLE,
  58:.\Generated_Source\PSoC4/UART_DEB_UART.c ****         (uint8) UART_DEB_UART_CTS_POLARITY,
  59:.\Generated_Source\PSoC4/UART_DEB_UART.c ****         (uint8) UART_DEB_UART_RTS_POLARITY,
  60:.\Generated_Source\PSoC4/UART_DEB_UART.c ****         (uint8) UART_DEB_UART_RTS_FIFO_LEVEL
  61:.\Generated_Source\PSoC4/UART_DEB_UART.c ****     };
  62:.\Generated_Source\PSoC4/UART_DEB_UART.c **** 
  63:.\Generated_Source\PSoC4/UART_DEB_UART.c **** 
  64:.\Generated_Source\PSoC4/UART_DEB_UART.c ****     /*******************************************************************************
  65:.\Generated_Source\PSoC4/UART_DEB_UART.c ****     * Function Name: UART_DEB_UartInit
  66:.\Generated_Source\PSoC4/UART_DEB_UART.c ****     ********************************************************************************
  67:.\Generated_Source\PSoC4/UART_DEB_UART.c ****     *
  68:.\Generated_Source\PSoC4/UART_DEB_UART.c ****     * Summary:
  69:.\Generated_Source\PSoC4/UART_DEB_UART.c ****     *  Configures the SCB for the UART operation.
  70:.\Generated_Source\PSoC4/UART_DEB_UART.c ****     *
  71:.\Generated_Source\PSoC4/UART_DEB_UART.c ****     * Parameters:
  72:.\Generated_Source\PSoC4/UART_DEB_UART.c ****     *  config:  Pointer to a structure that contains the following ordered list of
  73:.\Generated_Source\PSoC4/UART_DEB_UART.c ****     *           fields. These fields match the selections available in the
  74:.\Generated_Source\PSoC4/UART_DEB_UART.c ****     *           customizer.
  75:.\Generated_Source\PSoC4/UART_DEB_UART.c ****     *
  76:.\Generated_Source\PSoC4/UART_DEB_UART.c ****     * Return:
  77:.\Generated_Source\PSoC4/UART_DEB_UART.c ****     *  None
  78:.\Generated_Source\PSoC4/UART_DEB_UART.c ****     *
  79:.\Generated_Source\PSoC4/UART_DEB_UART.c ****     *******************************************************************************/
  80:.\Generated_Source\PSoC4/UART_DEB_UART.c ****     void UART_DEB_UartInit(const UART_DEB_UART_INIT_STRUCT *config)
  81:.\Generated_Source\PSoC4/UART_DEB_UART.c ****     {
  82:.\Generated_Source\PSoC4/UART_DEB_UART.c ****         uint32 pinsConfig;
  83:.\Generated_Source\PSoC4/UART_DEB_UART.c **** 
  84:.\Generated_Source\PSoC4/UART_DEB_UART.c ****         if (NULL == config)
  85:.\Generated_Source\PSoC4/UART_DEB_UART.c ****         {
  86:.\Generated_Source\PSoC4/UART_DEB_UART.c ****             CYASSERT(0u != 0u); /* Halt execution due to bad function parameter */
  87:.\Generated_Source\PSoC4/UART_DEB_UART.c ****         }
  88:.\Generated_Source\PSoC4/UART_DEB_UART.c ****         else
  89:.\Generated_Source\PSoC4/UART_DEB_UART.c ****         {
ARM GAS  C:\Users\mohammed\AppData\Local\Temp\ccQQZNIO.s 			page 3


  90:.\Generated_Source\PSoC4/UART_DEB_UART.c ****             /* Get direction to configure UART pins: TX, RX or TX+RX */
  91:.\Generated_Source\PSoC4/UART_DEB_UART.c ****             pinsConfig  = config->direction;
  92:.\Generated_Source\PSoC4/UART_DEB_UART.c **** 
  93:.\Generated_Source\PSoC4/UART_DEB_UART.c ****         #if !(UART_DEB_CY_SCBIP_V0 || UART_DEB_CY_SCBIP_V1)
  94:.\Generated_Source\PSoC4/UART_DEB_UART.c ****             /* Add RTS and CTS pins to configure */
  95:.\Generated_Source\PSoC4/UART_DEB_UART.c ****             pinsConfig |= (0u != config->rtsRxFifoLevel) ? (UART_DEB_UART_RTS_PIN_ENABLE) : (0u);
  96:.\Generated_Source\PSoC4/UART_DEB_UART.c ****             pinsConfig |= (0u != config->enableCts)      ? (UART_DEB_UART_CTS_PIN_ENABLE) : (0u);
  97:.\Generated_Source\PSoC4/UART_DEB_UART.c ****         #endif /* !(UART_DEB_CY_SCBIP_V0 || UART_DEB_CY_SCBIP_V1) */
  98:.\Generated_Source\PSoC4/UART_DEB_UART.c **** 
  99:.\Generated_Source\PSoC4/UART_DEB_UART.c ****             /* Configure pins */
 100:.\Generated_Source\PSoC4/UART_DEB_UART.c ****             UART_DEB_SetPins(UART_DEB_SCB_MODE_UART, config->mode, pinsConfig);
 101:.\Generated_Source\PSoC4/UART_DEB_UART.c **** 
 102:.\Generated_Source\PSoC4/UART_DEB_UART.c ****             /* Store internal configuration */
 103:.\Generated_Source\PSoC4/UART_DEB_UART.c ****             UART_DEB_scbMode       = (uint8) UART_DEB_SCB_MODE_UART;
 104:.\Generated_Source\PSoC4/UART_DEB_UART.c ****             UART_DEB_scbEnableWake = (uint8) config->enableWake;
 105:.\Generated_Source\PSoC4/UART_DEB_UART.c ****             UART_DEB_scbEnableIntr = (uint8) config->enableInterrupt;
 106:.\Generated_Source\PSoC4/UART_DEB_UART.c **** 
 107:.\Generated_Source\PSoC4/UART_DEB_UART.c ****             /* Set RX direction internal variables */
 108:.\Generated_Source\PSoC4/UART_DEB_UART.c ****             UART_DEB_rxBuffer      =         config->rxBuffer;
 109:.\Generated_Source\PSoC4/UART_DEB_UART.c ****             UART_DEB_rxDataBits    = (uint8) config->dataBits;
 110:.\Generated_Source\PSoC4/UART_DEB_UART.c ****             UART_DEB_rxBufferSize  = (uint8) config->rxBufferSize;
 111:.\Generated_Source\PSoC4/UART_DEB_UART.c **** 
 112:.\Generated_Source\PSoC4/UART_DEB_UART.c ****             /* Set TX direction internal variables */
 113:.\Generated_Source\PSoC4/UART_DEB_UART.c ****             UART_DEB_txBuffer      =         config->txBuffer;
 114:.\Generated_Source\PSoC4/UART_DEB_UART.c ****             UART_DEB_txDataBits    = (uint8) config->dataBits;
 115:.\Generated_Source\PSoC4/UART_DEB_UART.c ****             UART_DEB_txBufferSize  = (uint8) config->txBufferSize;
 116:.\Generated_Source\PSoC4/UART_DEB_UART.c **** 
 117:.\Generated_Source\PSoC4/UART_DEB_UART.c ****             /* Configure UART interface */
 118:.\Generated_Source\PSoC4/UART_DEB_UART.c ****             if(UART_DEB_UART_MODE_IRDA == config->mode)
 119:.\Generated_Source\PSoC4/UART_DEB_UART.c ****             {
 120:.\Generated_Source\PSoC4/UART_DEB_UART.c ****                 /* OVS settings: IrDA */
 121:.\Generated_Source\PSoC4/UART_DEB_UART.c ****                 UART_DEB_CTRL_REG  = ((0u != config->enableIrdaLowPower) ?
 122:.\Generated_Source\PSoC4/UART_DEB_UART.c ****                                                 (UART_DEB_UART_GET_CTRL_OVS_IRDA_LP(config->oversam
 123:.\Generated_Source\PSoC4/UART_DEB_UART.c ****                                                 (UART_DEB_CTRL_OVS_IRDA_OVS16));
 124:.\Generated_Source\PSoC4/UART_DEB_UART.c ****             }
 125:.\Generated_Source\PSoC4/UART_DEB_UART.c ****             else
 126:.\Generated_Source\PSoC4/UART_DEB_UART.c ****             {
 127:.\Generated_Source\PSoC4/UART_DEB_UART.c ****                 /* OVS settings: UART and SmartCard */
 128:.\Generated_Source\PSoC4/UART_DEB_UART.c ****                 UART_DEB_CTRL_REG  = UART_DEB_GET_CTRL_OVS(config->oversample);
 129:.\Generated_Source\PSoC4/UART_DEB_UART.c ****             }
 130:.\Generated_Source\PSoC4/UART_DEB_UART.c **** 
 131:.\Generated_Source\PSoC4/UART_DEB_UART.c ****             UART_DEB_CTRL_REG     |= UART_DEB_GET_CTRL_BYTE_MODE  (config->enableByteMode)      |
 132:.\Generated_Source\PSoC4/UART_DEB_UART.c ****                                              UART_DEB_GET_CTRL_ADDR_ACCEPT(config->multiprocAcceptA
 133:.\Generated_Source\PSoC4/UART_DEB_UART.c ****                                              UART_DEB_CTRL_UART;
 134:.\Generated_Source\PSoC4/UART_DEB_UART.c **** 
 135:.\Generated_Source\PSoC4/UART_DEB_UART.c ****             /* Configure sub-mode: UART, SmartCard or IrDA */
 136:.\Generated_Source\PSoC4/UART_DEB_UART.c ****             UART_DEB_UART_CTRL_REG = UART_DEB_GET_UART_CTRL_MODE(config->mode);
 137:.\Generated_Source\PSoC4/UART_DEB_UART.c **** 
 138:.\Generated_Source\PSoC4/UART_DEB_UART.c ****             /* Configure RX direction */
 139:.\Generated_Source\PSoC4/UART_DEB_UART.c ****             UART_DEB_UART_RX_CTRL_REG = UART_DEB_GET_UART_RX_CTRL_MODE(config->stopBits)           
 140:.\Generated_Source\PSoC4/UART_DEB_UART.c ****                                         UART_DEB_GET_UART_RX_CTRL_POLARITY(config->enableInvertedRx
 141:.\Generated_Source\PSoC4/UART_DEB_UART.c ****                                         UART_DEB_GET_UART_RX_CTRL_MP_MODE(config->enableMultiproc) 
 142:.\Generated_Source\PSoC4/UART_DEB_UART.c ****                                         UART_DEB_GET_UART_RX_CTRL_DROP_ON_PARITY_ERR(config->dropOn
 143:.\Generated_Source\PSoC4/UART_DEB_UART.c ****                                         UART_DEB_GET_UART_RX_CTRL_DROP_ON_FRAME_ERR(config->dropOnF
 144:.\Generated_Source\PSoC4/UART_DEB_UART.c **** 
 145:.\Generated_Source\PSoC4/UART_DEB_UART.c ****             if(UART_DEB_UART_PARITY_NONE != config->parity)
 146:.\Generated_Source\PSoC4/UART_DEB_UART.c ****             {
ARM GAS  C:\Users\mohammed\AppData\Local\Temp\ccQQZNIO.s 			page 4


 147:.\Generated_Source\PSoC4/UART_DEB_UART.c ****                UART_DEB_UART_RX_CTRL_REG |= UART_DEB_GET_UART_RX_CTRL_PARITY(config->parity) |
 148:.\Generated_Source\PSoC4/UART_DEB_UART.c ****                                                     UART_DEB_UART_RX_CTRL_PARITY_ENABLED;
 149:.\Generated_Source\PSoC4/UART_DEB_UART.c ****             }
 150:.\Generated_Source\PSoC4/UART_DEB_UART.c **** 
 151:.\Generated_Source\PSoC4/UART_DEB_UART.c ****             UART_DEB_RX_CTRL_REG      = UART_DEB_GET_RX_CTRL_DATA_WIDTH(config->dataBits)       |
 152:.\Generated_Source\PSoC4/UART_DEB_UART.c ****                                                 UART_DEB_GET_RX_CTRL_MEDIAN(config->enableMedianFil
 153:.\Generated_Source\PSoC4/UART_DEB_UART.c ****                                                 UART_DEB_GET_UART_RX_CTRL_ENABLED(config->direction
 154:.\Generated_Source\PSoC4/UART_DEB_UART.c **** 
 155:.\Generated_Source\PSoC4/UART_DEB_UART.c ****             UART_DEB_RX_FIFO_CTRL_REG = UART_DEB_GET_RX_FIFO_CTRL_TRIGGER_LEVEL(config->rxTriggerLe
 156:.\Generated_Source\PSoC4/UART_DEB_UART.c **** 
 157:.\Generated_Source\PSoC4/UART_DEB_UART.c ****             /* Configure MP address */
 158:.\Generated_Source\PSoC4/UART_DEB_UART.c ****             UART_DEB_RX_MATCH_REG     = UART_DEB_GET_RX_MATCH_ADDR(config->multiprocAddr) |
 159:.\Generated_Source\PSoC4/UART_DEB_UART.c ****                                                 UART_DEB_GET_RX_MATCH_MASK(config->multiprocAddrMas
 160:.\Generated_Source\PSoC4/UART_DEB_UART.c **** 
 161:.\Generated_Source\PSoC4/UART_DEB_UART.c ****             /* Configure RX direction */
 162:.\Generated_Source\PSoC4/UART_DEB_UART.c ****             UART_DEB_UART_TX_CTRL_REG = UART_DEB_GET_UART_TX_CTRL_MODE(config->stopBits) |
 163:.\Generated_Source\PSoC4/UART_DEB_UART.c ****                                                 UART_DEB_GET_UART_TX_CTRL_RETRY_NACK(config->enable
 164:.\Generated_Source\PSoC4/UART_DEB_UART.c **** 
 165:.\Generated_Source\PSoC4/UART_DEB_UART.c ****             if(UART_DEB_UART_PARITY_NONE != config->parity)
 166:.\Generated_Source\PSoC4/UART_DEB_UART.c ****             {
 167:.\Generated_Source\PSoC4/UART_DEB_UART.c ****                UART_DEB_UART_TX_CTRL_REG |= UART_DEB_GET_UART_TX_CTRL_PARITY(config->parity) |
 168:.\Generated_Source\PSoC4/UART_DEB_UART.c ****                                                     UART_DEB_UART_TX_CTRL_PARITY_ENABLED;
 169:.\Generated_Source\PSoC4/UART_DEB_UART.c ****             }
 170:.\Generated_Source\PSoC4/UART_DEB_UART.c **** 
 171:.\Generated_Source\PSoC4/UART_DEB_UART.c ****             UART_DEB_TX_CTRL_REG      = UART_DEB_GET_TX_CTRL_DATA_WIDTH(config->dataBits)    |
 172:.\Generated_Source\PSoC4/UART_DEB_UART.c ****                                                 UART_DEB_GET_UART_TX_CTRL_ENABLED(config->direction
 173:.\Generated_Source\PSoC4/UART_DEB_UART.c **** 
 174:.\Generated_Source\PSoC4/UART_DEB_UART.c ****             UART_DEB_TX_FIFO_CTRL_REG = UART_DEB_GET_TX_FIFO_CTRL_TRIGGER_LEVEL(config->txTriggerLe
 175:.\Generated_Source\PSoC4/UART_DEB_UART.c **** 
 176:.\Generated_Source\PSoC4/UART_DEB_UART.c ****         #if !(UART_DEB_CY_SCBIP_V0 || UART_DEB_CY_SCBIP_V1)
 177:.\Generated_Source\PSoC4/UART_DEB_UART.c ****             UART_DEB_UART_FLOW_CTRL_REG = UART_DEB_GET_UART_FLOW_CTRL_CTS_ENABLE(config->enableCts)
 178:.\Generated_Source\PSoC4/UART_DEB_UART.c ****                                             UART_DEB_GET_UART_FLOW_CTRL_CTS_POLARITY (config->ctsPo
 179:.\Generated_Source\PSoC4/UART_DEB_UART.c ****                                             UART_DEB_GET_UART_FLOW_CTRL_RTS_POLARITY (config->rtsPo
 180:.\Generated_Source\PSoC4/UART_DEB_UART.c ****                                             UART_DEB_GET_UART_FLOW_CTRL_TRIGGER_LEVEL(config->rtsRx
 181:.\Generated_Source\PSoC4/UART_DEB_UART.c ****         #endif /* !(UART_DEB_CY_SCBIP_V0 || UART_DEB_CY_SCBIP_V1) */
 182:.\Generated_Source\PSoC4/UART_DEB_UART.c **** 
 183:.\Generated_Source\PSoC4/UART_DEB_UART.c ****             /* Configure interrupt with UART handler but do not enable it */
 184:.\Generated_Source\PSoC4/UART_DEB_UART.c ****             CyIntDisable    (UART_DEB_ISR_NUMBER);
 185:.\Generated_Source\PSoC4/UART_DEB_UART.c ****             CyIntSetPriority(UART_DEB_ISR_NUMBER, UART_DEB_ISR_PRIORITY);
 186:.\Generated_Source\PSoC4/UART_DEB_UART.c ****             (void) CyIntSetVector(UART_DEB_ISR_NUMBER, &UART_DEB_SPI_UART_ISR);
 187:.\Generated_Source\PSoC4/UART_DEB_UART.c **** 
 188:.\Generated_Source\PSoC4/UART_DEB_UART.c ****             /* Configure WAKE interrupt */
 189:.\Generated_Source\PSoC4/UART_DEB_UART.c ****         #if(UART_DEB_UART_RX_WAKEUP_IRQ)
 190:.\Generated_Source\PSoC4/UART_DEB_UART.c ****             CyIntDisable    (UART_DEB_RX_WAKE_ISR_NUMBER);
 191:.\Generated_Source\PSoC4/UART_DEB_UART.c ****             CyIntSetPriority(UART_DEB_RX_WAKE_ISR_NUMBER, UART_DEB_RX_WAKE_ISR_PRIORITY);
 192:.\Generated_Source\PSoC4/UART_DEB_UART.c ****             (void) CyIntSetVector(UART_DEB_RX_WAKE_ISR_NUMBER, &UART_DEB_UART_WAKEUP_ISR);
 193:.\Generated_Source\PSoC4/UART_DEB_UART.c ****         #endif /* (UART_DEB_UART_RX_WAKEUP_IRQ) */
 194:.\Generated_Source\PSoC4/UART_DEB_UART.c **** 
 195:.\Generated_Source\PSoC4/UART_DEB_UART.c ****             /* Configure interrupt sources */
 196:.\Generated_Source\PSoC4/UART_DEB_UART.c ****             UART_DEB_INTR_I2C_EC_MASK_REG = UART_DEB_NO_INTR_SOURCES;
 197:.\Generated_Source\PSoC4/UART_DEB_UART.c ****             UART_DEB_INTR_SPI_EC_MASK_REG = UART_DEB_NO_INTR_SOURCES;
 198:.\Generated_Source\PSoC4/UART_DEB_UART.c ****             UART_DEB_INTR_SLAVE_MASK_REG  = UART_DEB_NO_INTR_SOURCES;
 199:.\Generated_Source\PSoC4/UART_DEB_UART.c ****             UART_DEB_INTR_MASTER_MASK_REG = UART_DEB_NO_INTR_SOURCES;
 200:.\Generated_Source\PSoC4/UART_DEB_UART.c ****             UART_DEB_INTR_RX_MASK_REG     = config->rxInterruptMask;
 201:.\Generated_Source\PSoC4/UART_DEB_UART.c ****             UART_DEB_INTR_TX_MASK_REG     = config->txInterruptMask;
 202:.\Generated_Source\PSoC4/UART_DEB_UART.c **** 
 203:.\Generated_Source\PSoC4/UART_DEB_UART.c ****             /* Clear RX buffer indexes */
ARM GAS  C:\Users\mohammed\AppData\Local\Temp\ccQQZNIO.s 			page 5


 204:.\Generated_Source\PSoC4/UART_DEB_UART.c ****             UART_DEB_rxBufferHead     = 0u;
 205:.\Generated_Source\PSoC4/UART_DEB_UART.c ****             UART_DEB_rxBufferTail     = 0u;
 206:.\Generated_Source\PSoC4/UART_DEB_UART.c ****             UART_DEB_rxBufferOverflow = 0u;
 207:.\Generated_Source\PSoC4/UART_DEB_UART.c **** 
 208:.\Generated_Source\PSoC4/UART_DEB_UART.c ****             /* Clear TX buffer indexes */
 209:.\Generated_Source\PSoC4/UART_DEB_UART.c ****             UART_DEB_txBufferHead = 0u;
 210:.\Generated_Source\PSoC4/UART_DEB_UART.c ****             UART_DEB_txBufferTail = 0u;
 211:.\Generated_Source\PSoC4/UART_DEB_UART.c ****         }
 212:.\Generated_Source\PSoC4/UART_DEB_UART.c ****     }
 213:.\Generated_Source\PSoC4/UART_DEB_UART.c **** 
 214:.\Generated_Source\PSoC4/UART_DEB_UART.c **** #else
 215:.\Generated_Source\PSoC4/UART_DEB_UART.c **** 
 216:.\Generated_Source\PSoC4/UART_DEB_UART.c ****     /*******************************************************************************
 217:.\Generated_Source\PSoC4/UART_DEB_UART.c ****     * Function Name: UART_DEB_UartInit
 218:.\Generated_Source\PSoC4/UART_DEB_UART.c ****     ********************************************************************************
 219:.\Generated_Source\PSoC4/UART_DEB_UART.c ****     *
 220:.\Generated_Source\PSoC4/UART_DEB_UART.c ****     * Summary:
 221:.\Generated_Source\PSoC4/UART_DEB_UART.c ****     *  Configures the SCB for the UART operation.
 222:.\Generated_Source\PSoC4/UART_DEB_UART.c ****     *
 223:.\Generated_Source\PSoC4/UART_DEB_UART.c ****     * Parameters:
 224:.\Generated_Source\PSoC4/UART_DEB_UART.c ****     *  None
 225:.\Generated_Source\PSoC4/UART_DEB_UART.c ****     *
 226:.\Generated_Source\PSoC4/UART_DEB_UART.c ****     * Return:
 227:.\Generated_Source\PSoC4/UART_DEB_UART.c ****     *  None
 228:.\Generated_Source\PSoC4/UART_DEB_UART.c ****     *
 229:.\Generated_Source\PSoC4/UART_DEB_UART.c ****     *******************************************************************************/
 230:.\Generated_Source\PSoC4/UART_DEB_UART.c ****     void UART_DEB_UartInit(void)
 231:.\Generated_Source\PSoC4/UART_DEB_UART.c ****     {
  26              		.loc 1 231 0
  27              		.cfi_startproc
 232:.\Generated_Source\PSoC4/UART_DEB_UART.c ****         /* Configure UART interface */
 233:.\Generated_Source\PSoC4/UART_DEB_UART.c ****         UART_DEB_CTRL_REG = UART_DEB_UART_DEFAULT_CTRL;
  28              		.loc 1 233 0
  29 0000 134A     		ldr	r2, .L2
  30 0002 144B     		ldr	r3, .L2+4
 231:.\Generated_Source\PSoC4/UART_DEB_UART.c ****         /* Configure UART interface */
  31              		.loc 1 231 0
  32 0004 10B5     		push	{r4, lr}
  33              		.cfi_def_cfa_offset 8
  34              		.cfi_offset 4, -8
  35              		.cfi_offset 14, -4
  36              		.loc 1 233 0
  37 0006 1A60     		str	r2, [r3]
 234:.\Generated_Source\PSoC4/UART_DEB_UART.c **** 
 235:.\Generated_Source\PSoC4/UART_DEB_UART.c ****         /* Configure sub-mode: UART, SmartCard or IrDA */
 236:.\Generated_Source\PSoC4/UART_DEB_UART.c ****         UART_DEB_UART_CTRL_REG = UART_DEB_UART_DEFAULT_UART_CTRL;
  38              		.loc 1 236 0
  39 0008 0023     		mov	r3, #0
 237:.\Generated_Source\PSoC4/UART_DEB_UART.c **** 
 238:.\Generated_Source\PSoC4/UART_DEB_UART.c ****         /* Configure RX direction */
 239:.\Generated_Source\PSoC4/UART_DEB_UART.c ****         UART_DEB_UART_RX_CTRL_REG = UART_DEB_UART_DEFAULT_UART_RX_CTRL;
  40              		.loc 1 239 0
  41 000a 0121     		mov	r1, #1
 240:.\Generated_Source\PSoC4/UART_DEB_UART.c ****         UART_DEB_RX_CTRL_REG      = UART_DEB_UART_DEFAULT_RX_CTRL;
 241:.\Generated_Source\PSoC4/UART_DEB_UART.c ****         UART_DEB_RX_FIFO_CTRL_REG = UART_DEB_UART_DEFAULT_RX_FIFO_CTRL;
  42              		.loc 1 241 0
  43 000c 0724     		mov	r4, #7
ARM GAS  C:\Users\mohammed\AppData\Local\Temp\ccQQZNIO.s 			page 6


 236:.\Generated_Source\PSoC4/UART_DEB_UART.c **** 
  44              		.loc 1 236 0
  45 000e 124A     		ldr	r2, .L2+8
 240:.\Generated_Source\PSoC4/UART_DEB_UART.c ****         UART_DEB_RX_CTRL_REG      = UART_DEB_UART_DEFAULT_RX_CTRL;
  46              		.loc 1 240 0
  47 0010 1248     		ldr	r0, .L2+12
 236:.\Generated_Source\PSoC4/UART_DEB_UART.c **** 
  48              		.loc 1 236 0
  49 0012 1360     		str	r3, [r2]
 239:.\Generated_Source\PSoC4/UART_DEB_UART.c ****         UART_DEB_RX_CTRL_REG      = UART_DEB_UART_DEFAULT_RX_CTRL;
  50              		.loc 1 239 0
  51 0014 124A     		ldr	r2, .L2+16
 242:.\Generated_Source\PSoC4/UART_DEB_UART.c ****         UART_DEB_RX_MATCH_REG     = UART_DEB_UART_DEFAULT_RX_MATCH_REG;
 243:.\Generated_Source\PSoC4/UART_DEB_UART.c **** 
 244:.\Generated_Source\PSoC4/UART_DEB_UART.c ****         /* Configure TX direction */
 245:.\Generated_Source\PSoC4/UART_DEB_UART.c ****         UART_DEB_UART_TX_CTRL_REG = UART_DEB_UART_DEFAULT_UART_TX_CTRL;
 246:.\Generated_Source\PSoC4/UART_DEB_UART.c ****         UART_DEB_TX_CTRL_REG      = UART_DEB_UART_DEFAULT_TX_CTRL;
 247:.\Generated_Source\PSoC4/UART_DEB_UART.c ****         UART_DEB_TX_FIFO_CTRL_REG = UART_DEB_UART_DEFAULT_TX_FIFO_CTRL;
 248:.\Generated_Source\PSoC4/UART_DEB_UART.c **** 
 249:.\Generated_Source\PSoC4/UART_DEB_UART.c ****     #if !(UART_DEB_CY_SCBIP_V0 || UART_DEB_CY_SCBIP_V1)
 250:.\Generated_Source\PSoC4/UART_DEB_UART.c ****         UART_DEB_UART_FLOW_CTRL_REG = UART_DEB_UART_DEFAULT_FLOW_CTRL;
 251:.\Generated_Source\PSoC4/UART_DEB_UART.c ****     #endif /* !(UART_DEB_CY_SCBIP_V0 || UART_DEB_CY_SCBIP_V1) */
 252:.\Generated_Source\PSoC4/UART_DEB_UART.c **** 
 253:.\Generated_Source\PSoC4/UART_DEB_UART.c ****         /* Configure interrupt with UART handler but do not enable it */
 254:.\Generated_Source\PSoC4/UART_DEB_UART.c ****     #if(UART_DEB_SCB_IRQ_INTERNAL)
 255:.\Generated_Source\PSoC4/UART_DEB_UART.c ****         CyIntDisable    (UART_DEB_ISR_NUMBER);
 256:.\Generated_Source\PSoC4/UART_DEB_UART.c ****         CyIntSetPriority(UART_DEB_ISR_NUMBER, UART_DEB_ISR_PRIORITY);
 257:.\Generated_Source\PSoC4/UART_DEB_UART.c ****         (void) CyIntSetVector(UART_DEB_ISR_NUMBER, &UART_DEB_SPI_UART_ISR);
 258:.\Generated_Source\PSoC4/UART_DEB_UART.c ****     #endif /* (UART_DEB_SCB_IRQ_INTERNAL) */
 259:.\Generated_Source\PSoC4/UART_DEB_UART.c **** 
 260:.\Generated_Source\PSoC4/UART_DEB_UART.c ****         /* Configure WAKE interrupt */
 261:.\Generated_Source\PSoC4/UART_DEB_UART.c ****     #if(UART_DEB_UART_RX_WAKEUP_IRQ)
 262:.\Generated_Source\PSoC4/UART_DEB_UART.c ****         CyIntDisable    (UART_DEB_RX_WAKE_ISR_NUMBER);
 263:.\Generated_Source\PSoC4/UART_DEB_UART.c ****         CyIntSetPriority(UART_DEB_RX_WAKE_ISR_NUMBER, UART_DEB_RX_WAKE_ISR_PRIORITY);
 264:.\Generated_Source\PSoC4/UART_DEB_UART.c ****         (void) CyIntSetVector(UART_DEB_RX_WAKE_ISR_NUMBER, &UART_DEB_UART_WAKEUP_ISR);
 265:.\Generated_Source\PSoC4/UART_DEB_UART.c ****     #endif /* (UART_DEB_UART_RX_WAKEUP_IRQ) */
 266:.\Generated_Source\PSoC4/UART_DEB_UART.c **** 
 267:.\Generated_Source\PSoC4/UART_DEB_UART.c ****         /* Configure interrupt sources */
 268:.\Generated_Source\PSoC4/UART_DEB_UART.c ****         UART_DEB_INTR_I2C_EC_MASK_REG = UART_DEB_UART_DEFAULT_INTR_I2C_EC_MASK;
 269:.\Generated_Source\PSoC4/UART_DEB_UART.c ****         UART_DEB_INTR_SPI_EC_MASK_REG = UART_DEB_UART_DEFAULT_INTR_SPI_EC_MASK;
 270:.\Generated_Source\PSoC4/UART_DEB_UART.c ****         UART_DEB_INTR_SLAVE_MASK_REG  = UART_DEB_UART_DEFAULT_INTR_SLAVE_MASK;
 271:.\Generated_Source\PSoC4/UART_DEB_UART.c ****         UART_DEB_INTR_MASTER_MASK_REG = UART_DEB_UART_DEFAULT_INTR_MASTER_MASK;
 272:.\Generated_Source\PSoC4/UART_DEB_UART.c ****         UART_DEB_INTR_RX_MASK_REG     = UART_DEB_UART_DEFAULT_INTR_RX_MASK;
 273:.\Generated_Source\PSoC4/UART_DEB_UART.c ****         UART_DEB_INTR_TX_MASK_REG     = UART_DEB_UART_DEFAULT_INTR_TX_MASK;
 274:.\Generated_Source\PSoC4/UART_DEB_UART.c **** 
 275:.\Generated_Source\PSoC4/UART_DEB_UART.c ****     #if(UART_DEB_INTERNAL_RX_SW_BUFFER_CONST)
 276:.\Generated_Source\PSoC4/UART_DEB_UART.c ****         UART_DEB_rxBufferHead     = 0u;
 277:.\Generated_Source\PSoC4/UART_DEB_UART.c ****         UART_DEB_rxBufferTail     = 0u;
 278:.\Generated_Source\PSoC4/UART_DEB_UART.c ****         UART_DEB_rxBufferOverflow = 0u;
 279:.\Generated_Source\PSoC4/UART_DEB_UART.c ****     #endif /* (UART_DEB_INTERNAL_RX_SW_BUFFER_CONST) */
 280:.\Generated_Source\PSoC4/UART_DEB_UART.c **** 
 281:.\Generated_Source\PSoC4/UART_DEB_UART.c ****     #if(UART_DEB_INTERNAL_TX_SW_BUFFER_CONST)
 282:.\Generated_Source\PSoC4/UART_DEB_UART.c ****         UART_DEB_txBufferHead = 0u;
 283:.\Generated_Source\PSoC4/UART_DEB_UART.c ****         UART_DEB_txBufferTail = 0u;
 284:.\Generated_Source\PSoC4/UART_DEB_UART.c ****     #endif /* (UART_DEB_INTERNAL_TX_SW_BUFFER_CONST) */
 285:.\Generated_Source\PSoC4/UART_DEB_UART.c ****     }
  52              		.loc 1 285 0
ARM GAS  C:\Users\mohammed\AppData\Local\Temp\ccQQZNIO.s 			page 7


  53              		@ sp needed
 239:.\Generated_Source\PSoC4/UART_DEB_UART.c ****         UART_DEB_RX_CTRL_REG      = UART_DEB_UART_DEFAULT_RX_CTRL;
  54              		.loc 1 239 0
  55 0016 1160     		str	r1, [r2]
 240:.\Generated_Source\PSoC4/UART_DEB_UART.c ****         UART_DEB_RX_FIFO_CTRL_REG = UART_DEB_UART_DEFAULT_RX_FIFO_CTRL;
  56              		.loc 1 240 0
  57 0018 124A     		ldr	r2, .L2+20
  58 001a 0260     		str	r2, [r0]
 241:.\Generated_Source\PSoC4/UART_DEB_UART.c ****         UART_DEB_RX_MATCH_REG     = UART_DEB_UART_DEFAULT_RX_MATCH_REG;
  59              		.loc 1 241 0
  60 001c 1248     		ldr	r0, .L2+24
  61 001e 0460     		str	r4, [r0]
 242:.\Generated_Source\PSoC4/UART_DEB_UART.c ****         UART_DEB_RX_MATCH_REG     = UART_DEB_UART_DEFAULT_RX_MATCH_REG;
  62              		.loc 1 242 0
  63 0020 1248     		ldr	r0, .L2+28
  64 0022 0360     		str	r3, [r0]
 245:.\Generated_Source\PSoC4/UART_DEB_UART.c ****         UART_DEB_TX_CTRL_REG      = UART_DEB_UART_DEFAULT_TX_CTRL;
  65              		.loc 1 245 0
  66 0024 1248     		ldr	r0, .L2+32
  67 0026 0160     		str	r1, [r0]
 246:.\Generated_Source\PSoC4/UART_DEB_UART.c ****         UART_DEB_TX_FIFO_CTRL_REG = UART_DEB_UART_DEFAULT_TX_FIFO_CTRL;
  68              		.loc 1 246 0
  69 0028 1249     		ldr	r1, .L2+36
  70 002a 0A60     		str	r2, [r1]
 250:.\Generated_Source\PSoC4/UART_DEB_UART.c ****     #endif /* !(UART_DEB_CY_SCBIP_V0 || UART_DEB_CY_SCBIP_V1) */
  71              		.loc 1 250 0
  72 002c 0421     		mov	r1, #4
 247:.\Generated_Source\PSoC4/UART_DEB_UART.c **** 
  73              		.loc 1 247 0
  74 002e 124A     		ldr	r2, .L2+40
  75 0030 1360     		str	r3, [r2]
 250:.\Generated_Source\PSoC4/UART_DEB_UART.c ****     #endif /* !(UART_DEB_CY_SCBIP_V0 || UART_DEB_CY_SCBIP_V1) */
  76              		.loc 1 250 0
  77 0032 124A     		ldr	r2, .L2+44
  78 0034 1160     		str	r1, [r2]
 268:.\Generated_Source\PSoC4/UART_DEB_UART.c ****         UART_DEB_INTR_SPI_EC_MASK_REG = UART_DEB_UART_DEFAULT_INTR_SPI_EC_MASK;
  79              		.loc 1 268 0
  80 0036 124A     		ldr	r2, .L2+48
  81 0038 1360     		str	r3, [r2]
 269:.\Generated_Source\PSoC4/UART_DEB_UART.c ****         UART_DEB_INTR_SLAVE_MASK_REG  = UART_DEB_UART_DEFAULT_INTR_SLAVE_MASK;
  82              		.loc 1 269 0
  83 003a 124A     		ldr	r2, .L2+52
  84 003c 1360     		str	r3, [r2]
 270:.\Generated_Source\PSoC4/UART_DEB_UART.c ****         UART_DEB_INTR_MASTER_MASK_REG = UART_DEB_UART_DEFAULT_INTR_MASTER_MASK;
  85              		.loc 1 270 0
  86 003e 124A     		ldr	r2, .L2+56
  87 0040 1360     		str	r3, [r2]
 271:.\Generated_Source\PSoC4/UART_DEB_UART.c ****         UART_DEB_INTR_RX_MASK_REG     = UART_DEB_UART_DEFAULT_INTR_RX_MASK;
  88              		.loc 1 271 0
  89 0042 124A     		ldr	r2, .L2+60
  90 0044 1360     		str	r3, [r2]
 272:.\Generated_Source\PSoC4/UART_DEB_UART.c ****         UART_DEB_INTR_TX_MASK_REG     = UART_DEB_UART_DEFAULT_INTR_TX_MASK;
  91              		.loc 1 272 0
  92 0046 124A     		ldr	r2, .L2+64
  93 0048 1360     		str	r3, [r2]
 273:.\Generated_Source\PSoC4/UART_DEB_UART.c **** 
  94              		.loc 1 273 0
ARM GAS  C:\Users\mohammed\AppData\Local\Temp\ccQQZNIO.s 			page 8


  95 004a 124A     		ldr	r2, .L2+68
  96 004c 1360     		str	r3, [r2]
  97              		.loc 1 285 0
  98 004e 10BD     		pop	{r4, pc}
  99              	.L3:
 100              		.align	2
 101              	.L2:
 102 0050 0F000002 		.word	33554447
 103 0054 00002440 		.word	1076101120
 104 0058 40002440 		.word	1076101184
 105 005c 00032440 		.word	1076101888
 106 0060 48002440 		.word	1076101192
 107 0064 07000080 		.word	-2147483641
 108 0068 04032440 		.word	1076101892
 109 006c 10032440 		.word	1076101904
 110 0070 44002440 		.word	1076101188
 111 0074 00022440 		.word	1076101632
 112 0078 04022440 		.word	1076101636
 113 007c 50002440 		.word	1076101200
 114 0080 880E2440 		.word	1076104840
 115 0084 C80E2440 		.word	1076104904
 116 0088 480F2440 		.word	1076105032
 117 008c 080F2440 		.word	1076104968
 118 0090 C80F2440 		.word	1076105160
 119 0094 880F2440 		.word	1076105096
 120              		.cfi_endproc
 121              	.LFE2:
 122              		.size	UART_DEB_UartInit, .-UART_DEB_UartInit
 123              		.section	.text.UART_DEB_UartPostEnable,"ax",%progbits
 124              		.align	1
 125              		.global	UART_DEB_UartPostEnable
 126              		.code	16
 127              		.thumb_func
 128              		.type	UART_DEB_UartPostEnable, %function
 129              	UART_DEB_UartPostEnable:
 130              	.LFB3:
 286:.\Generated_Source\PSoC4/UART_DEB_UART.c **** #endif /* (UART_DEB_SCB_MODE_UNCONFIG_CONST_CFG) */
 287:.\Generated_Source\PSoC4/UART_DEB_UART.c **** 
 288:.\Generated_Source\PSoC4/UART_DEB_UART.c **** 
 289:.\Generated_Source\PSoC4/UART_DEB_UART.c **** /*******************************************************************************
 290:.\Generated_Source\PSoC4/UART_DEB_UART.c **** * Function Name: UART_DEB_UartPostEnable
 291:.\Generated_Source\PSoC4/UART_DEB_UART.c **** ********************************************************************************
 292:.\Generated_Source\PSoC4/UART_DEB_UART.c **** *
 293:.\Generated_Source\PSoC4/UART_DEB_UART.c **** * Summary:
 294:.\Generated_Source\PSoC4/UART_DEB_UART.c **** *  Restores HSIOM settings for the UART output pins (TX and/or RTS) to be 
 295:.\Generated_Source\PSoC4/UART_DEB_UART.c **** *  controlled by the SCB UART.
 296:.\Generated_Source\PSoC4/UART_DEB_UART.c **** *
 297:.\Generated_Source\PSoC4/UART_DEB_UART.c **** * Parameters:
 298:.\Generated_Source\PSoC4/UART_DEB_UART.c **** *  None
 299:.\Generated_Source\PSoC4/UART_DEB_UART.c **** *
 300:.\Generated_Source\PSoC4/UART_DEB_UART.c **** * Return:
 301:.\Generated_Source\PSoC4/UART_DEB_UART.c **** *  None
 302:.\Generated_Source\PSoC4/UART_DEB_UART.c **** *
 303:.\Generated_Source\PSoC4/UART_DEB_UART.c **** *******************************************************************************/
 304:.\Generated_Source\PSoC4/UART_DEB_UART.c **** void UART_DEB_UartPostEnable(void)
 305:.\Generated_Source\PSoC4/UART_DEB_UART.c **** {
 131              		.loc 1 305 0
ARM GAS  C:\Users\mohammed\AppData\Local\Temp\ccQQZNIO.s 			page 9


 132              		.cfi_startproc
 306:.\Generated_Source\PSoC4/UART_DEB_UART.c **** #if (UART_DEB_SCB_MODE_UNCONFIG_CONST_CFG)
 307:.\Generated_Source\PSoC4/UART_DEB_UART.c **** 
 308:.\Generated_Source\PSoC4/UART_DEB_UART.c **** #if (UART_DEB_TX_SCL_MISO_PIN)
 309:.\Generated_Source\PSoC4/UART_DEB_UART.c ****     if (UART_DEB_CHECK_TX_SCL_MISO_PIN_USED)
 310:.\Generated_Source\PSoC4/UART_DEB_UART.c ****     {
 311:.\Generated_Source\PSoC4/UART_DEB_UART.c ****         /* Set SCB UART to drive the output pin */
 312:.\Generated_Source\PSoC4/UART_DEB_UART.c ****         UART_DEB_SET_HSIOM_SEL(UART_DEB_TX_SCL_MISO_HSIOM_REG, UART_DEB_TX_SCL_MISO_HSIOM_MASK,
 313:.\Generated_Source\PSoC4/UART_DEB_UART.c ****                                        UART_DEB_TX_SCL_MISO_HSIOM_POS, UART_DEB_HSIOM_UART_SEL);
 314:.\Generated_Source\PSoC4/UART_DEB_UART.c ****     }
 315:.\Generated_Source\PSoC4/UART_DEB_UART.c **** #endif /* (UART_DEB_TX_SCL_MISO_PIN_PIN) */
 316:.\Generated_Source\PSoC4/UART_DEB_UART.c **** 
 317:.\Generated_Source\PSoC4/UART_DEB_UART.c **** #if (UART_DEB_RTS_SS0_PIN)
 318:.\Generated_Source\PSoC4/UART_DEB_UART.c ****     if (UART_DEB_CHECK_RTS_SS0_PIN_USED)
 319:.\Generated_Source\PSoC4/UART_DEB_UART.c ****     {
 320:.\Generated_Source\PSoC4/UART_DEB_UART.c ****         /* Set SCB UART to drive the output pin */
 321:.\Generated_Source\PSoC4/UART_DEB_UART.c ****         UART_DEB_SET_HSIOM_SEL(UART_DEB_RTS_SS0_HSIOM_REG, UART_DEB_RTS_SS0_HSIOM_MASK,
 322:.\Generated_Source\PSoC4/UART_DEB_UART.c ****                                        UART_DEB_RTS_SS0_HSIOM_POS, UART_DEB_HSIOM_UART_SEL);
 323:.\Generated_Source\PSoC4/UART_DEB_UART.c ****     }
 324:.\Generated_Source\PSoC4/UART_DEB_UART.c **** #endif /* (UART_DEB_RTS_SS0_PIN) */
 325:.\Generated_Source\PSoC4/UART_DEB_UART.c **** 
 326:.\Generated_Source\PSoC4/UART_DEB_UART.c **** #else
 327:.\Generated_Source\PSoC4/UART_DEB_UART.c **** #if (UART_DEB_UART_TX_PIN)
 328:.\Generated_Source\PSoC4/UART_DEB_UART.c ****      /* Set SCB UART to drive the output pin */
 329:.\Generated_Source\PSoC4/UART_DEB_UART.c ****     UART_DEB_SET_HSIOM_SEL(UART_DEB_TX_HSIOM_REG, UART_DEB_TX_HSIOM_MASK,
 133              		.loc 1 329 0
 134 0000 044A     		ldr	r2, .L5
 135 0002 054B     		ldr	r3, .L5+4
 136 0004 1168     		ldr	r1, [r2]
 330:.\Generated_Source\PSoC4/UART_DEB_UART.c ****                                    UART_DEB_TX_HSIOM_POS, UART_DEB_HSIOM_UART_SEL);
 331:.\Generated_Source\PSoC4/UART_DEB_UART.c **** #endif /* (UART_DEB_UART_TX_PIN) */
 332:.\Generated_Source\PSoC4/UART_DEB_UART.c **** 
 333:.\Generated_Source\PSoC4/UART_DEB_UART.c **** #if (UART_DEB_UART_RTS_PIN)
 334:.\Generated_Source\PSoC4/UART_DEB_UART.c ****     /* Set SCB UART to drive the output pin */
 335:.\Generated_Source\PSoC4/UART_DEB_UART.c ****     UART_DEB_SET_HSIOM_SEL(UART_DEB_RTS_HSIOM_REG, UART_DEB_RTS_HSIOM_MASK,
 336:.\Generated_Source\PSoC4/UART_DEB_UART.c ****                                    UART_DEB_RTS_HSIOM_POS, UART_DEB_HSIOM_UART_SEL);
 337:.\Generated_Source\PSoC4/UART_DEB_UART.c **** #endif /* (UART_DEB_UART_RTS_PIN) */
 338:.\Generated_Source\PSoC4/UART_DEB_UART.c **** 
 339:.\Generated_Source\PSoC4/UART_DEB_UART.c **** #endif /* (UART_DEB_SCB_MODE_UNCONFIG_CONST_CFG) */
 340:.\Generated_Source\PSoC4/UART_DEB_UART.c **** }
 137              		.loc 1 340 0
 138              		@ sp needed
 329:.\Generated_Source\PSoC4/UART_DEB_UART.c ****                                    UART_DEB_TX_HSIOM_POS, UART_DEB_HSIOM_UART_SEL);
 139              		.loc 1 329 0
 140 0006 0B40     		and	r3, r1
 141 0008 9021     		mov	r1, #144
 142 000a 0904     		lsl	r1, r1, #16
 143 000c 0B43     		orr	r3, r1
 144 000e 1360     		str	r3, [r2]
 145              		.loc 1 340 0
 146 0010 7047     		bx	lr
 147              	.L6:
 148 0012 C046     		.align	2
 149              	.L5:
 150 0014 00010240 		.word	1073873152
 151 0018 FFFF0FFF 		.word	-15728641
 152              		.cfi_endproc
ARM GAS  C:\Users\mohammed\AppData\Local\Temp\ccQQZNIO.s 			page 10


 153              	.LFE3:
 154              		.size	UART_DEB_UartPostEnable, .-UART_DEB_UartPostEnable
 155              		.section	.text.UART_DEB_UartStop,"ax",%progbits
 156              		.align	1
 157              		.global	UART_DEB_UartStop
 158              		.code	16
 159              		.thumb_func
 160              		.type	UART_DEB_UartStop, %function
 161              	UART_DEB_UartStop:
 162              	.LFB4:
 341:.\Generated_Source\PSoC4/UART_DEB_UART.c **** 
 342:.\Generated_Source\PSoC4/UART_DEB_UART.c **** 
 343:.\Generated_Source\PSoC4/UART_DEB_UART.c **** /*******************************************************************************
 344:.\Generated_Source\PSoC4/UART_DEB_UART.c **** * Function Name: UART_DEB_UartStop
 345:.\Generated_Source\PSoC4/UART_DEB_UART.c **** ********************************************************************************
 346:.\Generated_Source\PSoC4/UART_DEB_UART.c **** *
 347:.\Generated_Source\PSoC4/UART_DEB_UART.c **** * Summary:
 348:.\Generated_Source\PSoC4/UART_DEB_UART.c **** *  Changes the HSIOM settings for the UART output pins (TX and/or RTS) to keep
 349:.\Generated_Source\PSoC4/UART_DEB_UART.c **** *  them inactive after the block is disabled. The output pins are controlled by
 350:.\Generated_Source\PSoC4/UART_DEB_UART.c **** *  the GPIO data register. Also, the function disables the skip start feature to
 351:.\Generated_Source\PSoC4/UART_DEB_UART.c **** *  not cause it to trigger after the component is enabled.
 352:.\Generated_Source\PSoC4/UART_DEB_UART.c **** *
 353:.\Generated_Source\PSoC4/UART_DEB_UART.c **** * Parameters:
 354:.\Generated_Source\PSoC4/UART_DEB_UART.c **** *  None
 355:.\Generated_Source\PSoC4/UART_DEB_UART.c **** *
 356:.\Generated_Source\PSoC4/UART_DEB_UART.c **** * Return:
 357:.\Generated_Source\PSoC4/UART_DEB_UART.c **** *  None
 358:.\Generated_Source\PSoC4/UART_DEB_UART.c **** *
 359:.\Generated_Source\PSoC4/UART_DEB_UART.c **** *******************************************************************************/
 360:.\Generated_Source\PSoC4/UART_DEB_UART.c **** void UART_DEB_UartStop(void)
 361:.\Generated_Source\PSoC4/UART_DEB_UART.c **** {
 163              		.loc 1 361 0
 164              		.cfi_startproc
 362:.\Generated_Source\PSoC4/UART_DEB_UART.c **** #if(UART_DEB_SCB_MODE_UNCONFIG_CONST_CFG)
 363:.\Generated_Source\PSoC4/UART_DEB_UART.c ****     #if (UART_DEB_TX_SCL_MISO_PIN)
 364:.\Generated_Source\PSoC4/UART_DEB_UART.c ****         if (UART_DEB_CHECK_TX_SCL_MISO_PIN_USED)
 365:.\Generated_Source\PSoC4/UART_DEB_UART.c ****         {
 366:.\Generated_Source\PSoC4/UART_DEB_UART.c ****             /* Set GPIO to drive output pin */
 367:.\Generated_Source\PSoC4/UART_DEB_UART.c ****             UART_DEB_SET_HSIOM_SEL(UART_DEB_TX_SCL_MISO_HSIOM_REG, UART_DEB_TX_SCL_MISO_HSIOM_MASK,
 368:.\Generated_Source\PSoC4/UART_DEB_UART.c ****                                            UART_DEB_TX_SCL_MISO_HSIOM_POS, UART_DEB_HSIOM_GPIO_SEL)
 369:.\Generated_Source\PSoC4/UART_DEB_UART.c ****         }
 370:.\Generated_Source\PSoC4/UART_DEB_UART.c ****     #endif /* (UART_DEB_TX_SCL_MISO_PIN_PIN) */
 371:.\Generated_Source\PSoC4/UART_DEB_UART.c **** 
 372:.\Generated_Source\PSoC4/UART_DEB_UART.c ****     #if (UART_DEB_RTS_SS0_PIN)
 373:.\Generated_Source\PSoC4/UART_DEB_UART.c ****         if (UART_DEB_CHECK_RTS_SS0_PIN_USED)
 374:.\Generated_Source\PSoC4/UART_DEB_UART.c ****         {
 375:.\Generated_Source\PSoC4/UART_DEB_UART.c ****             /* Set output pin state after block is disabled */
 376:.\Generated_Source\PSoC4/UART_DEB_UART.c ****             UART_DEB_uart_rts_spi_ss0_Write(UART_DEB_GET_UART_RTS_INACTIVE);
 377:.\Generated_Source\PSoC4/UART_DEB_UART.c **** 
 378:.\Generated_Source\PSoC4/UART_DEB_UART.c ****             /* Set GPIO to drive output pin */
 379:.\Generated_Source\PSoC4/UART_DEB_UART.c ****             UART_DEB_SET_HSIOM_SEL(UART_DEB_RTS_SS0_HSIOM_REG, UART_DEB_RTS_SS0_HSIOM_MASK,
 380:.\Generated_Source\PSoC4/UART_DEB_UART.c ****                                            UART_DEB_RTS_SS0_HSIOM_POS, UART_DEB_HSIOM_GPIO_SEL);
 381:.\Generated_Source\PSoC4/UART_DEB_UART.c ****         }
 382:.\Generated_Source\PSoC4/UART_DEB_UART.c ****     #endif /* (UART_DEB_SS0_PIN) */
 383:.\Generated_Source\PSoC4/UART_DEB_UART.c **** 
 384:.\Generated_Source\PSoC4/UART_DEB_UART.c **** #else
 385:.\Generated_Source\PSoC4/UART_DEB_UART.c ****     #if (UART_DEB_UART_TX_PIN)
ARM GAS  C:\Users\mohammed\AppData\Local\Temp\ccQQZNIO.s 			page 11


 386:.\Generated_Source\PSoC4/UART_DEB_UART.c ****         /* Set GPIO to drive output pin */
 387:.\Generated_Source\PSoC4/UART_DEB_UART.c ****         UART_DEB_SET_HSIOM_SEL(UART_DEB_TX_HSIOM_REG, UART_DEB_TX_HSIOM_MASK,
 165              		.loc 1 387 0
 166 0000 024A     		ldr	r2, .L8
 167 0002 034B     		ldr	r3, .L8+4
 168 0004 1168     		ldr	r1, [r2]
 388:.\Generated_Source\PSoC4/UART_DEB_UART.c ****                                        UART_DEB_TX_HSIOM_POS, UART_DEB_HSIOM_GPIO_SEL);
 389:.\Generated_Source\PSoC4/UART_DEB_UART.c ****     #endif /* (UART_DEB_UART_TX_PIN) */
 390:.\Generated_Source\PSoC4/UART_DEB_UART.c **** 
 391:.\Generated_Source\PSoC4/UART_DEB_UART.c ****     #if (UART_DEB_UART_RTS_PIN)
 392:.\Generated_Source\PSoC4/UART_DEB_UART.c ****         /* Set output pin state after block is disabled */
 393:.\Generated_Source\PSoC4/UART_DEB_UART.c ****         UART_DEB_rts_Write(UART_DEB_GET_UART_RTS_INACTIVE);
 394:.\Generated_Source\PSoC4/UART_DEB_UART.c **** 
 395:.\Generated_Source\PSoC4/UART_DEB_UART.c ****         /* Set GPIO to drive output pin */
 396:.\Generated_Source\PSoC4/UART_DEB_UART.c ****         UART_DEB_SET_HSIOM_SEL(UART_DEB_RTS_HSIOM_REG, UART_DEB_RTS_HSIOM_MASK,
 397:.\Generated_Source\PSoC4/UART_DEB_UART.c ****                                        UART_DEB_RTS_HSIOM_POS, UART_DEB_HSIOM_GPIO_SEL);
 398:.\Generated_Source\PSoC4/UART_DEB_UART.c ****     #endif /* (UART_DEB_UART_RTS_PIN) */
 399:.\Generated_Source\PSoC4/UART_DEB_UART.c **** 
 400:.\Generated_Source\PSoC4/UART_DEB_UART.c **** #endif /* (UART_DEB_SCB_MODE_UNCONFIG_CONST_CFG) */
 401:.\Generated_Source\PSoC4/UART_DEB_UART.c **** 
 402:.\Generated_Source\PSoC4/UART_DEB_UART.c **** #if (UART_DEB_UART_WAKE_ENABLE_CONST)
 403:.\Generated_Source\PSoC4/UART_DEB_UART.c ****     /* Disable skip start feature used for wakeup */
 404:.\Generated_Source\PSoC4/UART_DEB_UART.c ****     UART_DEB_UART_RX_CTRL_REG &= (uint32) ~UART_DEB_UART_RX_CTRL_SKIP_START;
 405:.\Generated_Source\PSoC4/UART_DEB_UART.c **** #endif /* (UART_DEB_UART_WAKE_ENABLE_CONST) */
 406:.\Generated_Source\PSoC4/UART_DEB_UART.c **** }
 169              		.loc 1 406 0
 170              		@ sp needed
 387:.\Generated_Source\PSoC4/UART_DEB_UART.c ****                                        UART_DEB_TX_HSIOM_POS, UART_DEB_HSIOM_GPIO_SEL);
 171              		.loc 1 387 0
 172 0006 0B40     		and	r3, r1
 173 0008 1360     		str	r3, [r2]
 174              		.loc 1 406 0
 175 000a 7047     		bx	lr
 176              	.L9:
 177              		.align	2
 178              	.L8:
 179 000c 00010240 		.word	1073873152
 180 0010 FFFF0FFF 		.word	-15728641
 181              		.cfi_endproc
 182              	.LFE4:
 183              		.size	UART_DEB_UartStop, .-UART_DEB_UartStop
 184              		.section	.text.UART_DEB_UartSetRxAddress,"ax",%progbits
 185              		.align	1
 186              		.global	UART_DEB_UartSetRxAddress
 187              		.code	16
 188              		.thumb_func
 189              		.type	UART_DEB_UartSetRxAddress, %function
 190              	UART_DEB_UartSetRxAddress:
 191              	.LFB5:
 407:.\Generated_Source\PSoC4/UART_DEB_UART.c **** 
 408:.\Generated_Source\PSoC4/UART_DEB_UART.c **** 
 409:.\Generated_Source\PSoC4/UART_DEB_UART.c **** /*******************************************************************************
 410:.\Generated_Source\PSoC4/UART_DEB_UART.c **** * Function Name: UART_DEB_UartSetRxAddress
 411:.\Generated_Source\PSoC4/UART_DEB_UART.c **** ********************************************************************************
 412:.\Generated_Source\PSoC4/UART_DEB_UART.c **** *
 413:.\Generated_Source\PSoC4/UART_DEB_UART.c **** * Summary:
 414:.\Generated_Source\PSoC4/UART_DEB_UART.c **** *  Sets the hardware detectable receiver address for the UART in the
ARM GAS  C:\Users\mohammed\AppData\Local\Temp\ccQQZNIO.s 			page 12


 415:.\Generated_Source\PSoC4/UART_DEB_UART.c **** *  Multiprocessor mode.
 416:.\Generated_Source\PSoC4/UART_DEB_UART.c **** *
 417:.\Generated_Source\PSoC4/UART_DEB_UART.c **** * Parameters:
 418:.\Generated_Source\PSoC4/UART_DEB_UART.c **** *  address: Address for hardware address detection.
 419:.\Generated_Source\PSoC4/UART_DEB_UART.c **** *
 420:.\Generated_Source\PSoC4/UART_DEB_UART.c **** * Return:
 421:.\Generated_Source\PSoC4/UART_DEB_UART.c **** *  None
 422:.\Generated_Source\PSoC4/UART_DEB_UART.c **** *
 423:.\Generated_Source\PSoC4/UART_DEB_UART.c **** *******************************************************************************/
 424:.\Generated_Source\PSoC4/UART_DEB_UART.c **** void UART_DEB_UartSetRxAddress(uint32 address)
 425:.\Generated_Source\PSoC4/UART_DEB_UART.c **** {
 192              		.loc 1 425 0
 193              		.cfi_startproc
 194              	.LVL0:
 426:.\Generated_Source\PSoC4/UART_DEB_UART.c ****      uint32 matchReg;
 427:.\Generated_Source\PSoC4/UART_DEB_UART.c **** 
 428:.\Generated_Source\PSoC4/UART_DEB_UART.c ****     matchReg = UART_DEB_RX_MATCH_REG;
 429:.\Generated_Source\PSoC4/UART_DEB_UART.c **** 
 430:.\Generated_Source\PSoC4/UART_DEB_UART.c ****     matchReg &= ((uint32) ~UART_DEB_RX_MATCH_ADDR_MASK); /* Clear address bits */
 195              		.loc 1 430 0
 196 0000 FF22     		mov	r2, #255
 428:.\Generated_Source\PSoC4/UART_DEB_UART.c **** 
 197              		.loc 1 428 0
 198 0002 0349     		ldr	r1, .L11
 431:.\Generated_Source\PSoC4/UART_DEB_UART.c ****     matchReg |= ((uint32)  (address & UART_DEB_RX_MATCH_ADDR_MASK)); /* Set address  */
 199              		.loc 1 431 0
 200 0004 1040     		and	r0, r2
 201              	.LVL1:
 428:.\Generated_Source\PSoC4/UART_DEB_UART.c **** 
 202              		.loc 1 428 0
 203 0006 0B68     		ldr	r3, [r1]
 204              	.LVL2:
 432:.\Generated_Source\PSoC4/UART_DEB_UART.c **** 
 433:.\Generated_Source\PSoC4/UART_DEB_UART.c ****     UART_DEB_RX_MATCH_REG = matchReg;
 434:.\Generated_Source\PSoC4/UART_DEB_UART.c **** }
 205              		.loc 1 434 0
 206              		@ sp needed
 430:.\Generated_Source\PSoC4/UART_DEB_UART.c ****     matchReg |= ((uint32)  (address & UART_DEB_RX_MATCH_ADDR_MASK)); /* Set address  */
 207              		.loc 1 430 0
 208 0008 9343     		bic	r3, r2
 209              	.LVL3:
 431:.\Generated_Source\PSoC4/UART_DEB_UART.c ****     matchReg |= ((uint32)  (address & UART_DEB_RX_MATCH_ADDR_MASK)); /* Set address  */
 210              		.loc 1 431 0
 211 000a 1843     		orr	r0, r3
 212              	.LVL4:
 433:.\Generated_Source\PSoC4/UART_DEB_UART.c **** }
 213              		.loc 1 433 0
 214 000c 0860     		str	r0, [r1]
 215              		.loc 1 434 0
 216 000e 7047     		bx	lr
 217              	.L12:
 218              		.align	2
 219              	.L11:
 220 0010 10032440 		.word	1076101904
 221              		.cfi_endproc
 222              	.LFE5:
 223              		.size	UART_DEB_UartSetRxAddress, .-UART_DEB_UartSetRxAddress
ARM GAS  C:\Users\mohammed\AppData\Local\Temp\ccQQZNIO.s 			page 13


 224              		.section	.text.UART_DEB_UartSetRxAddressMask,"ax",%progbits
 225              		.align	1
 226              		.global	UART_DEB_UartSetRxAddressMask
 227              		.code	16
 228              		.thumb_func
 229              		.type	UART_DEB_UartSetRxAddressMask, %function
 230              	UART_DEB_UartSetRxAddressMask:
 231              	.LFB6:
 435:.\Generated_Source\PSoC4/UART_DEB_UART.c **** 
 436:.\Generated_Source\PSoC4/UART_DEB_UART.c **** 
 437:.\Generated_Source\PSoC4/UART_DEB_UART.c **** /*******************************************************************************
 438:.\Generated_Source\PSoC4/UART_DEB_UART.c **** * Function Name: UART_DEB_UartSetRxAddressMask
 439:.\Generated_Source\PSoC4/UART_DEB_UART.c **** ********************************************************************************
 440:.\Generated_Source\PSoC4/UART_DEB_UART.c **** *
 441:.\Generated_Source\PSoC4/UART_DEB_UART.c **** * Summary:
 442:.\Generated_Source\PSoC4/UART_DEB_UART.c **** *  Sets the hardware address mask for the UART in the Multiprocessor mode.
 443:.\Generated_Source\PSoC4/UART_DEB_UART.c **** *
 444:.\Generated_Source\PSoC4/UART_DEB_UART.c **** * Parameters:
 445:.\Generated_Source\PSoC4/UART_DEB_UART.c **** *  addressMask: Address mask.
 446:.\Generated_Source\PSoC4/UART_DEB_UART.c **** *   0 - address bit does not care while comparison.
 447:.\Generated_Source\PSoC4/UART_DEB_UART.c **** *   1 - address bit is significant while comparison.
 448:.\Generated_Source\PSoC4/UART_DEB_UART.c **** *
 449:.\Generated_Source\PSoC4/UART_DEB_UART.c **** * Return:
 450:.\Generated_Source\PSoC4/UART_DEB_UART.c **** *  None
 451:.\Generated_Source\PSoC4/UART_DEB_UART.c **** *
 452:.\Generated_Source\PSoC4/UART_DEB_UART.c **** *******************************************************************************/
 453:.\Generated_Source\PSoC4/UART_DEB_UART.c **** void UART_DEB_UartSetRxAddressMask(uint32 addressMask)
 454:.\Generated_Source\PSoC4/UART_DEB_UART.c **** {
 232              		.loc 1 454 0
 233              		.cfi_startproc
 234              	.LVL5:
 455:.\Generated_Source\PSoC4/UART_DEB_UART.c ****     uint32 matchReg;
 456:.\Generated_Source\PSoC4/UART_DEB_UART.c **** 
 457:.\Generated_Source\PSoC4/UART_DEB_UART.c ****     matchReg = UART_DEB_RX_MATCH_REG;
 235              		.loc 1 457 0
 236 0000 034A     		ldr	r2, .L14
 458:.\Generated_Source\PSoC4/UART_DEB_UART.c **** 
 459:.\Generated_Source\PSoC4/UART_DEB_UART.c ****     matchReg &= ((uint32) ~UART_DEB_RX_MATCH_MASK_MASK); /* Clear address mask bits */
 237              		.loc 1 459 0
 238 0002 044B     		ldr	r3, .L14+4
 457:.\Generated_Source\PSoC4/UART_DEB_UART.c **** 
 239              		.loc 1 457 0
 240 0004 1168     		ldr	r1, [r2]
 241              	.LVL6:
 460:.\Generated_Source\PSoC4/UART_DEB_UART.c ****     matchReg |= ((uint32) (addressMask << UART_DEB_RX_MATCH_MASK_POS));
 242              		.loc 1 460 0
 243 0006 0004     		lsl	r0, r0, #16
 244              	.LVL7:
 459:.\Generated_Source\PSoC4/UART_DEB_UART.c ****     matchReg |= ((uint32) (addressMask << UART_DEB_RX_MATCH_MASK_POS));
 245              		.loc 1 459 0
 246 0008 0B40     		and	r3, r1
 247              	.LVL8:
 248              		.loc 1 460 0
 249 000a 1843     		orr	r0, r3
 250              	.LVL9:
 461:.\Generated_Source\PSoC4/UART_DEB_UART.c **** 
 462:.\Generated_Source\PSoC4/UART_DEB_UART.c ****     UART_DEB_RX_MATCH_REG = matchReg;
ARM GAS  C:\Users\mohammed\AppData\Local\Temp\ccQQZNIO.s 			page 14


 251              		.loc 1 462 0
 252 000c 1060     		str	r0, [r2]
 463:.\Generated_Source\PSoC4/UART_DEB_UART.c **** }
 253              		.loc 1 463 0
 254              		@ sp needed
 255 000e 7047     		bx	lr
 256              	.L15:
 257              		.align	2
 258              	.L14:
 259 0010 10032440 		.word	1076101904
 260 0014 FFFF00FF 		.word	-16711681
 261              		.cfi_endproc
 262              	.LFE6:
 263              		.size	UART_DEB_UartSetRxAddressMask, .-UART_DEB_UartSetRxAddressMask
 264              		.section	.text.UART_DEB_UartGetChar,"ax",%progbits
 265              		.align	1
 266              		.global	UART_DEB_UartGetChar
 267              		.code	16
 268              		.thumb_func
 269              		.type	UART_DEB_UartGetChar, %function
 270              	UART_DEB_UartGetChar:
 271              	.LFB7:
 464:.\Generated_Source\PSoC4/UART_DEB_UART.c **** 
 465:.\Generated_Source\PSoC4/UART_DEB_UART.c **** 
 466:.\Generated_Source\PSoC4/UART_DEB_UART.c **** #if(UART_DEB_UART_RX_DIRECTION)
 467:.\Generated_Source\PSoC4/UART_DEB_UART.c ****     /*******************************************************************************
 468:.\Generated_Source\PSoC4/UART_DEB_UART.c ****     * Function Name: UART_DEB_UartGetChar
 469:.\Generated_Source\PSoC4/UART_DEB_UART.c ****     ********************************************************************************
 470:.\Generated_Source\PSoC4/UART_DEB_UART.c ****     *
 471:.\Generated_Source\PSoC4/UART_DEB_UART.c ****     * Summary:
 472:.\Generated_Source\PSoC4/UART_DEB_UART.c ****     *  Retrieves the next data element from the receive buffer.
 473:.\Generated_Source\PSoC4/UART_DEB_UART.c ****     *  This function is designed for ASCII characters and returns a char
 474:.\Generated_Source\PSoC4/UART_DEB_UART.c ****     *  where 1 to 255 are valid characters and 0 indicates an error occurred or
 475:.\Generated_Source\PSoC4/UART_DEB_UART.c ****     *  no data present.
 476:.\Generated_Source\PSoC4/UART_DEB_UART.c ****     *  - The RX software buffer is disabled: returns the data element
 477:.\Generated_Source\PSoC4/UART_DEB_UART.c ****     *    retrieved from the RX FIFO.
 478:.\Generated_Source\PSoC4/UART_DEB_UART.c ****     *    Undefined data will be returned if the RX FIFO is empty.
 479:.\Generated_Source\PSoC4/UART_DEB_UART.c ****     *  - The RX software buffer is enabled: returns the data element from
 480:.\Generated_Source\PSoC4/UART_DEB_UART.c ****     *    the software receive buffer.
 481:.\Generated_Source\PSoC4/UART_DEB_UART.c ****     *
 482:.\Generated_Source\PSoC4/UART_DEB_UART.c ****     * Parameters:
 483:.\Generated_Source\PSoC4/UART_DEB_UART.c ****     *  None
 484:.\Generated_Source\PSoC4/UART_DEB_UART.c ****     *
 485:.\Generated_Source\PSoC4/UART_DEB_UART.c ****     * Return:
 486:.\Generated_Source\PSoC4/UART_DEB_UART.c ****     *  The next data element from the receive buffer.
 487:.\Generated_Source\PSoC4/UART_DEB_UART.c ****     *  ASCII character values from 1 to 255 are valid.
 488:.\Generated_Source\PSoC4/UART_DEB_UART.c ****     *  A returned zero signifies an error condition or no data available.
 489:.\Generated_Source\PSoC4/UART_DEB_UART.c ****     *
 490:.\Generated_Source\PSoC4/UART_DEB_UART.c ****     * Side Effects:
 491:.\Generated_Source\PSoC4/UART_DEB_UART.c ****     *  The errors bits may not correspond with reading characters due to RX FIFO
 492:.\Generated_Source\PSoC4/UART_DEB_UART.c ****     *  and software buffer usage.
 493:.\Generated_Source\PSoC4/UART_DEB_UART.c ****     *  RX software buffer is enabled: The internal software buffer overflow
 494:.\Generated_Source\PSoC4/UART_DEB_UART.c ****     *  does not treat as an error condition.
 495:.\Generated_Source\PSoC4/UART_DEB_UART.c ****     *  Check SCB_rxBufferOverflow to capture that error condition.
 496:.\Generated_Source\PSoC4/UART_DEB_UART.c ****     *
 497:.\Generated_Source\PSoC4/UART_DEB_UART.c ****     *******************************************************************************/
 498:.\Generated_Source\PSoC4/UART_DEB_UART.c ****     uint32 UART_DEB_UartGetChar(void)
ARM GAS  C:\Users\mohammed\AppData\Local\Temp\ccQQZNIO.s 			page 15


 499:.\Generated_Source\PSoC4/UART_DEB_UART.c ****     {
 272              		.loc 1 499 0
 273              		.cfi_startproc
 274              	.LVL10:
 275 0000 08B5     		push	{r3, lr}
 276              		.cfi_def_cfa_offset 8
 277              		.cfi_offset 3, -8
 278              		.cfi_offset 14, -4
 500:.\Generated_Source\PSoC4/UART_DEB_UART.c ****         uint32 rxData = 0u;
 501:.\Generated_Source\PSoC4/UART_DEB_UART.c **** 
 502:.\Generated_Source\PSoC4/UART_DEB_UART.c ****         /* Reads data only if there is data to read */
 503:.\Generated_Source\PSoC4/UART_DEB_UART.c ****         if (0u != UART_DEB_SpiUartGetRxBufferSize())
 279              		.loc 1 503 0
 280 0002 FFF7FEFF 		bl	UART_DEB_SpiUartGetRxBufferSize
 281              	.LVL11:
 282 0006 031C     		mov	r3, r0
 500:.\Generated_Source\PSoC4/UART_DEB_UART.c ****         uint32 rxData = 0u;
 283              		.loc 1 500 0
 284 0008 0020     		mov	r0, #0
 285              		.loc 1 503 0
 286 000a 8342     		cmp	r3, r0
 287 000c 01D0     		beq	.L17
 504:.\Generated_Source\PSoC4/UART_DEB_UART.c ****         {
 505:.\Generated_Source\PSoC4/UART_DEB_UART.c ****             rxData = UART_DEB_SpiUartReadRxData();
 288              		.loc 1 505 0
 289 000e FFF7FEFF 		bl	UART_DEB_SpiUartReadRxData
 290              	.LVL12:
 291              	.L17:
 506:.\Generated_Source\PSoC4/UART_DEB_UART.c ****         }
 507:.\Generated_Source\PSoC4/UART_DEB_UART.c **** 
 508:.\Generated_Source\PSoC4/UART_DEB_UART.c ****         if (UART_DEB_CHECK_INTR_RX(UART_DEB_INTR_RX_ERR))
 292              		.loc 1 508 0
 293 0012 D822     		mov	r2, #216
 294 0014 034B     		ldr	r3, .L25
 295 0016 9200     		lsl	r2, r2, #2
 296 0018 1968     		ldr	r1, [r3]
 297 001a 1142     		tst	r1, r2
 298 001c 01D0     		beq	.L18
 299              	.LVL13:
 509:.\Generated_Source\PSoC4/UART_DEB_UART.c ****         {
 510:.\Generated_Source\PSoC4/UART_DEB_UART.c ****             rxData = 0u; /* Error occurred: returns zero */
 300              		.loc 1 510 0
 301 001e 0020     		mov	r0, #0
 511:.\Generated_Source\PSoC4/UART_DEB_UART.c ****             UART_DEB_ClearRxInterruptSource(UART_DEB_INTR_RX_ERR);
 302              		.loc 1 511 0
 303 0020 1A60     		str	r2, [r3]
 304              	.LVL14:
 305              	.L18:
 512:.\Generated_Source\PSoC4/UART_DEB_UART.c ****         }
 513:.\Generated_Source\PSoC4/UART_DEB_UART.c **** 
 514:.\Generated_Source\PSoC4/UART_DEB_UART.c ****         return (rxData);
 515:.\Generated_Source\PSoC4/UART_DEB_UART.c ****     }
 306              		.loc 1 515 0
 307              		@ sp needed
 308 0022 08BD     		pop	{r3, pc}
 309              	.L26:
 310              		.align	2
ARM GAS  C:\Users\mohammed\AppData\Local\Temp\ccQQZNIO.s 			page 16


 311              	.L25:
 312 0024 C00F2440 		.word	1076105152
 313              		.cfi_endproc
 314              	.LFE7:
 315              		.size	UART_DEB_UartGetChar, .-UART_DEB_UartGetChar
 316              		.section	.text.UART_DEB_UartGetByte,"ax",%progbits
 317              		.align	1
 318              		.global	UART_DEB_UartGetByte
 319              		.code	16
 320              		.thumb_func
 321              		.type	UART_DEB_UartGetByte, %function
 322              	UART_DEB_UartGetByte:
 323              	.LFB8:
 516:.\Generated_Source\PSoC4/UART_DEB_UART.c **** 
 517:.\Generated_Source\PSoC4/UART_DEB_UART.c **** 
 518:.\Generated_Source\PSoC4/UART_DEB_UART.c ****     /*******************************************************************************
 519:.\Generated_Source\PSoC4/UART_DEB_UART.c ****     * Function Name: UART_DEB_UartGetByte
 520:.\Generated_Source\PSoC4/UART_DEB_UART.c ****     ********************************************************************************
 521:.\Generated_Source\PSoC4/UART_DEB_UART.c ****     *
 522:.\Generated_Source\PSoC4/UART_DEB_UART.c ****     * Summary:
 523:.\Generated_Source\PSoC4/UART_DEB_UART.c ****     *  Retrieves the next data element from the receive buffer, returns the
 524:.\Generated_Source\PSoC4/UART_DEB_UART.c ****     *  received byte and error condition.
 525:.\Generated_Source\PSoC4/UART_DEB_UART.c ****     *   - The RX software buffer is disabled: returns the data element retrieved
 526:.\Generated_Source\PSoC4/UART_DEB_UART.c ****     *     from the RX FIFO. Undefined data will be returned if the RX FIFO is
 527:.\Generated_Source\PSoC4/UART_DEB_UART.c ****     *     empty.
 528:.\Generated_Source\PSoC4/UART_DEB_UART.c ****     *   - The RX software buffer is enabled: returns data element from the
 529:.\Generated_Source\PSoC4/UART_DEB_UART.c ****     *     software receive buffer.
 530:.\Generated_Source\PSoC4/UART_DEB_UART.c ****     *
 531:.\Generated_Source\PSoC4/UART_DEB_UART.c ****     * Parameters:
 532:.\Generated_Source\PSoC4/UART_DEB_UART.c ****     *  None
 533:.\Generated_Source\PSoC4/UART_DEB_UART.c ****     *
 534:.\Generated_Source\PSoC4/UART_DEB_UART.c ****     * Return:
 535:.\Generated_Source\PSoC4/UART_DEB_UART.c ****     *  Bits 7-0 contain the next data element from the receive buffer and
 536:.\Generated_Source\PSoC4/UART_DEB_UART.c ****     *  other bits contain the error condition.
 537:.\Generated_Source\PSoC4/UART_DEB_UART.c ****     *
 538:.\Generated_Source\PSoC4/UART_DEB_UART.c ****     * Side Effects:
 539:.\Generated_Source\PSoC4/UART_DEB_UART.c ****     *  The errors bits may not correspond with reading characters due to RX FIFO
 540:.\Generated_Source\PSoC4/UART_DEB_UART.c ****     *  and software buffer usage.
 541:.\Generated_Source\PSoC4/UART_DEB_UART.c ****     *  RX software buffer is disabled: The internal software buffer overflow
 542:.\Generated_Source\PSoC4/UART_DEB_UART.c ****     *  is not returned as status by this function.
 543:.\Generated_Source\PSoC4/UART_DEB_UART.c ****     *  Check SCB_rxBufferOverflow to capture that error condition.
 544:.\Generated_Source\PSoC4/UART_DEB_UART.c ****     *
 545:.\Generated_Source\PSoC4/UART_DEB_UART.c ****     *******************************************************************************/
 546:.\Generated_Source\PSoC4/UART_DEB_UART.c ****     uint32 UART_DEB_UartGetByte(void)
 547:.\Generated_Source\PSoC4/UART_DEB_UART.c ****     {
 324              		.loc 1 547 0
 325              		.cfi_startproc
 326 0000 08B5     		push	{r3, lr}
 327              		.cfi_def_cfa_offset 8
 328              		.cfi_offset 3, -8
 329              		.cfi_offset 14, -4
 548:.\Generated_Source\PSoC4/UART_DEB_UART.c ****         uint32 rxData;
 549:.\Generated_Source\PSoC4/UART_DEB_UART.c ****         uint32 tmpStatus;
 550:.\Generated_Source\PSoC4/UART_DEB_UART.c **** 
 551:.\Generated_Source\PSoC4/UART_DEB_UART.c ****         #if (UART_DEB_CHECK_RX_SW_BUFFER)
 552:.\Generated_Source\PSoC4/UART_DEB_UART.c ****         {
 553:.\Generated_Source\PSoC4/UART_DEB_UART.c ****             UART_DEB_DisableInt();
ARM GAS  C:\Users\mohammed\AppData\Local\Temp\ccQQZNIO.s 			page 17


 554:.\Generated_Source\PSoC4/UART_DEB_UART.c ****         }
 555:.\Generated_Source\PSoC4/UART_DEB_UART.c ****         #endif
 556:.\Generated_Source\PSoC4/UART_DEB_UART.c **** 
 557:.\Generated_Source\PSoC4/UART_DEB_UART.c ****         if (0u != UART_DEB_SpiUartGetRxBufferSize())
 330              		.loc 1 557 0
 331 0002 FFF7FEFF 		bl	UART_DEB_SpiUartGetRxBufferSize
 332              	.LVL15:
 333 0006 0028     		cmp	r0, #0
 334 0008 02D0     		beq	.L28
 558:.\Generated_Source\PSoC4/UART_DEB_UART.c ****         {
 559:.\Generated_Source\PSoC4/UART_DEB_UART.c ****             /* Enables interrupt to receive more bytes: at least one byte is in
 560:.\Generated_Source\PSoC4/UART_DEB_UART.c ****             * buffer.
 561:.\Generated_Source\PSoC4/UART_DEB_UART.c ****             */
 562:.\Generated_Source\PSoC4/UART_DEB_UART.c ****             #if (UART_DEB_CHECK_RX_SW_BUFFER)
 563:.\Generated_Source\PSoC4/UART_DEB_UART.c ****             {            
 564:.\Generated_Source\PSoC4/UART_DEB_UART.c ****                 UART_DEB_EnableInt();
 565:.\Generated_Source\PSoC4/UART_DEB_UART.c ****             }
 566:.\Generated_Source\PSoC4/UART_DEB_UART.c ****             #endif
 567:.\Generated_Source\PSoC4/UART_DEB_UART.c **** 
 568:.\Generated_Source\PSoC4/UART_DEB_UART.c ****             /* Get received byte */
 569:.\Generated_Source\PSoC4/UART_DEB_UART.c ****             rxData = UART_DEB_SpiUartReadRxData();
 335              		.loc 1 569 0
 336 000a FFF7FEFF 		bl	UART_DEB_SpiUartReadRxData
 337              	.LVL16:
 338 000e 01E0     		b	.L29
 339              	.LVL17:
 340              	.L28:
 570:.\Generated_Source\PSoC4/UART_DEB_UART.c ****         }
 571:.\Generated_Source\PSoC4/UART_DEB_UART.c ****         else
 572:.\Generated_Source\PSoC4/UART_DEB_UART.c ****         {
 573:.\Generated_Source\PSoC4/UART_DEB_UART.c ****             /* Reads a byte directly from RX FIFO: underflow is raised in the case
 574:.\Generated_Source\PSoC4/UART_DEB_UART.c ****             * of empty. Otherwise the first received byte will be read.
 575:.\Generated_Source\PSoC4/UART_DEB_UART.c ****             */
 576:.\Generated_Source\PSoC4/UART_DEB_UART.c ****             rxData = UART_DEB_RX_FIFO_RD_REG;
 341              		.loc 1 576 0
 342 0010 054B     		ldr	r3, .L30
 343 0012 1868     		ldr	r0, [r3]
 344              	.LVL18:
 345              	.L29:
 577:.\Generated_Source\PSoC4/UART_DEB_UART.c **** 
 578:.\Generated_Source\PSoC4/UART_DEB_UART.c ****             /* Enables interrupt to receive more bytes.
 579:.\Generated_Source\PSoC4/UART_DEB_UART.c ****             * The RX_NOT_EMPTY interrupt is cleared by the interrupt routine
 580:.\Generated_Source\PSoC4/UART_DEB_UART.c ****             * in case the byte was received and read by code above.
 581:.\Generated_Source\PSoC4/UART_DEB_UART.c ****             */
 582:.\Generated_Source\PSoC4/UART_DEB_UART.c ****             #if (UART_DEB_CHECK_RX_SW_BUFFER)
 583:.\Generated_Source\PSoC4/UART_DEB_UART.c ****             {
 584:.\Generated_Source\PSoC4/UART_DEB_UART.c ****                 UART_DEB_EnableInt();
 585:.\Generated_Source\PSoC4/UART_DEB_UART.c ****             }
 586:.\Generated_Source\PSoC4/UART_DEB_UART.c ****             #endif
 587:.\Generated_Source\PSoC4/UART_DEB_UART.c ****         }
 588:.\Generated_Source\PSoC4/UART_DEB_UART.c **** 
 589:.\Generated_Source\PSoC4/UART_DEB_UART.c ****         /* Get and clear RX error mask */
 590:.\Generated_Source\PSoC4/UART_DEB_UART.c ****         tmpStatus = (UART_DEB_GetRxInterruptSource() & UART_DEB_INTR_RX_ERR);
 591:.\Generated_Source\PSoC4/UART_DEB_UART.c ****         UART_DEB_ClearRxInterruptSource(UART_DEB_INTR_RX_ERR);
 346              		.loc 1 591 0
 347 0014 D823     		mov	r3, #216
 590:.\Generated_Source\PSoC4/UART_DEB_UART.c ****         UART_DEB_ClearRxInterruptSource(UART_DEB_INTR_RX_ERR);
ARM GAS  C:\Users\mohammed\AppData\Local\Temp\ccQQZNIO.s 			page 18


 348              		.loc 1 590 0
 349 0016 054A     		ldr	r2, .L30+4
 350              		.loc 1 591 0
 351 0018 9B00     		lsl	r3, r3, #2
 590:.\Generated_Source\PSoC4/UART_DEB_UART.c ****         UART_DEB_ClearRxInterruptSource(UART_DEB_INTR_RX_ERR);
 352              		.loc 1 590 0
 353 001a 1168     		ldr	r1, [r2]
 354              	.LVL19:
 355              		.loc 1 591 0
 356 001c 1360     		str	r3, [r2]
 357              	.LVL20:
 590:.\Generated_Source\PSoC4/UART_DEB_UART.c ****         UART_DEB_ClearRxInterruptSource(UART_DEB_INTR_RX_ERR);
 358              		.loc 1 590 0
 359 001e 0B40     		and	r3, r1
 592:.\Generated_Source\PSoC4/UART_DEB_UART.c **** 
 593:.\Generated_Source\PSoC4/UART_DEB_UART.c ****         /* Puts together data and error status:
 594:.\Generated_Source\PSoC4/UART_DEB_UART.c ****         * MP mode and accept address: 9th bit is set to notify mark.
 595:.\Generated_Source\PSoC4/UART_DEB_UART.c ****         */
 596:.\Generated_Source\PSoC4/UART_DEB_UART.c ****         rxData |= ((uint32) (tmpStatus << 8u));
 360              		.loc 1 596 0
 361 0020 1B02     		lsl	r3, r3, #8
 362 0022 1843     		orr	r0, r3
 363              	.LVL21:
 597:.\Generated_Source\PSoC4/UART_DEB_UART.c **** 
 598:.\Generated_Source\PSoC4/UART_DEB_UART.c ****         return (rxData);
 599:.\Generated_Source\PSoC4/UART_DEB_UART.c ****     }
 364              		.loc 1 599 0
 365              		@ sp needed
 366 0024 08BD     		pop	{r3, pc}
 367              	.L31:
 368 0026 C046     		.align	2
 369              	.L30:
 370 0028 40032440 		.word	1076101952
 371 002c C00F2440 		.word	1076105152
 372              		.cfi_endproc
 373              	.LFE8:
 374              		.size	UART_DEB_UartGetByte, .-UART_DEB_UartGetByte
 375              		.section	.text.UART_DEB_UartSetRtsPolarity,"ax",%progbits
 376              		.align	1
 377              		.global	UART_DEB_UartSetRtsPolarity
 378              		.code	16
 379              		.thumb_func
 380              		.type	UART_DEB_UartSetRtsPolarity, %function
 381              	UART_DEB_UartSetRtsPolarity:
 382              	.LFB9:
 600:.\Generated_Source\PSoC4/UART_DEB_UART.c **** 
 601:.\Generated_Source\PSoC4/UART_DEB_UART.c **** 
 602:.\Generated_Source\PSoC4/UART_DEB_UART.c ****     #if !(UART_DEB_CY_SCBIP_V0 || UART_DEB_CY_SCBIP_V1)
 603:.\Generated_Source\PSoC4/UART_DEB_UART.c ****         /*******************************************************************************
 604:.\Generated_Source\PSoC4/UART_DEB_UART.c ****         * Function Name: UART_DEB_UartSetRtsPolarity
 605:.\Generated_Source\PSoC4/UART_DEB_UART.c ****         ********************************************************************************
 606:.\Generated_Source\PSoC4/UART_DEB_UART.c ****         *
 607:.\Generated_Source\PSoC4/UART_DEB_UART.c ****         * Summary:
 608:.\Generated_Source\PSoC4/UART_DEB_UART.c ****         *  Sets active polarity of RTS output signal.
 609:.\Generated_Source\PSoC4/UART_DEB_UART.c ****         *
 610:.\Generated_Source\PSoC4/UART_DEB_UART.c ****         * Parameters:
 611:.\Generated_Source\PSoC4/UART_DEB_UART.c ****         *  polarity: Active polarity of RTS output signal.
ARM GAS  C:\Users\mohammed\AppData\Local\Temp\ccQQZNIO.s 			page 19


 612:.\Generated_Source\PSoC4/UART_DEB_UART.c ****         *   UART_DEB_UART_RTS_ACTIVE_LOW  - RTS signal is active low.
 613:.\Generated_Source\PSoC4/UART_DEB_UART.c ****         *   UART_DEB_UART_RTS_ACTIVE_HIGH - RTS signal is active high.
 614:.\Generated_Source\PSoC4/UART_DEB_UART.c ****         *
 615:.\Generated_Source\PSoC4/UART_DEB_UART.c ****         * Return:
 616:.\Generated_Source\PSoC4/UART_DEB_UART.c ****         *  None
 617:.\Generated_Source\PSoC4/UART_DEB_UART.c ****         *
 618:.\Generated_Source\PSoC4/UART_DEB_UART.c ****         *******************************************************************************/
 619:.\Generated_Source\PSoC4/UART_DEB_UART.c ****         void UART_DEB_UartSetRtsPolarity(uint32 polarity)
 620:.\Generated_Source\PSoC4/UART_DEB_UART.c ****         {
 383              		.loc 1 620 0
 384              		.cfi_startproc
 385              	.LVL22:
 386 0000 064B     		ldr	r3, .L36
 621:.\Generated_Source\PSoC4/UART_DEB_UART.c ****             if(0u != polarity)
 387              		.loc 1 621 0
 388 0002 0028     		cmp	r0, #0
 389 0004 04D0     		beq	.L33
 622:.\Generated_Source\PSoC4/UART_DEB_UART.c ****             {
 623:.\Generated_Source\PSoC4/UART_DEB_UART.c ****                 UART_DEB_UART_FLOW_CTRL_REG |= (uint32)  UART_DEB_UART_FLOW_CTRL_RTS_POLARITY;
 390              		.loc 1 623 0
 391 0006 8021     		mov	r1, #128
 392 0008 1A68     		ldr	r2, [r3]
 393 000a 4902     		lsl	r1, r1, #9
 394 000c 0A43     		orr	r2, r1
 395 000e 02E0     		b	.L35
 396              	.L33:
 624:.\Generated_Source\PSoC4/UART_DEB_UART.c ****             }
 625:.\Generated_Source\PSoC4/UART_DEB_UART.c ****             else
 626:.\Generated_Source\PSoC4/UART_DEB_UART.c ****             {
 627:.\Generated_Source\PSoC4/UART_DEB_UART.c ****                 UART_DEB_UART_FLOW_CTRL_REG &= (uint32) ~UART_DEB_UART_FLOW_CTRL_RTS_POLARITY;
 397              		.loc 1 627 0
 398 0010 1968     		ldr	r1, [r3]
 399 0012 034A     		ldr	r2, .L36+4
 400 0014 0A40     		and	r2, r1
 401              	.L35:
 402 0016 1A60     		str	r2, [r3]
 628:.\Generated_Source\PSoC4/UART_DEB_UART.c ****             }
 629:.\Generated_Source\PSoC4/UART_DEB_UART.c ****         }
 403              		.loc 1 629 0
 404              		@ sp needed
 405 0018 7047     		bx	lr
 406              	.L37:
 407 001a C046     		.align	2
 408              	.L36:
 409 001c 50002440 		.word	1076101200
 410 0020 FFFFFEFF 		.word	-65537
 411              		.cfi_endproc
 412              	.LFE9:
 413              		.size	UART_DEB_UartSetRtsPolarity, .-UART_DEB_UartSetRtsPolarity
 414              		.section	.text.UART_DEB_UartSetRtsFifoLevel,"ax",%progbits
 415              		.align	1
 416              		.global	UART_DEB_UartSetRtsFifoLevel
 417              		.code	16
 418              		.thumb_func
 419              		.type	UART_DEB_UartSetRtsFifoLevel, %function
 420              	UART_DEB_UartSetRtsFifoLevel:
 421              	.LFB10:
ARM GAS  C:\Users\mohammed\AppData\Local\Temp\ccQQZNIO.s 			page 20


 630:.\Generated_Source\PSoC4/UART_DEB_UART.c **** 
 631:.\Generated_Source\PSoC4/UART_DEB_UART.c **** 
 632:.\Generated_Source\PSoC4/UART_DEB_UART.c ****         /*******************************************************************************
 633:.\Generated_Source\PSoC4/UART_DEB_UART.c ****         * Function Name: UART_DEB_UartSetRtsFifoLevel
 634:.\Generated_Source\PSoC4/UART_DEB_UART.c ****         ********************************************************************************
 635:.\Generated_Source\PSoC4/UART_DEB_UART.c ****         *
 636:.\Generated_Source\PSoC4/UART_DEB_UART.c ****         * Summary:
 637:.\Generated_Source\PSoC4/UART_DEB_UART.c ****         *  Sets level in the RX FIFO for RTS signal activation.
 638:.\Generated_Source\PSoC4/UART_DEB_UART.c ****         *  While the RX FIFO has fewer entries than the RX FIFO level the RTS signal
 639:.\Generated_Source\PSoC4/UART_DEB_UART.c ****         *  remains active, otherwise the RTS signal becomes inactive.
 640:.\Generated_Source\PSoC4/UART_DEB_UART.c ****         *
 641:.\Generated_Source\PSoC4/UART_DEB_UART.c ****         * Parameters:
 642:.\Generated_Source\PSoC4/UART_DEB_UART.c ****         *  level: Level in the RX FIFO for RTS signal activation.
 643:.\Generated_Source\PSoC4/UART_DEB_UART.c ****         *         The range of valid level values is between 0 and RX FIFO depth - 1.
 644:.\Generated_Source\PSoC4/UART_DEB_UART.c ****         *         Setting level value to 0 disables RTS signal activation.
 645:.\Generated_Source\PSoC4/UART_DEB_UART.c ****         *
 646:.\Generated_Source\PSoC4/UART_DEB_UART.c ****         * Return:
 647:.\Generated_Source\PSoC4/UART_DEB_UART.c ****         *  None
 648:.\Generated_Source\PSoC4/UART_DEB_UART.c ****         *
 649:.\Generated_Source\PSoC4/UART_DEB_UART.c ****         *******************************************************************************/
 650:.\Generated_Source\PSoC4/UART_DEB_UART.c ****         void UART_DEB_UartSetRtsFifoLevel(uint32 level)
 651:.\Generated_Source\PSoC4/UART_DEB_UART.c ****         {
 422              		.loc 1 651 0
 423              		.cfi_startproc
 424              	.LVL23:
 652:.\Generated_Source\PSoC4/UART_DEB_UART.c ****             uint32 uartFlowCtrl;
 653:.\Generated_Source\PSoC4/UART_DEB_UART.c **** 
 654:.\Generated_Source\PSoC4/UART_DEB_UART.c ****             uartFlowCtrl = UART_DEB_UART_FLOW_CTRL_REG;
 655:.\Generated_Source\PSoC4/UART_DEB_UART.c **** 
 656:.\Generated_Source\PSoC4/UART_DEB_UART.c ****             uartFlowCtrl &= ((uint32) ~UART_DEB_UART_FLOW_CTRL_TRIGGER_LEVEL_MASK); /* Clear level 
 425              		.loc 1 656 0
 426 0000 0F22     		mov	r2, #15
 654:.\Generated_Source\PSoC4/UART_DEB_UART.c **** 
 427              		.loc 1 654 0
 428 0002 0349     		ldr	r1, .L39
 657:.\Generated_Source\PSoC4/UART_DEB_UART.c ****             uartFlowCtrl |= ((uint32) (UART_DEB_UART_FLOW_CTRL_TRIGGER_LEVEL_MASK & level));
 429              		.loc 1 657 0
 430 0004 1040     		and	r0, r2
 431              	.LVL24:
 654:.\Generated_Source\PSoC4/UART_DEB_UART.c **** 
 432              		.loc 1 654 0
 433 0006 0B68     		ldr	r3, [r1]
 434              	.LVL25:
 658:.\Generated_Source\PSoC4/UART_DEB_UART.c **** 
 659:.\Generated_Source\PSoC4/UART_DEB_UART.c ****             UART_DEB_UART_FLOW_CTRL_REG = uartFlowCtrl;
 660:.\Generated_Source\PSoC4/UART_DEB_UART.c ****         }
 435              		.loc 1 660 0
 436              		@ sp needed
 656:.\Generated_Source\PSoC4/UART_DEB_UART.c ****             uartFlowCtrl |= ((uint32) (UART_DEB_UART_FLOW_CTRL_TRIGGER_LEVEL_MASK & level));
 437              		.loc 1 656 0
 438 0008 9343     		bic	r3, r2
 439              	.LVL26:
 657:.\Generated_Source\PSoC4/UART_DEB_UART.c ****             uartFlowCtrl |= ((uint32) (UART_DEB_UART_FLOW_CTRL_TRIGGER_LEVEL_MASK & level));
 440              		.loc 1 657 0
 441 000a 1843     		orr	r0, r3
 442              	.LVL27:
 659:.\Generated_Source\PSoC4/UART_DEB_UART.c ****         }
ARM GAS  C:\Users\mohammed\AppData\Local\Temp\ccQQZNIO.s 			page 21


 443              		.loc 1 659 0
 444 000c 0860     		str	r0, [r1]
 445              		.loc 1 660 0
 446 000e 7047     		bx	lr
 447              	.L40:
 448              		.align	2
 449              	.L39:
 450 0010 50002440 		.word	1076101200
 451              		.cfi_endproc
 452              	.LFE10:
 453              		.size	UART_DEB_UartSetRtsFifoLevel, .-UART_DEB_UartSetRtsFifoLevel
 454              		.section	.text.UART_DEB_UartPutString,"ax",%progbits
 455              		.align	1
 456              		.global	UART_DEB_UartPutString
 457              		.code	16
 458              		.thumb_func
 459              		.type	UART_DEB_UartPutString, %function
 460              	UART_DEB_UartPutString:
 461              	.LFB11:
 661:.\Generated_Source\PSoC4/UART_DEB_UART.c ****     #endif /* !(UART_DEB_CY_SCBIP_V0 || UART_DEB_CY_SCBIP_V1) */
 662:.\Generated_Source\PSoC4/UART_DEB_UART.c **** 
 663:.\Generated_Source\PSoC4/UART_DEB_UART.c **** #endif /* (UART_DEB_UART_RX_DIRECTION) */
 664:.\Generated_Source\PSoC4/UART_DEB_UART.c **** 
 665:.\Generated_Source\PSoC4/UART_DEB_UART.c **** 
 666:.\Generated_Source\PSoC4/UART_DEB_UART.c **** #if(UART_DEB_UART_TX_DIRECTION)
 667:.\Generated_Source\PSoC4/UART_DEB_UART.c ****     /*******************************************************************************
 668:.\Generated_Source\PSoC4/UART_DEB_UART.c ****     * Function Name: UART_DEB_UartPutString
 669:.\Generated_Source\PSoC4/UART_DEB_UART.c ****     ********************************************************************************
 670:.\Generated_Source\PSoC4/UART_DEB_UART.c ****     *
 671:.\Generated_Source\PSoC4/UART_DEB_UART.c ****     * Summary:
 672:.\Generated_Source\PSoC4/UART_DEB_UART.c ****     *  Places a NULL terminated string in the transmit buffer to be sent at the
 673:.\Generated_Source\PSoC4/UART_DEB_UART.c ****     *  next available bus time.
 674:.\Generated_Source\PSoC4/UART_DEB_UART.c ****     *  This function is blocking and waits until there is space available to put
 675:.\Generated_Source\PSoC4/UART_DEB_UART.c ****     *  all the requested data into the  transmit buffer.
 676:.\Generated_Source\PSoC4/UART_DEB_UART.c ****     *
 677:.\Generated_Source\PSoC4/UART_DEB_UART.c ****     * Parameters:
 678:.\Generated_Source\PSoC4/UART_DEB_UART.c ****     *  string: pointer to the null terminated string array to be placed in the
 679:.\Generated_Source\PSoC4/UART_DEB_UART.c ****     *          transmit buffer.
 680:.\Generated_Source\PSoC4/UART_DEB_UART.c ****     *
 681:.\Generated_Source\PSoC4/UART_DEB_UART.c ****     * Return:
 682:.\Generated_Source\PSoC4/UART_DEB_UART.c ****     *  None
 683:.\Generated_Source\PSoC4/UART_DEB_UART.c ****     *
 684:.\Generated_Source\PSoC4/UART_DEB_UART.c ****     *******************************************************************************/
 685:.\Generated_Source\PSoC4/UART_DEB_UART.c ****     void UART_DEB_UartPutString(const char8 string[])
 686:.\Generated_Source\PSoC4/UART_DEB_UART.c ****     {
 462              		.loc 1 686 0
 463              		.cfi_startproc
 464              	.LVL28:
 465 0000 10B5     		push	{r4, lr}
 466              		.cfi_def_cfa_offset 8
 467              		.cfi_offset 4, -8
 468              		.cfi_offset 14, -4
 469 0002 041C     		mov	r4, r0
 470              	.LVL29:
 471              	.L42:
 472 0004 0134     		add	r4, r4, #1
 473              	.LVL30:
ARM GAS  C:\Users\mohammed\AppData\Local\Temp\ccQQZNIO.s 			page 22


 474 0006 631E     		sub	r3, r4, #1
 687:.\Generated_Source\PSoC4/UART_DEB_UART.c ****         uint32 bufIndex;
 688:.\Generated_Source\PSoC4/UART_DEB_UART.c **** 
 689:.\Generated_Source\PSoC4/UART_DEB_UART.c ****         bufIndex = 0u;
 690:.\Generated_Source\PSoC4/UART_DEB_UART.c **** 
 691:.\Generated_Source\PSoC4/UART_DEB_UART.c ****         /* Blocks the control flow until all data has been sent */
 692:.\Generated_Source\PSoC4/UART_DEB_UART.c ****         while(string[bufIndex] != ((char8) 0))
 475              		.loc 1 692 0
 476 0008 1878     		ldrb	r0, [r3]
 477 000a 0028     		cmp	r0, #0
 478 000c 02D0     		beq	.L44
 693:.\Generated_Source\PSoC4/UART_DEB_UART.c ****         {
 694:.\Generated_Source\PSoC4/UART_DEB_UART.c ****             UART_DEB_UartPutChar((uint32) string[bufIndex]);
 479              		.loc 1 694 0
 480 000e FFF7FEFF 		bl	UART_DEB_SpiUartWriteTxData
 481              	.LVL31:
 482 0012 F7E7     		b	.L42
 483              	.LVL32:
 484              	.L44:
 695:.\Generated_Source\PSoC4/UART_DEB_UART.c ****             bufIndex++;
 696:.\Generated_Source\PSoC4/UART_DEB_UART.c ****         }
 697:.\Generated_Source\PSoC4/UART_DEB_UART.c ****     }
 485              		.loc 1 697 0
 486              		@ sp needed
 487              	.LVL33:
 488 0014 10BD     		pop	{r4, pc}
 489              		.cfi_endproc
 490              	.LFE11:
 491              		.size	UART_DEB_UartPutString, .-UART_DEB_UartPutString
 492              		.section	.text.UART_DEB_UartPutCRLF,"ax",%progbits
 493              		.align	1
 494              		.global	UART_DEB_UartPutCRLF
 495              		.code	16
 496              		.thumb_func
 497              		.type	UART_DEB_UartPutCRLF, %function
 498              	UART_DEB_UartPutCRLF:
 499              	.LFB12:
 698:.\Generated_Source\PSoC4/UART_DEB_UART.c **** 
 699:.\Generated_Source\PSoC4/UART_DEB_UART.c **** 
 700:.\Generated_Source\PSoC4/UART_DEB_UART.c ****     /*******************************************************************************
 701:.\Generated_Source\PSoC4/UART_DEB_UART.c ****     * Function Name: UART_DEB_UartPutCRLF
 702:.\Generated_Source\PSoC4/UART_DEB_UART.c ****     ********************************************************************************
 703:.\Generated_Source\PSoC4/UART_DEB_UART.c ****     *
 704:.\Generated_Source\PSoC4/UART_DEB_UART.c ****     * Summary:
 705:.\Generated_Source\PSoC4/UART_DEB_UART.c ****     *  Places a byte of data followed by a carriage return (0x0D) and
 706:.\Generated_Source\PSoC4/UART_DEB_UART.c ****     *  line feed (0x0A) into the transmit buffer.
 707:.\Generated_Source\PSoC4/UART_DEB_UART.c ****     *  This function is blocking and waits until there is space available to put
 708:.\Generated_Source\PSoC4/UART_DEB_UART.c ****     *  all the requested data into the  transmit buffer.
 709:.\Generated_Source\PSoC4/UART_DEB_UART.c ****     *
 710:.\Generated_Source\PSoC4/UART_DEB_UART.c ****     * Parameters:
 711:.\Generated_Source\PSoC4/UART_DEB_UART.c ****     *  txDataByte : the data to be transmitted.
 712:.\Generated_Source\PSoC4/UART_DEB_UART.c ****     *
 713:.\Generated_Source\PSoC4/UART_DEB_UART.c ****     * Return:
 714:.\Generated_Source\PSoC4/UART_DEB_UART.c ****     *  None
 715:.\Generated_Source\PSoC4/UART_DEB_UART.c ****     *
 716:.\Generated_Source\PSoC4/UART_DEB_UART.c ****     *******************************************************************************/
 717:.\Generated_Source\PSoC4/UART_DEB_UART.c ****     void UART_DEB_UartPutCRLF(uint32 txDataByte)
ARM GAS  C:\Users\mohammed\AppData\Local\Temp\ccQQZNIO.s 			page 23


 718:.\Generated_Source\PSoC4/UART_DEB_UART.c ****     {
 500              		.loc 1 718 0
 501              		.cfi_startproc
 502              	.LVL34:
 503 0000 08B5     		push	{r3, lr}
 504              		.cfi_def_cfa_offset 8
 505              		.cfi_offset 3, -8
 506              		.cfi_offset 14, -4
 719:.\Generated_Source\PSoC4/UART_DEB_UART.c ****         UART_DEB_UartPutChar(txDataByte);  /* Blocks control flow until all data has been sent */
 507              		.loc 1 719 0
 508 0002 FFF7FEFF 		bl	UART_DEB_SpiUartWriteTxData
 509              	.LVL35:
 720:.\Generated_Source\PSoC4/UART_DEB_UART.c ****         UART_DEB_UartPutChar(0x0Du);       /* Blocks control flow until all data has been sent */
 510              		.loc 1 720 0
 511 0006 0D20     		mov	r0, #13
 512 0008 FFF7FEFF 		bl	UART_DEB_SpiUartWriteTxData
 513              	.LVL36:
 721:.\Generated_Source\PSoC4/UART_DEB_UART.c ****         UART_DEB_UartPutChar(0x0Au);       /* Blocks control flow until all data has been sent */
 514              		.loc 1 721 0
 515 000c 0A20     		mov	r0, #10
 516 000e FFF7FEFF 		bl	UART_DEB_SpiUartWriteTxData
 517              	.LVL37:
 722:.\Generated_Source\PSoC4/UART_DEB_UART.c ****     }
 518              		.loc 1 722 0
 519              		@ sp needed
 520 0012 08BD     		pop	{r3, pc}
 521              		.cfi_endproc
 522              	.LFE12:
 523              		.size	UART_DEB_UartPutCRLF, .-UART_DEB_UartPutCRLF
 524              		.section	.text.UART_DEB_UartEnableCts,"ax",%progbits
 525              		.align	1
 526              		.global	UART_DEB_UartEnableCts
 527              		.code	16
 528              		.thumb_func
 529              		.type	UART_DEB_UartEnableCts, %function
 530              	UART_DEB_UartEnableCts:
 531              	.LFB13:
 723:.\Generated_Source\PSoC4/UART_DEB_UART.c **** 
 724:.\Generated_Source\PSoC4/UART_DEB_UART.c **** 
 725:.\Generated_Source\PSoC4/UART_DEB_UART.c ****     #if !(UART_DEB_CY_SCBIP_V0 || UART_DEB_CY_SCBIP_V1)
 726:.\Generated_Source\PSoC4/UART_DEB_UART.c ****         /*******************************************************************************
 727:.\Generated_Source\PSoC4/UART_DEB_UART.c ****         * Function Name: UART_DEBSCB_UartEnableCts
 728:.\Generated_Source\PSoC4/UART_DEB_UART.c ****         ********************************************************************************
 729:.\Generated_Source\PSoC4/UART_DEB_UART.c ****         *
 730:.\Generated_Source\PSoC4/UART_DEB_UART.c ****         * Summary:
 731:.\Generated_Source\PSoC4/UART_DEB_UART.c ****         *  Enables usage of CTS input signal by the UART transmitter.
 732:.\Generated_Source\PSoC4/UART_DEB_UART.c ****         *
 733:.\Generated_Source\PSoC4/UART_DEB_UART.c ****         * Parameters:
 734:.\Generated_Source\PSoC4/UART_DEB_UART.c ****         *  None
 735:.\Generated_Source\PSoC4/UART_DEB_UART.c ****         *
 736:.\Generated_Source\PSoC4/UART_DEB_UART.c ****         * Return:
 737:.\Generated_Source\PSoC4/UART_DEB_UART.c ****         *  None
 738:.\Generated_Source\PSoC4/UART_DEB_UART.c ****         *
 739:.\Generated_Source\PSoC4/UART_DEB_UART.c ****         *******************************************************************************/
 740:.\Generated_Source\PSoC4/UART_DEB_UART.c ****         void UART_DEB_UartEnableCts(void)
 741:.\Generated_Source\PSoC4/UART_DEB_UART.c ****         {
 532              		.loc 1 741 0
ARM GAS  C:\Users\mohammed\AppData\Local\Temp\ccQQZNIO.s 			page 24


 533              		.cfi_startproc
 742:.\Generated_Source\PSoC4/UART_DEB_UART.c ****             UART_DEB_UART_FLOW_CTRL_REG |= (uint32)  UART_DEB_UART_FLOW_CTRL_CTS_ENABLE;
 534              		.loc 1 742 0
 535 0000 8021     		mov	r1, #128
 536 0002 034A     		ldr	r2, .L47
 537 0004 8904     		lsl	r1, r1, #18
 538 0006 1368     		ldr	r3, [r2]
 743:.\Generated_Source\PSoC4/UART_DEB_UART.c ****         }
 539              		.loc 1 743 0
 540              		@ sp needed
 742:.\Generated_Source\PSoC4/UART_DEB_UART.c ****             UART_DEB_UART_FLOW_CTRL_REG |= (uint32)  UART_DEB_UART_FLOW_CTRL_CTS_ENABLE;
 541              		.loc 1 742 0
 542 0008 0B43     		orr	r3, r1
 543 000a 1360     		str	r3, [r2]
 544              		.loc 1 743 0
 545 000c 7047     		bx	lr
 546              	.L48:
 547 000e C046     		.align	2
 548              	.L47:
 549 0010 50002440 		.word	1076101200
 550              		.cfi_endproc
 551              	.LFE13:
 552              		.size	UART_DEB_UartEnableCts, .-UART_DEB_UartEnableCts
 553              		.section	.text.UART_DEB_UartDisableCts,"ax",%progbits
 554              		.align	1
 555              		.global	UART_DEB_UartDisableCts
 556              		.code	16
 557              		.thumb_func
 558              		.type	UART_DEB_UartDisableCts, %function
 559              	UART_DEB_UartDisableCts:
 560              	.LFB14:
 744:.\Generated_Source\PSoC4/UART_DEB_UART.c **** 
 745:.\Generated_Source\PSoC4/UART_DEB_UART.c **** 
 746:.\Generated_Source\PSoC4/UART_DEB_UART.c ****         /*******************************************************************************
 747:.\Generated_Source\PSoC4/UART_DEB_UART.c ****         * Function Name: UART_DEB_UartDisableCts
 748:.\Generated_Source\PSoC4/UART_DEB_UART.c ****         ********************************************************************************
 749:.\Generated_Source\PSoC4/UART_DEB_UART.c ****         *
 750:.\Generated_Source\PSoC4/UART_DEB_UART.c ****         * Summary:
 751:.\Generated_Source\PSoC4/UART_DEB_UART.c ****         *  Disables usage of CTS input signal by the UART transmitter.
 752:.\Generated_Source\PSoC4/UART_DEB_UART.c ****         *
 753:.\Generated_Source\PSoC4/UART_DEB_UART.c ****         * Parameters:
 754:.\Generated_Source\PSoC4/UART_DEB_UART.c ****         *  None
 755:.\Generated_Source\PSoC4/UART_DEB_UART.c ****         *
 756:.\Generated_Source\PSoC4/UART_DEB_UART.c ****         * Return:
 757:.\Generated_Source\PSoC4/UART_DEB_UART.c ****         *  None
 758:.\Generated_Source\PSoC4/UART_DEB_UART.c ****         *
 759:.\Generated_Source\PSoC4/UART_DEB_UART.c ****         *******************************************************************************/
 760:.\Generated_Source\PSoC4/UART_DEB_UART.c ****         void UART_DEB_UartDisableCts(void)
 761:.\Generated_Source\PSoC4/UART_DEB_UART.c ****         {
 561              		.loc 1 761 0
 562              		.cfi_startproc
 762:.\Generated_Source\PSoC4/UART_DEB_UART.c ****             UART_DEB_UART_FLOW_CTRL_REG &= (uint32) ~UART_DEB_UART_FLOW_CTRL_CTS_ENABLE;
 563              		.loc 1 762 0
 564 0000 024A     		ldr	r2, .L50
 565 0002 034B     		ldr	r3, .L50+4
 566 0004 1168     		ldr	r1, [r2]
 763:.\Generated_Source\PSoC4/UART_DEB_UART.c ****         }
ARM GAS  C:\Users\mohammed\AppData\Local\Temp\ccQQZNIO.s 			page 25


 567              		.loc 1 763 0
 568              		@ sp needed
 762:.\Generated_Source\PSoC4/UART_DEB_UART.c ****             UART_DEB_UART_FLOW_CTRL_REG &= (uint32) ~UART_DEB_UART_FLOW_CTRL_CTS_ENABLE;
 569              		.loc 1 762 0
 570 0006 0B40     		and	r3, r1
 571 0008 1360     		str	r3, [r2]
 572              		.loc 1 763 0
 573 000a 7047     		bx	lr
 574              	.L51:
 575              		.align	2
 576              	.L50:
 577 000c 50002440 		.word	1076101200
 578 0010 FFFFFFFD 		.word	-33554433
 579              		.cfi_endproc
 580              	.LFE14:
 581              		.size	UART_DEB_UartDisableCts, .-UART_DEB_UartDisableCts
 582              		.section	.text.UART_DEB_UartSetCtsPolarity,"ax",%progbits
 583              		.align	1
 584              		.global	UART_DEB_UartSetCtsPolarity
 585              		.code	16
 586              		.thumb_func
 587              		.type	UART_DEB_UartSetCtsPolarity, %function
 588              	UART_DEB_UartSetCtsPolarity:
 589              	.LFB15:
 764:.\Generated_Source\PSoC4/UART_DEB_UART.c **** 
 765:.\Generated_Source\PSoC4/UART_DEB_UART.c **** 
 766:.\Generated_Source\PSoC4/UART_DEB_UART.c ****         /*******************************************************************************
 767:.\Generated_Source\PSoC4/UART_DEB_UART.c ****         * Function Name: UART_DEB_UartSetCtsPolarity
 768:.\Generated_Source\PSoC4/UART_DEB_UART.c ****         ********************************************************************************
 769:.\Generated_Source\PSoC4/UART_DEB_UART.c ****         *
 770:.\Generated_Source\PSoC4/UART_DEB_UART.c ****         * Summary:
 771:.\Generated_Source\PSoC4/UART_DEB_UART.c ****         *  Sets active polarity of CTS input signal.
 772:.\Generated_Source\PSoC4/UART_DEB_UART.c ****         *
 773:.\Generated_Source\PSoC4/UART_DEB_UART.c ****         * Parameters:
 774:.\Generated_Source\PSoC4/UART_DEB_UART.c ****         *  polarity: Active polarity of CTS output signal.
 775:.\Generated_Source\PSoC4/UART_DEB_UART.c ****         *   UART_DEB_UART_CTS_ACTIVE_LOW  - CTS signal is active low.
 776:.\Generated_Source\PSoC4/UART_DEB_UART.c ****         *   UART_DEB_UART_CTS_ACTIVE_HIGH - CTS signal is active high.
 777:.\Generated_Source\PSoC4/UART_DEB_UART.c ****         *
 778:.\Generated_Source\PSoC4/UART_DEB_UART.c ****         * Return:
 779:.\Generated_Source\PSoC4/UART_DEB_UART.c ****         *  None
 780:.\Generated_Source\PSoC4/UART_DEB_UART.c ****         *
 781:.\Generated_Source\PSoC4/UART_DEB_UART.c ****         *******************************************************************************/
 782:.\Generated_Source\PSoC4/UART_DEB_UART.c ****         void UART_DEB_UartSetCtsPolarity(uint32 polarity)
 783:.\Generated_Source\PSoC4/UART_DEB_UART.c ****         {
 590              		.loc 1 783 0
 591              		.cfi_startproc
 592              	.LVL38:
 593 0000 064B     		ldr	r3, .L56
 784:.\Generated_Source\PSoC4/UART_DEB_UART.c ****             if (0u != polarity)
 594              		.loc 1 784 0
 595 0002 0028     		cmp	r0, #0
 596 0004 04D0     		beq	.L53
 785:.\Generated_Source\PSoC4/UART_DEB_UART.c ****             {
 786:.\Generated_Source\PSoC4/UART_DEB_UART.c ****                 UART_DEB_UART_FLOW_CTRL_REG |= (uint32)  UART_DEB_UART_FLOW_CTRL_CTS_POLARITY;
 597              		.loc 1 786 0
 598 0006 8021     		mov	r1, #128
 599 0008 1A68     		ldr	r2, [r3]
ARM GAS  C:\Users\mohammed\AppData\Local\Temp\ccQQZNIO.s 			page 26


 600 000a 4904     		lsl	r1, r1, #17
 601 000c 0A43     		orr	r2, r1
 602 000e 02E0     		b	.L55
 603              	.L53:
 787:.\Generated_Source\PSoC4/UART_DEB_UART.c ****             }
 788:.\Generated_Source\PSoC4/UART_DEB_UART.c ****             else
 789:.\Generated_Source\PSoC4/UART_DEB_UART.c ****             {
 790:.\Generated_Source\PSoC4/UART_DEB_UART.c ****                 UART_DEB_UART_FLOW_CTRL_REG &= (uint32) ~UART_DEB_UART_FLOW_CTRL_CTS_POLARITY;
 604              		.loc 1 790 0
 605 0010 1968     		ldr	r1, [r3]
 606 0012 034A     		ldr	r2, .L56+4
 607 0014 0A40     		and	r2, r1
 608              	.L55:
 609 0016 1A60     		str	r2, [r3]
 791:.\Generated_Source\PSoC4/UART_DEB_UART.c ****             }
 792:.\Generated_Source\PSoC4/UART_DEB_UART.c ****         }
 610              		.loc 1 792 0
 611              		@ sp needed
 612 0018 7047     		bx	lr
 613              	.L57:
 614 001a C046     		.align	2
 615              	.L56:
 616 001c 50002440 		.word	1076101200
 617 0020 FFFFFFFE 		.word	-16777217
 618              		.cfi_endproc
 619              	.LFE15:
 620              		.size	UART_DEB_UartSetCtsPolarity, .-UART_DEB_UartSetCtsPolarity
 621              		.text
 622              	.Letext0:
 623              		.file 2 "Generated_Source\\PSoC4/cytypes.h"
 624              		.file 3 ".\\Generated_Source\\PSoC4\\UART_DEB_SPI_UART.h"